GAS LISTING /tmp/cc4kZHkY.s 			page 1


   1              		.file	"_new.cpp"
   2              		.option pic
   3              		.option norelax
   4              		.text
   5              	.Ltext0:
   6              		.align	2
   7              		.globl	_Znwm
   9              	_Znwm:
  10              	.LFB29:
  11              		.file 1 "src/_new.cpp"
   1:src/_new.cpp  **** #include "../h/MemoryAllocation.hpp"
   2:src/_new.cpp  **** #include "../h/syscall_c.hpp"
   3:src/_new.cpp  **** 
   4:src/_new.cpp  **** //SVUDA SAM OBRISAO MEMORYALLOCATOR:: JER PRAVIM IZ SISTEMSKIH POZIVA
   5:src/_new.cpp  **** 
   6:src/_new.cpp  **** void *operator new(uint64 n){//promenjeno uint64 u size_t
  12              		.loc 1 6 29
  13              		.cfi_startproc
  14              	.LVL0:
  15 0000 130101FF 		addi	sp,sp,-16
  16              		.cfi_def_cfa_offset 16
  17 0004 23348100 		sd	s0,8(sp)
  18              		.cfi_offset 8, -8
  19 0008 13040101 		addi	s0,sp,16
  20              		.cfi_def_cfa 8, 0
   7:src/_new.cpp  ****     return MemoryAllocation::mem_alloc(MemoryAllocation::bytesToBlocks(n)); //njemu je samo __mem_a
  21              		.loc 1 7 5
  22              	.LVL1:
  23              	.LBB20:
  24              	.LBB21:
  25              		.file 2 "src/../h/MemoryAllocation.hpp"
   1:src/../h/MemoryAllocation.hpp **** #include "../lib/hw.h"
   2:src/../h/MemoryAllocation.hpp **** 
   3:src/../h/MemoryAllocation.hpp **** 
   4:src/../h/MemoryAllocation.hpp **** #ifndef PROJECT_BASE_MEMORYALLOCATION_HPP
   5:src/../h/MemoryAllocation.hpp **** #define PROJECT_BASE_MEMORYALLOCATION_HPP
   6:src/../h/MemoryAllocation.hpp **** 
   7:src/../h/MemoryAllocation.hpp **** 
   8:src/../h/MemoryAllocation.hpp **** class MemoryAllocation {
   9:src/../h/MemoryAllocation.hpp **** 
  10:src/../h/MemoryAllocation.hpp ****     //===========================DEFINICIJA SINGLETON KLASE POCETAK=======================k
  11:src/../h/MemoryAllocation.hpp **** private:
  12:src/../h/MemoryAllocation.hpp **** 
  13:src/../h/MemoryAllocation.hpp ****     struct FreeMem {
  14:src/../h/MemoryAllocation.hpp ****         FreeMem *next;
  15:src/../h/MemoryAllocation.hpp ****         FreeMem *prev;
  16:src/../h/MemoryAllocation.hpp ****         size_t size;
  17:src/../h/MemoryAllocation.hpp ****     };
  18:src/../h/MemoryAllocation.hpp **** 
  19:src/../h/MemoryAllocation.hpp **** 
  20:src/../h/MemoryAllocation.hpp ****     static FreeMem *fmem_head; //koja pocetna vrednost?
  21:src/../h/MemoryAllocation.hpp **** 
  22:src/../h/MemoryAllocation.hpp **** 
  23:src/../h/MemoryAllocation.hpp **** 
  24:src/../h/MemoryAllocation.hpp ****     static MemoryAllocation *instance;
  25:src/../h/MemoryAllocation.hpp ****     int data;
  26:src/../h/MemoryAllocation.hpp **** 
GAS LISTING /tmp/cc4kZHkY.s 			page 2


  27:src/../h/MemoryAllocation.hpp **** 
  28:src/../h/MemoryAllocation.hpp ****     MemoryAllocation() { //OVO SE SADA NIGGDE
  29:src/../h/MemoryAllocation.hpp ****         fmem_head->size = (size_t) ((char *) HEAP_END_ADDR -
  30:src/../h/MemoryAllocation.hpp ****                                     (char *) HEAP_START_ADDR); //da li smem ovo da castujem u size_
  31:src/../h/MemoryAllocation.hpp ****         fmem_head->next = nullptr;
  32:src/../h/MemoryAllocation.hpp ****         fmem_head->prev = nullptr;
  33:src/../h/MemoryAllocation.hpp ****         data = 0;
  34:src/../h/MemoryAllocation.hpp ****     }
  35:src/../h/MemoryAllocation.hpp **** 
  36:src/../h/MemoryAllocation.hpp ****     MemoryAllocation(MemoryAllocation const &);
  37:src/../h/MemoryAllocation.hpp **** 
  38:src/../h/MemoryAllocation.hpp ****     void operator=(MemoryAllocation const &);
  39:src/../h/MemoryAllocation.hpp **** 
  40:src/../h/MemoryAllocation.hpp **** public:
  41:src/../h/MemoryAllocation.hpp **** 
  42:src/../h/MemoryAllocation.hpp **** 
  43:src/../h/MemoryAllocation.hpp ****     static MemoryAllocation *getInstance() {
  44:src/../h/MemoryAllocation.hpp ****         if (!instance) {
  45:src/../h/MemoryAllocation.hpp ****             fmem_head =  (FreeMem*) HEAP_START_ADDR;
  46:src/../h/MemoryAllocation.hpp ****             fmem_head->size = (size_t) ((char *) HEAP_END_ADDR -
  47:src/../h/MemoryAllocation.hpp ****                                         (char *) HEAP_START_ADDR); //da li smem ovo da castujem u s
  48:src/../h/MemoryAllocation.hpp ****             fmem_head->next = nullptr;
  49:src/../h/MemoryAllocation.hpp ****             fmem_head->prev = nullptr;
  50:src/../h/MemoryAllocation.hpp ****             static MemoryAllocation* instance;
  51:src/../h/MemoryAllocation.hpp ****             return instance;
  52:src/../h/MemoryAllocation.hpp ****         }
  53:src/../h/MemoryAllocation.hpp ****         return instance;
  54:src/../h/MemoryAllocation.hpp ****     }
  55:src/../h/MemoryAllocation.hpp **** 
  56:src/../h/MemoryAllocation.hpp **** 
  57:src/../h/MemoryAllocation.hpp ****     int getData() {
  58:src/../h/MemoryAllocation.hpp ****         return this->data;
  59:src/../h/MemoryAllocation.hpp ****     }
  60:src/../h/MemoryAllocation.hpp **** 
  61:src/../h/MemoryAllocation.hpp ****     void setData(int data) {
  62:src/../h/MemoryAllocation.hpp ****         this->data = data;
  63:src/../h/MemoryAllocation.hpp ****     }
  64:src/../h/MemoryAllocation.hpp **** 
  65:src/../h/MemoryAllocation.hpp ****     /*MemoryAllocation(MemoryAllocation const&) = delete;
  66:src/../h/MemoryAllocation.hpp ****     void operator=(MemoryAllocation const&)  = delete;*/
  67:src/../h/MemoryAllocation.hpp **** //===========================DEFINICIJA SINGLETON KLASE KRAJ========================
  68:src/../h/MemoryAllocation.hpp ****     static int bytesToBlocks(size_t size){
  69:src/../h/MemoryAllocation.hpp ****         return (size+sizeof(FreeMem)+MEM_BLOCK_SIZE-1)/MEM_BLOCK_SIZE;
  26              		.loc 2 69 9
  27              		.loc 2 69 52 is_stmt 0
  28 000c 93077505 		addi	a5,a0,87
  29              		.loc 2 69 55
  30 0010 93D76700 		srli	a5,a5,6
  31              		.loc 2 69 56
  32 0014 9B870700 		sext.w	a5,a5
  33              	.LVL2:
  34              	.LBE21:
  35              	.LBE20:
  36              	.LBB22:
  37              	.LBB23:
  70:src/../h/MemoryAllocation.hpp ****     }
  71:src/../h/MemoryAllocation.hpp **** 
GAS LISTING /tmp/cc4kZHkY.s 			page 3


  72:src/../h/MemoryAllocation.hpp **** 
  73:src/../h/MemoryAllocation.hpp **** //===========================METODE ZA ALOKACIJU MEMORIJE===========================
  74:src/../h/MemoryAllocation.hpp ****     static void tryToJoin (FreeMem* curr) {
  75:src/../h/MemoryAllocation.hpp ****         if (!curr) return;
  76:src/../h/MemoryAllocation.hpp ****         if (curr->next && (char*)curr+curr->size == (char*)(curr->next)) {
  77:src/../h/MemoryAllocation.hpp ****         // Remove the cur->next segment:
  78:src/../h/MemoryAllocation.hpp ****             curr->size += curr->next->size;
  79:src/../h/MemoryAllocation.hpp ****             curr->next = curr->next->next;
  80:src/../h/MemoryAllocation.hpp ****             if (curr->next) curr->next->prev = curr;
  81:src/../h/MemoryAllocation.hpp ****             return;
  82:src/../h/MemoryAllocation.hpp ****         }
  83:src/../h/MemoryAllocation.hpp **** 
  84:src/../h/MemoryAllocation.hpp ****     }
  85:src/../h/MemoryAllocation.hpp **** 
  86:src/../h/MemoryAllocation.hpp ****     //===================================== mem_free, ali sa ptr ===============
  87:src/../h/MemoryAllocation.hpp ****         static int mem_free(void* ptr) { //radi i kada posaljem sa &
  88:src/../h/MemoryAllocation.hpp ****         FreeMem* cur=0;
  89:src/../h/MemoryAllocation.hpp ****         if(!fmem_head || ptr < (char*)fmem_head)
  90:src/../h/MemoryAllocation.hpp ****         {
  91:src/../h/MemoryAllocation.hpp ****             cur=nullptr;
  92:src/../h/MemoryAllocation.hpp ****         }else {
  93:src/../h/MemoryAllocation.hpp ****                 for (cur=fmem_head; cur->next!=ptr && ptr>(char*)(cur->next); cur=cur->next); //moz
  94:src/../h/MemoryAllocation.hpp ****             }
  95:src/../h/MemoryAllocation.hpp ****                 FreeMem* newSeg = (FreeMem*)ptr;
  96:src/../h/MemoryAllocation.hpp ****                 newSeg->next=nullptr;
  97:src/../h/MemoryAllocation.hpp ****                 newSeg->prev=nullptr;
  98:src/../h/MemoryAllocation.hpp ****                 newSeg->size=bytesToBlocks(sizeof(ptr))*MEM_BLOCK_SIZE;
  99:src/../h/MemoryAllocation.hpp ****                         //sizeof(ptr);
 100:src/../h/MemoryAllocation.hpp ****                 newSeg->prev=cur;
 101:src/../h/MemoryAllocation.hpp ****                 if(cur) {
 102:src/../h/MemoryAllocation.hpp ****                     newSeg->next = cur->next;
 103:src/../h/MemoryAllocation.hpp ****                 }
 104:src/../h/MemoryAllocation.hpp ****                 else {
 105:src/../h/MemoryAllocation.hpp ****                     newSeg->next = fmem_head;
 106:src/../h/MemoryAllocation.hpp ****                 }
 107:src/../h/MemoryAllocation.hpp ****                 if(newSeg->next) {
 108:src/../h/MemoryAllocation.hpp ****                     newSeg->next->prev=newSeg;
 109:src/../h/MemoryAllocation.hpp ****                 }
 110:src/../h/MemoryAllocation.hpp ****                 if (cur) {
 111:src/../h/MemoryAllocation.hpp ****                     cur->next = newSeg; //zasto ovde odjednom uzme vrednost x8000 umesto x8000f...?
 112:src/../h/MemoryAllocation.hpp ****                 }
 113:src/../h/MemoryAllocation.hpp ****                 else {
 114:src/../h/MemoryAllocation.hpp ****                     fmem_head = newSeg;
 115:src/../h/MemoryAllocation.hpp ****                 }
 116:src/../h/MemoryAllocation.hpp ****                 // Try to merge with the previous and next segments:
 117:src/../h/MemoryAllocation.hpp ****             tryToJoin(newSeg);
 118:src/../h/MemoryAllocation.hpp ****             tryToJoin(cur);
 119:src/../h/MemoryAllocation.hpp ****             //mozda da fmem_head nije jednako starom fmem_headu?
 120:src/../h/MemoryAllocation.hpp ****             if(newSeg==nullptr){
 121:src/../h/MemoryAllocation.hpp ****                 return -1;
 122:src/../h/MemoryAllocation.hpp ****             }else{return 0;}
 123:src/../h/MemoryAllocation.hpp **** 
 124:src/../h/MemoryAllocation.hpp **** 
 125:src/../h/MemoryAllocation.hpp ****     }
 126:src/../h/MemoryAllocation.hpp ****     //===================================== kraj probe ==========================
 127:src/../h/MemoryAllocation.hpp **** 
 128:src/../h/MemoryAllocation.hpp **** 
GAS LISTING /tmp/cc4kZHkY.s 			page 4


 129:src/../h/MemoryAllocation.hpp **** 
 130:src/../h/MemoryAllocation.hpp ****     /*int mem_free(char* addr, size_t size) {
 131:src/../h/MemoryAllocation.hpp ****         // Find the place where to insert the new free segment (just after cur):
 132:src/../h/MemoryAllocation.hpp ****         FreeMem* cur=0;
 133:src/../h/MemoryAllocation.hpp ****         if (!fmem_head || addr<(char*)fmem_head)
 134:src/../h/MemoryAllocation.hpp ****             cur = 0; // insert as the first
 135:src/../h/MemoryAllocation.hpp ****         else
 136:src/../h/MemoryAllocation.hpp ****             for (cur=fmem_head; cur->next!=0 && addr>(char*)(cur->next);
 137:src/../h/MemoryAllocation.hpp ****                  cur=cur->next);
 138:src/../h/MemoryAllocation.hpp ****             // Insert the new segment after cur:
 139:src/../h/MemoryAllocation.hpp ****         FreeMem* newSeg = (FreeMem*)addr;
 140:src/../h/MemoryAllocation.hpp ****         newSeg->size = size;
 141:src/../h/MemoryAllocation.hpp ****         newSeg->prev = cur;
 142:src/../h/MemoryAllocation.hpp ****         if (cur) newSeg->next = cur->next;
 143:src/../h/MemoryAllocation.hpp ****         else newSeg->next = fmem_head;
 144:src/../h/MemoryAllocation.hpp ****         if (newSeg->next) newSeg->next->prev = newSeg;
 145:src/../h/MemoryAllocation.hpp ****         if (cur) cur->next = newSeg;
 146:src/../h/MemoryAllocation.hpp ****         else fmem_head = newSeg;
 147:src/../h/MemoryAllocation.hpp ****             // Try to merge with the previous and next segments:
 148:src/../h/MemoryAllocation.hpp ****         tryToJoin(newSeg);
 149:src/../h/MemoryAllocation.hpp ****         tryToJoin(cur);
 150:src/../h/MemoryAllocation.hpp ****     }*/
 151:src/../h/MemoryAllocation.hpp **** 
 152:src/../h/MemoryAllocation.hpp ****     static void* mem_alloc(size_t size) {//uopste ne radi, iako u lotsofsmallmallocs pise da radi
 153:src/../h/MemoryAllocation.hpp ****         //size_t x=sizeof(fmem_head);
 154:src/../h/MemoryAllocation.hpp ****         //pozovi ovde samo bytes to blocks od size, da ne moras to da radis iz maina
 155:src/../h/MemoryAllocation.hpp ****         size=(size)*(size_t)MEM_BLOCK_SIZE; //kada je ovo ukljuceno, pravi problem u memfree, so il
  38              		.loc 2 155 9 is_stmt 1
  39              		.loc 2 155 13 is_stmt 0
  40 0018 93976700 		slli	a5,a5,6
  41              	.LVL3:
 156:src/../h/MemoryAllocation.hpp ****         for (FreeMem* cur = fmem_head; cur != nullptr; cur=cur->next){ // U DRUGOJ ITERACIJI FMEM_H
  42              		.loc 2 156 9 is_stmt 1
  43              	.LBB24:
  44              		.loc 2 156 23 is_stmt 0
  45 001c 17070000 		la	a4,_ZN16MemoryAllocation9fmem_headE
  45      03370700 
  46 0024 03350700 		ld	a0,0(a4)
  47              	.LVL4:
  48              	.L3:
  49              		.loc 2 156 44 is_stmt 1
  50 0028 6308050C 		beqz	a0,.L1
  51              	.LBB25:
 157:src/../h/MemoryAllocation.hpp ****             cur->next=fmem_head->next;
  52              		.loc 2 157 13
  53              		.loc 2 157 34 is_stmt 0
  54 002c 17070000 		la	a4,_ZN16MemoryAllocation9fmem_headE
  54      03370700 
  55 0034 83360700 		ld	a3,0(a4)
  56 0038 83B60600 		ld	a3,0(a3)
  57              		.loc 2 157 22
  58 003c 2330D500 		sd	a3,0(a0)
 158:src/../h/MemoryAllocation.hpp ****             cur->prev=fmem_head->prev;
  59              		.loc 2 158 13 is_stmt 1
  60              		.loc 2 158 34 is_stmt 0
  61 0040 03370700 		ld	a4,0(a4)
  62 0044 03368700 		ld	a2,8(a4)
GAS LISTING /tmp/cc4kZHkY.s 			page 5


  63              		.loc 2 158 22
  64 0048 2334C500 		sd	a2,8(a0)
 159:src/../h/MemoryAllocation.hpp ****             if (cur->size<size) continue;
  65              		.loc 2 159 13 is_stmt 1
  66              		.loc 2 159 22 is_stmt 0
  67 004c 03370501 		ld	a4,16(a0)
  68              		.loc 2 159 13
  69 0050 6366F702 		bgtu	a5,a4,.L11
 160:src/../h/MemoryAllocation.hpp ****             if (cur->size-size<=sizeof(FreeMem)){
  70              		.loc 2 160 13 is_stmt 1
  71              	.LBB26:
  72              		.loc 2 160 26 is_stmt 0
  73 0054 3307F740 		sub	a4,a4,a5
  74              		.loc 2 160 13
  75 0058 93058001 		li	a1,24
  76 005c 63ECE502 		bgtu	a4,a1,.L4
 161:src/../h/MemoryAllocation.hpp ****                 if (cur->prev) cur->prev->next = cur->next;
  77              		.loc 2 161 17 is_stmt 1
  78 0060 63020602 		beqz	a2,.L5
  79              		.loc 2 161 32
  80              		.loc 2 161 48 is_stmt 0
  81 0064 2330D600 		sd	a3,0(a2)
  82              	.LVL5:
  83              	.L6:
 162:src/../h/MemoryAllocation.hpp ****                 else fmem_head = cur->next;
 163:src/../h/MemoryAllocation.hpp ****                 if (cur->next) cur->next->prev = cur->prev;
  84              		.loc 2 163 17 is_stmt 1
  85              		.loc 2 163 26 is_stmt 0
  86 0068 83370500 		ld	a5,0(a0)
  87              		.loc 2 163 17
  88 006c 63860708 		beqz	a5,.L1
  89              		.loc 2 163 32 is_stmt 1
  90              		.loc 2 163 55 is_stmt 0
  91 0070 03378500 		ld	a4,8(a0)
  92              		.loc 2 163 48
  93 0074 23B4E700 		sd	a4,8(a5)
 164:src/../h/MemoryAllocation.hpp ****                 return cur;
  94              		.loc 2 164 17 is_stmt 1
  95              		.loc 2 164 24 is_stmt 0
  96 0078 6F000008 		j	.L1
  97              	.LVL6:
  98              	.L11:
  99              	.LBE26:
 100              	.LBE25:
 156:src/../h/MemoryAllocation.hpp ****             cur->next=fmem_head->next;
 101              		.loc 2 156 59
 102 007c 13850600 		mv	a0,a3
 103              	.LVL7:
 104 0080 6FF09FFA 		j	.L3
 105              	.LVL8:
 106              	.L5:
 107              	.LBB31:
 108              	.LBB29:
 162:src/../h/MemoryAllocation.hpp ****                 else fmem_head = cur->next;
 109              		.loc 2 162 22 is_stmt 1
 162:src/../h/MemoryAllocation.hpp ****                 else fmem_head = cur->next;
 110              		.loc 2 162 32 is_stmt 0
GAS LISTING /tmp/cc4kZHkY.s 			page 6


 111 0084 97070000 		la	a5,_ZN16MemoryAllocation9fmem_headE
 111      83B70700 
 112              	.LVL9:
 113 008c 23B0D700 		sd	a3,0(a5)
 114 0090 6FF09FFD 		j	.L6
 115              	.LVL10:
 116              	.L4:
 117              	.LBB27:
 165:src/../h/MemoryAllocation.hpp ****             }else {
 166:src/../h/MemoryAllocation.hpp ****                 FreeMem* newfrgm = (FreeMem*)((char*)cur+size);
 118              		.loc 2 166 17 is_stmt 1
 119              		.loc 2 166 26 is_stmt 0
 120 0094 3307F500 		add	a4,a0,a5
 121              	.LVL11:
 167:src/../h/MemoryAllocation.hpp ****                 newfrgm->prev=nullptr;
 122              		.loc 2 167 17 is_stmt 1
 123              		.loc 2 167 30 is_stmt 0
 124 0098 23340700 		sd	zero,8(a4)
 168:src/../h/MemoryAllocation.hpp ****                 newfrgm->next=nullptr;
 125              		.loc 2 168 17 is_stmt 1
 126              		.loc 2 168 30 is_stmt 0
 127 009c 23300700 		sd	zero,0(a4)
 169:src/../h/MemoryAllocation.hpp ****                 //newfrgm->size=cur->size-size;// DODATO TOKOM PROBE NITI
 170:src/../h/MemoryAllocation.hpp ****                 if (cur && cur->prev) cur->prev->next = newfrgm;
 128              		.loc 2 170 17 is_stmt 1
 129              		.loc 2 170 33 is_stmt 0
 130 00a0 83368500 		ld	a3,8(a0)
 131              		.loc 2 170 25
 132 00a4 63800606 		beqz	a3,.L8
 133              		.loc 2 170 39 is_stmt 1
 134              		.loc 2 170 55 is_stmt 0
 135 00a8 23B0E600 		sd	a4,0(a3)
 136              	.L9:
 171:src/../h/MemoryAllocation.hpp ****                 else fmem_head = newfrgm+sizeof(fmem_head); // ovo sam dodao sizeof da bi mi radio 
 172:src/../h/MemoryAllocation.hpp ****                 if (cur && cur->next) cur->next->prev = newfrgm;
 137              		.loc 2 172 17 is_stmt 1
 138              		.loc 2 172 33 is_stmt 0
 139 00ac 83360500 		ld	a3,0(a0)
 140              		.loc 2 172 25
 141 00b0 63840600 		beqz	a3,.L10
 142              		.loc 2 172 39 is_stmt 1
 143              		.loc 2 172 55 is_stmt 0
 144 00b4 23B4E600 		sd	a4,8(a3)
 145              	.L10:
 173:src/../h/MemoryAllocation.hpp ****                 newfrgm->prev = cur->prev;
 146              		.loc 2 173 17 is_stmt 1
 147              		.loc 2 173 38 is_stmt 0
 148 00b8 03368500 		ld	a2,8(a0)
 149              		.loc 2 173 31
 150 00bc 2334C700 		sd	a2,8(a4)
 174:src/../h/MemoryAllocation.hpp ****                 newfrgm->next = cur->next;
 151              		.loc 2 174 17 is_stmt 1
 152              		.loc 2 174 38 is_stmt 0
 153 00c0 83360500 		ld	a3,0(a0)
 154              		.loc 2 174 31
 155 00c4 2330D700 		sd	a3,0(a4)
 175:src/../h/MemoryAllocation.hpp ****                 newfrgm->size = cur->size-size;
GAS LISTING /tmp/cc4kZHkY.s 			page 7


 156              		.loc 2 175 17 is_stmt 1
 157              		.loc 2 175 38 is_stmt 0
 158 00c8 83360501 		ld	a3,16(a0)
 159              		.loc 2 175 42
 160 00cc B387F640 		sub	a5,a3,a5
 161              	.LVL12:
 162              		.loc 2 175 31
 163 00d0 2338F700 		sd	a5,16(a4)
 176:src/../h/MemoryAllocation.hpp ****                 fmem_head =newfrgm+sizeof(fmem_head);
 164              		.loc 2 176 17 is_stmt 1
 165              		.loc 2 176 35 is_stmt 0
 166 00d4 9306070C 		addi	a3,a4,192
 167              		.loc 2 176 27
 168 00d8 97050000 		la	a1,_ZN16MemoryAllocation9fmem_headE
 168      83B50500 
 169 00e0 23B0D500 		sd	a3,0(a1)
 177:src/../h/MemoryAllocation.hpp ****                 fmem_head->next=newfrgm->next;
 170              		.loc 2 177 17 is_stmt 1
 171              		.loc 2 177 42 is_stmt 0
 172 00e4 83350700 		ld	a1,0(a4)
 173              		.loc 2 177 32
 174 00e8 2330B70C 		sd	a1,192(a4)
 178:src/../h/MemoryAllocation.hpp ****                 fmem_head->prev=newfrgm->prev;
 175              		.loc 2 178 17 is_stmt 1
 176              		.loc 2 178 32 is_stmt 0
 177 00ec 2334C70C 		sd	a2,200(a4)
 179:src/../h/MemoryAllocation.hpp ****                 fmem_head->size=newfrgm->size;
 178              		.loc 2 179 17 is_stmt 1
 179              		.loc 2 179 32 is_stmt 0
 180 00f0 2338F70C 		sd	a5,208(a4)
 180:src/../h/MemoryAllocation.hpp ****                 //fmem_head = (FreeMem*) (char*)newfrgm;
 181:src/../h/MemoryAllocation.hpp ****                 return newfrgm;
 181              		.loc 2 181 17 is_stmt 1
 182              		.loc 2 181 24 is_stmt 0
 183 00f4 13050700 		mv	a0,a4
 184              	.LVL13:
 185              	.L1:
 186              	.LBE27:
 187              	.LBE29:
 188              	.LBE31:
 189              	.LBE24:
 190              	.LBE23:
 191              	.LBE22:
   8:src/_new.cpp  ****     //return __mem_alloc(n);
   9:src/_new.cpp  **** }
 192              		.loc 1 9 1
 193 00f8 03348100 		ld	s0,8(sp)
 194              		.cfi_remember_state
 195              		.cfi_restore 8
 196              		.cfi_def_cfa 2, 16
 197 00fc 13010101 		addi	sp,sp,16
 198              		.cfi_def_cfa_offset 0
 199 0100 67800000 		jr	ra
 200              	.LVL14:
 201              	.L8:
 202              		.cfi_restore_state
 203              	.LBB35:
GAS LISTING /tmp/cc4kZHkY.s 			page 8


 204              	.LBB34:
 205              	.LBB33:
 206              	.LBB32:
 207              	.LBB30:
 208              	.LBB28:
 171:src/../h/MemoryAllocation.hpp ****                 if (cur && cur->next) cur->next->prev = newfrgm;
 209              		.loc 2 171 22 is_stmt 1
 171:src/../h/MemoryAllocation.hpp ****                 if (cur && cur->next) cur->next->prev = newfrgm;
 210              		.loc 2 171 41 is_stmt 0
 211 0104 9306070C 		addi	a3,a4,192
 171:src/../h/MemoryAllocation.hpp ****                 if (cur && cur->next) cur->next->prev = newfrgm;
 212              		.loc 2 171 32
 213 0108 17060000 		la	a2,_ZN16MemoryAllocation9fmem_headE
 213      03360600 
 214 0110 2330D600 		sd	a3,0(a2)
 215 0114 6FF09FF9 		j	.L9
 216              	.LBE28:
 217              	.LBE30:
 218              	.LBE32:
 219              	.LBE33:
 220              	.LBE34:
 221              	.LBE35:
 222              		.cfi_endproc
 223              	.LFE29:
 225              		.align	2
 226              		.globl	_Znam
 228              	_Znam:
 229              	.LFB30:
  10:src/_new.cpp  **** 
  11:src/_new.cpp  **** void *operator new[](uint64 n){
 230              		.loc 1 11 31 is_stmt 1
 231              		.cfi_startproc
 232              	.LVL15:
 233 0118 130101FF 		addi	sp,sp,-16
 234              		.cfi_def_cfa_offset 16
 235 011c 23348100 		sd	s0,8(sp)
 236              		.cfi_offset 8, -8
 237 0120 13040101 		addi	s0,sp,16
 238              		.cfi_def_cfa 8, 0
  12:src/_new.cpp  ****     return MemoryAllocation::mem_alloc(MemoryAllocation::bytesToBlocks(n));
 239              		.loc 1 12 5
 240              	.LVL16:
 241              	.LBB44:
 242              	.LBB45:
  69:src/../h/MemoryAllocation.hpp ****     }
 243              		.loc 2 69 9
  69:src/../h/MemoryAllocation.hpp ****     }
 244              		.loc 2 69 52 is_stmt 0
 245 0124 93077505 		addi	a5,a0,87
  69:src/../h/MemoryAllocation.hpp ****     }
 246              		.loc 2 69 55
 247 0128 93D76700 		srli	a5,a5,6
  69:src/../h/MemoryAllocation.hpp ****     }
 248              		.loc 2 69 56
 249 012c 9B870700 		sext.w	a5,a5
 250              	.LVL17:
 251              	.LBE45:
GAS LISTING /tmp/cc4kZHkY.s 			page 9


 252              	.LBE44:
 253              	.LBB46:
 254              	.LBB47:
 155:src/../h/MemoryAllocation.hpp ****         for (FreeMem* cur = fmem_head; cur != nullptr; cur=cur->next){ // U DRUGOJ ITERACIJI FMEM_H
 255              		.loc 2 155 9 is_stmt 1
 155:src/../h/MemoryAllocation.hpp ****         for (FreeMem* cur = fmem_head; cur != nullptr; cur=cur->next){ // U DRUGOJ ITERACIJI FMEM_H
 256              		.loc 2 155 13 is_stmt 0
 257 0130 93976700 		slli	a5,a5,6
 258              	.LVL18:
 156:src/../h/MemoryAllocation.hpp ****             cur->next=fmem_head->next;
 259              		.loc 2 156 9 is_stmt 1
 260              	.LBB48:
 156:src/../h/MemoryAllocation.hpp ****             cur->next=fmem_head->next;
 261              		.loc 2 156 23 is_stmt 0
 262 0134 17070000 		la	a4,_ZN16MemoryAllocation9fmem_headE
 262      03370700 
 263 013c 03350700 		ld	a0,0(a4)
 264              	.LVL19:
 265              	.L15:
 156:src/../h/MemoryAllocation.hpp ****             cur->next=fmem_head->next;
 266              		.loc 2 156 44 is_stmt 1
 267 0140 6308050C 		beqz	a0,.L13
 268              	.LBB49:
 157:src/../h/MemoryAllocation.hpp ****             cur->prev=fmem_head->prev;
 269              		.loc 2 157 13
 157:src/../h/MemoryAllocation.hpp ****             cur->prev=fmem_head->prev;
 270              		.loc 2 157 34 is_stmt 0
 271 0144 17070000 		la	a4,_ZN16MemoryAllocation9fmem_headE
 271      03370700 
 272 014c 83360700 		ld	a3,0(a4)
 273 0150 83B60600 		ld	a3,0(a3)
 157:src/../h/MemoryAllocation.hpp ****             cur->prev=fmem_head->prev;
 274              		.loc 2 157 22
 275 0154 2330D500 		sd	a3,0(a0)
 158:src/../h/MemoryAllocation.hpp ****             if (cur->size<size) continue;
 276              		.loc 2 158 13 is_stmt 1
 158:src/../h/MemoryAllocation.hpp ****             if (cur->size<size) continue;
 277              		.loc 2 158 34 is_stmt 0
 278 0158 03370700 		ld	a4,0(a4)
 279 015c 03368700 		ld	a2,8(a4)
 158:src/../h/MemoryAllocation.hpp ****             if (cur->size<size) continue;
 280              		.loc 2 158 22
 281 0160 2334C500 		sd	a2,8(a0)
 159:src/../h/MemoryAllocation.hpp ****             if (cur->size-size<=sizeof(FreeMem)){
 282              		.loc 2 159 13 is_stmt 1
 159:src/../h/MemoryAllocation.hpp ****             if (cur->size-size<=sizeof(FreeMem)){
 283              		.loc 2 159 22 is_stmt 0
 284 0164 03370501 		ld	a4,16(a0)
 159:src/../h/MemoryAllocation.hpp ****             if (cur->size-size<=sizeof(FreeMem)){
 285              		.loc 2 159 13
 286 0168 6366F702 		bgtu	a5,a4,.L23
 160:src/../h/MemoryAllocation.hpp ****                 if (cur->prev) cur->prev->next = cur->next;
 287              		.loc 2 160 13 is_stmt 1
 288              	.LBB50:
 160:src/../h/MemoryAllocation.hpp ****                 if (cur->prev) cur->prev->next = cur->next;
 289              		.loc 2 160 26 is_stmt 0
 290 016c 3307F740 		sub	a4,a4,a5
GAS LISTING /tmp/cc4kZHkY.s 			page 10


 160:src/../h/MemoryAllocation.hpp ****                 if (cur->prev) cur->prev->next = cur->next;
 291              		.loc 2 160 13
 292 0170 93058001 		li	a1,24
 293 0174 63ECE502 		bgtu	a4,a1,.L16
 161:src/../h/MemoryAllocation.hpp ****                 else fmem_head = cur->next;
 294              		.loc 2 161 17 is_stmt 1
 295 0178 63020602 		beqz	a2,.L17
 161:src/../h/MemoryAllocation.hpp ****                 else fmem_head = cur->next;
 296              		.loc 2 161 32
 161:src/../h/MemoryAllocation.hpp ****                 else fmem_head = cur->next;
 297              		.loc 2 161 48 is_stmt 0
 298 017c 2330D600 		sd	a3,0(a2)
 299              	.LVL20:
 300              	.L18:
 163:src/../h/MemoryAllocation.hpp ****                 return cur;
 301              		.loc 2 163 17 is_stmt 1
 163:src/../h/MemoryAllocation.hpp ****                 return cur;
 302              		.loc 2 163 26 is_stmt 0
 303 0180 83370500 		ld	a5,0(a0)
 163:src/../h/MemoryAllocation.hpp ****                 return cur;
 304              		.loc 2 163 17
 305 0184 63860708 		beqz	a5,.L13
 163:src/../h/MemoryAllocation.hpp ****                 return cur;
 306              		.loc 2 163 32 is_stmt 1
 163:src/../h/MemoryAllocation.hpp ****                 return cur;
 307              		.loc 2 163 55 is_stmt 0
 308 0188 03378500 		ld	a4,8(a0)
 163:src/../h/MemoryAllocation.hpp ****                 return cur;
 309              		.loc 2 163 48
 310 018c 23B4E700 		sd	a4,8(a5)
 164:src/../h/MemoryAllocation.hpp ****             }else {
 311              		.loc 2 164 17 is_stmt 1
 164:src/../h/MemoryAllocation.hpp ****             }else {
 312              		.loc 2 164 24 is_stmt 0
 313 0190 6F000008 		j	.L13
 314              	.LVL21:
 315              	.L23:
 316              	.LBE50:
 317              	.LBE49:
 156:src/../h/MemoryAllocation.hpp ****             cur->next=fmem_head->next;
 318              		.loc 2 156 59
 319 0194 13850600 		mv	a0,a3
 320              	.LVL22:
 321 0198 6FF09FFA 		j	.L15
 322              	.LVL23:
 323              	.L17:
 324              	.LBB55:
 325              	.LBB53:
 162:src/../h/MemoryAllocation.hpp ****                 if (cur->next) cur->next->prev = cur->prev;
 326              		.loc 2 162 22 is_stmt 1
 162:src/../h/MemoryAllocation.hpp ****                 if (cur->next) cur->next->prev = cur->prev;
 327              		.loc 2 162 32 is_stmt 0
 328 019c 97070000 		la	a5,_ZN16MemoryAllocation9fmem_headE
 328      83B70700 
 329              	.LVL24:
 330 01a4 23B0D700 		sd	a3,0(a5)
 331 01a8 6FF09FFD 		j	.L18
GAS LISTING /tmp/cc4kZHkY.s 			page 11


 332              	.LVL25:
 333              	.L16:
 334              	.LBB51:
 166:src/../h/MemoryAllocation.hpp ****                 newfrgm->prev=nullptr;
 335              		.loc 2 166 17 is_stmt 1
 166:src/../h/MemoryAllocation.hpp ****                 newfrgm->prev=nullptr;
 336              		.loc 2 166 26 is_stmt 0
 337 01ac 3307F500 		add	a4,a0,a5
 338              	.LVL26:
 167:src/../h/MemoryAllocation.hpp ****                 newfrgm->next=nullptr;
 339              		.loc 2 167 17 is_stmt 1
 167:src/../h/MemoryAllocation.hpp ****                 newfrgm->next=nullptr;
 340              		.loc 2 167 30 is_stmt 0
 341 01b0 23340700 		sd	zero,8(a4)
 168:src/../h/MemoryAllocation.hpp ****                 //newfrgm->size=cur->size-size;// DODATO TOKOM PROBE NITI
 342              		.loc 2 168 17 is_stmt 1
 168:src/../h/MemoryAllocation.hpp ****                 //newfrgm->size=cur->size-size;// DODATO TOKOM PROBE NITI
 343              		.loc 2 168 30 is_stmt 0
 344 01b4 23300700 		sd	zero,0(a4)
 170:src/../h/MemoryAllocation.hpp ****                 else fmem_head = newfrgm+sizeof(fmem_head); // ovo sam dodao sizeof da bi mi radio 
 345              		.loc 2 170 17 is_stmt 1
 170:src/../h/MemoryAllocation.hpp ****                 else fmem_head = newfrgm+sizeof(fmem_head); // ovo sam dodao sizeof da bi mi radio 
 346              		.loc 2 170 33 is_stmt 0
 347 01b8 83368500 		ld	a3,8(a0)
 170:src/../h/MemoryAllocation.hpp ****                 else fmem_head = newfrgm+sizeof(fmem_head); // ovo sam dodao sizeof da bi mi radio 
 348              		.loc 2 170 25
 349 01bc 63800606 		beqz	a3,.L20
 170:src/../h/MemoryAllocation.hpp ****                 else fmem_head = newfrgm+sizeof(fmem_head); // ovo sam dodao sizeof da bi mi radio 
 350              		.loc 2 170 39 is_stmt 1
 170:src/../h/MemoryAllocation.hpp ****                 else fmem_head = newfrgm+sizeof(fmem_head); // ovo sam dodao sizeof da bi mi radio 
 351              		.loc 2 170 55 is_stmt 0
 352 01c0 23B0E600 		sd	a4,0(a3)
 353              	.L21:
 172:src/../h/MemoryAllocation.hpp ****                 newfrgm->prev = cur->prev;
 354              		.loc 2 172 17 is_stmt 1
 172:src/../h/MemoryAllocation.hpp ****                 newfrgm->prev = cur->prev;
 355              		.loc 2 172 33 is_stmt 0
 356 01c4 83360500 		ld	a3,0(a0)
 172:src/../h/MemoryAllocation.hpp ****                 newfrgm->prev = cur->prev;
 357              		.loc 2 172 25
 358 01c8 63840600 		beqz	a3,.L22
 172:src/../h/MemoryAllocation.hpp ****                 newfrgm->prev = cur->prev;
 359              		.loc 2 172 39 is_stmt 1
 172:src/../h/MemoryAllocation.hpp ****                 newfrgm->prev = cur->prev;
 360              		.loc 2 172 55 is_stmt 0
 361 01cc 23B4E600 		sd	a4,8(a3)
 362              	.L22:
 173:src/../h/MemoryAllocation.hpp ****                 newfrgm->next = cur->next;
 363              		.loc 2 173 17 is_stmt 1
 173:src/../h/MemoryAllocation.hpp ****                 newfrgm->next = cur->next;
 364              		.loc 2 173 38 is_stmt 0
 365 01d0 03368500 		ld	a2,8(a0)
 173:src/../h/MemoryAllocation.hpp ****                 newfrgm->next = cur->next;
 366              		.loc 2 173 31
 367 01d4 2334C700 		sd	a2,8(a4)
 174:src/../h/MemoryAllocation.hpp ****                 newfrgm->size = cur->size-size;
 368              		.loc 2 174 17 is_stmt 1
GAS LISTING /tmp/cc4kZHkY.s 			page 12


 174:src/../h/MemoryAllocation.hpp ****                 newfrgm->size = cur->size-size;
 369              		.loc 2 174 38 is_stmt 0
 370 01d8 83360500 		ld	a3,0(a0)
 174:src/../h/MemoryAllocation.hpp ****                 newfrgm->size = cur->size-size;
 371              		.loc 2 174 31
 372 01dc 2330D700 		sd	a3,0(a4)
 175:src/../h/MemoryAllocation.hpp ****                 fmem_head =newfrgm+sizeof(fmem_head);
 373              		.loc 2 175 17 is_stmt 1
 175:src/../h/MemoryAllocation.hpp ****                 fmem_head =newfrgm+sizeof(fmem_head);
 374              		.loc 2 175 38 is_stmt 0
 375 01e0 83360501 		ld	a3,16(a0)
 175:src/../h/MemoryAllocation.hpp ****                 fmem_head =newfrgm+sizeof(fmem_head);
 376              		.loc 2 175 42
 377 01e4 B387F640 		sub	a5,a3,a5
 378              	.LVL27:
 175:src/../h/MemoryAllocation.hpp ****                 fmem_head =newfrgm+sizeof(fmem_head);
 379              		.loc 2 175 31
 380 01e8 2338F700 		sd	a5,16(a4)
 176:src/../h/MemoryAllocation.hpp ****                 fmem_head->next=newfrgm->next;
 381              		.loc 2 176 17 is_stmt 1
 176:src/../h/MemoryAllocation.hpp ****                 fmem_head->next=newfrgm->next;
 382              		.loc 2 176 35 is_stmt 0
 383 01ec 9306070C 		addi	a3,a4,192
 176:src/../h/MemoryAllocation.hpp ****                 fmem_head->next=newfrgm->next;
 384              		.loc 2 176 27
 385 01f0 97050000 		la	a1,_ZN16MemoryAllocation9fmem_headE
 385      83B50500 
 386 01f8 23B0D500 		sd	a3,0(a1)
 177:src/../h/MemoryAllocation.hpp ****                 fmem_head->prev=newfrgm->prev;
 387              		.loc 2 177 17 is_stmt 1
 177:src/../h/MemoryAllocation.hpp ****                 fmem_head->prev=newfrgm->prev;
 388              		.loc 2 177 42 is_stmt 0
 389 01fc 83350700 		ld	a1,0(a4)
 177:src/../h/MemoryAllocation.hpp ****                 fmem_head->prev=newfrgm->prev;
 390              		.loc 2 177 32
 391 0200 2330B70C 		sd	a1,192(a4)
 178:src/../h/MemoryAllocation.hpp ****                 fmem_head->size=newfrgm->size;
 392              		.loc 2 178 17 is_stmt 1
 178:src/../h/MemoryAllocation.hpp ****                 fmem_head->size=newfrgm->size;
 393              		.loc 2 178 32 is_stmt 0
 394 0204 2334C70C 		sd	a2,200(a4)
 179:src/../h/MemoryAllocation.hpp ****                 //fmem_head = (FreeMem*) (char*)newfrgm;
 395              		.loc 2 179 17 is_stmt 1
 179:src/../h/MemoryAllocation.hpp ****                 //fmem_head = (FreeMem*) (char*)newfrgm;
 396              		.loc 2 179 32 is_stmt 0
 397 0208 2338F70C 		sd	a5,208(a4)
 398              		.loc 2 181 17 is_stmt 1
 399              		.loc 2 181 24 is_stmt 0
 400 020c 13050700 		mv	a0,a4
 401              	.LVL28:
 402              	.L13:
 403              	.LBE51:
 404              	.LBE53:
 405              	.LBE55:
 406              	.LBE48:
 407              	.LBE47:
 408              	.LBE46:
GAS LISTING /tmp/cc4kZHkY.s 			page 13


  13:src/_new.cpp  ****     //return __mem_alloc(n);
  14:src/_new.cpp  **** }
 409              		.loc 1 14 1
 410 0210 03348100 		ld	s0,8(sp)
 411              		.cfi_remember_state
 412              		.cfi_restore 8
 413              		.cfi_def_cfa 2, 16
 414 0214 13010101 		addi	sp,sp,16
 415              		.cfi_def_cfa_offset 0
 416 0218 67800000 		jr	ra
 417              	.LVL29:
 418              	.L20:
 419              		.cfi_restore_state
 420              	.LBB59:
 421              	.LBB58:
 422              	.LBB57:
 423              	.LBB56:
 424              	.LBB54:
 425              	.LBB52:
 171:src/../h/MemoryAllocation.hpp ****                 if (cur && cur->next) cur->next->prev = newfrgm;
 426              		.loc 2 171 22 is_stmt 1
 171:src/../h/MemoryAllocation.hpp ****                 if (cur && cur->next) cur->next->prev = newfrgm;
 427              		.loc 2 171 41 is_stmt 0
 428 021c 9306070C 		addi	a3,a4,192
 171:src/../h/MemoryAllocation.hpp ****                 if (cur && cur->next) cur->next->prev = newfrgm;
 429              		.loc 2 171 32
 430 0220 17060000 		la	a2,_ZN16MemoryAllocation9fmem_headE
 430      03360600 
 431 0228 2330D600 		sd	a3,0(a2)
 432 022c 6FF09FF9 		j	.L21
 433              	.LBE52:
 434              	.LBE54:
 435              	.LBE56:
 436              	.LBE57:
 437              	.LBE58:
 438              	.LBE59:
 439              		.cfi_endproc
 440              	.LFE30:
 442              		.align	2
 443              		.globl	_ZdlPv
 445              	_ZdlPv:
 446              	.LFB31:
  15:src/_new.cpp  **** 
  16:src/_new.cpp  **** void operator delete(void *p) noexcept {
 447              		.loc 1 16 40 is_stmt 1
 448              		.cfi_startproc
 449              	.LVL30:
 450 0230 130101FF 		addi	sp,sp,-16
 451              		.cfi_def_cfa_offset 16
 452 0234 23348100 		sd	s0,8(sp)
 453              		.cfi_offset 8, -8
 454 0238 13040101 		addi	s0,sp,16
 455              		.cfi_def_cfa 8, 0
  17:src/_new.cpp  ****     MemoryAllocation::mem_free(p);
 456              		.loc 1 17 5
 457              	.LVL31:
 458              	.LBB66:
GAS LISTING /tmp/cc4kZHkY.s 			page 14


 459              	.LBB67:
  88:src/../h/MemoryAllocation.hpp ****         if(!fmem_head || ptr < (char*)fmem_head)
 460              		.loc 2 88 9
  89:src/../h/MemoryAllocation.hpp ****         {
 461              		.loc 2 89 9
  89:src/../h/MemoryAllocation.hpp ****         {
 462              		.loc 2 89 12 is_stmt 0
 463 023c 97070000 		la	a5,_ZN16MemoryAllocation9fmem_headE
 463      83B70700 
 464 0244 03B70700 		ld	a4,0(a5)
  89:src/../h/MemoryAllocation.hpp ****         {
 465              		.loc 2 89 9
 466 0248 630E0700 		beqz	a4,.L35
  89:src/../h/MemoryAllocation.hpp ****         {
 467              		.loc 2 89 23
 468 024c 6360E502 		bltu	a0,a4,.L36
 469              	.LVL32:
 470              	.L27:
  93:src/../h/MemoryAllocation.hpp ****             }
 471              		.loc 2 93 52 is_stmt 1
 472 0250 93070700 		mv	a5,a4
  93:src/../h/MemoryAllocation.hpp ****             }
 473              		.loc 2 93 42 is_stmt 0
 474 0254 03370700 		ld	a4,0(a4)
 475              	.LVL33:
  93:src/../h/MemoryAllocation.hpp ****             }
 476              		.loc 2 93 52
 477 0258 630CE500 		beq	a0,a4,.L26
 478 025c E36AA7FE 		bgtu	a0,a4,.L27
 479 0260 6F000001 		j	.L26
 480              	.LVL34:
 481              	.L35:
  91:src/../h/MemoryAllocation.hpp ****         }else {
 482              		.loc 2 91 16
 483 0264 93070700 		mv	a5,a4
 484 0268 6F008000 		j	.L26
 485              	.L36:
 486 026c 93070000 		li	a5,0
 487              	.LVL35:
 488              	.L26:
  95:src/../h/MemoryAllocation.hpp ****                 newSeg->next=nullptr;
 489              		.loc 2 95 17 is_stmt 1
  96:src/../h/MemoryAllocation.hpp ****                 newSeg->prev=nullptr;
 490              		.loc 2 96 17
  96:src/../h/MemoryAllocation.hpp ****                 newSeg->prev=nullptr;
 491              		.loc 2 96 29 is_stmt 0
 492 0270 23300500 		sd	zero,0(a0)
  97:src/../h/MemoryAllocation.hpp ****                 newSeg->size=bytesToBlocks(sizeof(ptr))*MEM_BLOCK_SIZE;
 493              		.loc 2 97 17 is_stmt 1
  98:src/../h/MemoryAllocation.hpp ****                         //sizeof(ptr);
 494              		.loc 2 98 17
 495              	.LVL36:
 496              	.LBE67:
 497              	.LBE66:
  69:src/../h/MemoryAllocation.hpp ****     }
 498              		.loc 2 69 9
 499              	.LBB78:
GAS LISTING /tmp/cc4kZHkY.s 			page 15


 500              	.LBB76:
  98:src/../h/MemoryAllocation.hpp ****                         //sizeof(ptr);
 501              		.loc 2 98 29 is_stmt 0
 502 0274 13070004 		li	a4,64
 503 0278 2338E500 		sd	a4,16(a0)
 100:src/../h/MemoryAllocation.hpp ****                 if(cur) {
 504              		.loc 2 100 17 is_stmt 1
 100:src/../h/MemoryAllocation.hpp ****                 if(cur) {
 505              		.loc 2 100 29 is_stmt 0
 506 027c 2334F500 		sd	a5,8(a0)
 101:src/../h/MemoryAllocation.hpp ****                     newSeg->next = cur->next;
 507              		.loc 2 101 17 is_stmt 1
 508 0280 638E0704 		beqz	a5,.L28
 102:src/../h/MemoryAllocation.hpp ****                 }
 509              		.loc 2 102 21
 102:src/../h/MemoryAllocation.hpp ****                 }
 510              		.loc 2 102 41 is_stmt 0
 511 0284 03B70700 		ld	a4,0(a5)
 102:src/../h/MemoryAllocation.hpp ****                 }
 512              		.loc 2 102 34
 513 0288 2330E500 		sd	a4,0(a0)
 514              	.L29:
 107:src/../h/MemoryAllocation.hpp ****                     newSeg->next->prev=newSeg;
 515              		.loc 2 107 17 is_stmt 1
 107:src/../h/MemoryAllocation.hpp ****                     newSeg->next->prev=newSeg;
 516              		.loc 2 107 28 is_stmt 0
 517 028c 03370500 		ld	a4,0(a0)
 107:src/../h/MemoryAllocation.hpp ****                     newSeg->next->prev=newSeg;
 518              		.loc 2 107 17
 519 0290 63040700 		beqz	a4,.L30
 108:src/../h/MemoryAllocation.hpp ****                 }
 520              		.loc 2 108 21 is_stmt 1
 108:src/../h/MemoryAllocation.hpp ****                 }
 521              		.loc 2 108 39 is_stmt 0
 522 0294 2334A700 		sd	a0,8(a4)
 523              	.L30:
 110:src/../h/MemoryAllocation.hpp ****                     cur->next = newSeg; //zasto ovde odjednom uzme vrednost x8000 umesto x8000f...?
 524              		.loc 2 110 17 is_stmt 1
 525 0298 638C0704 		beqz	a5,.L31
 111:src/../h/MemoryAllocation.hpp ****                 }
 526              		.loc 2 111 21
 111:src/../h/MemoryAllocation.hpp ****                 }
 527              		.loc 2 111 31 is_stmt 0
 528 029c 23B0A700 		sd	a0,0(a5)
 529              	.L32:
 117:src/../h/MemoryAllocation.hpp ****             tryToJoin(cur);
 530              		.loc 2 117 13 is_stmt 1
 531              	.LVL37:
 532              	.LBB68:
 533              	.LBB69:
  75:src/../h/MemoryAllocation.hpp ****         if (curr->next && (char*)curr+curr->size == (char*)(curr->next)) {
 534              		.loc 2 75 9
 535 02a0 630C0500 		beqz	a0,.L33
  76:src/../h/MemoryAllocation.hpp ****         // Remove the cur->next segment:
 536              		.loc 2 76 9
  76:src/../h/MemoryAllocation.hpp ****         // Remove the cur->next segment:
 537              		.loc 2 76 19 is_stmt 0
GAS LISTING /tmp/cc4kZHkY.s 			page 16


 538 02a4 03370500 		ld	a4,0(a0)
  76:src/../h/MemoryAllocation.hpp ****         // Remove the cur->next segment:
 539              		.loc 2 76 9
 540 02a8 63080700 		beqz	a4,.L33
  76:src/../h/MemoryAllocation.hpp ****         // Remove the cur->next segment:
 541              		.loc 2 76 45
 542 02ac 83360501 		ld	a3,16(a0)
  76:src/../h/MemoryAllocation.hpp ****         // Remove the cur->next segment:
 543              		.loc 2 76 38
 544 02b0 3306D500 		add	a2,a0,a3
  76:src/../h/MemoryAllocation.hpp ****         // Remove the cur->next segment:
 545              		.loc 2 76 24
 546 02b4 6306C704 		beq	a4,a2,.L38
 547              	.L33:
 548              	.LVL38:
 549              	.LBE69:
 550              	.LBE68:
 118:src/../h/MemoryAllocation.hpp ****             //mozda da fmem_head nije jednako starom fmem_headu?
 551              		.loc 2 118 13 is_stmt 1
 552              	.LBB71:
 553              	.LBB72:
  75:src/../h/MemoryAllocation.hpp ****         if (curr->next && (char*)curr+curr->size == (char*)(curr->next)) {
 554              		.loc 2 75 9
 555 02b8 638C0700 		beqz	a5,.L25
  76:src/../h/MemoryAllocation.hpp ****         // Remove the cur->next segment:
 556              		.loc 2 76 9
  76:src/../h/MemoryAllocation.hpp ****         // Remove the cur->next segment:
 557              		.loc 2 76 19 is_stmt 0
 558 02bc 03B70700 		ld	a4,0(a5)
  76:src/../h/MemoryAllocation.hpp ****         // Remove the cur->next segment:
 559              		.loc 2 76 9
 560 02c0 63080700 		beqz	a4,.L25
  76:src/../h/MemoryAllocation.hpp ****         // Remove the cur->next segment:
 561              		.loc 2 76 45
 562 02c4 83B60701 		ld	a3,16(a5)
  76:src/../h/MemoryAllocation.hpp ****         // Remove the cur->next segment:
 563              		.loc 2 76 38
 564 02c8 3386D700 		add	a2,a5,a3
  76:src/../h/MemoryAllocation.hpp ****         // Remove the cur->next segment:
 565              		.loc 2 76 24
 566 02cc 630AC704 		beq	a4,a2,.L39
 567              	.LVL39:
 568              	.L25:
 569              	.LBE72:
 570              	.LBE71:
 571              	.LBE76:
 572              	.LBE78:
  18:src/_new.cpp  ****     //__mem_free(p);
  19:src/_new.cpp  **** }
 573              		.loc 1 19 1
 574 02d0 03348100 		ld	s0,8(sp)
 575              		.cfi_remember_state
 576              		.cfi_restore 8
 577              		.cfi_def_cfa 2, 16
 578 02d4 13010101 		addi	sp,sp,16
 579              		.cfi_def_cfa_offset 0
 580 02d8 67800000 		jr	ra
GAS LISTING /tmp/cc4kZHkY.s 			page 17


 581              	.LVL40:
 582              	.L28:
 583              		.cfi_restore_state
 584              	.LBB79:
 585              	.LBB77:
 105:src/../h/MemoryAllocation.hpp ****                 }
 586              		.loc 2 105 21 is_stmt 1
 105:src/../h/MemoryAllocation.hpp ****                 }
 587              		.loc 2 105 34 is_stmt 0
 588 02dc 17070000 		la	a4,_ZN16MemoryAllocation9fmem_headE
 588      03370700 
 589 02e4 03370700 		ld	a4,0(a4)
 590 02e8 2330E500 		sd	a4,0(a0)
 591 02ec 6FF01FFA 		j	.L29
 592              	.L31:
 114:src/../h/MemoryAllocation.hpp ****                 }
 593              		.loc 2 114 21 is_stmt 1
 114:src/../h/MemoryAllocation.hpp ****                 }
 594              		.loc 2 114 31 is_stmt 0
 595 02f0 17070000 		la	a4,_ZN16MemoryAllocation9fmem_headE
 595      03370700 
 596 02f8 2330A700 		sd	a0,0(a4)
 597 02fc 6FF05FFA 		j	.L32
 598              	.LVL41:
 599              	.L38:
 600              	.LBB74:
 601              	.LBB70:
  78:src/../h/MemoryAllocation.hpp ****             curr->next = curr->next->next;
 602              		.loc 2 78 13 is_stmt 1
  78:src/../h/MemoryAllocation.hpp ****             curr->next = curr->next->next;
 603              		.loc 2 78 39 is_stmt 0
 604 0300 03360701 		ld	a2,16(a4)
  78:src/../h/MemoryAllocation.hpp ****             curr->next = curr->next->next;
 605              		.loc 2 78 24
 606 0304 B386C600 		add	a3,a3,a2
 607 0308 2338D500 		sd	a3,16(a0)
  79:src/../h/MemoryAllocation.hpp ****             if (curr->next) curr->next->prev = curr;
 608              		.loc 2 79 13 is_stmt 1
  79:src/../h/MemoryAllocation.hpp ****             if (curr->next) curr->next->prev = curr;
 609              		.loc 2 79 38 is_stmt 0
 610 030c 03370700 		ld	a4,0(a4)
  79:src/../h/MemoryAllocation.hpp ****             if (curr->next) curr->next->prev = curr;
 611              		.loc 2 79 24
 612 0310 2330E500 		sd	a4,0(a0)
  80:src/../h/MemoryAllocation.hpp ****             return;
 613              		.loc 2 80 13 is_stmt 1
 614 0314 E30207FA 		beqz	a4,.L33
  80:src/../h/MemoryAllocation.hpp ****             return;
 615              		.loc 2 80 29
  80:src/../h/MemoryAllocation.hpp ****             return;
 616              		.loc 2 80 46 is_stmt 0
 617 0318 2334A700 		sd	a0,8(a4)
 618 031c 6FF0DFF9 		j	.L33
 619              	.LVL42:
 620              	.L39:
 621              	.LBE70:
 622              	.LBE74:
GAS LISTING /tmp/cc4kZHkY.s 			page 18


 623              	.LBB75:
 624              	.LBB73:
  78:src/../h/MemoryAllocation.hpp ****             curr->next = curr->next->next;
 625              		.loc 2 78 13 is_stmt 1
  78:src/../h/MemoryAllocation.hpp ****             curr->next = curr->next->next;
 626              		.loc 2 78 39 is_stmt 0
 627 0320 03360701 		ld	a2,16(a4)
  78:src/../h/MemoryAllocation.hpp ****             curr->next = curr->next->next;
 628              		.loc 2 78 24
 629 0324 B386C600 		add	a3,a3,a2
 630 0328 23B8D700 		sd	a3,16(a5)
  79:src/../h/MemoryAllocation.hpp ****             if (curr->next) curr->next->prev = curr;
 631              		.loc 2 79 13 is_stmt 1
  79:src/../h/MemoryAllocation.hpp ****             if (curr->next) curr->next->prev = curr;
 632              		.loc 2 79 38 is_stmt 0
 633 032c 03370700 		ld	a4,0(a4)
  79:src/../h/MemoryAllocation.hpp ****             if (curr->next) curr->next->prev = curr;
 634              		.loc 2 79 24
 635 0330 23B0E700 		sd	a4,0(a5)
  80:src/../h/MemoryAllocation.hpp ****             return;
 636              		.loc 2 80 13 is_stmt 1
 637 0334 E30E07F8 		beqz	a4,.L25
  80:src/../h/MemoryAllocation.hpp ****             return;
 638              		.loc 2 80 29
  80:src/../h/MemoryAllocation.hpp ****             return;
 639              		.loc 2 80 46 is_stmt 0
 640 0338 2334F700 		sd	a5,8(a4)
 641              	.LVL43:
 642              	.LBE73:
 643              	.LBE75:
 120:src/../h/MemoryAllocation.hpp ****                 return -1;
 644              		.loc 2 120 13 is_stmt 1
 645              	.LBE77:
 646              	.LBE79:
 647              		.loc 1 19 1 is_stmt 0
 648 033c 6FF05FF9 		j	.L25
 649              		.cfi_endproc
 650              	.LFE31:
 652              		.align	2
 653              		.globl	_ZdaPv
 655              	_ZdaPv:
 656              	.LFB32:
  20:src/_new.cpp  **** 
  21:src/_new.cpp  **** void operator delete[] (void *p) noexcept{
 657              		.loc 1 21 42 is_stmt 1
 658              		.cfi_startproc
 659              	.LVL44:
 660 0340 130101FF 		addi	sp,sp,-16
 661              		.cfi_def_cfa_offset 16
 662 0344 23348100 		sd	s0,8(sp)
 663              		.cfi_offset 8, -8
 664 0348 13040101 		addi	s0,sp,16
 665              		.cfi_def_cfa 8, 0
  22:src/_new.cpp  ****     MemoryAllocation::mem_free(p);
 666              		.loc 1 22 5
 667              	.LVL45:
 668              	.LBB86:
GAS LISTING /tmp/cc4kZHkY.s 			page 19


 669              	.LBB87:
  88:src/../h/MemoryAllocation.hpp ****         if(!fmem_head || ptr < (char*)fmem_head)
 670              		.loc 2 88 9
  89:src/../h/MemoryAllocation.hpp ****         {
 671              		.loc 2 89 9
  89:src/../h/MemoryAllocation.hpp ****         {
 672              		.loc 2 89 12 is_stmt 0
 673 034c 97070000 		la	a5,_ZN16MemoryAllocation9fmem_headE
 673      83B70700 
 674 0354 03B70700 		ld	a4,0(a5)
  89:src/../h/MemoryAllocation.hpp ****         {
 675              		.loc 2 89 9
 676 0358 630E0700 		beqz	a4,.L50
  89:src/../h/MemoryAllocation.hpp ****         {
 677              		.loc 2 89 23
 678 035c 6360E502 		bltu	a0,a4,.L51
 679              	.LVL46:
 680              	.L42:
  93:src/../h/MemoryAllocation.hpp ****             }
 681              		.loc 2 93 52 is_stmt 1
 682 0360 93070700 		mv	a5,a4
  93:src/../h/MemoryAllocation.hpp ****             }
 683              		.loc 2 93 42 is_stmt 0
 684 0364 03370700 		ld	a4,0(a4)
 685              	.LVL47:
  93:src/../h/MemoryAllocation.hpp ****             }
 686              		.loc 2 93 52
 687 0368 630CE500 		beq	a0,a4,.L41
 688 036c E36AA7FE 		bgtu	a0,a4,.L42
 689 0370 6F000001 		j	.L41
 690              	.LVL48:
 691              	.L50:
  91:src/../h/MemoryAllocation.hpp ****         }else {
 692              		.loc 2 91 16
 693 0374 93070700 		mv	a5,a4
 694 0378 6F008000 		j	.L41
 695              	.L51:
 696 037c 93070000 		li	a5,0
 697              	.LVL49:
 698              	.L41:
  95:src/../h/MemoryAllocation.hpp ****                 newSeg->next=nullptr;
 699              		.loc 2 95 17 is_stmt 1
  96:src/../h/MemoryAllocation.hpp ****                 newSeg->prev=nullptr;
 700              		.loc 2 96 17
  96:src/../h/MemoryAllocation.hpp ****                 newSeg->prev=nullptr;
 701              		.loc 2 96 29 is_stmt 0
 702 0380 23300500 		sd	zero,0(a0)
  97:src/../h/MemoryAllocation.hpp ****                 newSeg->size=bytesToBlocks(sizeof(ptr))*MEM_BLOCK_SIZE;
 703              		.loc 2 97 17 is_stmt 1
  98:src/../h/MemoryAllocation.hpp ****                         //sizeof(ptr);
 704              		.loc 2 98 17
 705              	.LVL50:
 706              	.LBE87:
 707              	.LBE86:
  69:src/../h/MemoryAllocation.hpp ****     }
 708              		.loc 2 69 9
 709              	.LBB98:
GAS LISTING /tmp/cc4kZHkY.s 			page 20


 710              	.LBB96:
  98:src/../h/MemoryAllocation.hpp ****                         //sizeof(ptr);
 711              		.loc 2 98 29 is_stmt 0
 712 0384 13070004 		li	a4,64
 713 0388 2338E500 		sd	a4,16(a0)
 100:src/../h/MemoryAllocation.hpp ****                 if(cur) {
 714              		.loc 2 100 17 is_stmt 1
 100:src/../h/MemoryAllocation.hpp ****                 if(cur) {
 715              		.loc 2 100 29 is_stmt 0
 716 038c 2334F500 		sd	a5,8(a0)
 101:src/../h/MemoryAllocation.hpp ****                     newSeg->next = cur->next;
 717              		.loc 2 101 17 is_stmt 1
 718 0390 638E0704 		beqz	a5,.L43
 102:src/../h/MemoryAllocation.hpp ****                 }
 719              		.loc 2 102 21
 102:src/../h/MemoryAllocation.hpp ****                 }
 720              		.loc 2 102 41 is_stmt 0
 721 0394 03B70700 		ld	a4,0(a5)
 102:src/../h/MemoryAllocation.hpp ****                 }
 722              		.loc 2 102 34
 723 0398 2330E500 		sd	a4,0(a0)
 724              	.L44:
 107:src/../h/MemoryAllocation.hpp ****                     newSeg->next->prev=newSeg;
 725              		.loc 2 107 17 is_stmt 1
 107:src/../h/MemoryAllocation.hpp ****                     newSeg->next->prev=newSeg;
 726              		.loc 2 107 28 is_stmt 0
 727 039c 03370500 		ld	a4,0(a0)
 107:src/../h/MemoryAllocation.hpp ****                     newSeg->next->prev=newSeg;
 728              		.loc 2 107 17
 729 03a0 63040700 		beqz	a4,.L45
 108:src/../h/MemoryAllocation.hpp ****                 }
 730              		.loc 2 108 21 is_stmt 1
 108:src/../h/MemoryAllocation.hpp ****                 }
 731              		.loc 2 108 39 is_stmt 0
 732 03a4 2334A700 		sd	a0,8(a4)
 733              	.L45:
 110:src/../h/MemoryAllocation.hpp ****                     cur->next = newSeg; //zasto ovde odjednom uzme vrednost x8000 umesto x8000f...?
 734              		.loc 2 110 17 is_stmt 1
 735 03a8 638C0704 		beqz	a5,.L46
 111:src/../h/MemoryAllocation.hpp ****                 }
 736              		.loc 2 111 21
 111:src/../h/MemoryAllocation.hpp ****                 }
 737              		.loc 2 111 31 is_stmt 0
 738 03ac 23B0A700 		sd	a0,0(a5)
 739              	.L47:
 117:src/../h/MemoryAllocation.hpp ****             tryToJoin(cur);
 740              		.loc 2 117 13 is_stmt 1
 741              	.LVL51:
 742              	.LBB88:
 743              	.LBB89:
  75:src/../h/MemoryAllocation.hpp ****         if (curr->next && (char*)curr+curr->size == (char*)(curr->next)) {
 744              		.loc 2 75 9
 745 03b0 630C0500 		beqz	a0,.L48
  76:src/../h/MemoryAllocation.hpp ****         // Remove the cur->next segment:
 746              		.loc 2 76 9
  76:src/../h/MemoryAllocation.hpp ****         // Remove the cur->next segment:
 747              		.loc 2 76 19 is_stmt 0
GAS LISTING /tmp/cc4kZHkY.s 			page 21


 748 03b4 03370500 		ld	a4,0(a0)
  76:src/../h/MemoryAllocation.hpp ****         // Remove the cur->next segment:
 749              		.loc 2 76 9
 750 03b8 63080700 		beqz	a4,.L48
  76:src/../h/MemoryAllocation.hpp ****         // Remove the cur->next segment:
 751              		.loc 2 76 45
 752 03bc 83360501 		ld	a3,16(a0)
  76:src/../h/MemoryAllocation.hpp ****         // Remove the cur->next segment:
 753              		.loc 2 76 38
 754 03c0 3306D500 		add	a2,a0,a3
  76:src/../h/MemoryAllocation.hpp ****         // Remove the cur->next segment:
 755              		.loc 2 76 24
 756 03c4 6306C704 		beq	a4,a2,.L53
 757              	.L48:
 758              	.LVL52:
 759              	.LBE89:
 760              	.LBE88:
 118:src/../h/MemoryAllocation.hpp ****             //mozda da fmem_head nije jednako starom fmem_headu?
 761              		.loc 2 118 13 is_stmt 1
 762              	.LBB91:
 763              	.LBB92:
  75:src/../h/MemoryAllocation.hpp ****         if (curr->next && (char*)curr+curr->size == (char*)(curr->next)) {
 764              		.loc 2 75 9
 765 03c8 638C0700 		beqz	a5,.L40
  76:src/../h/MemoryAllocation.hpp ****         // Remove the cur->next segment:
 766              		.loc 2 76 9
  76:src/../h/MemoryAllocation.hpp ****         // Remove the cur->next segment:
 767              		.loc 2 76 19 is_stmt 0
 768 03cc 03B70700 		ld	a4,0(a5)
  76:src/../h/MemoryAllocation.hpp ****         // Remove the cur->next segment:
 769              		.loc 2 76 9
 770 03d0 63080700 		beqz	a4,.L40
  76:src/../h/MemoryAllocation.hpp ****         // Remove the cur->next segment:
 771              		.loc 2 76 45
 772 03d4 83B60701 		ld	a3,16(a5)
  76:src/../h/MemoryAllocation.hpp ****         // Remove the cur->next segment:
 773              		.loc 2 76 38
 774 03d8 3386D700 		add	a2,a5,a3
  76:src/../h/MemoryAllocation.hpp ****         // Remove the cur->next segment:
 775              		.loc 2 76 24
 776 03dc 630AC704 		beq	a4,a2,.L54
 777              	.LVL53:
 778              	.L40:
 779              	.LBE92:
 780              	.LBE91:
 781              	.LBE96:
 782              	.LBE98:
  23:src/_new.cpp  ****     //__mem_free(p);
  24:src/_new.cpp  **** }...
 783              		.loc 1 24 1
 784 03e0 03348100 		ld	s0,8(sp)
 785              		.cfi_remember_state
 786              		.cfi_restore 8
 787              		.cfi_def_cfa 2, 16
 788 03e4 13010101 		addi	sp,sp,16
 789              		.cfi_def_cfa_offset 0
 790 03e8 67800000 		jr	ra
GAS LISTING /tmp/cc4kZHkY.s 			page 22


 791              	.LVL54:
 792              	.L43:
 793              		.cfi_restore_state
 794              	.LBB99:
 795              	.LBB97:
 105:src/../h/MemoryAllocation.hpp ****                 }
 796              		.loc 2 105 21 is_stmt 1
 105:src/../h/MemoryAllocation.hpp ****                 }
 797              		.loc 2 105 34 is_stmt 0
 798 03ec 17070000 		la	a4,_ZN16MemoryAllocation9fmem_headE
 798      03370700 
 799 03f4 03370700 		ld	a4,0(a4)
 800 03f8 2330E500 		sd	a4,0(a0)
 801 03fc 6FF01FFA 		j	.L44
 802              	.L46:
 114:src/../h/MemoryAllocation.hpp ****                 }
 803              		.loc 2 114 21 is_stmt 1
 114:src/../h/MemoryAllocation.hpp ****                 }
 804              		.loc 2 114 31 is_stmt 0
 805 0400 17070000 		la	a4,_ZN16MemoryAllocation9fmem_headE
 805      03370700 
 806 0408 2330A700 		sd	a0,0(a4)
 807 040c 6FF05FFA 		j	.L47
 808              	.LVL55:
 809              	.L53:
 810              	.LBB94:
 811              	.LBB90:
  78:src/../h/MemoryAllocation.hpp ****             curr->next = curr->next->next;
 812              		.loc 2 78 13 is_stmt 1
  78:src/../h/MemoryAllocation.hpp ****             curr->next = curr->next->next;
 813              		.loc 2 78 39 is_stmt 0
 814 0410 03360701 		ld	a2,16(a4)
  78:src/../h/MemoryAllocation.hpp ****             curr->next = curr->next->next;
 815              		.loc 2 78 24
 816 0414 B386C600 		add	a3,a3,a2
 817 0418 2338D500 		sd	a3,16(a0)
  79:src/../h/MemoryAllocation.hpp ****             if (curr->next) curr->next->prev = curr;
 818              		.loc 2 79 13 is_stmt 1
  79:src/../h/MemoryAllocation.hpp ****             if (curr->next) curr->next->prev = curr;
 819              		.loc 2 79 38 is_stmt 0
 820 041c 03370700 		ld	a4,0(a4)
  79:src/../h/MemoryAllocation.hpp ****             if (curr->next) curr->next->prev = curr;
 821              		.loc 2 79 24
 822 0420 2330E500 		sd	a4,0(a0)
  80:src/../h/MemoryAllocation.hpp ****             return;
 823              		.loc 2 80 13 is_stmt 1
 824 0424 E30207FA 		beqz	a4,.L48
  80:src/../h/MemoryAllocation.hpp ****             return;
 825              		.loc 2 80 29
  80:src/../h/MemoryAllocation.hpp ****             return;
 826              		.loc 2 80 46 is_stmt 0
 827 0428 2334A700 		sd	a0,8(a4)
 828 042c 6FF0DFF9 		j	.L48
 829              	.LVL56:
 830              	.L54:
 831              	.LBE90:
 832              	.LBE94:
GAS LISTING /tmp/cc4kZHkY.s 			page 23


 833              	.LBB95:
 834              	.LBB93:
  78:src/../h/MemoryAllocation.hpp ****             curr->next = curr->next->next;
 835              		.loc 2 78 13 is_stmt 1
  78:src/../h/MemoryAllocation.hpp ****             curr->next = curr->next->next;
 836              		.loc 2 78 39 is_stmt 0
 837 0430 03360701 		ld	a2,16(a4)
  78:src/../h/MemoryAllocation.hpp ****             curr->next = curr->next->next;
 838              		.loc 2 78 24
 839 0434 B386C600 		add	a3,a3,a2
 840 0438 23B8D700 		sd	a3,16(a5)
  79:src/../h/MemoryAllocation.hpp ****             if (curr->next) curr->next->prev = curr;
 841              		.loc 2 79 13 is_stmt 1
  79:src/../h/MemoryAllocation.hpp ****             if (curr->next) curr->next->prev = curr;
 842              		.loc 2 79 38 is_stmt 0
 843 043c 03370700 		ld	a4,0(a4)
  79:src/../h/MemoryAllocation.hpp ****             if (curr->next) curr->next->prev = curr;
 844              		.loc 2 79 24
 845 0440 23B0E700 		sd	a4,0(a5)
  80:src/../h/MemoryAllocation.hpp ****             return;
 846              		.loc 2 80 13 is_stmt 1
 847 0444 E30E07F8 		beqz	a4,.L40
  80:src/../h/MemoryAllocation.hpp ****             return;
 848              		.loc 2 80 29
  80:src/../h/MemoryAllocation.hpp ****             return;
 849              		.loc 2 80 46 is_stmt 0
 850 0448 2334F700 		sd	a5,8(a4)
 851              	.LVL57:
 852              	.LBE93:
 853              	.LBE95:
 120:src/../h/MemoryAllocation.hpp ****                 return -1;
 854              		.loc 2 120 13 is_stmt 1
 855              	.LBE97:
 856              	.LBE99:
 857              		.loc 1 24 1 is_stmt 0
 858 044c 6FF05FF9 		j	.L40
 859              		.cfi_endproc
 860              	.LFE32:
 862              	.Letext0:
 863              		.file 3 "src/../h/../lib/hw.h"
GAS LISTING /tmp/cc4kZHkY.s 			page 24


DEFINED SYMBOLS
                            *ABS*:0000000000000000 _new.cpp
     /tmp/cc4kZHkY.s:9      .text:0000000000000000 _Znwm
     /tmp/cc4kZHkY.s:13     .text:0000000000000000 .L0 
     /tmp/cc4kZHkY.s:15     .text:0000000000000000 .L0 
     /tmp/cc4kZHkY.s:16     .text:0000000000000004 .L0 
     /tmp/cc4kZHkY.s:18     .text:0000000000000008 .L0 
     /tmp/cc4kZHkY.s:20     .text:000000000000000c .L0 
     /tmp/cc4kZHkY.s:26     .text:000000000000000c .L0 
     /tmp/cc4kZHkY.s:27     .text:000000000000000c .L0 
     /tmp/cc4kZHkY.s:28     .text:000000000000000c .L0 
     /tmp/cc4kZHkY.s:30     .text:0000000000000010 .L0 
     /tmp/cc4kZHkY.s:32     .text:0000000000000014 .L0 
     /tmp/cc4kZHkY.s:39     .text:0000000000000018 .L0 
     /tmp/cc4kZHkY.s:40     .text:0000000000000018 .L0 
     /tmp/cc4kZHkY.s:44     .text:000000000000001c .L0 
     /tmp/cc4kZHkY.s:45     .text:000000000000001c .L0 
     /tmp/cc4kZHkY.s:50     .text:0000000000000028 .L0 
     /tmp/cc4kZHkY.s:53     .text:000000000000002c .L0 
     /tmp/cc4kZHkY.s:54     .text:000000000000002c .L0 
     /tmp/cc4kZHkY.s:58     .text:000000000000003c .L0 
     /tmp/cc4kZHkY.s:60     .text:0000000000000040 .L0 
     /tmp/cc4kZHkY.s:61     .text:0000000000000040 .L0 
     /tmp/cc4kZHkY.s:64     .text:0000000000000048 .L0 
     /tmp/cc4kZHkY.s:66     .text:000000000000004c .L0 
     /tmp/cc4kZHkY.s:67     .text:000000000000004c .L0 
     /tmp/cc4kZHkY.s:69     .text:0000000000000050 .L0 
     /tmp/cc4kZHkY.s:72     .text:0000000000000054 .L0 
     /tmp/cc4kZHkY.s:73     .text:0000000000000054 .L0 
     /tmp/cc4kZHkY.s:75     .text:0000000000000058 .L0 
     /tmp/cc4kZHkY.s:78     .text:0000000000000060 .L0 
     /tmp/cc4kZHkY.s:80     .text:0000000000000064 .L0 
     /tmp/cc4kZHkY.s:81     .text:0000000000000064 .L0 
     /tmp/cc4kZHkY.s:85     .text:0000000000000068 .L0 
     /tmp/cc4kZHkY.s:86     .text:0000000000000068 .L0 
     /tmp/cc4kZHkY.s:88     .text:000000000000006c .L0 
     /tmp/cc4kZHkY.s:90     .text:0000000000000070 .L0 
     /tmp/cc4kZHkY.s:91     .text:0000000000000070 .L0 
     /tmp/cc4kZHkY.s:93     .text:0000000000000074 .L0 
     /tmp/cc4kZHkY.s:95     .text:0000000000000078 .L0 
     /tmp/cc4kZHkY.s:96     .text:0000000000000078 .L0 
     /tmp/cc4kZHkY.s:102    .text:000000000000007c .L0 
     /tmp/cc4kZHkY.s:110    .text:0000000000000084 .L0 
     /tmp/cc4kZHkY.s:111    .text:0000000000000084 .L0 
     /tmp/cc4kZHkY.s:119    .text:0000000000000094 .L0 
     /tmp/cc4kZHkY.s:120    .text:0000000000000094 .L0 
     /tmp/cc4kZHkY.s:123    .text:0000000000000098 .L0 
     /tmp/cc4kZHkY.s:124    .text:0000000000000098 .L0 
     /tmp/cc4kZHkY.s:126    .text:000000000000009c .L0 
     /tmp/cc4kZHkY.s:127    .text:000000000000009c .L0 
     /tmp/cc4kZHkY.s:129    .text:00000000000000a0 .L0 
     /tmp/cc4kZHkY.s:130    .text:00000000000000a0 .L0 
     /tmp/cc4kZHkY.s:132    .text:00000000000000a4 .L0 
     /tmp/cc4kZHkY.s:134    .text:00000000000000a8 .L0 
     /tmp/cc4kZHkY.s:135    .text:00000000000000a8 .L0 
     /tmp/cc4kZHkY.s:138    .text:00000000000000ac .L0 
     /tmp/cc4kZHkY.s:139    .text:00000000000000ac .L0 
GAS LISTING /tmp/cc4kZHkY.s 			page 25


     /tmp/cc4kZHkY.s:141    .text:00000000000000b0 .L0 
     /tmp/cc4kZHkY.s:143    .text:00000000000000b4 .L0 
     /tmp/cc4kZHkY.s:144    .text:00000000000000b4 .L0 
     /tmp/cc4kZHkY.s:147    .text:00000000000000b8 .L0 
     /tmp/cc4kZHkY.s:148    .text:00000000000000b8 .L0 
     /tmp/cc4kZHkY.s:150    .text:00000000000000bc .L0 
     /tmp/cc4kZHkY.s:152    .text:00000000000000c0 .L0 
     /tmp/cc4kZHkY.s:153    .text:00000000000000c0 .L0 
     /tmp/cc4kZHkY.s:155    .text:00000000000000c4 .L0 
     /tmp/cc4kZHkY.s:157    .text:00000000000000c8 .L0 
     /tmp/cc4kZHkY.s:158    .text:00000000000000c8 .L0 
     /tmp/cc4kZHkY.s:160    .text:00000000000000cc .L0 
     /tmp/cc4kZHkY.s:163    .text:00000000000000d0 .L0 
     /tmp/cc4kZHkY.s:165    .text:00000000000000d4 .L0 
     /tmp/cc4kZHkY.s:166    .text:00000000000000d4 .L0 
     /tmp/cc4kZHkY.s:168    .text:00000000000000d8 .L0 
     /tmp/cc4kZHkY.s:171    .text:00000000000000e4 .L0 
     /tmp/cc4kZHkY.s:172    .text:00000000000000e4 .L0 
     /tmp/cc4kZHkY.s:174    .text:00000000000000e8 .L0 
     /tmp/cc4kZHkY.s:176    .text:00000000000000ec .L0 
     /tmp/cc4kZHkY.s:177    .text:00000000000000ec .L0 
     /tmp/cc4kZHkY.s:179    .text:00000000000000f0 .L0 
     /tmp/cc4kZHkY.s:180    .text:00000000000000f0 .L0 
     /tmp/cc4kZHkY.s:182    .text:00000000000000f4 .L0 
     /tmp/cc4kZHkY.s:183    .text:00000000000000f4 .L0 
     /tmp/cc4kZHkY.s:193    .text:00000000000000f8 .L0 
     /tmp/cc4kZHkY.s:194    .text:00000000000000fc .L0 
     /tmp/cc4kZHkY.s:195    .text:00000000000000fc .L0 
     /tmp/cc4kZHkY.s:196    .text:00000000000000fc .L0 
     /tmp/cc4kZHkY.s:198    .text:0000000000000100 .L0 
     /tmp/cc4kZHkY.s:202    .text:0000000000000104 .L0 
     /tmp/cc4kZHkY.s:210    .text:0000000000000104 .L0 
     /tmp/cc4kZHkY.s:211    .text:0000000000000104 .L0 
     /tmp/cc4kZHkY.s:213    .text:0000000000000108 .L0 
     /tmp/cc4kZHkY.s:222    .text:0000000000000118 .L0 
     /tmp/cc4kZHkY.s:228    .text:0000000000000118 _Znam
     /tmp/cc4kZHkY.s:231    .text:0000000000000118 .L0 
     /tmp/cc4kZHkY.s:233    .text:0000000000000118 .L0 
     /tmp/cc4kZHkY.s:234    .text:000000000000011c .L0 
     /tmp/cc4kZHkY.s:236    .text:0000000000000120 .L0 
     /tmp/cc4kZHkY.s:238    .text:0000000000000124 .L0 
     /tmp/cc4kZHkY.s:243    .text:0000000000000124 .L0 
     /tmp/cc4kZHkY.s:244    .text:0000000000000124 .L0 
     /tmp/cc4kZHkY.s:245    .text:0000000000000124 .L0 
     /tmp/cc4kZHkY.s:247    .text:0000000000000128 .L0 
     /tmp/cc4kZHkY.s:249    .text:000000000000012c .L0 
     /tmp/cc4kZHkY.s:256    .text:0000000000000130 .L0 
     /tmp/cc4kZHkY.s:257    .text:0000000000000130 .L0 
     /tmp/cc4kZHkY.s:261    .text:0000000000000134 .L0 
     /tmp/cc4kZHkY.s:262    .text:0000000000000134 .L0 
     /tmp/cc4kZHkY.s:267    .text:0000000000000140 .L0 
     /tmp/cc4kZHkY.s:270    .text:0000000000000144 .L0 
     /tmp/cc4kZHkY.s:271    .text:0000000000000144 .L0 
     /tmp/cc4kZHkY.s:275    .text:0000000000000154 .L0 
     /tmp/cc4kZHkY.s:277    .text:0000000000000158 .L0 
     /tmp/cc4kZHkY.s:278    .text:0000000000000158 .L0 
     /tmp/cc4kZHkY.s:281    .text:0000000000000160 .L0 
GAS LISTING /tmp/cc4kZHkY.s 			page 26


     /tmp/cc4kZHkY.s:283    .text:0000000000000164 .L0 
     /tmp/cc4kZHkY.s:284    .text:0000000000000164 .L0 
     /tmp/cc4kZHkY.s:286    .text:0000000000000168 .L0 
     /tmp/cc4kZHkY.s:289    .text:000000000000016c .L0 
     /tmp/cc4kZHkY.s:290    .text:000000000000016c .L0 
     /tmp/cc4kZHkY.s:292    .text:0000000000000170 .L0 
     /tmp/cc4kZHkY.s:295    .text:0000000000000178 .L0 
     /tmp/cc4kZHkY.s:297    .text:000000000000017c .L0 
     /tmp/cc4kZHkY.s:298    .text:000000000000017c .L0 
     /tmp/cc4kZHkY.s:302    .text:0000000000000180 .L0 
     /tmp/cc4kZHkY.s:303    .text:0000000000000180 .L0 
     /tmp/cc4kZHkY.s:305    .text:0000000000000184 .L0 
     /tmp/cc4kZHkY.s:307    .text:0000000000000188 .L0 
     /tmp/cc4kZHkY.s:308    .text:0000000000000188 .L0 
     /tmp/cc4kZHkY.s:310    .text:000000000000018c .L0 
     /tmp/cc4kZHkY.s:312    .text:0000000000000190 .L0 
     /tmp/cc4kZHkY.s:313    .text:0000000000000190 .L0 
     /tmp/cc4kZHkY.s:319    .text:0000000000000194 .L0 
     /tmp/cc4kZHkY.s:327    .text:000000000000019c .L0 
     /tmp/cc4kZHkY.s:328    .text:000000000000019c .L0 
     /tmp/cc4kZHkY.s:336    .text:00000000000001ac .L0 
     /tmp/cc4kZHkY.s:337    .text:00000000000001ac .L0 
     /tmp/cc4kZHkY.s:340    .text:00000000000001b0 .L0 
     /tmp/cc4kZHkY.s:341    .text:00000000000001b0 .L0 
     /tmp/cc4kZHkY.s:343    .text:00000000000001b4 .L0 
     /tmp/cc4kZHkY.s:344    .text:00000000000001b4 .L0 
     /tmp/cc4kZHkY.s:346    .text:00000000000001b8 .L0 
     /tmp/cc4kZHkY.s:347    .text:00000000000001b8 .L0 
     /tmp/cc4kZHkY.s:349    .text:00000000000001bc .L0 
     /tmp/cc4kZHkY.s:351    .text:00000000000001c0 .L0 
     /tmp/cc4kZHkY.s:352    .text:00000000000001c0 .L0 
     /tmp/cc4kZHkY.s:355    .text:00000000000001c4 .L0 
     /tmp/cc4kZHkY.s:356    .text:00000000000001c4 .L0 
     /tmp/cc4kZHkY.s:358    .text:00000000000001c8 .L0 
     /tmp/cc4kZHkY.s:360    .text:00000000000001cc .L0 
     /tmp/cc4kZHkY.s:361    .text:00000000000001cc .L0 
     /tmp/cc4kZHkY.s:364    .text:00000000000001d0 .L0 
     /tmp/cc4kZHkY.s:365    .text:00000000000001d0 .L0 
     /tmp/cc4kZHkY.s:367    .text:00000000000001d4 .L0 
     /tmp/cc4kZHkY.s:369    .text:00000000000001d8 .L0 
     /tmp/cc4kZHkY.s:370    .text:00000000000001d8 .L0 
     /tmp/cc4kZHkY.s:372    .text:00000000000001dc .L0 
     /tmp/cc4kZHkY.s:374    .text:00000000000001e0 .L0 
     /tmp/cc4kZHkY.s:375    .text:00000000000001e0 .L0 
     /tmp/cc4kZHkY.s:377    .text:00000000000001e4 .L0 
     /tmp/cc4kZHkY.s:380    .text:00000000000001e8 .L0 
     /tmp/cc4kZHkY.s:382    .text:00000000000001ec .L0 
     /tmp/cc4kZHkY.s:383    .text:00000000000001ec .L0 
     /tmp/cc4kZHkY.s:385    .text:00000000000001f0 .L0 
     /tmp/cc4kZHkY.s:388    .text:00000000000001fc .L0 
     /tmp/cc4kZHkY.s:389    .text:00000000000001fc .L0 
     /tmp/cc4kZHkY.s:391    .text:0000000000000200 .L0 
     /tmp/cc4kZHkY.s:393    .text:0000000000000204 .L0 
     /tmp/cc4kZHkY.s:394    .text:0000000000000204 .L0 
     /tmp/cc4kZHkY.s:396    .text:0000000000000208 .L0 
     /tmp/cc4kZHkY.s:397    .text:0000000000000208 .L0 
     /tmp/cc4kZHkY.s:399    .text:000000000000020c .L0 
GAS LISTING /tmp/cc4kZHkY.s 			page 27


     /tmp/cc4kZHkY.s:400    .text:000000000000020c .L0 
     /tmp/cc4kZHkY.s:410    .text:0000000000000210 .L0 
     /tmp/cc4kZHkY.s:411    .text:0000000000000214 .L0 
     /tmp/cc4kZHkY.s:412    .text:0000000000000214 .L0 
     /tmp/cc4kZHkY.s:413    .text:0000000000000214 .L0 
     /tmp/cc4kZHkY.s:415    .text:0000000000000218 .L0 
     /tmp/cc4kZHkY.s:419    .text:000000000000021c .L0 
     /tmp/cc4kZHkY.s:427    .text:000000000000021c .L0 
     /tmp/cc4kZHkY.s:428    .text:000000000000021c .L0 
     /tmp/cc4kZHkY.s:430    .text:0000000000000220 .L0 
     /tmp/cc4kZHkY.s:439    .text:0000000000000230 .L0 
     /tmp/cc4kZHkY.s:445    .text:0000000000000230 _ZdlPv
     /tmp/cc4kZHkY.s:448    .text:0000000000000230 .L0 
     /tmp/cc4kZHkY.s:450    .text:0000000000000230 .L0 
     /tmp/cc4kZHkY.s:451    .text:0000000000000234 .L0 
     /tmp/cc4kZHkY.s:453    .text:0000000000000238 .L0 
     /tmp/cc4kZHkY.s:455    .text:000000000000023c .L0 
     /tmp/cc4kZHkY.s:460    .text:000000000000023c .L0 
     /tmp/cc4kZHkY.s:461    .text:000000000000023c .L0 
     /tmp/cc4kZHkY.s:462    .text:000000000000023c .L0 
     /tmp/cc4kZHkY.s:463    .text:000000000000023c .L0 
     /tmp/cc4kZHkY.s:466    .text:0000000000000248 .L0 
     /tmp/cc4kZHkY.s:468    .text:000000000000024c .L0 
     /tmp/cc4kZHkY.s:472    .text:0000000000000250 .L0 
     /tmp/cc4kZHkY.s:474    .text:0000000000000254 .L0 
     /tmp/cc4kZHkY.s:477    .text:0000000000000258 .L0 
     /tmp/cc4kZHkY.s:483    .text:0000000000000264 .L0 
     /tmp/cc4kZHkY.s:490    .text:0000000000000270 .L0 
     /tmp/cc4kZHkY.s:491    .text:0000000000000270 .L0 
     /tmp/cc4kZHkY.s:492    .text:0000000000000270 .L0 
     /tmp/cc4kZHkY.s:494    .text:0000000000000274 .L0 
     /tmp/cc4kZHkY.s:498    .text:0000000000000274 .L0 
     /tmp/cc4kZHkY.s:501    .text:0000000000000274 .L0 
     /tmp/cc4kZHkY.s:502    .text:0000000000000274 .L0 
     /tmp/cc4kZHkY.s:505    .text:000000000000027c .L0 
     /tmp/cc4kZHkY.s:506    .text:000000000000027c .L0 
     /tmp/cc4kZHkY.s:508    .text:0000000000000280 .L0 
     /tmp/cc4kZHkY.s:510    .text:0000000000000284 .L0 
     /tmp/cc4kZHkY.s:511    .text:0000000000000284 .L0 
     /tmp/cc4kZHkY.s:513    .text:0000000000000288 .L0 
     /tmp/cc4kZHkY.s:516    .text:000000000000028c .L0 
     /tmp/cc4kZHkY.s:517    .text:000000000000028c .L0 
     /tmp/cc4kZHkY.s:519    .text:0000000000000290 .L0 
     /tmp/cc4kZHkY.s:521    .text:0000000000000294 .L0 
     /tmp/cc4kZHkY.s:522    .text:0000000000000294 .L0 
     /tmp/cc4kZHkY.s:525    .text:0000000000000298 .L0 
     /tmp/cc4kZHkY.s:527    .text:000000000000029c .L0 
     /tmp/cc4kZHkY.s:528    .text:000000000000029c .L0 
     /tmp/cc4kZHkY.s:534    .text:00000000000002a0 .L0 
     /tmp/cc4kZHkY.s:535    .text:00000000000002a0 .L0 
     /tmp/cc4kZHkY.s:537    .text:00000000000002a4 .L0 
     /tmp/cc4kZHkY.s:538    .text:00000000000002a4 .L0 
     /tmp/cc4kZHkY.s:540    .text:00000000000002a8 .L0 
     /tmp/cc4kZHkY.s:542    .text:00000000000002ac .L0 
     /tmp/cc4kZHkY.s:544    .text:00000000000002b0 .L0 
     /tmp/cc4kZHkY.s:546    .text:00000000000002b4 .L0 
     /tmp/cc4kZHkY.s:554    .text:00000000000002b8 .L0 
GAS LISTING /tmp/cc4kZHkY.s 			page 28


     /tmp/cc4kZHkY.s:555    .text:00000000000002b8 .L0 
     /tmp/cc4kZHkY.s:557    .text:00000000000002bc .L0 
     /tmp/cc4kZHkY.s:558    .text:00000000000002bc .L0 
     /tmp/cc4kZHkY.s:560    .text:00000000000002c0 .L0 
     /tmp/cc4kZHkY.s:562    .text:00000000000002c4 .L0 
     /tmp/cc4kZHkY.s:564    .text:00000000000002c8 .L0 
     /tmp/cc4kZHkY.s:566    .text:00000000000002cc .L0 
     /tmp/cc4kZHkY.s:574    .text:00000000000002d0 .L0 
     /tmp/cc4kZHkY.s:575    .text:00000000000002d4 .L0 
     /tmp/cc4kZHkY.s:576    .text:00000000000002d4 .L0 
     /tmp/cc4kZHkY.s:577    .text:00000000000002d4 .L0 
     /tmp/cc4kZHkY.s:579    .text:00000000000002d8 .L0 
     /tmp/cc4kZHkY.s:583    .text:00000000000002dc .L0 
     /tmp/cc4kZHkY.s:587    .text:00000000000002dc .L0 
     /tmp/cc4kZHkY.s:588    .text:00000000000002dc .L0 
     /tmp/cc4kZHkY.s:594    .text:00000000000002f0 .L0 
     /tmp/cc4kZHkY.s:595    .text:00000000000002f0 .L0 
     /tmp/cc4kZHkY.s:603    .text:0000000000000300 .L0 
     /tmp/cc4kZHkY.s:604    .text:0000000000000300 .L0 
     /tmp/cc4kZHkY.s:606    .text:0000000000000304 .L0 
     /tmp/cc4kZHkY.s:609    .text:000000000000030c .L0 
     /tmp/cc4kZHkY.s:610    .text:000000000000030c .L0 
     /tmp/cc4kZHkY.s:612    .text:0000000000000310 .L0 
     /tmp/cc4kZHkY.s:614    .text:0000000000000314 .L0 
     /tmp/cc4kZHkY.s:616    .text:0000000000000318 .L0 
     /tmp/cc4kZHkY.s:617    .text:0000000000000318 .L0 
     /tmp/cc4kZHkY.s:626    .text:0000000000000320 .L0 
     /tmp/cc4kZHkY.s:627    .text:0000000000000320 .L0 
     /tmp/cc4kZHkY.s:629    .text:0000000000000324 .L0 
     /tmp/cc4kZHkY.s:632    .text:000000000000032c .L0 
     /tmp/cc4kZHkY.s:633    .text:000000000000032c .L0 
     /tmp/cc4kZHkY.s:635    .text:0000000000000330 .L0 
     /tmp/cc4kZHkY.s:637    .text:0000000000000334 .L0 
     /tmp/cc4kZHkY.s:639    .text:0000000000000338 .L0 
     /tmp/cc4kZHkY.s:640    .text:0000000000000338 .L0 
     /tmp/cc4kZHkY.s:647    .text:000000000000033c .L0 
     /tmp/cc4kZHkY.s:648    .text:000000000000033c .L0 
     /tmp/cc4kZHkY.s:649    .text:0000000000000340 .L0 
     /tmp/cc4kZHkY.s:655    .text:0000000000000340 _ZdaPv
     /tmp/cc4kZHkY.s:658    .text:0000000000000340 .L0 
     /tmp/cc4kZHkY.s:660    .text:0000000000000340 .L0 
     /tmp/cc4kZHkY.s:661    .text:0000000000000344 .L0 
     /tmp/cc4kZHkY.s:663    .text:0000000000000348 .L0 
     /tmp/cc4kZHkY.s:665    .text:000000000000034c .L0 
     /tmp/cc4kZHkY.s:670    .text:000000000000034c .L0 
     /tmp/cc4kZHkY.s:671    .text:000000000000034c .L0 
     /tmp/cc4kZHkY.s:672    .text:000000000000034c .L0 
     /tmp/cc4kZHkY.s:673    .text:000000000000034c .L0 
     /tmp/cc4kZHkY.s:676    .text:0000000000000358 .L0 
     /tmp/cc4kZHkY.s:678    .text:000000000000035c .L0 
     /tmp/cc4kZHkY.s:682    .text:0000000000000360 .L0 
     /tmp/cc4kZHkY.s:684    .text:0000000000000364 .L0 
     /tmp/cc4kZHkY.s:687    .text:0000000000000368 .L0 
     /tmp/cc4kZHkY.s:693    .text:0000000000000374 .L0 
     /tmp/cc4kZHkY.s:700    .text:0000000000000380 .L0 
     /tmp/cc4kZHkY.s:701    .text:0000000000000380 .L0 
     /tmp/cc4kZHkY.s:702    .text:0000000000000380 .L0 
GAS LISTING /tmp/cc4kZHkY.s 			page 29


     /tmp/cc4kZHkY.s:704    .text:0000000000000384 .L0 
     /tmp/cc4kZHkY.s:708    .text:0000000000000384 .L0 
     /tmp/cc4kZHkY.s:711    .text:0000000000000384 .L0 
     /tmp/cc4kZHkY.s:712    .text:0000000000000384 .L0 
     /tmp/cc4kZHkY.s:715    .text:000000000000038c .L0 
     /tmp/cc4kZHkY.s:716    .text:000000000000038c .L0 
     /tmp/cc4kZHkY.s:718    .text:0000000000000390 .L0 
     /tmp/cc4kZHkY.s:720    .text:0000000000000394 .L0 
     /tmp/cc4kZHkY.s:721    .text:0000000000000394 .L0 
     /tmp/cc4kZHkY.s:723    .text:0000000000000398 .L0 
     /tmp/cc4kZHkY.s:726    .text:000000000000039c .L0 
     /tmp/cc4kZHkY.s:727    .text:000000000000039c .L0 
     /tmp/cc4kZHkY.s:729    .text:00000000000003a0 .L0 
     /tmp/cc4kZHkY.s:731    .text:00000000000003a4 .L0 
     /tmp/cc4kZHkY.s:732    .text:00000000000003a4 .L0 
     /tmp/cc4kZHkY.s:735    .text:00000000000003a8 .L0 
     /tmp/cc4kZHkY.s:737    .text:00000000000003ac .L0 
     /tmp/cc4kZHkY.s:738    .text:00000000000003ac .L0 
     /tmp/cc4kZHkY.s:744    .text:00000000000003b0 .L0 
     /tmp/cc4kZHkY.s:745    .text:00000000000003b0 .L0 
     /tmp/cc4kZHkY.s:747    .text:00000000000003b4 .L0 
     /tmp/cc4kZHkY.s:748    .text:00000000000003b4 .L0 
     /tmp/cc4kZHkY.s:750    .text:00000000000003b8 .L0 
     /tmp/cc4kZHkY.s:752    .text:00000000000003bc .L0 
     /tmp/cc4kZHkY.s:754    .text:00000000000003c0 .L0 
     /tmp/cc4kZHkY.s:756    .text:00000000000003c4 .L0 
     /tmp/cc4kZHkY.s:764    .text:00000000000003c8 .L0 
     /tmp/cc4kZHkY.s:765    .text:00000000000003c8 .L0 
     /tmp/cc4kZHkY.s:767    .text:00000000000003cc .L0 
     /tmp/cc4kZHkY.s:768    .text:00000000000003cc .L0 
     /tmp/cc4kZHkY.s:770    .text:00000000000003d0 .L0 
     /tmp/cc4kZHkY.s:772    .text:00000000000003d4 .L0 
     /tmp/cc4kZHkY.s:774    .text:00000000000003d8 .L0 
     /tmp/cc4kZHkY.s:776    .text:00000000000003dc .L0 
     /tmp/cc4kZHkY.s:784    .text:00000000000003e0 .L0 
     /tmp/cc4kZHkY.s:785    .text:00000000000003e4 .L0 
     /tmp/cc4kZHkY.s:786    .text:00000000000003e4 .L0 
     /tmp/cc4kZHkY.s:787    .text:00000000000003e4 .L0 
     /tmp/cc4kZHkY.s:789    .text:00000000000003e8 .L0 
     /tmp/cc4kZHkY.s:793    .text:00000000000003ec .L0 
     /tmp/cc4kZHkY.s:797    .text:00000000000003ec .L0 
     /tmp/cc4kZHkY.s:798    .text:00000000000003ec .L0 
     /tmp/cc4kZHkY.s:804    .text:0000000000000400 .L0 
     /tmp/cc4kZHkY.s:805    .text:0000000000000400 .L0 
     /tmp/cc4kZHkY.s:813    .text:0000000000000410 .L0 
     /tmp/cc4kZHkY.s:814    .text:0000000000000410 .L0 
     /tmp/cc4kZHkY.s:816    .text:0000000000000414 .L0 
     /tmp/cc4kZHkY.s:819    .text:000000000000041c .L0 
     /tmp/cc4kZHkY.s:820    .text:000000000000041c .L0 
     /tmp/cc4kZHkY.s:822    .text:0000000000000420 .L0 
     /tmp/cc4kZHkY.s:824    .text:0000000000000424 .L0 
     /tmp/cc4kZHkY.s:826    .text:0000000000000428 .L0 
     /tmp/cc4kZHkY.s:827    .text:0000000000000428 .L0 
     /tmp/cc4kZHkY.s:836    .text:0000000000000430 .L0 
     /tmp/cc4kZHkY.s:837    .text:0000000000000430 .L0 
     /tmp/cc4kZHkY.s:839    .text:0000000000000434 .L0 
     /tmp/cc4kZHkY.s:842    .text:000000000000043c .L0 
GAS LISTING /tmp/cc4kZHkY.s 			page 30


     /tmp/cc4kZHkY.s:843    .text:000000000000043c .L0 
     /tmp/cc4kZHkY.s:845    .text:0000000000000440 .L0 
     /tmp/cc4kZHkY.s:847    .text:0000000000000444 .L0 
     /tmp/cc4kZHkY.s:849    .text:0000000000000448 .L0 
     /tmp/cc4kZHkY.s:850    .text:0000000000000448 .L0 
     /tmp/cc4kZHkY.s:857    .text:000000000000044c .L0 
     /tmp/cc4kZHkY.s:858    .text:000000000000044c .L0 
     /tmp/cc4kZHkY.s:859    .text:0000000000000450 .L0 
     /tmp/cc4kZHkY.s:864    .text:0000000000000450 .L0 
     /tmp/cc4kZHkY.s:45     .text:000000000000001c .L0 
     /tmp/cc4kZHkY.s:54     .text:000000000000002c .L0 
     /tmp/cc4kZHkY.s:111    .text:0000000000000084 .L0 
     /tmp/cc4kZHkY.s:168    .text:00000000000000d8 .L0 
     /tmp/cc4kZHkY.s:213    .text:0000000000000108 .L0 
     /tmp/cc4kZHkY.s:262    .text:0000000000000134 .L0 
     /tmp/cc4kZHkY.s:271    .text:0000000000000144 .L0 
     /tmp/cc4kZHkY.s:328    .text:000000000000019c .L0 
     /tmp/cc4kZHkY.s:385    .text:00000000000001f0 .L0 
     /tmp/cc4kZHkY.s:430    .text:0000000000000220 .L0 
     /tmp/cc4kZHkY.s:463    .text:000000000000023c .L0 
     /tmp/cc4kZHkY.s:588    .text:00000000000002dc .L0 
     /tmp/cc4kZHkY.s:595    .text:00000000000002f0 .L0 
     /tmp/cc4kZHkY.s:673    .text:000000000000034c .L0 
     /tmp/cc4kZHkY.s:798    .text:00000000000003ec .L0 
     /tmp/cc4kZHkY.s:805    .text:0000000000000400 .L0 
     /tmp/cc4kZHkY.s:185    .text:00000000000000f8 .L1
     /tmp/cc4kZHkY.s:98     .text:000000000000007c .L11
     /tmp/cc4kZHkY.s:116    .text:0000000000000094 .L4
     /tmp/cc4kZHkY.s:106    .text:0000000000000084 .L5
     /tmp/cc4kZHkY.s:48     .text:0000000000000028 .L3
     /tmp/cc4kZHkY.s:83     .text:0000000000000068 .L6
     /tmp/cc4kZHkY.s:201    .text:0000000000000104 .L8
     /tmp/cc4kZHkY.s:145    .text:00000000000000b8 .L10
     /tmp/cc4kZHkY.s:136    .text:00000000000000ac .L9
     /tmp/cc4kZHkY.s:402    .text:0000000000000210 .L13
     /tmp/cc4kZHkY.s:315    .text:0000000000000194 .L23
     /tmp/cc4kZHkY.s:333    .text:00000000000001ac .L16
     /tmp/cc4kZHkY.s:323    .text:000000000000019c .L17
     /tmp/cc4kZHkY.s:265    .text:0000000000000140 .L15
     /tmp/cc4kZHkY.s:300    .text:0000000000000180 .L18
     /tmp/cc4kZHkY.s:418    .text:000000000000021c .L20
     /tmp/cc4kZHkY.s:362    .text:00000000000001d0 .L22
     /tmp/cc4kZHkY.s:353    .text:00000000000001c4 .L21
     /tmp/cc4kZHkY.s:481    .text:0000000000000264 .L35
     /tmp/cc4kZHkY.s:485    .text:000000000000026c .L36
     /tmp/cc4kZHkY.s:488    .text:0000000000000270 .L26
     /tmp/cc4kZHkY.s:470    .text:0000000000000250 .L27
     /tmp/cc4kZHkY.s:582    .text:00000000000002dc .L28
     /tmp/cc4kZHkY.s:523    .text:0000000000000298 .L30
     /tmp/cc4kZHkY.s:592    .text:00000000000002f0 .L31
     /tmp/cc4kZHkY.s:547    .text:00000000000002b8 .L33
     /tmp/cc4kZHkY.s:599    .text:0000000000000300 .L38
     /tmp/cc4kZHkY.s:568    .text:00000000000002d0 .L25
     /tmp/cc4kZHkY.s:620    .text:0000000000000320 .L39
     /tmp/cc4kZHkY.s:514    .text:000000000000028c .L29
     /tmp/cc4kZHkY.s:529    .text:00000000000002a0 .L32
     /tmp/cc4kZHkY.s:691    .text:0000000000000374 .L50
GAS LISTING /tmp/cc4kZHkY.s 			page 31


     /tmp/cc4kZHkY.s:695    .text:000000000000037c .L51
     /tmp/cc4kZHkY.s:698    .text:0000000000000380 .L41
     /tmp/cc4kZHkY.s:680    .text:0000000000000360 .L42
     /tmp/cc4kZHkY.s:792    .text:00000000000003ec .L43
     /tmp/cc4kZHkY.s:733    .text:00000000000003a8 .L45
     /tmp/cc4kZHkY.s:802    .text:0000000000000400 .L46
     /tmp/cc4kZHkY.s:757    .text:00000000000003c8 .L48
     /tmp/cc4kZHkY.s:809    .text:0000000000000410 .L53
     /tmp/cc4kZHkY.s:778    .text:00000000000003e0 .L40
     /tmp/cc4kZHkY.s:830    .text:0000000000000430 .L54
     /tmp/cc4kZHkY.s:724    .text:000000000000039c .L44
     /tmp/cc4kZHkY.s:739    .text:00000000000003b0 .L47
     /tmp/cc4kZHkY.s:1497   .debug_abbrev:0000000000000000 .Ldebug_abbrev0
     /tmp/cc4kZHkY.s:2745   .debug_str:00000000000002e4 .LASF52
     /tmp/cc4kZHkY.s:2751   .debug_str:00000000000003c3 .LASF53
     /tmp/cc4kZHkY.s:2677   .debug_str:00000000000000bb .LASF54
     /tmp/cc4kZHkY.s:5      .text:0000000000000000 .Ltext0
     /tmp/cc4kZHkY.s:862    .text:0000000000000450 .Letext0
     /tmp/cc4kZHkY.s:2649   .debug_line:0000000000000000 .Ldebug_line0
     /tmp/cc4kZHkY.s:2701   .debug_str:000000000000019d .LASF0
     /tmp/cc4kZHkY.s:2707   .debug_str:00000000000001ba .LASF1
     /tmp/cc4kZHkY.s:2695   .debug_str:0000000000000172 .LASF2
     /tmp/cc4kZHkY.s:2685   .debug_str:0000000000000117 .LASF4
     /tmp/cc4kZHkY.s:2729   .debug_str:0000000000000253 .LASF3
     /tmp/cc4kZHkY.s:2653   .debug_str:0000000000000010 .LASF5
     /tmp/cc4kZHkY.s:2709   .debug_str:00000000000001cd .LASF6
     /tmp/cc4kZHkY.s:2699   .debug_str:000000000000018a .LASF7
     /tmp/cc4kZHkY.s:2753   .debug_str:00000000000003d0 .LASF8
     /tmp/cc4kZHkY.s:2681   .debug_str:00000000000000e9 .LASF9
     /tmp/cc4kZHkY.s:2717   .debug_str:000000000000020d .LASF10
     /tmp/cc4kZHkY.s:2749   .debug_str:00000000000003b4 .LASF11
     /tmp/cc4kZHkY.s:2655   .debug_str:0000000000000017 .LASF12
     /tmp/cc4kZHkY.s:2651   .debug_str:0000000000000000 .LASF13
     /tmp/cc4kZHkY.s:2661   .debug_str:0000000000000037 .LASF14
     /tmp/cc4kZHkY.s:2725   .debug_str:000000000000022f .LASF15
     /tmp/cc4kZHkY.s:2665   .debug_str:000000000000004a .LASF16
     /tmp/cc4kZHkY.s:2739   .debug_str:00000000000002ac .LASF23
     /tmp/cc4kZHkY.s:2675   .debug_str:00000000000000b3 .LASF55
     /tmp/cc4kZHkY.s:2765   .debug_str:0000000000000448 .LASF17
     /tmp/cc4kZHkY.s:2759   .debug_str:00000000000003f5 .LASF18
     /tmp/cc4kZHkY.s:2741   .debug_str:00000000000002bd .LASF19
     /tmp/cc4kZHkY.s:2715   .debug_str:0000000000000203 .LASF20
     /tmp/cc4kZHkY.s:2703   .debug_str:00000000000001aa .LASF21
     /tmp/cc4kZHkY.s:2723   .debug_str:000000000000022a .LASF22
     /tmp/cc4kZHkY.s:2733   .debug_str:000000000000026f .LASF24
     /tmp/cc4kZHkY.s:2711   .debug_str:00000000000001e0 .LASF25
     /tmp/cc4kZHkY.s:2697   .debug_str:0000000000000180 .LASF26
     /tmp/cc4kZHkY.s:2667   .debug_str:0000000000000060 .LASF27
     /tmp/cc4kZHkY.s:2747   .debug_str:00000000000003a8 .LASF56
     /tmp/cc4kZHkY.s:2687   .debug_str:000000000000011e .LASF57
     /tmp/cc4kZHkY.s:2657   .debug_str:0000000000000027 .LASF39
     /tmp/cc4kZHkY.s:2761   .debug_str:00000000000003fa .LASF41
     /tmp/cc4kZHkY.s:2659   .debug_str:000000000000002f .LASF28
     /tmp/cc4kZHkY.s:2683   .debug_str:00000000000000f7 .LASF30
     /tmp/cc4kZHkY.s:2727   .debug_str:0000000000000245 .LASF29
     /tmp/cc4kZHkY.s:2669   .debug_str:000000000000007d .LASF31
     /tmp/cc4kZHkY.s:2671   .debug_str:00000000000000a4 .LASF32
GAS LISTING /tmp/cc4kZHkY.s 			page 32


     /tmp/cc4kZHkY.s:2763   .debug_str:000000000000041a .LASF33
     /tmp/cc4kZHkY.s:2721   .debug_str:0000000000000221 .LASF34
     /tmp/cc4kZHkY.s:2689   .debug_str:0000000000000143 .LASF35
     /tmp/cc4kZHkY.s:2731   .debug_str:0000000000000265 .LASF36
     /tmp/cc4kZHkY.s:2743   .debug_str:00000000000002c2 .LASF37
     /tmp/cc4kZHkY.s:2673   .debug_str:00000000000000ae .LASF38
     /tmp/cc4kZHkY.s:2737   .debug_str:0000000000000299 .LASF40
     /tmp/cc4kZHkY.s:2663   .debug_str:0000000000000043 .LASF42
     /tmp/cc4kZHkY.s:656    .text:0000000000000340 .LFB32
     /tmp/cc4kZHkY.s:860    .text:0000000000000450 .LFE32
     /tmp/cc4kZHkY.s:668    .text:000000000000034c .LBB86
     /tmp/cc4kZHkY.s:2571   .debug_ranges:0000000000000000 .Ldebug_ranges0
     /tmp/cc4kZHkY.s:2188   .debug_loc:0000000000000000 .LLST14
     /tmp/cc4kZHkY.s:2199   .debug_loc:0000000000000036 .LLST15
     /tmp/cc4kZHkY.s:742    .text:00000000000003b0 .LBB88
     /tmp/cc4kZHkY.s:2228   .debug_loc:00000000000000ba .LLST16
     /tmp/cc4kZHkY.s:762    .text:00000000000003c8 .LBB91
     /tmp/cc4kZHkY.s:2239   .debug_loc:00000000000000f0 .LLST17
     /tmp/cc4kZHkY.s:2735   .debug_str:0000000000000289 .LASF43
     /tmp/cc4kZHkY.s:2693   .debug_str:000000000000016b .LASF44
     /tmp/cc4kZHkY.s:446    .text:0000000000000230 .LFB31
     /tmp/cc4kZHkY.s:650    .text:0000000000000340 .LFE31
     /tmp/cc4kZHkY.s:458    .text:000000000000023c .LBB66
     /tmp/cc4kZHkY.s:2250   .debug_loc:0000000000000126 .LLST10
     /tmp/cc4kZHkY.s:2261   .debug_loc:000000000000015c .LLST11
     /tmp/cc4kZHkY.s:532    .text:00000000000002a0 .LBB68
     /tmp/cc4kZHkY.s:2290   .debug_loc:00000000000001e0 .LLST12
     /tmp/cc4kZHkY.s:552    .text:00000000000002b8 .LBB71
     /tmp/cc4kZHkY.s:2301   .debug_loc:0000000000000216 .LLST13
     /tmp/cc4kZHkY.s:2679   .debug_str:00000000000000d9 .LASF45
     /tmp/cc4kZHkY.s:2713   .debug_str:00000000000001fd .LASF47
     /tmp/cc4kZHkY.s:229    .text:0000000000000118 .LFB30
     /tmp/cc4kZHkY.s:440    .text:0000000000000230 .LFE30
     /tmp/cc4kZHkY.s:2312   .debug_loc:000000000000024c .LLST5
     /tmp/cc4kZHkY.s:241    .text:0000000000000124 .LBB44
     /tmp/cc4kZHkY.s:252    .text:0000000000000130 .LBE44
     /tmp/cc4kZHkY.s:2326   .debug_loc:0000000000000285 .LLST6
     /tmp/cc4kZHkY.s:253    .text:0000000000000130 .LBB46
     /tmp/cc4kZHkY.s:2333   .debug_loc:00000000000002a8 .LLST7
     /tmp/cc4kZHkY.s:2409   .debug_loc:000000000000036a .LLST8
     /tmp/cc4kZHkY.s:2424   .debug_loc:00000000000003b3 .LLST9
     /tmp/cc4kZHkY.s:2757   .debug_str:00000000000003e8 .LASF46
     /tmp/cc4kZHkY.s:2691   .debug_str:0000000000000165 .LASF48
     /tmp/cc4kZHkY.s:10     .text:0000000000000000 .LFB29
     /tmp/cc4kZHkY.s:223    .text:0000000000000118 .LFE29
     /tmp/cc4kZHkY.s:2435   .debug_loc:00000000000003e9 .LLST0
     /tmp/cc4kZHkY.s:23     .text:000000000000000c .LBB20
     /tmp/cc4kZHkY.s:35     .text:0000000000000018 .LBE20
     /tmp/cc4kZHkY.s:2449   .debug_loc:0000000000000422 .LLST1
     /tmp/cc4kZHkY.s:36     .text:0000000000000018 .LBB22
     /tmp/cc4kZHkY.s:2456   .debug_loc:0000000000000445 .LLST2
     /tmp/cc4kZHkY.s:2532   .debug_loc:0000000000000507 .LLST3
     /tmp/cc4kZHkY.s:2547   .debug_loc:0000000000000550 .LLST4
     /tmp/cc4kZHkY.s:2755   .debug_str:00000000000003e0 .LASF49
     /tmp/cc4kZHkY.s:2705   .debug_str:00000000000001b3 .LASF50
     /tmp/cc4kZHkY.s:2719   .debug_str:000000000000021c .LASF51
     /tmp/cc4kZHkY.s:667    .text:000000000000034c .LVL45
GAS LISTING /tmp/cc4kZHkY.s 			page 33


     /tmp/cc4kZHkY.s:777    .text:00000000000003e0 .LVL53
     /tmp/cc4kZHkY.s:791    .text:00000000000003ec .LVL54
     /tmp/cc4kZHkY.s:851    .text:000000000000044c .LVL57
     /tmp/cc4kZHkY.s:679    .text:0000000000000360 .LVL46
     /tmp/cc4kZHkY.s:685    .text:0000000000000368 .LVL47
     /tmp/cc4kZHkY.s:690    .text:0000000000000374 .LVL48
     /tmp/cc4kZHkY.s:697    .text:0000000000000380 .LVL49
     /tmp/cc4kZHkY.s:741    .text:00000000000003b0 .LVL51
     /tmp/cc4kZHkY.s:758    .text:00000000000003c8 .LVL52
     /tmp/cc4kZHkY.s:808    .text:0000000000000410 .LVL55
     /tmp/cc4kZHkY.s:829    .text:0000000000000430 .LVL56
     /tmp/cc4kZHkY.s:457    .text:000000000000023c .LVL31
     /tmp/cc4kZHkY.s:567    .text:00000000000002d0 .LVL39
     /tmp/cc4kZHkY.s:581    .text:00000000000002dc .LVL40
     /tmp/cc4kZHkY.s:641    .text:000000000000033c .LVL43
     /tmp/cc4kZHkY.s:469    .text:0000000000000250 .LVL32
     /tmp/cc4kZHkY.s:475    .text:0000000000000258 .LVL33
     /tmp/cc4kZHkY.s:480    .text:0000000000000264 .LVL34
     /tmp/cc4kZHkY.s:487    .text:0000000000000270 .LVL35
     /tmp/cc4kZHkY.s:531    .text:00000000000002a0 .LVL37
     /tmp/cc4kZHkY.s:548    .text:00000000000002b8 .LVL38
     /tmp/cc4kZHkY.s:598    .text:0000000000000300 .LVL41
     /tmp/cc4kZHkY.s:619    .text:0000000000000320 .LVL42
     /tmp/cc4kZHkY.s:232    .text:0000000000000118 .LVL15
     /tmp/cc4kZHkY.s:264    .text:0000000000000140 .LVL19
     /tmp/cc4kZHkY.s:240    .text:0000000000000124 .LVL16
     /tmp/cc4kZHkY.s:250    .text:0000000000000130 .LVL17
     /tmp/cc4kZHkY.s:299    .text:0000000000000180 .LVL20
     /tmp/cc4kZHkY.s:314    .text:0000000000000194 .LVL21
     /tmp/cc4kZHkY.s:329    .text:00000000000001a4 .LVL24
     /tmp/cc4kZHkY.s:332    .text:00000000000001ac .LVL25
     /tmp/cc4kZHkY.s:378    .text:00000000000001e8 .LVL27
     /tmp/cc4kZHkY.s:401    .text:0000000000000210 .LVL28
     /tmp/cc4kZHkY.s:417    .text:000000000000021c .LVL29
     /tmp/cc4kZHkY.s:320    .text:0000000000000198 .LVL22
     /tmp/cc4kZHkY.s:322    .text:000000000000019c .LVL23
     /tmp/cc4kZHkY.s:338    .text:00000000000001b0 .LVL26
     /tmp/cc4kZHkY.s:14     .text:0000000000000000 .LVL0
     /tmp/cc4kZHkY.s:47     .text:0000000000000028 .LVL4
     /tmp/cc4kZHkY.s:22     .text:000000000000000c .LVL1
     /tmp/cc4kZHkY.s:33     .text:0000000000000018 .LVL2
     /tmp/cc4kZHkY.s:82     .text:0000000000000068 .LVL5
     /tmp/cc4kZHkY.s:97     .text:000000000000007c .LVL6
     /tmp/cc4kZHkY.s:112    .text:000000000000008c .LVL9
     /tmp/cc4kZHkY.s:115    .text:0000000000000094 .LVL10
     /tmp/cc4kZHkY.s:161    .text:00000000000000d0 .LVL12
     /tmp/cc4kZHkY.s:184    .text:00000000000000f8 .LVL13
     /tmp/cc4kZHkY.s:200    .text:0000000000000104 .LVL14
     /tmp/cc4kZHkY.s:103    .text:0000000000000080 .LVL7
     /tmp/cc4kZHkY.s:105    .text:0000000000000084 .LVL8
     /tmp/cc4kZHkY.s:121    .text:0000000000000098 .LVL11
     /tmp/cc4kZHkY.s:865    .debug_info:0000000000000000 .Ldebug_info0
     /tmp/cc4kZHkY.s:191    .text:00000000000000f8 .LBE22
     /tmp/cc4kZHkY.s:203    .text:0000000000000104 .LBB35
     /tmp/cc4kZHkY.s:221    .text:0000000000000118 .LBE35
     /tmp/cc4kZHkY.s:43     .text:000000000000001c .LBB24
     /tmp/cc4kZHkY.s:189    .text:00000000000000f8 .LBE24
GAS LISTING /tmp/cc4kZHkY.s 			page 34


     /tmp/cc4kZHkY.s:205    .text:0000000000000104 .LBB33
     /tmp/cc4kZHkY.s:219    .text:0000000000000118 .LBE33
     /tmp/cc4kZHkY.s:117    .text:0000000000000094 .LBB27
     /tmp/cc4kZHkY.s:186    .text:00000000000000f8 .LBE27
     /tmp/cc4kZHkY.s:208    .text:0000000000000104 .LBB28
     /tmp/cc4kZHkY.s:216    .text:0000000000000118 .LBE28
     /tmp/cc4kZHkY.s:408    .text:0000000000000210 .LBE46
     /tmp/cc4kZHkY.s:420    .text:000000000000021c .LBB59
     /tmp/cc4kZHkY.s:438    .text:0000000000000230 .LBE59
     /tmp/cc4kZHkY.s:260    .text:0000000000000134 .LBB48
     /tmp/cc4kZHkY.s:406    .text:0000000000000210 .LBE48
     /tmp/cc4kZHkY.s:422    .text:000000000000021c .LBB57
     /tmp/cc4kZHkY.s:436    .text:0000000000000230 .LBE57
     /tmp/cc4kZHkY.s:334    .text:00000000000001ac .LBB51
     /tmp/cc4kZHkY.s:403    .text:0000000000000210 .LBE51
     /tmp/cc4kZHkY.s:425    .text:000000000000021c .LBB52
     /tmp/cc4kZHkY.s:433    .text:0000000000000230 .LBE52
     /tmp/cc4kZHkY.s:497    .text:0000000000000274 .LBE66
     /tmp/cc4kZHkY.s:499    .text:0000000000000274 .LBB78
     /tmp/cc4kZHkY.s:572    .text:00000000000002d0 .LBE78
     /tmp/cc4kZHkY.s:584    .text:00000000000002dc .LBB79
     /tmp/cc4kZHkY.s:646    .text:000000000000033c .LBE79
     /tmp/cc4kZHkY.s:550    .text:00000000000002b8 .LBE68
     /tmp/cc4kZHkY.s:600    .text:0000000000000300 .LBB74
     /tmp/cc4kZHkY.s:622    .text:0000000000000320 .LBE74
     /tmp/cc4kZHkY.s:570    .text:00000000000002d0 .LBE71
     /tmp/cc4kZHkY.s:623    .text:0000000000000320 .LBB75
     /tmp/cc4kZHkY.s:643    .text:000000000000033c .LBE75
     /tmp/cc4kZHkY.s:707    .text:0000000000000384 .LBE86
     /tmp/cc4kZHkY.s:709    .text:0000000000000384 .LBB98
     /tmp/cc4kZHkY.s:782    .text:00000000000003e0 .LBE98
     /tmp/cc4kZHkY.s:794    .text:00000000000003ec .LBB99
     /tmp/cc4kZHkY.s:856    .text:000000000000044c .LBE99
     /tmp/cc4kZHkY.s:760    .text:00000000000003c8 .LBE88
     /tmp/cc4kZHkY.s:810    .text:0000000000000410 .LBB94
     /tmp/cc4kZHkY.s:832    .text:0000000000000430 .LBE94
     /tmp/cc4kZHkY.s:780    .text:00000000000003e0 .LBE91
     /tmp/cc4kZHkY.s:833    .text:0000000000000430 .LBB95
     /tmp/cc4kZHkY.s:853    .text:000000000000044c .LBE95

UNDEFINED SYMBOLS
_ZN16MemoryAllocation9fmem_headE
