GAS LISTING /tmp/ccNPrgEi.s 			page 1


   1              		.file	"main.cpp"
   2              		.option pic
   3              		.option norelax
   4              		.text
   5              	.Ltext0:
   6              		.section	.rodata.str1.8,"aMS",@progbits,1
   7              		.align	3
   8              	.LC0:
   9 0000 4E612073 		.string	"Na stolu su: duvan i papir\n"
   9      746F6C75 
   9      2073753A 
   9      20647576 
   9      616E2069 
  10 001c 00000000 		.align	3
  11              	.LC1:
  12 0020 4E612073 		.string	"Na stolu su: duvan i sibice\n"
  12      746F6C75 
  12      2073753A 
  12      20647576 
  12      616E2069 
  13 003d 000000   		.align	3
  14              	.LC2:
  15 0040 4E612073 		.string	"Na stolu su: sibice i papir\n"
  15      746F6C75 
  15      2073753A 
  15      20736962 
  15      69636520 
  16              		.text
  17              		.align	2
  18              		.globl	_Z8agentfunPv
  20              	_Z8agentfunPv:
  21              	.LFB46:
  22              		.file 1 "src/main.cpp"
   1:src/main.cpp  **** #include "../lib/hw.h"
   2:src/main.cpp  **** #include "../lib/console.h"
   3:src/main.cpp  **** #include "../h/tcb.hpp"
   4:src/main.cpp  **** //#include "../h/workers.hpp"
   5:src/main.cpp  **** #include "../h/Print.hpp"
   6:src/main.cpp  **** //#include "../h/MemoryAllocation.hpp"
   7:src/main.cpp  **** #include "../h/RiscV.hpp"
   8:src/main.cpp  **** #include "../h/syscall_c.hpp"
   9:src/main.cpp  **** #include "../h/semaphore.hpp"
  10:src/main.cpp  **** //#include "../src/userMain.cpp"
  11:src/main.cpp  **** //#include "../test/Threads_C_API_test.hpp"
  12:src/main.cpp  **** //extern void userMain();
  13:src/main.cpp  **** typedef semaphore* sem_t;
  14:src/main.cpp  **** sem_t agent;
  15:src/main.cpp  **** sem_t mutex;
  16:src/main.cpp  **** sem_t matches;
  17:src/main.cpp  **** sem_t paper;
  18:src/main.cpp  **** sem_t tabacco;
  19:src/main.cpp  **** semaphore sem; //TODO problem pravi sto nisu staticke metode
  20:src/main.cpp  **** void agentfun(void *arg);
  21:src/main.cpp  **** void smoker1(void* arg);
  22:src/main.cpp  **** void smoker2(void* arg);
  23:src/main.cpp  **** void smoker3(void* arg);
  24:src/main.cpp  **** 
GAS LISTING /tmp/ccNPrgEi.s 			page 2


  25:src/main.cpp  **** int main(){
  26:src/main.cpp  ****     MemoryAllocation* mem_obj;
  27:src/main.cpp  ****     mem_obj = mem_obj->getInstance();
  28:src/main.cpp  ****     RiscV::w_stvec((uint64) &RiscV::supervisorTrap);
  29:src/main.cpp  **** 
  30:src/main.cpp  ****     //semaphore* sem;
  31:src/main.cpp  ****     //semaphore::semOpen(&sem, 1);
  32:src/main.cpp  ****     TCB* thread;
  33:src/main.cpp  **** 
  34:src/main.cpp  ****     thread_create( &thread, nullptr, nullptr);
  35:src/main.cpp  ****     TCB::running=thread;
  36:src/main.cpp  ****      //__asm__ volatile ("csrs sstatus, 0x2");
  37:src/main.cpp  ****     semaphore::semOpen(&mutex,1);
  38:src/main.cpp  ****     semaphore::semOpen(&paper,0);
  39:src/main.cpp  ****     semaphore::semOpen(&matches,0);
  40:src/main.cpp  ****     semaphore::semOpen(&agent,0);
  41:src/main.cpp  ****     semaphore::semOpen(&tabacco,0);
  42:src/main.cpp  **** 
  43:src/main.cpp  ****     TCB* t= nullptr;
  44:src/main.cpp  ****     TCB* t1= nullptr;
  45:src/main.cpp  ****     TCB* t2= nullptr;
  46:src/main.cpp  ****     TCB* t3= nullptr;
  47:src/main.cpp  **** 
  48:src/main.cpp  ****     thread_create(&t, agentfun, nullptr);
  49:src/main.cpp  ****     thread_create(&t1, smoker1, nullptr);
  50:src/main.cpp  ****     thread_create(&t2, smoker2, nullptr);
  51:src/main.cpp  ****     thread_create(&t3, smoker3, nullptr);
  52:src/main.cpp  **** 
  53:src/main.cpp  ****     for (int i = 0; i < 31; ++i) {
  54:src/main.cpp  ****         thread_dispatch();
  55:src/main.cpp  ****     }
  56:src/main.cpp  **** 
  57:src/main.cpp  **** 
  58:src/main.cpp  **** 
  59:src/main.cpp  ****     //userMain();
  60:src/main.cpp  **** 
  61:src/main.cpp  ****     //semaphore::semClose(paper);
  62:src/main.cpp  ****     //semaphore::semClose(mutex);
  63:src/main.cpp  ****     //semaphore::semClose(tabacco);
  64:src/main.cpp  ****     //semaphore::semClose(agent);
  65:src/main.cpp  ****     //semaphore::semClose(matches);
  66:src/main.cpp  **** 
  67:src/main.cpp  ****     return 0;
  68:src/main.cpp  **** }
  69:src/main.cpp  **** 
  70:src/main.cpp  **** void agentfun(void *args){
  23              		.loc 1 70 26
  24              		.cfi_startproc
  25              	.LVL0:
  26 0000 130101FE 		addi	sp,sp,-32
  27              		.cfi_def_cfa_offset 32
  28 0004 233C1100 		sd	ra,24(sp)
  29 0008 23388100 		sd	s0,16(sp)
  30 000c 23349100 		sd	s1,8(sp)
  31              		.cfi_offset 1, -8
  32              		.cfi_offset 8, -16
  33              		.cfi_offset 9, -24
GAS LISTING /tmp/ccNPrgEi.s 			page 3


  34 0010 13040102 		addi	s0,sp,32
  35              		.cfi_def_cfa 8, 0
  71:src/main.cpp  ****     int i=0;
  36              		.loc 1 71 5
  37              	.LVL1:
  38              		.loc 1 71 9 is_stmt 0
  39 0014 93040000 		li	s1,0
  40 0018 6F008004 		j	.L5
  41              	.LVL2:
  42              	.L2:
  72:src/main.cpp  ****     while (true){
  73:src/main.cpp  ****         semaphore::semWait(&mutex);
  74:src/main.cpp  ****         switch (i%3) {
  75:src/main.cpp  ****             case 0:
  76:src/main.cpp  ****                 printString("Na stolu su: duvan i papir\n");
  77:src/main.cpp  ****                 semaphore::semSignal(&matches);
  78:src/main.cpp  ****                 break;
  79:src/main.cpp  ****             case 1:
  43              		.loc 1 79 13 is_stmt 1
  80:src/main.cpp  ****                 printString("Na stolu su: duvan i sibice\n");
  44              		.loc 1 80 17
  45              		.loc 1 80 28 is_stmt 0
  46 001c 17050000 		lla	a0,.LC1
  46      13050500 
  47 0024 97000000 		call	_Z11printStringPKc@plt
  47      E7800000 
  48              	.LVL3:
  81:src/main.cpp  ****                 semaphore::semSignal(&paper);
  49              		.loc 1 81 17 is_stmt 1
  50              		.loc 1 81 37 is_stmt 0
  51 002c 17050000 		lla	a0,.LANCHOR0+16
  51      13050500 
  52 0034 97000000 		call	_ZN9semaphore9semSignalEPPS_@plt
  52      E7800000 
  53              	.LVL4:
  82:src/main.cpp  ****                 break;
  54              		.loc 1 82 17 is_stmt 1
  55              	.L4:
  83:src/main.cpp  ****             case 2:
  84:src/main.cpp  ****                 printString("Na stolu su: sibice i papir\n");
  85:src/main.cpp  ****                 semaphore::semSignal(&tabacco);
  86:src/main.cpp  ****                 break;
  87:src/main.cpp  ****         }
  88:src/main.cpp  ****         i++;
  56              		.loc 1 88 9
  57              		.loc 1 88 10 is_stmt 0
  58 003c 9B841400 		addiw	s1,s1,1
  59              	.LVL5:
  89:src/main.cpp  ****         semaphore::semSignal(&mutex);
  60              		.loc 1 89 9 is_stmt 1
  61              		.loc 1 89 29 is_stmt 0
  62 0040 17050000 		lla	a0,.LANCHOR0
  62      13050500 
  63 0048 97000000 		call	_ZN9semaphore9semSignalEPPS_@plt
  63      E7800000 
  64              	.LVL6:
  90:src/main.cpp  ****         semaphore::semWait(&agent);
GAS LISTING /tmp/ccNPrgEi.s 			page 4


  65              		.loc 1 90 9 is_stmt 1
  66              		.loc 1 90 27 is_stmt 0
  67 0050 17050000 		lla	a0,.LANCHOR0+32
  67      13050500 
  68 0058 97000000 		call	_ZN9semaphore7semWaitEPPS_@plt
  68      E7800000 
  69              	.LVL7:
  72:src/main.cpp  ****         semaphore::semWait(&mutex);
  70              		.loc 1 72 5 is_stmt 1
  71              	.L5:
  72:src/main.cpp  ****         semaphore::semWait(&mutex);
  72              		.loc 1 72 5
  73:src/main.cpp  ****         switch (i%3) {
  73              		.loc 1 73 9
  73:src/main.cpp  ****         switch (i%3) {
  74              		.loc 1 73 27 is_stmt 0
  75 0060 17050000 		lla	a0,.LANCHOR0
  75      13050500 
  76 0068 97000000 		call	_ZN9semaphore7semWaitEPPS_@plt
  76      E7800000 
  77              	.LVL8:
  74:src/main.cpp  ****             case 0:
  78              		.loc 1 74 9 is_stmt 1
  74:src/main.cpp  ****             case 0:
  79              		.loc 1 74 18 is_stmt 0
  80 0070 93073000 		li	a5,3
  81 0074 BBE7F402 		remw	a5,s1,a5
  74:src/main.cpp  ****             case 0:
  82              		.loc 1 74 9
  83 0078 13071000 		li	a4,1
  84 007c E380E7FA 		beq	a5,a4,.L2
  85 0080 13072000 		li	a4,2
  86 0084 6386E702 		beq	a5,a4,.L3
  87 0088 E39A07FA 		bnez	a5,.L4
  75:src/main.cpp  ****                 printString("Na stolu su: duvan i papir\n");
  88              		.loc 1 75 13 is_stmt 1
  76:src/main.cpp  ****                 semaphore::semSignal(&matches);
  89              		.loc 1 76 17
  76:src/main.cpp  ****                 semaphore::semSignal(&matches);
  90              		.loc 1 76 28 is_stmt 0
  91 008c 17050000 		lla	a0,.LC0
  91      13050500 
  92 0094 97000000 		call	_Z11printStringPKc@plt
  92      E7800000 
  93              	.LVL9:
  77:src/main.cpp  ****                 break;
  94              		.loc 1 77 17 is_stmt 1
  77:src/main.cpp  ****                 break;
  95              		.loc 1 77 37 is_stmt 0
  96 009c 17050000 		lla	a0,.LANCHOR0+8
  96      13050500 
  97 00a4 97000000 		call	_ZN9semaphore9semSignalEPPS_@plt
  97      E7800000 
  98              	.LVL10:
  78:src/main.cpp  ****             case 1:
  99              		.loc 1 78 17 is_stmt 1
 100 00ac 6FF01FF9 		j	.L4
GAS LISTING /tmp/ccNPrgEi.s 			page 5


 101              	.L3:
  83:src/main.cpp  ****                 printString("Na stolu su: sibice i papir\n");
 102              		.loc 1 83 13
  84:src/main.cpp  ****                 semaphore::semSignal(&tabacco);
 103              		.loc 1 84 17
  84:src/main.cpp  ****                 semaphore::semSignal(&tabacco);
 104              		.loc 1 84 28 is_stmt 0
 105 00b0 17050000 		lla	a0,.LC2
 105      13050500 
 106 00b8 97000000 		call	_Z11printStringPKc@plt
 106      E7800000 
 107              	.LVL11:
  85:src/main.cpp  ****                 break;
 108              		.loc 1 85 17 is_stmt 1
  85:src/main.cpp  ****                 break;
 109              		.loc 1 85 37 is_stmt 0
 110 00c0 17050000 		lla	a0,.LANCHOR0+24
 110      13050500 
 111 00c8 97000000 		call	_ZN9semaphore9semSignalEPPS_@plt
 111      E7800000 
 112              	.LVL12:
  86:src/main.cpp  ****         }
 113              		.loc 1 86 17 is_stmt 1
 114 00d0 6FF0DFF6 		j	.L4
 115              		.cfi_endproc
 116              	.LFE46:
 118              		.section	.rodata.str1.8
 119 005d 000000   		.align	3
 120              	.LC3:
 121 0060 50657261 		.string	"Pera ima papir i pusi\n"
 121      20696D61 
 121      20706170 
 121      69722069 
 121      20707573 
 122              		.text
 123              		.align	2
 124              		.globl	_Z7smoker1Pv
 126              	_Z7smoker1Pv:
 127              	.LFB47:
  91:src/main.cpp  ****     }
  92:src/main.cpp  **** }
  93:src/main.cpp  **** 
  94:src/main.cpp  **** void smoker1(void *arg){
 128              		.loc 1 94 24
 129              		.cfi_startproc
 130              	.LVL13:
 131 00d4 130101FE 		addi	sp,sp,-32
 132              		.cfi_def_cfa_offset 32
 133 00d8 233C1100 		sd	ra,24(sp)
 134 00dc 23388100 		sd	s0,16(sp)
 135 00e0 23349100 		sd	s1,8(sp)
 136              		.cfi_offset 1, -8
 137              		.cfi_offset 8, -16
 138              		.cfi_offset 9, -24
 139 00e4 13040102 		addi	s0,sp,32
 140              		.cfi_def_cfa 8, 0
 141              	.LVL14:
GAS LISTING /tmp/ccNPrgEi.s 			page 6


 142              	.L8:
  95:src/main.cpp  ****     while (true){
 143              		.loc 1 95 5 discriminator 1
  96:src/main.cpp  ****         semaphore::semWait(&paper);
 144              		.loc 1 96 9 discriminator 1
 145              		.loc 1 96 27 is_stmt 0 discriminator 1
 146 00e8 97040000 		lla	s1,.LANCHOR0
 146      93840400 
 147 00f0 17050000 		lla	a0,.LANCHOR0+16
 147      13050500 
 148 00f8 97000000 		call	_ZN9semaphore7semWaitEPPS_@plt
 148      E7800000 
 149              	.LVL15:
  97:src/main.cpp  ****         semaphore::semWait(&mutex);
 150              		.loc 1 97 9 is_stmt 1 discriminator 1
 151              		.loc 1 97 27 is_stmt 0 discriminator 1
 152 0100 13850400 		mv	a0,s1
 153 0104 97000000 		call	_ZN9semaphore7semWaitEPPS_@plt
 153      E7800000 
 154              	.LVL16:
  98:src/main.cpp  **** 
  99:src/main.cpp  ****         printString("Pera ima papir i pusi\n");
 155              		.loc 1 99 9 is_stmt 1 discriminator 1
 156              		.loc 1 99 20 is_stmt 0 discriminator 1
 157 010c 17050000 		lla	a0,.LC3
 157      13050500 
 158 0114 97000000 		call	_Z11printStringPKc@plt
 158      E7800000 
 159              	.LVL17:
 100:src/main.cpp  ****         semaphore::semSignal(&agent);
 160              		.loc 1 100 9 is_stmt 1 discriminator 1
 161              		.loc 1 100 29 is_stmt 0 discriminator 1
 162 011c 17050000 		lla	a0,.LANCHOR0+32
 162      13050500 
 163 0124 97000000 		call	_ZN9semaphore9semSignalEPPS_@plt
 163      E7800000 
 164              	.LVL18:
 101:src/main.cpp  ****         semaphore::semSignal(&mutex);
 165              		.loc 1 101 9 is_stmt 1 discriminator 1
 166              		.loc 1 101 29 is_stmt 0 discriminator 1
 167 012c 13850400 		mv	a0,s1
 168 0130 97000000 		call	_ZN9semaphore9semSignalEPPS_@plt
 168      E7800000 
 169              	.LVL19:
  95:src/main.cpp  ****         semaphore::semWait(&paper);
 170              		.loc 1 95 5 is_stmt 1 discriminator 1
 171 0138 6FF01FFB 		j	.L8
 172              		.cfi_endproc
 173              	.LFE47:
 175              		.section	.rodata.str1.8
 176 0077 00       		.align	3
 177              	.LC4:
 178 0078 4D696B61 		.string	"Mika ima sibice i pusi\n"
 178      20696D61 
 178      20736962 
 178      69636520 
 178      69207075 
GAS LISTING /tmp/ccNPrgEi.s 			page 7


 179              		.text
 180              		.align	2
 181              		.globl	_Z7smoker2Pv
 183              	_Z7smoker2Pv:
 184              	.LFB48:
 102:src/main.cpp  ****     }
 103:src/main.cpp  **** }
 104:src/main.cpp  **** 
 105:src/main.cpp  **** void smoker2(void *arg){
 185              		.loc 1 105 24
 186              		.cfi_startproc
 187              	.LVL20:
 188 013c 130101FE 		addi	sp,sp,-32
 189              		.cfi_def_cfa_offset 32
 190 0140 233C1100 		sd	ra,24(sp)
 191 0144 23388100 		sd	s0,16(sp)
 192 0148 23349100 		sd	s1,8(sp)
 193              		.cfi_offset 1, -8
 194              		.cfi_offset 8, -16
 195              		.cfi_offset 9, -24
 196 014c 13040102 		addi	s0,sp,32
 197              		.cfi_def_cfa 8, 0
 198              	.LVL21:
 199              	.L11:
 106:src/main.cpp  ****     while (true){
 200              		.loc 1 106 5 discriminator 1
 107:src/main.cpp  ****         semaphore::semWait(&matches);
 201              		.loc 1 107 9 discriminator 1
 202              		.loc 1 107 27 is_stmt 0 discriminator 1
 203 0150 97040000 		lla	s1,.LANCHOR0
 203      93840400 
 204 0158 17050000 		lla	a0,.LANCHOR0+8
 204      13050500 
 205 0160 97000000 		call	_ZN9semaphore7semWaitEPPS_@plt
 205      E7800000 
 206              	.LVL22:
 108:src/main.cpp  ****         semaphore::semWait(&mutex);
 207              		.loc 1 108 9 is_stmt 1 discriminator 1
 208              		.loc 1 108 27 is_stmt 0 discriminator 1
 209 0168 13850400 		mv	a0,s1
 210 016c 97000000 		call	_ZN9semaphore7semWaitEPPS_@plt
 210      E7800000 
 211              	.LVL23:
 109:src/main.cpp  **** 
 110:src/main.cpp  ****         printString("Mika ima sibice i pusi\n");
 212              		.loc 1 110 9 is_stmt 1 discriminator 1
 213              		.loc 1 110 20 is_stmt 0 discriminator 1
 214 0174 17050000 		lla	a0,.LC4
 214      13050500 
 215 017c 97000000 		call	_Z11printStringPKc@plt
 215      E7800000 
 216              	.LVL24:
 111:src/main.cpp  ****         semaphore::semSignal(&agent);
 217              		.loc 1 111 9 is_stmt 1 discriminator 1
 218              		.loc 1 111 29 is_stmt 0 discriminator 1
 219 0184 17050000 		lla	a0,.LANCHOR0+32
 219      13050500 
GAS LISTING /tmp/ccNPrgEi.s 			page 8


 220 018c 97000000 		call	_ZN9semaphore9semSignalEPPS_@plt
 220      E7800000 
 221              	.LVL25:
 112:src/main.cpp  ****         semaphore::semSignal(&mutex);
 222              		.loc 1 112 9 is_stmt 1 discriminator 1
 223              		.loc 1 112 29 is_stmt 0 discriminator 1
 224 0194 13850400 		mv	a0,s1
 225 0198 97000000 		call	_ZN9semaphore9semSignalEPPS_@plt
 225      E7800000 
 226              	.LVL26:
 106:src/main.cpp  ****         semaphore::semWait(&matches);
 227              		.loc 1 106 5 is_stmt 1 discriminator 1
 228 01a0 6FF01FFB 		j	.L11
 229              		.cfi_endproc
 230              	.LFE48:
 232              		.section	.rodata.str1.8
 233              		.align	3
 234              	.LC5:
 235 0090 5A696B61 		.string	"Zika ima duvan i pusi\n"
 235      20696D61 
 235      20647576 
 235      616E2069 
 235      20707573 
 236              		.text
 237              		.align	2
 238              		.globl	_Z7smoker3Pv
 240              	_Z7smoker3Pv:
 241              	.LFB49:
 113:src/main.cpp  ****     }
 114:src/main.cpp  **** }
 115:src/main.cpp  **** 
 116:src/main.cpp  **** void smoker3(void *arg){
 242              		.loc 1 116 24
 243              		.cfi_startproc
 244              	.LVL27:
 245 01a4 130101FE 		addi	sp,sp,-32
 246              		.cfi_def_cfa_offset 32
 247 01a8 233C1100 		sd	ra,24(sp)
 248 01ac 23388100 		sd	s0,16(sp)
 249 01b0 23349100 		sd	s1,8(sp)
 250              		.cfi_offset 1, -8
 251              		.cfi_offset 8, -16
 252              		.cfi_offset 9, -24
 253 01b4 13040102 		addi	s0,sp,32
 254              		.cfi_def_cfa 8, 0
 255              	.LVL28:
 256              	.L14:
 117:src/main.cpp  ****     while (true){
 257              		.loc 1 117 5 discriminator 1
 118:src/main.cpp  ****         semaphore::semWait(&tabacco);
 258              		.loc 1 118 9 discriminator 1
 259              		.loc 1 118 27 is_stmt 0 discriminator 1
 260 01b8 97040000 		lla	s1,.LANCHOR0
 260      93840400 
 261 01c0 17050000 		lla	a0,.LANCHOR0+24
 261      13050500 
 262 01c8 97000000 		call	_ZN9semaphore7semWaitEPPS_@plt
GAS LISTING /tmp/ccNPrgEi.s 			page 9


 262      E7800000 
 263              	.LVL29:
 119:src/main.cpp  ****         semaphore::semWait(&mutex);
 264              		.loc 1 119 9 is_stmt 1 discriminator 1
 265              		.loc 1 119 27 is_stmt 0 discriminator 1
 266 01d0 13850400 		mv	a0,s1
 267 01d4 97000000 		call	_ZN9semaphore7semWaitEPPS_@plt
 267      E7800000 
 268              	.LVL30:
 120:src/main.cpp  ****         printString("Zika ima duvan i pusi\n");
 269              		.loc 1 120 9 is_stmt 1 discriminator 1
 270              		.loc 1 120 20 is_stmt 0 discriminator 1
 271 01dc 17050000 		lla	a0,.LC5
 271      13050500 
 272 01e4 97000000 		call	_Z11printStringPKc@plt
 272      E7800000 
 273              	.LVL31:
 121:src/main.cpp  ****         semaphore::semSignal(&agent);
 274              		.loc 1 121 9 is_stmt 1 discriminator 1
 275              		.loc 1 121 29 is_stmt 0 discriminator 1
 276 01ec 17050000 		lla	a0,.LANCHOR0+32
 276      13050500 
 277 01f4 97000000 		call	_ZN9semaphore9semSignalEPPS_@plt
 277      E7800000 
 278              	.LVL32:
 122:src/main.cpp  ****         semaphore::semSignal(&mutex);
 279              		.loc 1 122 9 is_stmt 1 discriminator 1
 280              		.loc 1 122 29 is_stmt 0 discriminator 1
 281 01fc 13850400 		mv	a0,s1
 282 0200 97000000 		call	_ZN9semaphore9semSignalEPPS_@plt
 282      E7800000 
 283              	.LVL33:
 117:src/main.cpp  ****         semaphore::semWait(&tabacco);
 284              		.loc 1 117 5 is_stmt 1 discriminator 1
 285 0208 6FF01FFB 		j	.L14
 286              		.cfi_endproc
 287              	.LFE49:
 289              		.align	2
 290              		.globl	main
 292              	main:
 293              	.LFB45:
  25:src/main.cpp  ****     MemoryAllocation* mem_obj;
 294              		.loc 1 25 11
 295              		.cfi_startproc
 296 020c 130101FB 		addi	sp,sp,-80
 297              		.cfi_def_cfa_offset 80
 298 0210 23341104 		sd	ra,72(sp)
 299 0214 23308104 		sd	s0,64(sp)
 300 0218 233C9102 		sd	s1,56(sp)
 301              		.cfi_offset 1, -8
 302              		.cfi_offset 8, -16
 303              		.cfi_offset 9, -24
 304 021c 13040105 		addi	s0,sp,80
 305              		.cfi_def_cfa 8, 0
  26:src/main.cpp  ****     mem_obj = mem_obj->getInstance();
 306              		.loc 1 26 5
  27:src/main.cpp  ****     RiscV::w_stvec((uint64) &RiscV::supervisorTrap);
GAS LISTING /tmp/ccNPrgEi.s 			page 10


 307              		.loc 1 27 5
 308              		.file 2 "src/../h/../h/../h/MemoryAllocation.hpp"
   1:src/../h/../h/../h/MemoryAllocation.hpp **** #include "../lib/hw.h"
   2:src/../h/../h/../h/MemoryAllocation.hpp **** 
   3:src/../h/../h/../h/MemoryAllocation.hpp **** 
   4:src/../h/../h/../h/MemoryAllocation.hpp **** #ifndef PROJECT_BASE_MEMORYALLOCATION_HPP
   5:src/../h/../h/../h/MemoryAllocation.hpp **** #define PROJECT_BASE_MEMORYALLOCATION_HPP
   6:src/../h/../h/../h/MemoryAllocation.hpp **** 
   7:src/../h/../h/../h/MemoryAllocation.hpp **** 
   8:src/../h/../h/../h/MemoryAllocation.hpp **** class MemoryAllocation {
   9:src/../h/../h/../h/MemoryAllocation.hpp **** 
  10:src/../h/../h/../h/MemoryAllocation.hpp ****     //===========================DEFINICIJA SINGLETON KLASE POCETAK=======================k
  11:src/../h/../h/../h/MemoryAllocation.hpp **** private:
  12:src/../h/../h/../h/MemoryAllocation.hpp **** 
  13:src/../h/../h/../h/MemoryAllocation.hpp ****     struct FreeMem {
  14:src/../h/../h/../h/MemoryAllocation.hpp ****         FreeMem *next;
  15:src/../h/../h/../h/MemoryAllocation.hpp ****         FreeMem *prev;
  16:src/../h/../h/../h/MemoryAllocation.hpp ****         size_t size;
  17:src/../h/../h/../h/MemoryAllocation.hpp ****     };
  18:src/../h/../h/../h/MemoryAllocation.hpp **** 
  19:src/../h/../h/../h/MemoryAllocation.hpp **** 
  20:src/../h/../h/../h/MemoryAllocation.hpp ****     static FreeMem *fmem_head; //koja pocetna vrednost?
  21:src/../h/../h/../h/MemoryAllocation.hpp **** 
  22:src/../h/../h/../h/MemoryAllocation.hpp **** 
  23:src/../h/../h/../h/MemoryAllocation.hpp **** 
  24:src/../h/../h/../h/MemoryAllocation.hpp ****     static MemoryAllocation *instance;
  25:src/../h/../h/../h/MemoryAllocation.hpp ****     int data;
  26:src/../h/../h/../h/MemoryAllocation.hpp **** 
  27:src/../h/../h/../h/MemoryAllocation.hpp **** 
  28:src/../h/../h/../h/MemoryAllocation.hpp ****     MemoryAllocation() { //OVO SE SADA NIGGDE
  29:src/../h/../h/../h/MemoryAllocation.hpp ****         fmem_head->size = (size_t) ((char *) HEAP_END_ADDR -
  30:src/../h/../h/../h/MemoryAllocation.hpp ****                                     (char *) HEAP_START_ADDR); //da li smem ovo da castujem u size_
  31:src/../h/../h/../h/MemoryAllocation.hpp ****         fmem_head->next = nullptr;
  32:src/../h/../h/../h/MemoryAllocation.hpp ****         fmem_head->prev = nullptr;
  33:src/../h/../h/../h/MemoryAllocation.hpp ****         data = 0;
  34:src/../h/../h/../h/MemoryAllocation.hpp ****     }
  35:src/../h/../h/../h/MemoryAllocation.hpp **** 
  36:src/../h/../h/../h/MemoryAllocation.hpp ****     MemoryAllocation(MemoryAllocation const &);
  37:src/../h/../h/../h/MemoryAllocation.hpp **** 
  38:src/../h/../h/../h/MemoryAllocation.hpp ****     void operator=(MemoryAllocation const &);
  39:src/../h/../h/../h/MemoryAllocation.hpp **** 
  40:src/../h/../h/../h/MemoryAllocation.hpp **** public:
  41:src/../h/../h/../h/MemoryAllocation.hpp **** 
  42:src/../h/../h/../h/MemoryAllocation.hpp **** 
  43:src/../h/../h/../h/MemoryAllocation.hpp ****     static MemoryAllocation *getInstance() {
  44:src/../h/../h/../h/MemoryAllocation.hpp ****         if (!instance) {
 309              		.loc 2 44 9
 310              	.LBB9:
 311              	.LBB10:
 312              		.loc 2 44 13 is_stmt 0
 313 0220 97070000 		la	a5,_ZN16MemoryAllocation8instanceE
 313      83B70700 
 314 0228 83B70700 		ld	a5,0(a5)
 315              		.loc 2 44 9
 316 022c 63880710 		beqz	a5,.L21
 317              	.L17:
 318              	.LBE10:
GAS LISTING /tmp/ccNPrgEi.s 			page 11


 319              	.LBE9:
  28:src/main.cpp  **** 
 320              		.loc 1 28 5 is_stmt 1
  28:src/main.cpp  **** 
 321              		.loc 1 28 19 is_stmt 0
 322 0230 97070000 		la	a5,_ZN5RiscV14supervisorTrapEv
 322      83B70700 
 323              	.LVL34:
 324              	.LBB13:
 325              	.LBB14:
 326              		.file 3 "src/../h/RiscV.hpp"
   1:src/../h/RiscV.hpp **** //
   2:src/../h/RiscV.hpp **** // Created by os on 8/14/22.
   3:src/../h/RiscV.hpp **** //
   4:src/../h/RiscV.hpp **** 
   5:src/../h/RiscV.hpp **** #ifndef PROJECT_BASE_RISCV_HPP
   6:src/../h/RiscV.hpp **** #define PROJECT_BASE_RISCV_HPP
   7:src/../h/RiscV.hpp **** #include "../lib/hw.h"
   8:src/../h/RiscV.hpp **** 
   9:src/../h/RiscV.hpp **** class RiscV {
  10:src/../h/RiscV.hpp **** public:
  11:src/../h/RiscV.hpp ****     //pop sstatus.spp and sstatus.spie bits(mora da bude ne inline funkcija)
  12:src/../h/RiscV.hpp ****     static void popSppSpie();
  13:src/../h/RiscV.hpp **** 
  14:src/../h/RiscV.hpp ****     //push x3...x31 registers on stack
  15:src/../h/RiscV.hpp ****     static void pushRegisters();
  16:src/../h/RiscV.hpp **** 
  17:src/../h/RiscV.hpp ****     //pop x3...x31 registers on stack
  18:src/../h/RiscV.hpp ****     static void popRegisters();
  19:src/../h/RiscV.hpp **** 
  20:src/../h/RiscV.hpp ****     //read register scause
  21:src/../h/RiscV.hpp ****     static uint64 r_scause();
  22:src/../h/RiscV.hpp **** 
  23:src/../h/RiscV.hpp ****     //write register scause
  24:src/../h/RiscV.hpp ****     static void w_scause(uint64 scause);
  25:src/../h/RiscV.hpp **** 
  26:src/../h/RiscV.hpp ****     //read register sepc
  27:src/../h/RiscV.hpp ****     static uint64 r_sepc();
  28:src/../h/RiscV.hpp **** 
  29:src/../h/RiscV.hpp ****     //write register sepc
  30:src/../h/RiscV.hpp ****     static void w_sepc(uint64 sepc);
  31:src/../h/RiscV.hpp **** 
  32:src/../h/RiscV.hpp ****     //read register stvec
  33:src/../h/RiscV.hpp ****     static uint64 r_stvec();
  34:src/../h/RiscV.hpp **** 
  35:src/../h/RiscV.hpp ****     //write register stvec
  36:src/../h/RiscV.hpp ****     static void w_stvec(uint64 stvec);
  37:src/../h/RiscV.hpp **** 
  38:src/../h/RiscV.hpp ****     //write register stval
  39:src/../h/RiscV.hpp ****     static uint64 r_stval();
  40:src/../h/RiscV.hpp **** 
  41:src/../h/RiscV.hpp ****     //write register stval
  42:src/../h/RiscV.hpp ****     static void w_stval(uint64 stval);
  43:src/../h/RiscV.hpp **** 
  44:src/../h/RiscV.hpp ****     enum BitMaskSip{
  45:src/../h/RiscV.hpp ****         SIP_SSIP = (1 << 1),
  46:src/../h/RiscV.hpp ****         SIP_STIP = (1 << 5),
GAS LISTING /tmp/ccNPrgEi.s 			page 12


  47:src/../h/RiscV.hpp ****         SIP_SEIP = (1 << 9),
  48:src/../h/RiscV.hpp ****     };
  49:src/../h/RiscV.hpp **** 
  50:src/../h/RiscV.hpp ****     //mask set register sip
  51:src/../h/RiscV.hpp ****     static void ms_sip(uint64 mask);
  52:src/../h/RiscV.hpp **** 
  53:src/../h/RiscV.hpp ****     //mask clear register sip
  54:src/../h/RiscV.hpp ****     static void mc_sip(uint64 mask);
  55:src/../h/RiscV.hpp **** 
  56:src/../h/RiscV.hpp ****     //read register sip
  57:src/../h/RiscV.hpp ****     static uint64 r_sip();
  58:src/../h/RiscV.hpp **** 
  59:src/../h/RiscV.hpp ****     //write register sip
  60:src/../h/RiscV.hpp ****     static void w_sip(uint64 sip);
  61:src/../h/RiscV.hpp **** 
  62:src/../h/RiscV.hpp ****     enum BitMaskSstatus{
  63:src/../h/RiscV.hpp ****         SSTATUS_SIE = (1<<1),
  64:src/../h/RiscV.hpp ****         SSTATUS_SPIE = (1<<5),
  65:src/../h/RiscV.hpp ****         SSTATUS_SPP=  (1<<8),
  66:src/../h/RiscV.hpp ****     };
  67:src/../h/RiscV.hpp **** 
  68:src/../h/RiscV.hpp ****     //mask set register sstatus
  69:src/../h/RiscV.hpp ****     static void ms_sstatus(uint64 mask);
  70:src/../h/RiscV.hpp **** 
  71:src/../h/RiscV.hpp ****     //mask clear register sstatus
  72:src/../h/RiscV.hpp ****     static void mc_sstatus(uint64 mask);
  73:src/../h/RiscV.hpp **** 
  74:src/../h/RiscV.hpp ****     //read register sstatus
  75:src/../h/RiscV.hpp ****     static uint64 r_sstatus();
  76:src/../h/RiscV.hpp **** 
  77:src/../h/RiscV.hpp ****     //write register sstatus
  78:src/../h/RiscV.hpp ****     static void w_sstatus(uint64 sstatus);
  79:src/../h/RiscV.hpp **** 
  80:src/../h/RiscV.hpp ****     static void supervisorTrap();
  81:src/../h/RiscV.hpp **** 
  82:src/../h/RiscV.hpp **** private:
  83:src/../h/RiscV.hpp ****     //obradjuje trap handler
  84:src/../h/RiscV.hpp ****     static void handleSupervisorTrap();
  85:src/../h/RiscV.hpp **** };
  86:src/../h/RiscV.hpp **** 
  87:src/../h/RiscV.hpp **** inline uint64 RiscV::r_scause() {
  88:src/../h/RiscV.hpp ****     uint64 volatile scause;
  89:src/../h/RiscV.hpp ****     __asm__ volatile("csrr %[scause], scause" : [scause] "=r"(scause));
  90:src/../h/RiscV.hpp ****     return scause;
  91:src/../h/RiscV.hpp **** 
  92:src/../h/RiscV.hpp **** }
  93:src/../h/RiscV.hpp **** 
  94:src/../h/RiscV.hpp **** inline void RiscV::w_scause(uint64 scause){
  95:src/../h/RiscV.hpp ****     __asm__ volatile("csrw scause, %[scause]": : [scause] "r"(scause));
  96:src/../h/RiscV.hpp **** 
  97:src/../h/RiscV.hpp **** }
  98:src/../h/RiscV.hpp **** 
  99:src/../h/RiscV.hpp **** inline uint64 RiscV::r_sepc(){
 100:src/../h/RiscV.hpp ****     uint64  sepc;
 101:src/../h/RiscV.hpp ****     __asm__ volatile("csrr %[sepc], sepc" : [sepc] "=r"(sepc));
 102:src/../h/RiscV.hpp ****     return sepc;
 103:src/../h/RiscV.hpp **** }
GAS LISTING /tmp/ccNPrgEi.s 			page 13


 104:src/../h/RiscV.hpp **** 
 105:src/../h/RiscV.hpp **** inline void RiscV::w_sepc(uint64 volatile sepc){
 106:src/../h/RiscV.hpp ****     __asm__ volatile ("csrw sepc, %[sepc]": : [sepc] "r"(sepc));
 107:src/../h/RiscV.hpp **** }
 108:src/../h/RiscV.hpp **** 
 109:src/../h/RiscV.hpp **** inline uint64 RiscV::r_stvec() {
 110:src/../h/RiscV.hpp ****     uint64 volatile stvec;
 111:src/../h/RiscV.hpp ****     __asm__ volatile ("csrr %[stvec], stvec": [stvec] "=r"(stvec));
 112:src/../h/RiscV.hpp ****     return stvec;
 113:src/../h/RiscV.hpp **** }
 114:src/../h/RiscV.hpp **** 
 115:src/../h/RiscV.hpp **** inline void RiscV::w_stvec(uint64 stvec){
 116:src/../h/RiscV.hpp ****     __asm__ volatile ("csrw stvec, %[stvec]": : [stvec] "r"(stvec));
 327              		.loc 3 116 5 is_stmt 1
 328              		.loc 3 116 68 is_stmt 0
 329              	#APP
 330              	# 116 "src/../h/RiscV.hpp" 1
 117              	}
 331              		csrw stvec, a5
 332              	# 0 "" 2
 333              	.LVL35:
 334              	#NO_APP
 335              	.LBE14:
 336              	.LBE13:
  32:src/main.cpp  **** 
 337              		.loc 1 32 5 is_stmt 1
  34:src/main.cpp  ****     TCB::running=thread;
 338              		.loc 1 34 5
  34:src/main.cpp  ****     TCB::running=thread;
 339              		.loc 1 34 18 is_stmt 0
 340 023c 13060000 		li	a2,0
 341 0240 93050000 		li	a1,0
 342 0244 130584FD 		addi	a0,s0,-40
 343 0248 97000000 		call	_Z13thread_createPP3TCBPFvPvES2_@plt
 343      E7800000 
 344              	.LVL36:
  35:src/main.cpp  ****      //__asm__ volatile ("csrs sstatus, 0x2");
 345              		.loc 1 35 5 is_stmt 1
  35:src/main.cpp  ****      //__asm__ volatile ("csrs sstatus, 0x2");
 346              		.loc 1 35 17 is_stmt 0
 347 0250 97070000 		la	a5,_ZN3TCB7runningE
 347      83B70700 
 348 0258 033784FD 		ld	a4,-40(s0)
 349 025c 23B0E700 		sd	a4,0(a5)
  37:src/main.cpp  ****     semaphore::semOpen(&paper,0);
 350              		.loc 1 37 5 is_stmt 1
  37:src/main.cpp  ****     semaphore::semOpen(&paper,0);
 351              		.loc 1 37 23 is_stmt 0
 352 0260 93051000 		li	a1,1
 353 0264 17050000 		lla	a0,.LANCHOR0
 353      13050500 
 354 026c 97000000 		call	_ZN9semaphore7semOpenEPPS_j@plt
 354      E7800000 
 355              	.LVL37:
  38:src/main.cpp  ****     semaphore::semOpen(&matches,0);
 356              		.loc 1 38 5 is_stmt 1
  38:src/main.cpp  ****     semaphore::semOpen(&matches,0);
GAS LISTING /tmp/ccNPrgEi.s 			page 14


 357              		.loc 1 38 23 is_stmt 0
 358 0274 93050000 		li	a1,0
 359 0278 17050000 		lla	a0,.LANCHOR0+16
 359      13050500 
 360 0280 97000000 		call	_ZN9semaphore7semOpenEPPS_j@plt
 360      E7800000 
 361              	.LVL38:
  39:src/main.cpp  ****     semaphore::semOpen(&agent,0);
 362              		.loc 1 39 5 is_stmt 1
  39:src/main.cpp  ****     semaphore::semOpen(&agent,0);
 363              		.loc 1 39 23 is_stmt 0
 364 0288 93050000 		li	a1,0
 365 028c 17050000 		lla	a0,.LANCHOR0+8
 365      13050500 
 366 0294 97000000 		call	_ZN9semaphore7semOpenEPPS_j@plt
 366      E7800000 
 367              	.LVL39:
  40:src/main.cpp  ****     semaphore::semOpen(&tabacco,0);
 368              		.loc 1 40 5 is_stmt 1
  40:src/main.cpp  ****     semaphore::semOpen(&tabacco,0);
 369              		.loc 1 40 23 is_stmt 0
 370 029c 93050000 		li	a1,0
 371 02a0 17050000 		lla	a0,.LANCHOR0+32
 371      13050500 
 372 02a8 97000000 		call	_ZN9semaphore7semOpenEPPS_j@plt
 372      E7800000 
 373              	.LVL40:
  41:src/main.cpp  **** 
 374              		.loc 1 41 5 is_stmt 1
  41:src/main.cpp  **** 
 375              		.loc 1 41 23 is_stmt 0
 376 02b0 93050000 		li	a1,0
 377 02b4 17050000 		lla	a0,.LANCHOR0+24
 377      13050500 
 378 02bc 97000000 		call	_ZN9semaphore7semOpenEPPS_j@plt
 378      E7800000 
 379              	.LVL41:
  43:src/main.cpp  ****     TCB* t1= nullptr;
 380              		.loc 1 43 5 is_stmt 1
  43:src/main.cpp  ****     TCB* t1= nullptr;
 381              		.loc 1 43 10 is_stmt 0
 382 02c4 233804FC 		sd	zero,-48(s0)
  44:src/main.cpp  ****     TCB* t2= nullptr;
 383              		.loc 1 44 5 is_stmt 1
  44:src/main.cpp  ****     TCB* t2= nullptr;
 384              		.loc 1 44 10 is_stmt 0
 385 02c8 233404FC 		sd	zero,-56(s0)
  45:src/main.cpp  ****     TCB* t3= nullptr;
 386              		.loc 1 45 5 is_stmt 1
  45:src/main.cpp  ****     TCB* t3= nullptr;
 387              		.loc 1 45 10 is_stmt 0
 388 02cc 233004FC 		sd	zero,-64(s0)
  46:src/main.cpp  **** 
 389              		.loc 1 46 5 is_stmt 1
  46:src/main.cpp  **** 
 390              		.loc 1 46 10 is_stmt 0
 391 02d0 233C04FA 		sd	zero,-72(s0)
GAS LISTING /tmp/ccNPrgEi.s 			page 15


  48:src/main.cpp  ****     thread_create(&t1, smoker1, nullptr);
 392              		.loc 1 48 5 is_stmt 1
  48:src/main.cpp  ****     thread_create(&t1, smoker1, nullptr);
 393              		.loc 1 48 18 is_stmt 0
 394 02d4 13060000 		li	a2,0
 395 02d8 97050000 		lla	a1,_Z8agentfunPv
 395      93850500 
 396 02e0 130504FD 		addi	a0,s0,-48
 397 02e4 97000000 		call	_Z13thread_createPP3TCBPFvPvES2_@plt
 397      E7800000 
 398              	.LVL42:
  49:src/main.cpp  ****     thread_create(&t2, smoker2, nullptr);
 399              		.loc 1 49 5 is_stmt 1
  49:src/main.cpp  ****     thread_create(&t2, smoker2, nullptr);
 400              		.loc 1 49 18 is_stmt 0
 401 02ec 13060000 		li	a2,0
 402 02f0 97050000 		lla	a1,_Z7smoker1Pv
 402      93850500 
 403 02f8 130584FC 		addi	a0,s0,-56
 404 02fc 97000000 		call	_Z13thread_createPP3TCBPFvPvES2_@plt
 404      E7800000 
 405              	.LVL43:
  50:src/main.cpp  ****     thread_create(&t3, smoker3, nullptr);
 406              		.loc 1 50 5 is_stmt 1
  50:src/main.cpp  ****     thread_create(&t3, smoker3, nullptr);
 407              		.loc 1 50 18 is_stmt 0
 408 0304 13060000 		li	a2,0
 409 0308 97050000 		lla	a1,_Z7smoker2Pv
 409      93850500 
 410 0310 130504FC 		addi	a0,s0,-64
 411 0314 97000000 		call	_Z13thread_createPP3TCBPFvPvES2_@plt
 411      E7800000 
 412              	.LVL44:
  51:src/main.cpp  **** 
 413              		.loc 1 51 5 is_stmt 1
  51:src/main.cpp  **** 
 414              		.loc 1 51 18 is_stmt 0
 415 031c 13060000 		li	a2,0
 416 0320 97050000 		lla	a1,_Z7smoker3Pv
 416      93850500 
 417 0328 130584FB 		addi	a0,s0,-72
 418 032c 97000000 		call	_Z13thread_createPP3TCBPFvPvES2_@plt
 418      E7800000 
 419              	.LVL45:
 420              	.LBB15:
  53:src/main.cpp  ****         thread_dispatch();
 421              		.loc 1 53 14
 422 0334 93040000 		li	s1,0
 423 0338 6F00C004 		j	.L19
 424              	.L21:
 425              	.LBE15:
 426              	.LBB16:
 427              	.LBB12:
 428              	.LBB11:
  45:src/../h/../h/../h/MemoryAllocation.hpp ****             fmem_head =  (FreeMem*) HEAP_START_ADDR;
 429              		.loc 2 45 13 is_stmt 1
 430              		.loc 2 45 23 is_stmt 0
GAS LISTING /tmp/ccNPrgEi.s 			page 16


 431 033c 97070000 		la	a5,HEAP_START_ADDR
 431      83B70700 
 432 0344 83B70700 		ld	a5,0(a5)
 433 0348 97060000 		la	a3,_ZN16MemoryAllocation9fmem_headE
 433      83B60600 
 434 0350 23B0F600 		sd	a5,0(a3)
  46:src/../h/../h/../h/MemoryAllocation.hpp ****             fmem_head->size = (size_t) ((char *) HEAP_END_ADDR -
 435              		.loc 2 46 13 is_stmt 1
 436              		.loc 2 46 41 is_stmt 0
 437 0354 17070000 		la	a4,HEAP_END_ADDR
 437      03370700 
 438 035c 03370700 		ld	a4,0(a4)
 439              		.loc 2 46 64
 440 0360 3307F740 		sub	a4,a4,a5
 441              		.loc 2 46 29
 442 0364 23B8E700 		sd	a4,16(a5)
  47:src/../h/../h/../h/MemoryAllocation.hpp ****                                         (char *) HEAP_START_ADDR); //da li smem ovo da castujem u s
  48:src/../h/../h/../h/MemoryAllocation.hpp ****             fmem_head->next = nullptr;
 443              		.loc 2 48 13 is_stmt 1
 444              		.loc 2 48 29 is_stmt 0
 445 0368 23B00700 		sd	zero,0(a5)
  49:src/../h/../h/../h/MemoryAllocation.hpp ****             fmem_head->prev = nullptr;
 446              		.loc 2 49 13 is_stmt 1
 447              		.loc 2 49 24 is_stmt 0
 448 036c 83B70600 		ld	a5,0(a3)
 449              		.loc 2 49 29
 450 0370 23B40700 		sd	zero,8(a5)
  50:src/../h/../h/../h/MemoryAllocation.hpp ****             static MemoryAllocation* instance;
 451              		.loc 2 50 13 is_stmt 1
  51:src/../h/../h/../h/MemoryAllocation.hpp ****             return instance;
 452              		.loc 2 51 13
 453              		.loc 2 51 20 is_stmt 0
 454 0374 6FF0DFEB 		j	.L17
 455              	.LVL46:
 456              	.L22:
 457              	.LBE11:
 458              	.LBE12:
 459              	.LBE16:
 460              	.LBB17:
  54:src/main.cpp  ****     }
 461              		.loc 1 54 9 is_stmt 1
  54:src/main.cpp  ****     }
 462              		.loc 1 54 24 is_stmt 0
 463 0378 97000000 		call	_Z15thread_dispatchv@plt
 463      E7800000 
 464              	.LVL47:
  53:src/main.cpp  ****         thread_dispatch();
 465              		.loc 1 53 5 is_stmt 1
 466 0380 9B841400 		addiw	s1,s1,1
 467              	.LVL48:
 468              	.L19:
  53:src/main.cpp  ****         thread_dispatch();
 469              		.loc 1 53 23 discriminator 1
 470 0384 9307E001 		li	a5,30
 471 0388 E3D897FE 		ble	s1,a5,.L22
 472              	.LBE17:
  67:src/main.cpp  **** }
GAS LISTING /tmp/ccNPrgEi.s 			page 17


 473              		.loc 1 67 5
  68:src/main.cpp  **** 
 474              		.loc 1 68 1 is_stmt 0
 475 038c 13050000 		li	a0,0
 476 0390 83308104 		ld	ra,72(sp)
 477              		.cfi_restore 1
 478 0394 03340104 		ld	s0,64(sp)
 479              		.cfi_restore 8
 480              		.cfi_def_cfa 2, 80
 481 0398 83348103 		ld	s1,56(sp)
 482              		.cfi_restore 9
 483              	.LVL49:
 484 039c 13010105 		addi	sp,sp,80
 485              		.cfi_def_cfa_offset 0
 486 03a0 67800000 		jr	ra
 487              		.cfi_endproc
 488              	.LFE45:
 490              		.globl	sem
 491              		.globl	tabacco
 492              		.globl	paper
 493              		.globl	matches
 494              		.globl	mutex
 495              		.globl	agent
 496              		.bss
 497              		.align	3
 498              		.set	.LANCHOR0,. + 0
 501              	mutex:
 502 0000 00000000 		.zero	8
 502      00000000 
 505              	matches:
 506 0008 00000000 		.zero	8
 506      00000000 
 509              	paper:
 510 0010 00000000 		.zero	8
 510      00000000 
 513              	tabacco:
 514 0018 00000000 		.zero	8
 514      00000000 
 517              	agent:
 518 0020 00000000 		.zero	8
 518      00000000 
 521              	sem:
 522 0028 00000000 		.zero	4
 523              		.text
 524              	.Letext0:
 525              		.file 4 "src/../lib/hw.h"
 526              		.file 5 "src/../h/tcb.hpp"
 527              		.file 6 "src/../h/../h/queue.hpp"
 528              		.file 7 "src/../h/semaphore.hpp"
 529              		.file 8 "src/../h/Print.hpp"
 530              		.file 9 "src/../h/syscall_c.hpp"
GAS LISTING /tmp/ccNPrgEi.s 			page 18

