GAS LISTING /tmp/cco26Yt2.s 			page 1


   1              		.file	"main.cpp"
   2              		.option pic
   3              		.option norelax
   4              		.text
   5              	.Ltext0:
   6              		.section	.rodata.str1.8,"aMS",@progbits,1
   7              		.align	3
   8              	.LC0:
   9 0000 413A2069 		.string	"A: i="
   9      3D00
  10 0006 0000     		.align	3
  11              	.LC1:
  12 0008 0A00     		.string	"\n"
  13 000a 00000000 		.align	3
  13      0000
  14              	.LC2:
  15 0010 41206669 		.string	"A finished!\n"
  15      6E697368 
  15      6564210A 
  15      00
  16              		.text
  17              		.align	2
  18              		.globl	_Z11workerBodyAPv
  20              	_Z11workerBodyAPv:
  21              	.LFB45:
  22              		.file 1 "src/../src/../test/Threads_C_API_test.hpp"
   1:src/../src/../test/Threads_C_API_test.hpp **** #ifndef XV6_THREADS_C_API_TEST_HPP
   2:src/../src/../test/Threads_C_API_test.hpp **** #define XV6_THREADS_C_API_TEST_HPP
   3:src/../src/../test/Threads_C_API_test.hpp **** 
   4:src/../src/../test/Threads_C_API_test.hpp **** #include "../h/syscall_c.hpp"
   5:src/../src/../test/Threads_C_API_test.hpp **** 
   6:src/../src/../test/Threads_C_API_test.hpp **** #include "../h/printing.hpp"
   7:src/../src/../test/Threads_C_API_test.hpp **** 
   8:src/../src/../test/Threads_C_API_test.hpp **** bool finishedA = false;
   9:src/../src/../test/Threads_C_API_test.hpp **** bool finishedB = false;
  10:src/../src/../test/Threads_C_API_test.hpp **** bool finishedC = false;
  11:src/../src/../test/Threads_C_API_test.hpp **** bool finishedD = false;
  12:src/../src/../test/Threads_C_API_test.hpp **** 
  13:src/../src/../test/Threads_C_API_test.hpp **** uint64 fibonacci(uint64 n) {
  14:src/../src/../test/Threads_C_API_test.hpp ****     if (n == 0 || n == 1) { return n; }
  15:src/../src/../test/Threads_C_API_test.hpp ****     if (n % 10 == 0) { thread_dispatch(); }
  16:src/../src/../test/Threads_C_API_test.hpp ****     return fibonacci(n - 1) + fibonacci(n - 2);
  17:src/../src/../test/Threads_C_API_test.hpp **** }
  18:src/../src/../test/Threads_C_API_test.hpp **** 
  19:src/../src/../test/Threads_C_API_test.hpp **** void workerBodyA(void* arg) {
  23              		.loc 1 19 29
  24              		.cfi_startproc
  25              	.LVL0:
  26 0000 130101FE 		addi	sp,sp,-32
  27              		.cfi_def_cfa_offset 32
  28 0004 233C1100 		sd	ra,24(sp)
  29 0008 23388100 		sd	s0,16(sp)
  30 000c 23349100 		sd	s1,8(sp)
  31 0010 23302101 		sd	s2,0(sp)
  32              		.cfi_offset 1, -8
  33              		.cfi_offset 8, -16
  34              		.cfi_offset 9, -24
GAS LISTING /tmp/cco26Yt2.s 			page 2


  35              		.cfi_offset 18, -32
  36 0014 13040102 		addi	s0,sp,32
  37              		.cfi_def_cfa 8, 0
  20:src/../src/../test/Threads_C_API_test.hpp ****     for (uint64 i = 0; i < 10; i++) {
  38              		.loc 1 20 5
  39              	.LVL1:
  40              	.LBB8:
  41              		.loc 1 20 17 is_stmt 0
  42 0018 13090000 		li	s2,0
  43 001c 6F008003 		j	.L7
  44              	.LVL2:
  45              	.L4:
  46              	.LBB9:
  47              	.LBB10:
  48              	.LBB11:
  21:src/../src/../test/Threads_C_API_test.hpp ****         printString("A: i="); printInt(i); printString("\n");
  22:src/../src/../test/Threads_C_API_test.hpp ****         for (uint64 j = 0; j < 10000; j++) {
  23:src/../src/../test/Threads_C_API_test.hpp ****             for (uint64 k = 0; k < 30000; k++) { /* busy wait */ }
  24:src/../src/../test/Threads_C_API_test.hpp ****             thread_dispatch();
  49              		.loc 1 24 13 is_stmt 1 discriminator 2
  50              		.loc 1 24 28 is_stmt 0 discriminator 2
  51 0020 97000000 		call	_Z15thread_dispatchv@plt
  51      E7800000 
  52              	.LVL3:
  53              	.LBE11:
  22:src/../src/../test/Threads_C_API_test.hpp ****             for (uint64 k = 0; k < 30000; k++) { /* busy wait */ }
  54              		.loc 1 22 9 is_stmt 1 discriminator 2
  55 0028 93841400 		addi	s1,s1,1
  56              	.LVL4:
  57              	.L6:
  22:src/../src/../test/Threads_C_API_test.hpp ****             for (uint64 k = 0; k < 30000; k++) { /* busy wait */ }
  58              		.loc 1 22 30 discriminator 1
  59 002c B7270000 		li	a5,8192
  60 0030 9387F770 		addi	a5,a5,1807
  61 0034 63EE9700 		bgtu	s1,a5,.L3
  62              	.LBB13:
  63              	.LBB12:
  23:src/../src/../test/Threads_C_API_test.hpp ****             thread_dispatch();
  64              		.loc 1 23 25 is_stmt 0
  65 0038 13070000 		li	a4,0
  66              	.L5:
  67              	.LVL5:
  23:src/../src/../test/Threads_C_API_test.hpp ****             thread_dispatch();
  68              		.loc 1 23 34 is_stmt 1 discriminator 3
  69 003c B7770000 		li	a5,28672
  70 0040 9387F752 		addi	a5,a5,1327
  71 0044 E3EEE7FC 		bgtu	a4,a5,.L4
  23:src/../src/../test/Threads_C_API_test.hpp ****             thread_dispatch();
  72              		.loc 1 23 13 discriminator 2
  73 0048 13071700 		addi	a4,a4,1
  74              	.LVL6:
  75 004c 6FF01FFF 		j	.L5
  76              	.LVL7:
  77              	.L3:
  78              	.LBE12:
  79              	.LBE13:
  80              	.LBE10:
GAS LISTING /tmp/cco26Yt2.s 			page 3


  81              	.LBE9:
  20:src/../src/../test/Threads_C_API_test.hpp ****         printString("A: i="); printInt(i); printString("\n");
  82              		.loc 1 20 5 discriminator 2
  83 0050 13091900 		addi	s2,s2,1
  84              	.LVL8:
  85              	.L7:
  20:src/../src/../test/Threads_C_API_test.hpp ****         printString("A: i="); printInt(i); printString("\n");
  86              		.loc 1 20 26 discriminator 1
  87 0054 93079000 		li	a5,9
  88 0058 63E02705 		bgtu	s2,a5,.L2
  89              	.LBB15:
  21:src/../src/../test/Threads_C_API_test.hpp ****         for (uint64 j = 0; j < 10000; j++) {
  90              		.loc 1 21 9
  21:src/../src/../test/Threads_C_API_test.hpp ****         for (uint64 j = 0; j < 10000; j++) {
  91              		.loc 1 21 20 is_stmt 0
  92 005c 17050000 		lla	a0,.LC0
  92      13050500 
  93 0064 97000000 		call	_Z11printStringPKc@plt
  93      E7800000 
  94              	.LVL9:
  21:src/../src/../test/Threads_C_API_test.hpp ****         for (uint64 j = 0; j < 10000; j++) {
  95              		.loc 1 21 31 is_stmt 1
  21:src/../src/../test/Threads_C_API_test.hpp ****         for (uint64 j = 0; j < 10000; j++) {
  96              		.loc 1 21 39 is_stmt 0
  97 006c 13060000 		li	a2,0
  98 0070 9305A000 		li	a1,10
  99 0074 1B050900 		sext.w	a0,s2
 100 0078 97000000 		call	_Z8printIntiii@plt
 100      E7800000 
 101              	.LVL10:
  21:src/../src/../test/Threads_C_API_test.hpp ****         for (uint64 j = 0; j < 10000; j++) {
 102              		.loc 1 21 44 is_stmt 1
  21:src/../src/../test/Threads_C_API_test.hpp ****         for (uint64 j = 0; j < 10000; j++) {
 103              		.loc 1 21 55 is_stmt 0
 104 0080 17050000 		lla	a0,.LC1
 104      13050500 
 105 0088 97000000 		call	_Z11printStringPKc@plt
 105      E7800000 
 106              	.LVL11:
  22:src/../src/../test/Threads_C_API_test.hpp ****             for (uint64 k = 0; k < 30000; k++) { /* busy wait */ }
 107              		.loc 1 22 9 is_stmt 1
 108              	.LBB14:
  22:src/../src/../test/Threads_C_API_test.hpp ****             for (uint64 k = 0; k < 30000; k++) { /* busy wait */ }
 109              		.loc 1 22 21 is_stmt 0
 110 0090 93040000 		li	s1,0
 111 0094 6FF09FF9 		j	.L6
 112              	.LVL12:
 113              	.L2:
 114              	.LBE14:
 115              	.LBE15:
 116              	.LBE8:
  25:src/../src/../test/Threads_C_API_test.hpp ****         }
  26:src/../src/../test/Threads_C_API_test.hpp ****     }
  27:src/../src/../test/Threads_C_API_test.hpp ****     printString("A finished!\n");
 117              		.loc 1 27 5 is_stmt 1
 118              		.loc 1 27 16 is_stmt 0
 119 0098 17050000 		lla	a0,.LC2
GAS LISTING /tmp/cco26Yt2.s 			page 4


 119      13050500 
 120 00a0 97000000 		call	_Z11printStringPKc@plt
 120      E7800000 
 121              	.LVL13:
  28:src/../src/../test/Threads_C_API_test.hpp ****     finishedA = true;
 122              		.loc 1 28 5 is_stmt 1
 123              		.loc 1 28 15 is_stmt 0
 124 00a8 93071000 		li	a5,1
 125 00ac 17070000 		sb	a5,.LANCHOR0,a4
 125      2300F700 
  29:src/../src/../test/Threads_C_API_test.hpp **** }
 126              		.loc 1 29 1
 127 00b4 83308101 		ld	ra,24(sp)
 128              		.cfi_restore 1
 129 00b8 03340101 		ld	s0,16(sp)
 130              		.cfi_restore 8
 131              		.cfi_def_cfa 2, 32
 132 00bc 83348100 		ld	s1,8(sp)
 133              		.cfi_restore 9
 134 00c0 03390100 		ld	s2,0(sp)
 135              		.cfi_restore 18
 136              	.LVL14:
 137 00c4 13010102 		addi	sp,sp,32
 138              		.cfi_def_cfa_offset 0
 139 00c8 67800000 		jr	ra
 140              		.cfi_endproc
 141              	.LFE45:
 143              		.section	.rodata.str1.8
 144 001d 000000   		.align	3
 145              	.LC3:
 146 0020 423A2069 		.string	"B: i="
 146      3D00
 147 0026 0000     		.align	3
 148              	.LC4:
 149 0028 42206669 		.string	"B finished!\n"
 149      6E697368 
 149      6564210A 
 149      00
 150              		.text
 151              		.align	2
 152              		.globl	_Z11workerBodyBPv
 154              	_Z11workerBodyBPv:
 155              	.LFB46:
  30:src/../src/../test/Threads_C_API_test.hpp **** 
  31:src/../src/../test/Threads_C_API_test.hpp **** void workerBodyB(void* arg) {
 156              		.loc 1 31 29 is_stmt 1
 157              		.cfi_startproc
 158              	.LVL15:
 159 00cc 130101FE 		addi	sp,sp,-32
 160              		.cfi_def_cfa_offset 32
 161 00d0 233C1100 		sd	ra,24(sp)
 162 00d4 23388100 		sd	s0,16(sp)
 163 00d8 23349100 		sd	s1,8(sp)
 164 00dc 23302101 		sd	s2,0(sp)
 165              		.cfi_offset 1, -8
 166              		.cfi_offset 8, -16
 167              		.cfi_offset 9, -24
GAS LISTING /tmp/cco26Yt2.s 			page 5


 168              		.cfi_offset 18, -32
 169 00e0 13040102 		addi	s0,sp,32
 170              		.cfi_def_cfa 8, 0
  32:src/../src/../test/Threads_C_API_test.hpp ****     for (uint64 i = 0; i < 16; i++) {
 171              		.loc 1 32 5
 172              	.LVL16:
 173              	.LBB16:
 174              		.loc 1 32 17 is_stmt 0
 175 00e4 13090000 		li	s2,0
 176 00e8 6F008003 		j	.L15
 177              	.LVL17:
 178              	.L12:
 179              	.LBB17:
 180              	.LBB18:
 181              	.LBB19:
  33:src/../src/../test/Threads_C_API_test.hpp ****         printString("B: i="); printInt(i); printString("\n");
  34:src/../src/../test/Threads_C_API_test.hpp ****         for (uint64 j = 0; j < 10000; j++) {
  35:src/../src/../test/Threads_C_API_test.hpp ****             for (uint64 k = 0; k < 30000; k++) { /* busy wait */ }
  36:src/../src/../test/Threads_C_API_test.hpp ****             thread_dispatch();
 182              		.loc 1 36 13 is_stmt 1 discriminator 2
 183              		.loc 1 36 28 is_stmt 0 discriminator 2
 184 00ec 97000000 		call	_Z15thread_dispatchv@plt
 184      E7800000 
 185              	.LVL18:
 186              	.LBE19:
  34:src/../src/../test/Threads_C_API_test.hpp ****             for (uint64 k = 0; k < 30000; k++) { /* busy wait */ }
 187              		.loc 1 34 9 is_stmt 1 discriminator 2
 188 00f4 93841400 		addi	s1,s1,1
 189              	.LVL19:
 190              	.L14:
  34:src/../src/../test/Threads_C_API_test.hpp ****             for (uint64 k = 0; k < 30000; k++) { /* busy wait */ }
 191              		.loc 1 34 30 discriminator 1
 192 00f8 B7270000 		li	a5,8192
 193 00fc 9387F770 		addi	a5,a5,1807
 194 0100 63EE9700 		bgtu	s1,a5,.L11
 195              	.LBB21:
 196              	.LBB20:
  35:src/../src/../test/Threads_C_API_test.hpp ****             thread_dispatch();
 197              		.loc 1 35 25 is_stmt 0
 198 0104 13070000 		li	a4,0
 199              	.L13:
 200              	.LVL20:
  35:src/../src/../test/Threads_C_API_test.hpp ****             thread_dispatch();
 201              		.loc 1 35 34 is_stmt 1 discriminator 3
 202 0108 B7770000 		li	a5,28672
 203 010c 9387F752 		addi	a5,a5,1327
 204 0110 E3EEE7FC 		bgtu	a4,a5,.L12
  35:src/../src/../test/Threads_C_API_test.hpp ****             thread_dispatch();
 205              		.loc 1 35 13 discriminator 2
 206 0114 13071700 		addi	a4,a4,1
 207              	.LVL21:
 208 0118 6FF01FFF 		j	.L13
 209              	.LVL22:
 210              	.L11:
 211              	.LBE20:
 212              	.LBE21:
 213              	.LBE18:
GAS LISTING /tmp/cco26Yt2.s 			page 6


 214              	.LBE17:
  32:src/../src/../test/Threads_C_API_test.hpp ****         printString("B: i="); printInt(i); printString("\n");
 215              		.loc 1 32 5 discriminator 2
 216 011c 13091900 		addi	s2,s2,1
 217              	.LVL23:
 218              	.L15:
  32:src/../src/../test/Threads_C_API_test.hpp ****         printString("B: i="); printInt(i); printString("\n");
 219              		.loc 1 32 26 discriminator 1
 220 0120 9307F000 		li	a5,15
 221 0124 63E02705 		bgtu	s2,a5,.L10
 222              	.LBB23:
  33:src/../src/../test/Threads_C_API_test.hpp ****         for (uint64 j = 0; j < 10000; j++) {
 223              		.loc 1 33 9
  33:src/../src/../test/Threads_C_API_test.hpp ****         for (uint64 j = 0; j < 10000; j++) {
 224              		.loc 1 33 20 is_stmt 0
 225 0128 17050000 		lla	a0,.LC3
 225      13050500 
 226 0130 97000000 		call	_Z11printStringPKc@plt
 226      E7800000 
 227              	.LVL24:
  33:src/../src/../test/Threads_C_API_test.hpp ****         for (uint64 j = 0; j < 10000; j++) {
 228              		.loc 1 33 31 is_stmt 1
  33:src/../src/../test/Threads_C_API_test.hpp ****         for (uint64 j = 0; j < 10000; j++) {
 229              		.loc 1 33 39 is_stmt 0
 230 0138 13060000 		li	a2,0
 231 013c 9305A000 		li	a1,10
 232 0140 1B050900 		sext.w	a0,s2
 233 0144 97000000 		call	_Z8printIntiii@plt
 233      E7800000 
 234              	.LVL25:
  33:src/../src/../test/Threads_C_API_test.hpp ****         for (uint64 j = 0; j < 10000; j++) {
 235              		.loc 1 33 44 is_stmt 1
  33:src/../src/../test/Threads_C_API_test.hpp ****         for (uint64 j = 0; j < 10000; j++) {
 236              		.loc 1 33 55 is_stmt 0
 237 014c 17050000 		lla	a0,.LC1
 237      13050500 
 238 0154 97000000 		call	_Z11printStringPKc@plt
 238      E7800000 
 239              	.LVL26:
  34:src/../src/../test/Threads_C_API_test.hpp ****             for (uint64 k = 0; k < 30000; k++) { /* busy wait */ }
 240              		.loc 1 34 9 is_stmt 1
 241              	.LBB22:
  34:src/../src/../test/Threads_C_API_test.hpp ****             for (uint64 k = 0; k < 30000; k++) { /* busy wait */ }
 242              		.loc 1 34 21 is_stmt 0
 243 015c 93040000 		li	s1,0
 244 0160 6FF09FF9 		j	.L14
 245              	.LVL27:
 246              	.L10:
 247              	.LBE22:
 248              	.LBE23:
 249              	.LBE16:
  37:src/../src/../test/Threads_C_API_test.hpp ****         }
  38:src/../src/../test/Threads_C_API_test.hpp ****     }
  39:src/../src/../test/Threads_C_API_test.hpp ****     printString("B finished!\n");
 250              		.loc 1 39 5 is_stmt 1
 251              		.loc 1 39 16 is_stmt 0
 252 0164 17050000 		lla	a0,.LC4
GAS LISTING /tmp/cco26Yt2.s 			page 7


 252      13050500 
 253 016c 97000000 		call	_Z11printStringPKc@plt
 253      E7800000 
 254              	.LVL28:
  40:src/../src/../test/Threads_C_API_test.hpp ****     finishedB = true;
 255              		.loc 1 40 5 is_stmt 1
 256              		.loc 1 40 15 is_stmt 0
 257 0174 93071000 		li	a5,1
 258 0178 17070000 		sb	a5,.LANCHOR0+1,a4
 258      2300F700 
  41:src/../src/../test/Threads_C_API_test.hpp ****     thread_dispatch();
 259              		.loc 1 41 5 is_stmt 1
 260              		.loc 1 41 20 is_stmt 0
 261 0180 97000000 		call	_Z15thread_dispatchv@plt
 261      E7800000 
 262              	.LVL29:
  42:src/../src/../test/Threads_C_API_test.hpp **** }
 263              		.loc 1 42 1
 264 0188 83308101 		ld	ra,24(sp)
 265              		.cfi_restore 1
 266 018c 03340101 		ld	s0,16(sp)
 267              		.cfi_restore 8
 268              		.cfi_def_cfa 2, 32
 269 0190 83348100 		ld	s1,8(sp)
 270              		.cfi_restore 9
 271 0194 03390100 		ld	s2,0(sp)
 272              		.cfi_restore 18
 273              	.LVL30:
 274 0198 13010102 		addi	sp,sp,32
 275              		.cfi_def_cfa_offset 0
 276 019c 67800000 		jr	ra
 277              		.cfi_endproc
 278              	.LFE46:
 280              		.align	2
 281              		.globl	_Z9fibonaccim
 283              	_Z9fibonaccim:
 284              	.LFB44:
  13:src/../src/../test/Threads_C_API_test.hpp ****     if (n == 0 || n == 1) { return n; }
 285              		.loc 1 13 28 is_stmt 1
 286              		.cfi_startproc
 287              	.LVL31:
 288 01a0 130101FE 		addi	sp,sp,-32
 289              		.cfi_def_cfa_offset 32
 290 01a4 233C1100 		sd	ra,24(sp)
 291 01a8 23388100 		sd	s0,16(sp)
 292 01ac 23349100 		sd	s1,8(sp)
 293 01b0 23302101 		sd	s2,0(sp)
 294              		.cfi_offset 1, -8
 295              		.cfi_offset 8, -16
 296              		.cfi_offset 9, -24
 297              		.cfi_offset 18, -32
 298 01b4 13040102 		addi	s0,sp,32
 299              		.cfi_def_cfa 8, 0
 300 01b8 93040500 		mv	s1,a0
  14:src/../src/../test/Threads_C_API_test.hpp ****     if (n % 10 == 0) { thread_dispatch(); }
 301              		.loc 1 14 5
 302 01bc 93071000 		li	a5,1
GAS LISTING /tmp/cco26Yt2.s 			page 8


 303 01c0 63F8A702 		bleu	a0,a5,.L17
  15:src/../src/../test/Threads_C_API_test.hpp ****     return fibonacci(n - 1) + fibonacci(n - 2);
 304              		.loc 1 15 5
  15:src/../src/../test/Threads_C_API_test.hpp ****     return fibonacci(n - 1) + fibonacci(n - 2);
 305              		.loc 1 15 11 is_stmt 0
 306 01c4 9307A000 		li	a5,10
 307 01c8 B377F502 		remu	a5,a0,a5
  15:src/../src/../test/Threads_C_API_test.hpp ****     return fibonacci(n - 1) + fibonacci(n - 2);
 308              		.loc 1 15 5
 309 01cc 638E0702 		beqz	a5,.L22
 310              	.LVL32:
 311              	.L19:
  16:src/../src/../test/Threads_C_API_test.hpp **** }
 312              		.loc 1 16 5 is_stmt 1
  16:src/../src/../test/Threads_C_API_test.hpp **** }
 313              		.loc 1 16 21 is_stmt 0
 314 01d0 1385F4FF 		addi	a0,s1,-1
 315 01d4 97000000 		call	_Z9fibonaccim
 315      E7800000 
 316              	.LVL33:
 317 01dc 13090500 		mv	s2,a0
  16:src/../src/../test/Threads_C_API_test.hpp **** }
 318              		.loc 1 16 40
 319 01e0 1385E4FF 		addi	a0,s1,-2
 320 01e4 97000000 		call	_Z9fibonaccim
 320      E7800000 
 321              	.LVL34:
  16:src/../src/../test/Threads_C_API_test.hpp **** }
 322              		.loc 1 16 46
 323 01ec 3305A900 		add	a0,s2,a0
 324              	.L17:
  17:src/../src/../test/Threads_C_API_test.hpp **** 
 325              		.loc 1 17 1
 326 01f0 83308101 		ld	ra,24(sp)
 327              		.cfi_remember_state
 328              		.cfi_restore 1
 329 01f4 03340101 		ld	s0,16(sp)
 330              		.cfi_restore 8
 331              		.cfi_def_cfa 2, 32
 332 01f8 83348100 		ld	s1,8(sp)
 333              		.cfi_restore 9
 334              	.LVL35:
 335 01fc 03390100 		ld	s2,0(sp)
 336              		.cfi_restore 18
 337 0200 13010102 		addi	sp,sp,32
 338              		.cfi_def_cfa_offset 0
 339 0204 67800000 		jr	ra
 340              	.LVL36:
 341              	.L22:
 342              		.cfi_restore_state
  15:src/../src/../test/Threads_C_API_test.hpp ****     return fibonacci(n - 1) + fibonacci(n - 2);
 343              		.loc 1 15 24 is_stmt 1 discriminator 1
  15:src/../src/../test/Threads_C_API_test.hpp ****     return fibonacci(n - 1) + fibonacci(n - 2);
 344              		.loc 1 15 39 is_stmt 0 discriminator 1
 345 0208 97000000 		call	_Z15thread_dispatchv@plt
 345      E7800000 
 346              	.LVL37:
GAS LISTING /tmp/cco26Yt2.s 			page 9


 347 0210 6FF01FFC 		j	.L19
 348              		.cfi_endproc
 349              	.LFE44:
 351              		.section	.rodata.str1.8
 352 0035 000000   		.align	3
 353              	.LC5:
 354 0038 433A2069 		.string	"C: i="
 354      3D00
 355 003e 0000     		.align	3
 356              	.LC6:
 357 0040 433A2064 		.string	"C: dispatch\n"
 357      69737061 
 357      7463680A 
 357      00
 358 004d 000000   		.align	3
 359              	.LC7:
 360 0050 433A2074 		.string	"C: t1="
 360      313D00
 361 0057 00       		.align	3
 362              	.LC8:
 363 0058 433A2066 		.string	"C: fibonaci="
 363      69626F6E 
 363      6163693D 
 363      00
 364              		.text
 365              		.align	2
 366              		.globl	_Z11workerBodyCPv
 368              	_Z11workerBodyCPv:
 369              	.LFB47:
  43:src/../src/../test/Threads_C_API_test.hpp **** 
  44:src/../src/../test/Threads_C_API_test.hpp **** void workerBodyC(void* arg) {
 370              		.loc 1 44 29 is_stmt 1
 371              		.cfi_startproc
 372              	.LVL38:
 373 0214 130101FE 		addi	sp,sp,-32
 374              		.cfi_def_cfa_offset 32
 375 0218 233C1100 		sd	ra,24(sp)
 376 021c 23388100 		sd	s0,16(sp)
 377 0220 23349100 		sd	s1,8(sp)
 378 0224 23302101 		sd	s2,0(sp)
 379              		.cfi_offset 1, -8
 380              		.cfi_offset 8, -16
 381              		.cfi_offset 9, -24
 382              		.cfi_offset 18, -32
 383 0228 13040102 		addi	s0,sp,32
 384              		.cfi_def_cfa 8, 0
  45:src/../src/../test/Threads_C_API_test.hpp ****     uint8 i = 0;
 385              		.loc 1 45 5
 386              	.LVL39:
 387              		.loc 1 45 11 is_stmt 0
 388 022c 93040000 		li	s1,0
 389 0230 6F000004 		j	.L25
 390              	.LVL40:
 391              	.L29:
  46:src/../src/../test/Threads_C_API_test.hpp ****     for (; i < 3; i++) {
  47:src/../src/../test/Threads_C_API_test.hpp ****         printString("C: i="); printInt(i); printString("\n");
 392              		.loc 1 47 9 is_stmt 1 discriminator 1
GAS LISTING /tmp/cco26Yt2.s 			page 10


 393              		.loc 1 47 20 is_stmt 0 discriminator 1
 394 0234 17050000 		lla	a0,.LC5
 394      13050500 
 395 023c 97000000 		call	_Z11printStringPKc@plt
 395      E7800000 
 396              	.LVL41:
 397              		.loc 1 47 31 is_stmt 1 discriminator 1
 398              		.loc 1 47 39 is_stmt 0 discriminator 1
 399 0244 13060000 		li	a2,0
 400 0248 9305A000 		li	a1,10
 401 024c 13850400 		mv	a0,s1
 402 0250 97000000 		call	_Z8printIntiii@plt
 402      E7800000 
 403              	.LVL42:
 404              		.loc 1 47 44 is_stmt 1 discriminator 1
 405              		.loc 1 47 55 is_stmt 0 discriminator 1
 406 0258 17050000 		lla	a0,.LC1
 406      13050500 
 407 0260 97000000 		call	_Z11printStringPKc@plt
 407      E7800000 
 408              	.LVL43:
  46:src/../src/../test/Threads_C_API_test.hpp ****     for (; i < 3; i++) {
 409              		.loc 1 46 5 is_stmt 1 discriminator 1
 410 0268 9B841400 		addiw	s1,s1,1
 411              	.LVL44:
 412 026c 93F4F40F 		andi	s1,s1,0xff
 413              	.LVL45:
 414              	.L25:
  46:src/../src/../test/Threads_C_API_test.hpp ****     for (; i < 3; i++) {
 415              		.loc 1 46 5 discriminator 2
  46:src/../src/../test/Threads_C_API_test.hpp ****     for (; i < 3; i++) {
 416              		.loc 1 46 14 discriminator 2
 417 0270 93072000 		li	a5,2
 418 0274 E3F097FC 		bleu	s1,a5,.L29
  48:src/../src/../test/Threads_C_API_test.hpp ****     }
  49:src/../src/../test/Threads_C_API_test.hpp **** 
  50:src/../src/../test/Threads_C_API_test.hpp ****     printString("C: dispatch\n");
 419              		.loc 1 50 5
 420              		.loc 1 50 16 is_stmt 0
 421 0278 17050000 		lla	a0,.LC6
 421      13050500 
 422 0280 97000000 		call	_Z11printStringPKc@plt
 422      E7800000 
 423              	.LVL46:
  51:src/../src/../test/Threads_C_API_test.hpp ****     __asm__ ("li t1, 7");
 424              		.loc 1 51 5 is_stmt 1
 425              		.loc 1 51 25 is_stmt 0
 426              	#APP
 427              	# 51 "src/../src/../test/Threads_C_API_test.hpp" 1
  52              	    thread_dispatch();
 428              		li t1, 7
 429              	# 0 "" 2
 430              		.loc 1 52 5 is_stmt 1
 431              		.loc 1 52 20 is_stmt 0
 432              	#NO_APP
 433 028c 97000000 		call	_Z15thread_dispatchv@plt
 433      E7800000 
GAS LISTING /tmp/cco26Yt2.s 			page 11


 434              	.LVL47:
  53:src/../src/../test/Threads_C_API_test.hpp **** 
  54:src/../src/../test/Threads_C_API_test.hpp ****     uint64 t1 = 0;
 435              		.loc 1 54 5 is_stmt 1
  55:src/../src/../test/Threads_C_API_test.hpp ****     __asm__ ("mv %[t1], t1" : [t1] "=r"(t1));
 436              		.loc 1 55 5
 437              		.loc 1 55 45 is_stmt 0
 438              	#APP
 439              	# 55 "src/../src/../test/Threads_C_API_test.hpp" 1
  56              	
 440              		mv s2, t1
 441              	# 0 "" 2
 442              	.LVL48:
  57:src/../src/../test/Threads_C_API_test.hpp ****     printString("C: t1="); printInt(t1); printString("\n");
 443              		.loc 1 57 5 is_stmt 1
 444              		.loc 1 57 16 is_stmt 0
 445              	#NO_APP
 446 0298 17050000 		lla	a0,.LC7
 446      13050500 
 447 02a0 97000000 		call	_Z11printStringPKc@plt
 447      E7800000 
 448              	.LVL49:
 449              		.loc 1 57 28 is_stmt 1
 450              		.loc 1 57 36 is_stmt 0
 451 02a8 13060000 		li	a2,0
 452 02ac 9305A000 		li	a1,10
 453 02b0 1B050900 		sext.w	a0,s2
 454 02b4 97000000 		call	_Z8printIntiii@plt
 454      E7800000 
 455              	.LVL50:
 456              		.loc 1 57 42 is_stmt 1
 457              		.loc 1 57 53 is_stmt 0
 458 02bc 17050000 		lla	a0,.LC1
 458      13050500 
 459 02c4 97000000 		call	_Z11printStringPKc@plt
 459      E7800000 
 460              	.LVL51:
  58:src/../src/../test/Threads_C_API_test.hpp **** 
  59:src/../src/../test/Threads_C_API_test.hpp ****     uint64 result = fibonacci(12);
 461              		.loc 1 59 5 is_stmt 1
 462              		.loc 1 59 30 is_stmt 0
 463 02cc 1305C000 		li	a0,12
 464 02d0 97000000 		call	_Z9fibonaccim
 464      E7800000 
 465              	.LVL52:
 466 02d8 13090500 		mv	s2,a0
 467              	.LVL53:
  60:src/../src/../test/Threads_C_API_test.hpp ****     printString("C: fibonaci="); printInt(result); printString("\n");
 468              		.loc 1 60 5 is_stmt 1
 469              		.loc 1 60 16 is_stmt 0
 470 02dc 17050000 		lla	a0,.LC8
 470      13050500 
 471              	.LVL54:
 472 02e4 97000000 		call	_Z11printStringPKc@plt
 472      E7800000 
 473              	.LVL55:
 474              		.loc 1 60 34 is_stmt 1
GAS LISTING /tmp/cco26Yt2.s 			page 12


 475              		.loc 1 60 42 is_stmt 0
 476 02ec 13060000 		li	a2,0
 477 02f0 9305A000 		li	a1,10
 478 02f4 1B050900 		sext.w	a0,s2
 479 02f8 97000000 		call	_Z8printIntiii@plt
 479      E7800000 
 480              	.LVL56:
 481              		.loc 1 60 52 is_stmt 1
 482              		.loc 1 60 63 is_stmt 0
 483 0300 17050000 		lla	a0,.LC1
 483      13050500 
 484 0308 97000000 		call	_Z11printStringPKc@plt
 484      E7800000 
 485              	.LVL57:
 486 0310 6F000004 		j	.L27
 487              	.L30:
  61:src/../src/../test/Threads_C_API_test.hpp **** 
  62:src/../src/../test/Threads_C_API_test.hpp ****     for (; i < 6; i++) {
  63:src/../src/../test/Threads_C_API_test.hpp ****         printString("C: i="); printInt(i); printString("\n");
 488              		.loc 1 63 9 is_stmt 1 discriminator 1
 489              		.loc 1 63 20 is_stmt 0 discriminator 1
 490 0314 17050000 		lla	a0,.LC5
 490      13050500 
 491 031c 97000000 		call	_Z11printStringPKc@plt
 491      E7800000 
 492              	.LVL58:
 493              		.loc 1 63 31 is_stmt 1 discriminator 1
 494              		.loc 1 63 39 is_stmt 0 discriminator 1
 495 0324 13060000 		li	a2,0
 496 0328 9305A000 		li	a1,10
 497 032c 13850400 		mv	a0,s1
 498 0330 97000000 		call	_Z8printIntiii@plt
 498      E7800000 
 499              	.LVL59:
 500              		.loc 1 63 44 is_stmt 1 discriminator 1
 501              		.loc 1 63 55 is_stmt 0 discriminator 1
 502 0338 17050000 		lla	a0,.LC1
 502      13050500 
 503 0340 97000000 		call	_Z11printStringPKc@plt
 503      E7800000 
 504              	.LVL60:
  62:src/../src/../test/Threads_C_API_test.hpp ****         printString("C: i="); printInt(i); printString("\n");
 505              		.loc 1 62 5 is_stmt 1 discriminator 1
 506 0348 9B841400 		addiw	s1,s1,1
 507              	.LVL61:
 508 034c 93F4F40F 		andi	s1,s1,0xff
 509              	.LVL62:
 510              	.L27:
  62:src/../src/../test/Threads_C_API_test.hpp ****         printString("C: i="); printInt(i); printString("\n");
 511              		.loc 1 62 5 discriminator 2
  62:src/../src/../test/Threads_C_API_test.hpp ****         printString("C: i="); printInt(i); printString("\n");
 512              		.loc 1 62 14 discriminator 2
 513 0350 93075000 		li	a5,5
 514 0354 E3F097FC 		bleu	s1,a5,.L30
  64:src/../src/../test/Threads_C_API_test.hpp ****     }
  65:src/../src/../test/Threads_C_API_test.hpp **** 
  66:src/../src/../test/Threads_C_API_test.hpp ****     printString("A finished!\n");
GAS LISTING /tmp/cco26Yt2.s 			page 13


 515              		.loc 1 66 5
 516              		.loc 1 66 16 is_stmt 0
 517 0358 17050000 		lla	a0,.LC2
 517      13050500 
 518 0360 97000000 		call	_Z11printStringPKc@plt
 518      E7800000 
 519              	.LVL63:
  67:src/../src/../test/Threads_C_API_test.hpp ****     finishedC = true;
 520              		.loc 1 67 5 is_stmt 1
 521              		.loc 1 67 15 is_stmt 0
 522 0368 93071000 		li	a5,1
 523 036c 17070000 		sb	a5,.LANCHOR0+2,a4
 523      2300F700 
  68:src/../src/../test/Threads_C_API_test.hpp ****     thread_dispatch();
 524              		.loc 1 68 5 is_stmt 1
 525              		.loc 1 68 20 is_stmt 0
 526 0374 97000000 		call	_Z15thread_dispatchv@plt
 526      E7800000 
 527              	.LVL64:
  69:src/../src/../test/Threads_C_API_test.hpp **** }
 528              		.loc 1 69 1
 529 037c 83308101 		ld	ra,24(sp)
 530              		.cfi_restore 1
 531 0380 03340101 		ld	s0,16(sp)
 532              		.cfi_restore 8
 533              		.cfi_def_cfa 2, 32
 534 0384 83348100 		ld	s1,8(sp)
 535              		.cfi_restore 9
 536              	.LVL65:
 537 0388 03390100 		ld	s2,0(sp)
 538              		.cfi_restore 18
 539              	.LVL66:
 540 038c 13010102 		addi	sp,sp,32
 541              		.cfi_def_cfa_offset 0
 542 0390 67800000 		jr	ra
 543              		.cfi_endproc
 544              	.LFE47:
 546              		.section	.rodata.str1.8
 547 0065 000000   		.align	3
 548              	.LC9:
 549 0068 443A2069 		.string	"D: i="
 549      3D00
 550 006e 0000     		.align	3
 551              	.LC10:
 552 0070 443A2064 		.string	"D: dispatch\n"
 552      69737061 
 552      7463680A 
 552      00
 553 007d 000000   		.align	3
 554              	.LC11:
 555 0080 443A2066 		.string	"D: fibonaci="
 555      69626F6E 
 555      6163693D 
 555      00
 556 008d 000000   		.align	3
 557              	.LC12:
 558 0090 44206669 		.string	"D finished!\n"
GAS LISTING /tmp/cco26Yt2.s 			page 14


 558      6E697368 
 558      6564210A 
 558      00
 559              		.text
 560              		.align	2
 561              		.globl	_Z11workerBodyDPv
 563              	_Z11workerBodyDPv:
 564              	.LFB48:
  70:src/../src/../test/Threads_C_API_test.hpp **** 
  71:src/../src/../test/Threads_C_API_test.hpp **** void workerBodyD(void* arg) {
 565              		.loc 1 71 29 is_stmt 1
 566              		.cfi_startproc
 567              	.LVL67:
 568 0394 130101FE 		addi	sp,sp,-32
 569              		.cfi_def_cfa_offset 32
 570 0398 233C1100 		sd	ra,24(sp)
 571 039c 23388100 		sd	s0,16(sp)
 572 03a0 23349100 		sd	s1,8(sp)
 573 03a4 23302101 		sd	s2,0(sp)
 574              		.cfi_offset 1, -8
 575              		.cfi_offset 8, -16
 576              		.cfi_offset 9, -24
 577              		.cfi_offset 18, -32
 578 03a8 13040102 		addi	s0,sp,32
 579              		.cfi_def_cfa 8, 0
  72:src/../src/../test/Threads_C_API_test.hpp ****     uint8 i = 10;
 580              		.loc 1 72 5
 581              	.LVL68:
 582              		.loc 1 72 11 is_stmt 0
 583 03ac 9304A000 		li	s1,10
 584 03b0 6F000004 		j	.L33
 585              	.LVL69:
 586              	.L37:
  73:src/../src/../test/Threads_C_API_test.hpp ****     for (; i < 13; i++) {
  74:src/../src/../test/Threads_C_API_test.hpp ****         printString("D: i="); printInt(i); printString("\n");
 587              		.loc 1 74 9 is_stmt 1 discriminator 1
 588              		.loc 1 74 20 is_stmt 0 discriminator 1
 589 03b4 17050000 		lla	a0,.LC9
 589      13050500 
 590 03bc 97000000 		call	_Z11printStringPKc@plt
 590      E7800000 
 591              	.LVL70:
 592              		.loc 1 74 31 is_stmt 1 discriminator 1
 593              		.loc 1 74 39 is_stmt 0 discriminator 1
 594 03c4 13060000 		li	a2,0
 595 03c8 9305A000 		li	a1,10
 596 03cc 13850400 		mv	a0,s1
 597 03d0 97000000 		call	_Z8printIntiii@plt
 597      E7800000 
 598              	.LVL71:
 599              		.loc 1 74 44 is_stmt 1 discriminator 1
 600              		.loc 1 74 55 is_stmt 0 discriminator 1
 601 03d8 17050000 		lla	a0,.LC1
 601      13050500 
 602 03e0 97000000 		call	_Z11printStringPKc@plt
 602      E7800000 
 603              	.LVL72:
GAS LISTING /tmp/cco26Yt2.s 			page 15


  73:src/../src/../test/Threads_C_API_test.hpp ****     for (; i < 13; i++) {
 604              		.loc 1 73 5 is_stmt 1 discriminator 1
 605 03e8 9B841400 		addiw	s1,s1,1
 606              	.LVL73:
 607 03ec 93F4F40F 		andi	s1,s1,0xff
 608              	.LVL74:
 609              	.L33:
  73:src/../src/../test/Threads_C_API_test.hpp ****     for (; i < 13; i++) {
 610              		.loc 1 73 5 discriminator 2
  73:src/../src/../test/Threads_C_API_test.hpp ****     for (; i < 13; i++) {
 611              		.loc 1 73 14 discriminator 2
 612 03f0 9307C000 		li	a5,12
 613 03f4 E3F097FC 		bleu	s1,a5,.L37
  75:src/../src/../test/Threads_C_API_test.hpp ****     }
  76:src/../src/../test/Threads_C_API_test.hpp **** 
  77:src/../src/../test/Threads_C_API_test.hpp ****     printString("D: dispatch\n");
 614              		.loc 1 77 5
 615              		.loc 1 77 16 is_stmt 0
 616 03f8 17050000 		lla	a0,.LC10
 616      13050500 
 617 0400 97000000 		call	_Z11printStringPKc@plt
 617      E7800000 
 618              	.LVL75:
  78:src/../src/../test/Threads_C_API_test.hpp ****     __asm__ ("li t1, 5");
 619              		.loc 1 78 5 is_stmt 1
 620              		.loc 1 78 25 is_stmt 0
 621              	#APP
 622              	# 78 "src/../src/../test/Threads_C_API_test.hpp" 1
  79              	    thread_dispatch();
 623              		li t1, 5
 624              	# 0 "" 2
 625              		.loc 1 79 5 is_stmt 1
 626              		.loc 1 79 20 is_stmt 0
 627              	#NO_APP
 628 040c 97000000 		call	_Z15thread_dispatchv@plt
 628      E7800000 
 629              	.LVL76:
  80:src/../src/../test/Threads_C_API_test.hpp **** 
  81:src/../src/../test/Threads_C_API_test.hpp ****     uint64 result = fibonacci(16);
 630              		.loc 1 81 5 is_stmt 1
 631              		.loc 1 81 30 is_stmt 0
 632 0414 13050001 		li	a0,16
 633 0418 97000000 		call	_Z9fibonaccim
 633      E7800000 
 634              	.LVL77:
 635 0420 13090500 		mv	s2,a0
 636              	.LVL78:
  82:src/../src/../test/Threads_C_API_test.hpp ****     printString("D: fibonaci="); printInt(result); printString("\n");
 637              		.loc 1 82 5 is_stmt 1
 638              		.loc 1 82 16 is_stmt 0
 639 0424 17050000 		lla	a0,.LC11
 639      13050500 
 640              	.LVL79:
 641 042c 97000000 		call	_Z11printStringPKc@plt
 641      E7800000 
 642              	.LVL80:
 643              		.loc 1 82 34 is_stmt 1
GAS LISTING /tmp/cco26Yt2.s 			page 16


 644              		.loc 1 82 42 is_stmt 0
 645 0434 13060000 		li	a2,0
 646 0438 9305A000 		li	a1,10
 647 043c 1B050900 		sext.w	a0,s2
 648 0440 97000000 		call	_Z8printIntiii@plt
 648      E7800000 
 649              	.LVL81:
 650              		.loc 1 82 52 is_stmt 1
 651              		.loc 1 82 63 is_stmt 0
 652 0448 17050000 		lla	a0,.LC1
 652      13050500 
 653 0450 97000000 		call	_Z11printStringPKc@plt
 653      E7800000 
 654              	.LVL82:
 655 0458 6F000004 		j	.L35
 656              	.L38:
  83:src/../src/../test/Threads_C_API_test.hpp **** 
  84:src/../src/../test/Threads_C_API_test.hpp ****     for (; i < 16; i++) {
  85:src/../src/../test/Threads_C_API_test.hpp ****         printString("D: i="); printInt(i); printString("\n");
 657              		.loc 1 85 9 is_stmt 1 discriminator 1
 658              		.loc 1 85 20 is_stmt 0 discriminator 1
 659 045c 17050000 		lla	a0,.LC9
 659      13050500 
 660 0464 97000000 		call	_Z11printStringPKc@plt
 660      E7800000 
 661              	.LVL83:
 662              		.loc 1 85 31 is_stmt 1 discriminator 1
 663              		.loc 1 85 39 is_stmt 0 discriminator 1
 664 046c 13060000 		li	a2,0
 665 0470 9305A000 		li	a1,10
 666 0474 13850400 		mv	a0,s1
 667 0478 97000000 		call	_Z8printIntiii@plt
 667      E7800000 
 668              	.LVL84:
 669              		.loc 1 85 44 is_stmt 1 discriminator 1
 670              		.loc 1 85 55 is_stmt 0 discriminator 1
 671 0480 17050000 		lla	a0,.LC1
 671      13050500 
 672 0488 97000000 		call	_Z11printStringPKc@plt
 672      E7800000 
 673              	.LVL85:
  84:src/../src/../test/Threads_C_API_test.hpp ****         printString("D: i="); printInt(i); printString("\n");
 674              		.loc 1 84 5 is_stmt 1 discriminator 1
 675 0490 9B841400 		addiw	s1,s1,1
 676              	.LVL86:
 677 0494 93F4F40F 		andi	s1,s1,0xff
 678              	.LVL87:
 679              	.L35:
  84:src/../src/../test/Threads_C_API_test.hpp ****         printString("D: i="); printInt(i); printString("\n");
 680              		.loc 1 84 5 discriminator 2
  84:src/../src/../test/Threads_C_API_test.hpp ****         printString("D: i="); printInt(i); printString("\n");
 681              		.loc 1 84 14 discriminator 2
 682 0498 9307F000 		li	a5,15
 683 049c E3F097FC 		bleu	s1,a5,.L38
  86:src/../src/../test/Threads_C_API_test.hpp ****     }
  87:src/../src/../test/Threads_C_API_test.hpp **** 
  88:src/../src/../test/Threads_C_API_test.hpp ****     printString("D finished!\n");
GAS LISTING /tmp/cco26Yt2.s 			page 17


 684              		.loc 1 88 5
 685              		.loc 1 88 16 is_stmt 0
 686 04a0 17050000 		lla	a0,.LC12
 686      13050500 
 687 04a8 97000000 		call	_Z11printStringPKc@plt
 687      E7800000 
 688              	.LVL88:
  89:src/../src/../test/Threads_C_API_test.hpp ****     finishedD = true;
 689              		.loc 1 89 5 is_stmt 1
 690              		.loc 1 89 15 is_stmt 0
 691 04b0 93071000 		li	a5,1
 692 04b4 17070000 		sb	a5,.LANCHOR0+3,a4
 692      2300F700 
  90:src/../src/../test/Threads_C_API_test.hpp ****     thread_dispatch();
 693              		.loc 1 90 5 is_stmt 1
 694              		.loc 1 90 20 is_stmt 0
 695 04bc 97000000 		call	_Z15thread_dispatchv@plt
 695      E7800000 
 696              	.LVL89:
  91:src/../src/../test/Threads_C_API_test.hpp **** }
 697              		.loc 1 91 1
 698 04c4 83308101 		ld	ra,24(sp)
 699              		.cfi_restore 1
 700 04c8 03340101 		ld	s0,16(sp)
 701              		.cfi_restore 8
 702              		.cfi_def_cfa 2, 32
 703 04cc 83348100 		ld	s1,8(sp)
 704              		.cfi_restore 9
 705              	.LVL90:
 706 04d0 03390100 		ld	s2,0(sp)
 707              		.cfi_restore 18
 708              	.LVL91:
 709 04d4 13010102 		addi	sp,sp,32
 710              		.cfi_def_cfa_offset 0
 711 04d8 67800000 		jr	ra
 712              		.cfi_endproc
 713              	.LFE48:
 715              		.section	.rodata.str1.8
 716 009d 000000   		.align	3
 717              	.LC13:
 718 00a0 54687265 		.string	"ThreadA created\n"
 718      61644120 
 718      63726561 
 718      7465640A 
 718      00
 719 00b1 00000000 		.align	3
 719      000000
 720              	.LC14:
 721 00b8 54687265 		.string	"ThreadB created\n"
 721      61644220 
 721      63726561 
 721      7465640A 
 721      00
 722 00c9 00000000 		.align	3
 722      000000
 723              	.LC15:
 724 00d0 54687265 		.string	"ThreadC created\n"
GAS LISTING /tmp/cco26Yt2.s 			page 18


 724      61644320 
 724      63726561 
 724      7465640A 
 724      00
 725 00e1 00000000 		.align	3
 725      000000
 726              	.LC16:
 727 00e8 54687265 		.string	"ThreadD created\n"
 727      61644420 
 727      63726561 
 727      7465640A 
 727      00
 728              		.text
 729              		.align	2
 730              		.globl	_Z18Threads_C_API_testv
 732              	_Z18Threads_C_API_testv:
 733              	.LFB49:
  92:src/../src/../test/Threads_C_API_test.hpp **** 
  93:src/../src/../test/Threads_C_API_test.hpp **** 
  94:src/../src/../test/Threads_C_API_test.hpp **** void Threads_C_API_test() {
 734              		.loc 1 94 27 is_stmt 1
 735              		.cfi_startproc
 736 04dc 130101FD 		addi	sp,sp,-48
 737              		.cfi_def_cfa_offset 48
 738 04e0 23341102 		sd	ra,40(sp)
 739 04e4 23308102 		sd	s0,32(sp)
 740              		.cfi_offset 1, -8
 741              		.cfi_offset 8, -16
 742 04e8 13040103 		addi	s0,sp,48
 743              		.cfi_def_cfa 8, 0
  95:src/../src/../test/Threads_C_API_test.hpp ****     thread_t threads[4];
 744              		.loc 1 95 5
  96:src/../src/../test/Threads_C_API_test.hpp ****     thread_create(&threads[0], workerBodyA, nullptr);
 745              		.loc 1 96 5
 746              		.loc 1 96 18 is_stmt 0
 747 04ec 13060000 		li	a2,0
 748 04f0 97050000 		lla	a1,_Z11workerBodyAPv
 748      93850500 
 749 04f8 130504FD 		addi	a0,s0,-48
 750 04fc 97000000 		call	_Z13thread_createPP3TCBPFvPvES2_@plt
 750      E7800000 
 751              	.LVL92:
  97:src/../src/../test/Threads_C_API_test.hpp ****     printString("ThreadA created\n");
 752              		.loc 1 97 5 is_stmt 1
 753              		.loc 1 97 16 is_stmt 0
 754 0504 17050000 		lla	a0,.LC13
 754      13050500 
 755 050c 97000000 		call	_Z11printStringPKc@plt
 755      E7800000 
 756              	.LVL93:
  98:src/../src/../test/Threads_C_API_test.hpp **** 
  99:src/../src/../test/Threads_C_API_test.hpp ****     thread_create(&threads[1], workerBodyB, nullptr);
 757              		.loc 1 99 5 is_stmt 1
 758              		.loc 1 99 18 is_stmt 0
 759 0514 13060000 		li	a2,0
 760 0518 97050000 		lla	a1,_Z11workerBodyBPv
 760      93850500 
GAS LISTING /tmp/cco26Yt2.s 			page 19


 761 0520 130584FD 		addi	a0,s0,-40
 762 0524 97000000 		call	_Z13thread_createPP3TCBPFvPvES2_@plt
 762      E7800000 
 763              	.LVL94:
 100:src/../src/../test/Threads_C_API_test.hpp ****     printString("ThreadB created\n");
 764              		.loc 1 100 5 is_stmt 1
 765              		.loc 1 100 16 is_stmt 0
 766 052c 17050000 		lla	a0,.LC14
 766      13050500 
 767 0534 97000000 		call	_Z11printStringPKc@plt
 767      E7800000 
 768              	.LVL95:
 101:src/../src/../test/Threads_C_API_test.hpp **** 
 102:src/../src/../test/Threads_C_API_test.hpp ****     thread_create(&threads[2], workerBodyC, nullptr);
 769              		.loc 1 102 5 is_stmt 1
 770              		.loc 1 102 18 is_stmt 0
 771 053c 13060000 		li	a2,0
 772 0540 97050000 		lla	a1,_Z11workerBodyCPv
 772      93850500 
 773 0548 130504FE 		addi	a0,s0,-32
 774 054c 97000000 		call	_Z13thread_createPP3TCBPFvPvES2_@plt
 774      E7800000 
 775              	.LVL96:
 103:src/../src/../test/Threads_C_API_test.hpp ****     printString("ThreadC created\n");
 776              		.loc 1 103 5 is_stmt 1
 777              		.loc 1 103 16 is_stmt 0
 778 0554 17050000 		lla	a0,.LC15
 778      13050500 
 779 055c 97000000 		call	_Z11printStringPKc@plt
 779      E7800000 
 780              	.LVL97:
 104:src/../src/../test/Threads_C_API_test.hpp **** 
 105:src/../src/../test/Threads_C_API_test.hpp ****     thread_create(&threads[3], workerBodyD, nullptr);
 781              		.loc 1 105 5 is_stmt 1
 782              		.loc 1 105 18 is_stmt 0
 783 0564 13060000 		li	a2,0
 784 0568 97050000 		lla	a1,_Z11workerBodyDPv
 784      93850500 
 785 0570 130584FE 		addi	a0,s0,-24
 786 0574 97000000 		call	_Z13thread_createPP3TCBPFvPvES2_@plt
 786      E7800000 
 787              	.LVL98:
 106:src/../src/../test/Threads_C_API_test.hpp ****     printString("ThreadD created\n");
 788              		.loc 1 106 5 is_stmt 1
 789              		.loc 1 106 16 is_stmt 0
 790 057c 17050000 		lla	a0,.LC16
 790      13050500 
 791 0584 97000000 		call	_Z11printStringPKc@plt
 791      E7800000 
 792              	.LVL99:
 793 058c 6F00C000 		j	.L42
 794              	.L40:
 107:src/../src/../test/Threads_C_API_test.hpp **** 
 108:src/../src/../test/Threads_C_API_test.hpp ****     while (!(finishedA && finishedB && finishedC && finishedD)) {
 109:src/../src/../test/Threads_C_API_test.hpp ****         thread_dispatch();
 795              		.loc 1 109 9 is_stmt 1
 796              		.loc 1 109 24 is_stmt 0
GAS LISTING /tmp/cco26Yt2.s 			page 20


 797 0590 97000000 		call	_Z15thread_dispatchv@plt
 797      E7800000 
 798              	.LVL100:
 799              	.L42:
 108:src/../src/../test/Threads_C_API_test.hpp ****         thread_dispatch();
 800              		.loc 1 108 5 is_stmt 1
 108:src/../src/../test/Threads_C_API_test.hpp ****         thread_dispatch();
 801              		.loc 1 108 12
 802 0598 97070000 		lbu	a5,.LANCHOR0
 802      83C70700 
 803 05a0 E38807FE 		beqz	a5,.L40
 108:src/../src/../test/Threads_C_API_test.hpp ****         thread_dispatch();
 804              		.loc 1 108 24 is_stmt 0 discriminator 1
 805 05a4 97070000 		lbu	a5,.LANCHOR0+1
 805      83C70700 
 806 05ac E38207FE 		beqz	a5,.L40
 108:src/../src/../test/Threads_C_API_test.hpp ****         thread_dispatch();
 807              		.loc 1 108 37 discriminator 2
 808 05b0 97070000 		lbu	a5,.LANCHOR0+2
 808      83C70700 
 809 05b8 E38C07FC 		beqz	a5,.L40
 108:src/../src/../test/Threads_C_API_test.hpp ****         thread_dispatch();
 810              		.loc 1 108 12 discriminator 3
 811 05bc 97070000 		lbu	a5,.LANCHOR0+3
 811      83C70700 
 812 05c4 E38607FC 		beqz	a5,.L40
 110:src/../src/../test/Threads_C_API_test.hpp ****     }
 111:src/../src/../test/Threads_C_API_test.hpp **** 
 112:src/../src/../test/Threads_C_API_test.hpp **** }
 813              		.loc 1 112 1
 814 05c8 83308102 		ld	ra,40(sp)
 815              		.cfi_restore 1
 816 05cc 03340102 		ld	s0,32(sp)
 817              		.cfi_restore 8
 818              		.cfi_def_cfa 2, 48
 819 05d0 13010103 		addi	sp,sp,48
 820              		.cfi_def_cfa_offset 0
 821 05d4 67800000 		jr	ra
 822              		.cfi_endproc
 823              	.LFE49:
 825              		.align	2
 826              		.globl	_Z8userMainv
 828              	_Z8userMainv:
 829              	.LFB50:
 830              		.file 2 "src/../src/userMain.cpp"
   1:src/../src/userMain.cpp **** #include "../test/Threads_C_API_test.hpp" // zadatak 2, niti C API i sinhrona promena konteksta
   2:src/../src/userMain.cpp **** //#include "../test/Threads_CPP_API_test.hpp" // zadatak 2., niti CPP API i sinhrona promena kontek
   3:src/../src/userMain.cpp **** 
   4:src/../src/userMain.cpp **** //#include "../test/ConsumerProducer_C_API_test.h" // zadatak 3., kompletan C API sa semaforima, si
   5:src/../src/userMain.cpp **** //#include "../test/ConsumerProducer_CPP_Sync_API_test.hpp" // zadatak 3., kompletan CPP API sa sem
   6:src/../src/userMain.cpp **** 
   7:src/../src/userMain.cpp **** //#include "../test/ThreadSleep_C_API_test.hpp" // thread_sleep test C API
   8:src/../src/userMain.cpp **** //#include "../test/ConsumerProducer_CPP_API_test.hpp" // zadatak 4. CPP API i asinhrona promena ko
   9:src/../src/userMain.cpp **** 
  10:src/../src/userMain.cpp **** void userMain() {
 831              		.loc 2 10 17 is_stmt 1
 832              		.cfi_startproc
GAS LISTING /tmp/cco26Yt2.s 			page 21


 833 05d8 130101FF 		addi	sp,sp,-16
 834              		.cfi_def_cfa_offset 16
 835 05dc 23341100 		sd	ra,8(sp)
 836 05e0 23308100 		sd	s0,0(sp)
 837              		.cfi_offset 1, -8
 838              		.cfi_offset 8, -16
 839 05e4 13040101 		addi	s0,sp,16
 840              		.cfi_def_cfa 8, 0
  11:src/../src/userMain.cpp ****     Threads_C_API_test(); // zadatak 2., niti C API i sinhrona promena konteksta
 841              		.loc 2 11 5
 842              		.loc 2 11 23 is_stmt 0
 843 05e8 97000000 		call	_Z18Threads_C_API_testv
 843      E7800000 
 844              	.LVL101:
  12:src/../src/userMain.cpp ****     //Threads_CPP_API_test(); // zadatak 2., niti CPP API i sinhrona promena konteksta
  13:src/../src/userMain.cpp **** 
  14:src/../src/userMain.cpp ****     //producerConsumer_C_API(); // zadatak 3., kompletan C API sa semaforima, sinhrona promena kont
  15:src/../src/userMain.cpp ****     //producerConsumer_CPP_Sync_API(); // zadatak 3., kompletan CPP API sa semaforima, sinhrona pro
  16:src/../src/userMain.cpp **** 
  17:src/../src/userMain.cpp ****     //testSleeping(); // thread_sleep test C API
  18:src/../src/userMain.cpp ****     //ConsumerProducerCPP::testConsumerProducer(); // zadatak 4. CPP API i asinhrona promena kontek
  19:src/../src/userMain.cpp **** 
  20:src/../src/userMain.cpp **** }...
 845              		.loc 2 20 1
 846 05f0 83308100 		ld	ra,8(sp)
 847              		.cfi_restore 1
 848 05f4 03340100 		ld	s0,0(sp)
 849              		.cfi_restore 8
 850              		.cfi_def_cfa 2, 16
 851 05f8 13010101 		addi	sp,sp,16
 852              		.cfi_def_cfa_offset 0
 853 05fc 67800000 		jr	ra
 854              		.cfi_endproc
 855              	.LFE50:
 857              		.align	2
 858              		.globl	main
 860              	main:
 861              	.LFB51:
 862              		.file 3 "src/main.cpp"
   1:src/main.cpp  **** //#include "../lib/hw.h"
   2:src/main.cpp  **** //#include "../lib/console.h"
   3:src/main.cpp  **** //#include "../h/tcb.hpp"
   4:src/main.cpp  **** //#include "../h/workers.hpp"
   5:src/main.cpp  **** //#include "../h/Print.hpp"
   6:src/main.cpp  **** #include "../h/MemoryAllocation.hpp"
   7:src/main.cpp  **** #include "../h/RiscV.hpp"
   8:src/main.cpp  **** //#include "../h/syscall_c.hpp"
   9:src/main.cpp  **** #include "../src/userMain.cpp"
  10:src/main.cpp  **** //#include "../test/Threads_C_API_test.hpp"
  11:src/main.cpp  **** int main(){
 863              		.loc 3 11 11 is_stmt 1
 864              		.cfi_startproc
 865 0600 130101FF 		addi	sp,sp,-16
 866              		.cfi_def_cfa_offset 16
 867 0604 23341100 		sd	ra,8(sp)
 868 0608 23308100 		sd	s0,0(sp)
 869              		.cfi_offset 1, -8
GAS LISTING /tmp/cco26Yt2.s 			page 22


 870              		.cfi_offset 8, -16
 871 060c 13040101 		addi	s0,sp,16
 872              		.cfi_def_cfa 8, 0
  12:src/main.cpp  ****     MemoryAllocation* mem_obj;
 873              		.loc 3 12 5
  13:src/main.cpp  ****     mem_obj = mem_obj->getInstance();
 874              		.loc 3 13 5
 875              		.file 4 "src/../h/MemoryAllocation.hpp"
   1:src/../h/MemoryAllocation.hpp **** #include "../lib/hw.h"
   2:src/../h/MemoryAllocation.hpp **** 
   3:src/../h/MemoryAllocation.hpp **** 
   4:src/../h/MemoryAllocation.hpp **** #ifndef PROJECT_BASE_MEMORYALLOCATION_HPP
   5:src/../h/MemoryAllocation.hpp **** #define PROJECT_BASE_MEMORYALLOCATION_HPP
   6:src/../h/MemoryAllocation.hpp **** 
   7:src/../h/MemoryAllocation.hpp **** 
   8:src/../h/MemoryAllocation.hpp **** class MemoryAllocation {
   9:src/../h/MemoryAllocation.hpp **** 
  10:src/../h/MemoryAllocation.hpp ****     //===========================DEFINICIJA SINGLETON KLASE POCETAK=======================k
  11:src/../h/MemoryAllocation.hpp **** private:
  12:src/../h/MemoryAllocation.hpp **** 
  13:src/../h/MemoryAllocation.hpp ****     struct FreeMem {
  14:src/../h/MemoryAllocation.hpp ****         FreeMem *next;
  15:src/../h/MemoryAllocation.hpp ****         FreeMem *prev;
  16:src/../h/MemoryAllocation.hpp ****         size_t size;
  17:src/../h/MemoryAllocation.hpp ****     };
  18:src/../h/MemoryAllocation.hpp **** 
  19:src/../h/MemoryAllocation.hpp **** 
  20:src/../h/MemoryAllocation.hpp ****     static FreeMem *fmem_head; //koja pocetna vrednost?
  21:src/../h/MemoryAllocation.hpp **** 
  22:src/../h/MemoryAllocation.hpp **** 
  23:src/../h/MemoryAllocation.hpp **** 
  24:src/../h/MemoryAllocation.hpp ****     static MemoryAllocation *instance;
  25:src/../h/MemoryAllocation.hpp ****     int data;
  26:src/../h/MemoryAllocation.hpp **** 
  27:src/../h/MemoryAllocation.hpp **** 
  28:src/../h/MemoryAllocation.hpp ****     MemoryAllocation() { //OVO SE SADA NIGGDE
  29:src/../h/MemoryAllocation.hpp ****         fmem_head->size = (size_t) ((char *) HEAP_END_ADDR -
  30:src/../h/MemoryAllocation.hpp ****                                     (char *) HEAP_START_ADDR); //da li smem ovo da castujem u size_
  31:src/../h/MemoryAllocation.hpp ****         fmem_head->next = nullptr;
  32:src/../h/MemoryAllocation.hpp ****         fmem_head->prev = nullptr;
  33:src/../h/MemoryAllocation.hpp ****         data = 0;
  34:src/../h/MemoryAllocation.hpp ****     }
  35:src/../h/MemoryAllocation.hpp **** 
  36:src/../h/MemoryAllocation.hpp ****     MemoryAllocation(MemoryAllocation const &);
  37:src/../h/MemoryAllocation.hpp **** 
  38:src/../h/MemoryAllocation.hpp ****     void operator=(MemoryAllocation const &);
  39:src/../h/MemoryAllocation.hpp **** 
  40:src/../h/MemoryAllocation.hpp **** public:
  41:src/../h/MemoryAllocation.hpp **** 
  42:src/../h/MemoryAllocation.hpp **** 
  43:src/../h/MemoryAllocation.hpp ****     static MemoryAllocation *getInstance() {
  44:src/../h/MemoryAllocation.hpp ****         if (!instance) {
 876              		.loc 4 44 9
 877              	.LBB24:
 878              	.LBB25:
 879              		.loc 4 44 13 is_stmt 0
 880 0610 97070000 		la	a5,_ZN16MemoryAllocation8instanceE
GAS LISTING /tmp/cco26Yt2.s 			page 23


 880      83B70700 
 881 0618 83B70700 		ld	a5,0(a5)
 882              		.loc 4 44 9
 883 061c 63860702 		beqz	a5,.L49
 884              	.L47:
 885              	.LBE25:
 886              	.LBE24:
  14:src/main.cpp  ****     RiscV::w_stvec((uint64) &RiscV::supervisorTrap);
 887              		.loc 3 14 5 is_stmt 1
 888              		.loc 3 14 19 is_stmt 0
 889 0620 97070000 		la	a5,_ZN5RiscV14supervisorTrapEv
 889      83B70700 
 890              	.LVL102:
 891              	.LBB28:
 892              	.LBB29:
 893              		.file 5 "src/../h/RiscV.hpp"
   1:src/../h/RiscV.hpp **** //
   2:src/../h/RiscV.hpp **** // Created by os on 8/14/22.
   3:src/../h/RiscV.hpp **** //
   4:src/../h/RiscV.hpp **** 
   5:src/../h/RiscV.hpp **** #ifndef PROJECT_BASE_RISCV_HPP
   6:src/../h/RiscV.hpp **** #define PROJECT_BASE_RISCV_HPP
   7:src/../h/RiscV.hpp **** #include "../lib/hw.h"
   8:src/../h/RiscV.hpp **** 
   9:src/../h/RiscV.hpp **** class RiscV {
  10:src/../h/RiscV.hpp **** public:
  11:src/../h/RiscV.hpp ****     //pop sstatus.spp and sstatus.spie bits(mora da bude ne inline funkcija)
  12:src/../h/RiscV.hpp ****     static void popSppSpie();
  13:src/../h/RiscV.hpp **** 
  14:src/../h/RiscV.hpp ****     //push x3...x31 registers on stack
  15:src/../h/RiscV.hpp ****     static void pushRegisters();
  16:src/../h/RiscV.hpp **** 
  17:src/../h/RiscV.hpp ****     //pop x3...x31 registers on stack
  18:src/../h/RiscV.hpp ****     static void popRegisters();
  19:src/../h/RiscV.hpp **** 
  20:src/../h/RiscV.hpp ****     //read register scause
  21:src/../h/RiscV.hpp ****     static uint64 r_scause();
  22:src/../h/RiscV.hpp **** 
  23:src/../h/RiscV.hpp ****     //write register scause
  24:src/../h/RiscV.hpp ****     static void w_scause(uint64 scause);
  25:src/../h/RiscV.hpp **** 
  26:src/../h/RiscV.hpp ****     //read register sepc
  27:src/../h/RiscV.hpp ****     static uint64 r_sepc();
  28:src/../h/RiscV.hpp **** 
  29:src/../h/RiscV.hpp ****     //write register sepc
  30:src/../h/RiscV.hpp ****     static void w_sepc(uint64 sepc);
  31:src/../h/RiscV.hpp **** 
  32:src/../h/RiscV.hpp ****     //read register stvec
  33:src/../h/RiscV.hpp ****     static uint64 r_stvec();
  34:src/../h/RiscV.hpp **** 
  35:src/../h/RiscV.hpp ****     //write register stvec
  36:src/../h/RiscV.hpp ****     static void w_stvec(uint64 stvec);
  37:src/../h/RiscV.hpp **** 
  38:src/../h/RiscV.hpp ****     //write register stval
  39:src/../h/RiscV.hpp ****     static uint64 r_stval();
  40:src/../h/RiscV.hpp **** 
  41:src/../h/RiscV.hpp ****     //write register stval
GAS LISTING /tmp/cco26Yt2.s 			page 24


  42:src/../h/RiscV.hpp ****     static void w_stval(uint64 stval);
  43:src/../h/RiscV.hpp **** 
  44:src/../h/RiscV.hpp ****     enum BitMaskSip{
  45:src/../h/RiscV.hpp ****         SIP_SSIP = (1 << 1),
  46:src/../h/RiscV.hpp ****         SIP_STIP = (1 << 5),
  47:src/../h/RiscV.hpp ****         SIP_SEIP = (1 << 9),
  48:src/../h/RiscV.hpp ****     };
  49:src/../h/RiscV.hpp **** 
  50:src/../h/RiscV.hpp ****     //mask set register sip
  51:src/../h/RiscV.hpp ****     static void ms_sip(uint64 mask);
  52:src/../h/RiscV.hpp **** 
  53:src/../h/RiscV.hpp ****     //mask clear register sip
  54:src/../h/RiscV.hpp ****     static void mc_sip(uint64 mask);
  55:src/../h/RiscV.hpp **** 
  56:src/../h/RiscV.hpp ****     //read register sip
  57:src/../h/RiscV.hpp ****     static uint64 r_sip();
  58:src/../h/RiscV.hpp **** 
  59:src/../h/RiscV.hpp ****     //write register sip
  60:src/../h/RiscV.hpp ****     static void w_sip(uint64 sip);
  61:src/../h/RiscV.hpp **** 
  62:src/../h/RiscV.hpp ****     enum BitMaskSstatus{
  63:src/../h/RiscV.hpp ****         SSTATUS_SIE = (1<<1),
  64:src/../h/RiscV.hpp ****         SSTATUS_SPIE = (1<<5),
  65:src/../h/RiscV.hpp ****         SSTATUS_SPP=  (1<<8),
  66:src/../h/RiscV.hpp ****     };
  67:src/../h/RiscV.hpp **** 
  68:src/../h/RiscV.hpp ****     //mask set register sstatus
  69:src/../h/RiscV.hpp ****     static void ms_sstatus(uint64 mask);
  70:src/../h/RiscV.hpp **** 
  71:src/../h/RiscV.hpp ****     //mask clear register sstatus
  72:src/../h/RiscV.hpp ****     static void mc_sstatus(uint64 mask);
  73:src/../h/RiscV.hpp **** 
  74:src/../h/RiscV.hpp ****     //read register sstatus
  75:src/../h/RiscV.hpp ****     static uint64 r_sstatus();
  76:src/../h/RiscV.hpp **** 
  77:src/../h/RiscV.hpp ****     //write register sstatus
  78:src/../h/RiscV.hpp ****     static void w_sstatus(uint64 sstatus);
  79:src/../h/RiscV.hpp **** 
  80:src/../h/RiscV.hpp ****     static void supervisorTrap();
  81:src/../h/RiscV.hpp **** 
  82:src/../h/RiscV.hpp **** private:
  83:src/../h/RiscV.hpp ****     //obradjuje trap handler
  84:src/../h/RiscV.hpp ****     static void handleSupervisorTrap();
  85:src/../h/RiscV.hpp **** };
  86:src/../h/RiscV.hpp **** 
  87:src/../h/RiscV.hpp **** inline uint64 RiscV::r_scause() {
  88:src/../h/RiscV.hpp ****     uint64 volatile scause;
  89:src/../h/RiscV.hpp ****     __asm__ volatile("csrr %[scause], scause" : [scause] "=r"(scause));
  90:src/../h/RiscV.hpp ****     return scause;
  91:src/../h/RiscV.hpp **** 
  92:src/../h/RiscV.hpp **** }
  93:src/../h/RiscV.hpp **** 
  94:src/../h/RiscV.hpp **** inline void RiscV::w_scause(uint64 scause){
  95:src/../h/RiscV.hpp ****     __asm__ volatile("csrw scause, %[scause]": : [scause] "r"(scause));
  96:src/../h/RiscV.hpp **** 
  97:src/../h/RiscV.hpp **** }
  98:src/../h/RiscV.hpp **** 
GAS LISTING /tmp/cco26Yt2.s 			page 25


  99:src/../h/RiscV.hpp **** inline uint64 RiscV::r_sepc(){
 100:src/../h/RiscV.hpp ****     uint64  sepc;
 101:src/../h/RiscV.hpp ****     __asm__ volatile("csrr %[sepc], sepc" : [sepc] "=r"(sepc));
 102:src/../h/RiscV.hpp ****     return sepc;
 103:src/../h/RiscV.hpp **** }
 104:src/../h/RiscV.hpp **** 
 105:src/../h/RiscV.hpp **** inline void RiscV::w_sepc(uint64 volatile sepc){
 106:src/../h/RiscV.hpp ****     __asm__ volatile ("csrw sepc, %[sepc]": : [sepc] "r"(sepc));
 107:src/../h/RiscV.hpp **** }
 108:src/../h/RiscV.hpp **** 
 109:src/../h/RiscV.hpp **** inline uint64 RiscV::r_stvec() {
 110:src/../h/RiscV.hpp ****     uint64 volatile stvec;
 111:src/../h/RiscV.hpp ****     __asm__ volatile ("csrr %[stvec], stvec": [stvec] "=r"(stvec));
 112:src/../h/RiscV.hpp ****     return stvec;
 113:src/../h/RiscV.hpp **** }
 114:src/../h/RiscV.hpp **** 
 115:src/../h/RiscV.hpp **** inline void RiscV::w_stvec(uint64 stvec){
 116:src/../h/RiscV.hpp ****     __asm__ volatile ("csrw stvec, %[stvec]": : [stvec] "r"(stvec));
 894              		.loc 5 116 5 is_stmt 1
 895              		.loc 5 116 68 is_stmt 0
 896              	#APP
 897              	# 116 "src/../h/RiscV.hpp" 1
 117              	}
 898              		csrw stvec, a5
 899              	# 0 "" 2
 900              	.LVL103:
 901              	#NO_APP
 902              	.LBE29:
 903              	.LBE28:
  15:src/main.cpp  ****     //__asm__ volatile ("csrs sstatus, 0x2");
  16:src/main.cpp  ****     //TCB *threads[3];
  17:src/main.cpp  **** 
  18:src/main.cpp  ****     //thread_create( &threads[0], nullptr, nullptr);
  19:src/main.cpp  ****     //TCB::running=threads[0];
  20:src/main.cpp  **** //
  21:src/main.cpp  ****     //thread_create(&threads[1], workerBodyA,  nullptr); //ovde su neki workeri, prepisi to ako te 
  22:src/main.cpp  ****     //printString("Thread A created\n");
  23:src/main.cpp  **** //
  24:src/main.cpp  ****     //thread_create(&threads[2], workerBodyB, nullptr); //ovde su neki workeri, prepisi to ako te n
  25:src/main.cpp  ****     //printString("Thread B created\n");
  26:src/main.cpp  **** 
  27:src/main.cpp  **** 
  28:src/main.cpp  ****     //RiscV::ms_sstatus(RiscV::SSTATUS_SIE); //omogucava prekide, probaj i sa i bez toga, ali misli
  29:src/main.cpp  ****     //__asm__ volatile ("csrs sstatus, 0x2");
  30:src/main.cpp  **** 
  31:src/main.cpp  ****     //while(!(threads[1]->isFinished() && threads[2]->isFinished())){
  32:src/main.cpp  ****     //    TCB::yield();
  33:src/main.cpp  ****     //}
  34:src/main.cpp  **** //
  35:src/main.cpp  **** //
  36:src/main.cpp  ****     //for (auto &coroutine : threads){
  37:src/main.cpp  ****     //    delete coroutine;
  38:src/main.cpp  ****     //}
  39:src/main.cpp  **** //
  40:src/main.cpp  ****     //printString("finished\n");
  41:src/main.cpp  **** //
  42:src/main.cpp  **** 
GAS LISTING /tmp/cco26Yt2.s 			page 26


  43:src/main.cpp  ****     userMain();
 904              		.loc 3 43 5 is_stmt 1
 905              		.loc 3 43 13 is_stmt 0
 906 062c 97000000 		call	_Z8userMainv
 906      E7800000 
 907              	.LVL104:
  44:src/main.cpp  ****     return 0;
 908              		.loc 3 44 5 is_stmt 1
  45:src/main.cpp  **** }...
 909              		.loc 3 45 1 is_stmt 0
 910 0634 13050000 		li	a0,0
 911 0638 83308100 		ld	ra,8(sp)
 912              		.cfi_remember_state
 913              		.cfi_restore 1
 914 063c 03340100 		ld	s0,0(sp)
 915              		.cfi_restore 8
 916              		.cfi_def_cfa 2, 16
 917 0640 13010101 		addi	sp,sp,16
 918              		.cfi_def_cfa_offset 0
 919 0644 67800000 		jr	ra
 920              	.L49:
 921              		.cfi_restore_state
 922              	.LBB30:
 923              	.LBB27:
 924              	.LBB26:
  45:src/../h/MemoryAllocation.hpp ****             fmem_head =  (FreeMem*) HEAP_START_ADDR;
 925              		.loc 4 45 13 is_stmt 1
 926              		.loc 4 45 23 is_stmt 0
 927 0648 97070000 		la	a5,HEAP_START_ADDR
 927      83B70700 
 928 0650 83B70700 		ld	a5,0(a5)
 929 0654 97060000 		la	a3,_ZN16MemoryAllocation9fmem_headE
 929      83B60600 
 930 065c 23B0F600 		sd	a5,0(a3)
  46:src/../h/MemoryAllocation.hpp ****             fmem_head->size = (size_t) ((char *) HEAP_END_ADDR -
 931              		.loc 4 46 13 is_stmt 1
 932              		.loc 4 46 41 is_stmt 0
 933 0660 17070000 		la	a4,HEAP_END_ADDR
 933      03370700 
 934 0668 03370700 		ld	a4,0(a4)
 935              		.loc 4 46 64
 936 066c 3307F740 		sub	a4,a4,a5
 937              		.loc 4 46 29
 938 0670 23B8E700 		sd	a4,16(a5)
  47:src/../h/MemoryAllocation.hpp ****                                         (char *) HEAP_START_ADDR); //da li smem ovo da castujem u s
  48:src/../h/MemoryAllocation.hpp ****             fmem_head->next = nullptr;
 939              		.loc 4 48 13 is_stmt 1
 940              		.loc 4 48 29 is_stmt 0
 941 0674 23B00700 		sd	zero,0(a5)
  49:src/../h/MemoryAllocation.hpp ****             fmem_head->prev = nullptr;
 942              		.loc 4 49 13 is_stmt 1
 943              		.loc 4 49 24 is_stmt 0
 944 0678 83B70600 		ld	a5,0(a3)
 945              		.loc 4 49 29
 946 067c 23B40700 		sd	zero,8(a5)
  50:src/../h/MemoryAllocation.hpp ****             static MemoryAllocation* instance;
 947              		.loc 4 50 13 is_stmt 1
GAS LISTING /tmp/cco26Yt2.s 			page 27


  51:src/../h/MemoryAllocation.hpp ****             return instance;
 948              		.loc 4 51 13
 949              		.loc 4 51 20 is_stmt 0
 950 0680 6FF01FFA 		j	.L47
 951              	.LBE26:
 952              	.LBE27:
 953              	.LBE30:
 954              		.cfi_endproc
 955              	.LFE51:
 957              		.globl	finishedD
 958              		.globl	finishedC
 959              		.globl	finishedB
 960              		.globl	finishedA
 961              		.bss
 962              		.set	.LANCHOR0,. + 0
 965              	finishedA:
 966 0000 00       		.zero	1
 969              	finishedB:
 970 0001 00       		.zero	1
 973              	finishedC:
 974 0002 00       		.zero	1
 977              	finishedD:
 978 0003 00       		.zero	1
 979              		.text
 980              	.Letext0:
 981              		.file 6 "src/../h/../lib/hw.h"
 982              		.file 7 "src/../src/../test/../h/../h/tcb.hpp"
 983              		.file 8 "src/../src/../test/../h/syscall_c.hpp"
 984              		.file 9 "src/../src/../test/../h/printing.hpp"
GAS LISTING /tmp/cco26Yt2.s 			page 28


DEFINED SYMBOLS
                            *ABS*:0000000000000000 main.cpp
     /tmp/cco26Yt2.s:20     .text:0000000000000000 _Z11workerBodyAPv
     /tmp/cco26Yt2.s:24     .text:0000000000000000 .L0 
     /tmp/cco26Yt2.s:26     .text:0000000000000000 .L0 
     /tmp/cco26Yt2.s:27     .text:0000000000000004 .L0 
     /tmp/cco26Yt2.s:32     .text:0000000000000014 .L0 
     /tmp/cco26Yt2.s:33     .text:0000000000000014 .L0 
     /tmp/cco26Yt2.s:34     .text:0000000000000014 .L0 
     /tmp/cco26Yt2.s:35     .text:0000000000000014 .L0 
     /tmp/cco26Yt2.s:37     .text:0000000000000018 .L0 
     /tmp/cco26Yt2.s:41     .text:0000000000000018 .L0 
     /tmp/cco26Yt2.s:42     .text:0000000000000018 .L0 
     /tmp/cco26Yt2.s:50     .text:0000000000000020 .L0 
     /tmp/cco26Yt2.s:51     .text:0000000000000020 .L0 
     /tmp/cco26Yt2.s:55     .text:0000000000000028 .L0 
     /tmp/cco26Yt2.s:59     .text:000000000000002c .L0 
     /tmp/cco26Yt2.s:65     .text:0000000000000038 .L0 
     /tmp/cco26Yt2.s:69     .text:000000000000003c .L0 
     /tmp/cco26Yt2.s:73     .text:0000000000000048 .L0 
     /tmp/cco26Yt2.s:83     .text:0000000000000050 .L0 
     /tmp/cco26Yt2.s:87     .text:0000000000000054 .L0 
     /tmp/cco26Yt2.s:91     .text:000000000000005c .L0 
     /tmp/cco26Yt2.s:92     .text:000000000000005c .L0 
     /tmp/cco26Yt2.s:96     .text:000000000000006c .L0 
     /tmp/cco26Yt2.s:97     .text:000000000000006c .L0 
     /tmp/cco26Yt2.s:103    .text:0000000000000080 .L0 
     /tmp/cco26Yt2.s:104    .text:0000000000000080 .L0 
     /tmp/cco26Yt2.s:109    .text:0000000000000090 .L0 
     /tmp/cco26Yt2.s:110    .text:0000000000000090 .L0 
     /tmp/cco26Yt2.s:118    .text:0000000000000098 .L0 
     /tmp/cco26Yt2.s:119    .text:0000000000000098 .L0 
     /tmp/cco26Yt2.s:123    .text:00000000000000a8 .L0 
     /tmp/cco26Yt2.s:124    .text:00000000000000a8 .L0 
     /tmp/cco26Yt2.s:127    .text:00000000000000b4 .L0 
     /tmp/cco26Yt2.s:128    .text:00000000000000b8 .L0 
     /tmp/cco26Yt2.s:130    .text:00000000000000bc .L0 
     /tmp/cco26Yt2.s:131    .text:00000000000000bc .L0 
     /tmp/cco26Yt2.s:133    .text:00000000000000c0 .L0 
     /tmp/cco26Yt2.s:135    .text:00000000000000c4 .L0 
     /tmp/cco26Yt2.s:138    .text:00000000000000c8 .L0 
     /tmp/cco26Yt2.s:140    .text:00000000000000cc .L0 
     /tmp/cco26Yt2.s:154    .text:00000000000000cc _Z11workerBodyBPv
     /tmp/cco26Yt2.s:157    .text:00000000000000cc .L0 
     /tmp/cco26Yt2.s:159    .text:00000000000000cc .L0 
     /tmp/cco26Yt2.s:160    .text:00000000000000d0 .L0 
     /tmp/cco26Yt2.s:165    .text:00000000000000e0 .L0 
     /tmp/cco26Yt2.s:166    .text:00000000000000e0 .L0 
     /tmp/cco26Yt2.s:167    .text:00000000000000e0 .L0 
     /tmp/cco26Yt2.s:168    .text:00000000000000e0 .L0 
     /tmp/cco26Yt2.s:170    .text:00000000000000e4 .L0 
     /tmp/cco26Yt2.s:174    .text:00000000000000e4 .L0 
     /tmp/cco26Yt2.s:175    .text:00000000000000e4 .L0 
     /tmp/cco26Yt2.s:183    .text:00000000000000ec .L0 
     /tmp/cco26Yt2.s:184    .text:00000000000000ec .L0 
     /tmp/cco26Yt2.s:188    .text:00000000000000f4 .L0 
     /tmp/cco26Yt2.s:192    .text:00000000000000f8 .L0 
GAS LISTING /tmp/cco26Yt2.s 			page 29


     /tmp/cco26Yt2.s:198    .text:0000000000000104 .L0 
     /tmp/cco26Yt2.s:202    .text:0000000000000108 .L0 
     /tmp/cco26Yt2.s:206    .text:0000000000000114 .L0 
     /tmp/cco26Yt2.s:216    .text:000000000000011c .L0 
     /tmp/cco26Yt2.s:220    .text:0000000000000120 .L0 
     /tmp/cco26Yt2.s:224    .text:0000000000000128 .L0 
     /tmp/cco26Yt2.s:225    .text:0000000000000128 .L0 
     /tmp/cco26Yt2.s:229    .text:0000000000000138 .L0 
     /tmp/cco26Yt2.s:230    .text:0000000000000138 .L0 
     /tmp/cco26Yt2.s:236    .text:000000000000014c .L0 
     /tmp/cco26Yt2.s:237    .text:000000000000014c .L0 
     /tmp/cco26Yt2.s:242    .text:000000000000015c .L0 
     /tmp/cco26Yt2.s:243    .text:000000000000015c .L0 
     /tmp/cco26Yt2.s:251    .text:0000000000000164 .L0 
     /tmp/cco26Yt2.s:252    .text:0000000000000164 .L0 
     /tmp/cco26Yt2.s:256    .text:0000000000000174 .L0 
     /tmp/cco26Yt2.s:257    .text:0000000000000174 .L0 
     /tmp/cco26Yt2.s:260    .text:0000000000000180 .L0 
     /tmp/cco26Yt2.s:261    .text:0000000000000180 .L0 
     /tmp/cco26Yt2.s:264    .text:0000000000000188 .L0 
     /tmp/cco26Yt2.s:265    .text:000000000000018c .L0 
     /tmp/cco26Yt2.s:267    .text:0000000000000190 .L0 
     /tmp/cco26Yt2.s:268    .text:0000000000000190 .L0 
     /tmp/cco26Yt2.s:270    .text:0000000000000194 .L0 
     /tmp/cco26Yt2.s:272    .text:0000000000000198 .L0 
     /tmp/cco26Yt2.s:275    .text:000000000000019c .L0 
     /tmp/cco26Yt2.s:277    .text:00000000000001a0 .L0 
     /tmp/cco26Yt2.s:283    .text:00000000000001a0 _Z9fibonaccim
     /tmp/cco26Yt2.s:286    .text:00000000000001a0 .L0 
     /tmp/cco26Yt2.s:288    .text:00000000000001a0 .L0 
     /tmp/cco26Yt2.s:289    .text:00000000000001a4 .L0 
     /tmp/cco26Yt2.s:294    .text:00000000000001b4 .L0 
     /tmp/cco26Yt2.s:295    .text:00000000000001b4 .L0 
     /tmp/cco26Yt2.s:296    .text:00000000000001b4 .L0 
     /tmp/cco26Yt2.s:297    .text:00000000000001b4 .L0 
     /tmp/cco26Yt2.s:299    .text:00000000000001b8 .L0 
     /tmp/cco26Yt2.s:302    .text:00000000000001bc .L0 
     /tmp/cco26Yt2.s:305    .text:00000000000001c4 .L0 
     /tmp/cco26Yt2.s:306    .text:00000000000001c4 .L0 
     /tmp/cco26Yt2.s:309    .text:00000000000001cc .L0 
     /tmp/cco26Yt2.s:313    .text:00000000000001d0 .L0 
     /tmp/cco26Yt2.s:314    .text:00000000000001d0 .L0 
     /tmp/cco26Yt2.s:319    .text:00000000000001e0 .L0 
     /tmp/cco26Yt2.s:323    .text:00000000000001ec .L0 
     /tmp/cco26Yt2.s:326    .text:00000000000001f0 .L0 
     /tmp/cco26Yt2.s:327    .text:00000000000001f4 .L0 
     /tmp/cco26Yt2.s:328    .text:00000000000001f4 .L0 
     /tmp/cco26Yt2.s:330    .text:00000000000001f8 .L0 
     /tmp/cco26Yt2.s:331    .text:00000000000001f8 .L0 
     /tmp/cco26Yt2.s:333    .text:00000000000001fc .L0 
     /tmp/cco26Yt2.s:336    .text:0000000000000200 .L0 
     /tmp/cco26Yt2.s:338    .text:0000000000000204 .L0 
     /tmp/cco26Yt2.s:342    .text:0000000000000208 .L0 
     /tmp/cco26Yt2.s:344    .text:0000000000000208 .L0 
     /tmp/cco26Yt2.s:345    .text:0000000000000208 .L0 
     /tmp/cco26Yt2.s:348    .text:0000000000000214 .L0 
     /tmp/cco26Yt2.s:368    .text:0000000000000214 _Z11workerBodyCPv
GAS LISTING /tmp/cco26Yt2.s 			page 30


     /tmp/cco26Yt2.s:371    .text:0000000000000214 .L0 
     /tmp/cco26Yt2.s:373    .text:0000000000000214 .L0 
     /tmp/cco26Yt2.s:374    .text:0000000000000218 .L0 
     /tmp/cco26Yt2.s:379    .text:0000000000000228 .L0 
     /tmp/cco26Yt2.s:380    .text:0000000000000228 .L0 
     /tmp/cco26Yt2.s:381    .text:0000000000000228 .L0 
     /tmp/cco26Yt2.s:382    .text:0000000000000228 .L0 
     /tmp/cco26Yt2.s:384    .text:000000000000022c .L0 
     /tmp/cco26Yt2.s:387    .text:000000000000022c .L0 
     /tmp/cco26Yt2.s:388    .text:000000000000022c .L0 
     /tmp/cco26Yt2.s:393    .text:0000000000000234 .L0 
     /tmp/cco26Yt2.s:394    .text:0000000000000234 .L0 
     /tmp/cco26Yt2.s:398    .text:0000000000000244 .L0 
     /tmp/cco26Yt2.s:399    .text:0000000000000244 .L0 
     /tmp/cco26Yt2.s:405    .text:0000000000000258 .L0 
     /tmp/cco26Yt2.s:406    .text:0000000000000258 .L0 
     /tmp/cco26Yt2.s:410    .text:0000000000000268 .L0 
     /tmp/cco26Yt2.s:416    .text:0000000000000270 .L0 
     /tmp/cco26Yt2.s:417    .text:0000000000000270 .L0 
     /tmp/cco26Yt2.s:420    .text:0000000000000278 .L0 
     /tmp/cco26Yt2.s:421    .text:0000000000000278 .L0 
     /tmp/cco26Yt2.s:425    .text:0000000000000288 .L0 
src/../src/../test/Threads_C_API_test.hpp:51     .text:0000000000000288 .L0 
     /tmp/cco26Yt2.s:431    .text:000000000000028c .L0 
     /tmp/cco26Yt2.s:433    .text:000000000000028c .L0 
     /tmp/cco26Yt2.s:436    .text:0000000000000294 .L0 
     /tmp/cco26Yt2.s:437    .text:0000000000000294 .L0 
src/../src/../test/Threads_C_API_test.hpp:55     .text:0000000000000294 .L0 
     /tmp/cco26Yt2.s:444    .text:0000000000000298 .L0 
     /tmp/cco26Yt2.s:446    .text:0000000000000298 .L0 
     /tmp/cco26Yt2.s:450    .text:00000000000002a8 .L0 
     /tmp/cco26Yt2.s:451    .text:00000000000002a8 .L0 
     /tmp/cco26Yt2.s:457    .text:00000000000002bc .L0 
     /tmp/cco26Yt2.s:458    .text:00000000000002bc .L0 
     /tmp/cco26Yt2.s:462    .text:00000000000002cc .L0 
     /tmp/cco26Yt2.s:463    .text:00000000000002cc .L0 
     /tmp/cco26Yt2.s:469    .text:00000000000002dc .L0 
     /tmp/cco26Yt2.s:470    .text:00000000000002dc .L0 
     /tmp/cco26Yt2.s:475    .text:00000000000002ec .L0 
     /tmp/cco26Yt2.s:476    .text:00000000000002ec .L0 
     /tmp/cco26Yt2.s:482    .text:0000000000000300 .L0 
     /tmp/cco26Yt2.s:483    .text:0000000000000300 .L0 
     /tmp/cco26Yt2.s:489    .text:0000000000000314 .L0 
     /tmp/cco26Yt2.s:490    .text:0000000000000314 .L0 
     /tmp/cco26Yt2.s:494    .text:0000000000000324 .L0 
     /tmp/cco26Yt2.s:495    .text:0000000000000324 .L0 
     /tmp/cco26Yt2.s:501    .text:0000000000000338 .L0 
     /tmp/cco26Yt2.s:502    .text:0000000000000338 .L0 
     /tmp/cco26Yt2.s:506    .text:0000000000000348 .L0 
     /tmp/cco26Yt2.s:512    .text:0000000000000350 .L0 
     /tmp/cco26Yt2.s:513    .text:0000000000000350 .L0 
     /tmp/cco26Yt2.s:516    .text:0000000000000358 .L0 
     /tmp/cco26Yt2.s:517    .text:0000000000000358 .L0 
     /tmp/cco26Yt2.s:521    .text:0000000000000368 .L0 
     /tmp/cco26Yt2.s:522    .text:0000000000000368 .L0 
     /tmp/cco26Yt2.s:525    .text:0000000000000374 .L0 
     /tmp/cco26Yt2.s:526    .text:0000000000000374 .L0 
GAS LISTING /tmp/cco26Yt2.s 			page 31


     /tmp/cco26Yt2.s:529    .text:000000000000037c .L0 
     /tmp/cco26Yt2.s:530    .text:0000000000000380 .L0 
     /tmp/cco26Yt2.s:532    .text:0000000000000384 .L0 
     /tmp/cco26Yt2.s:533    .text:0000000000000384 .L0 
     /tmp/cco26Yt2.s:535    .text:0000000000000388 .L0 
     /tmp/cco26Yt2.s:538    .text:000000000000038c .L0 
     /tmp/cco26Yt2.s:541    .text:0000000000000390 .L0 
     /tmp/cco26Yt2.s:543    .text:0000000000000394 .L0 
     /tmp/cco26Yt2.s:563    .text:0000000000000394 _Z11workerBodyDPv
     /tmp/cco26Yt2.s:566    .text:0000000000000394 .L0 
     /tmp/cco26Yt2.s:568    .text:0000000000000394 .L0 
     /tmp/cco26Yt2.s:569    .text:0000000000000398 .L0 
     /tmp/cco26Yt2.s:574    .text:00000000000003a8 .L0 
     /tmp/cco26Yt2.s:575    .text:00000000000003a8 .L0 
     /tmp/cco26Yt2.s:576    .text:00000000000003a8 .L0 
     /tmp/cco26Yt2.s:577    .text:00000000000003a8 .L0 
     /tmp/cco26Yt2.s:579    .text:00000000000003ac .L0 
     /tmp/cco26Yt2.s:582    .text:00000000000003ac .L0 
     /tmp/cco26Yt2.s:583    .text:00000000000003ac .L0 
     /tmp/cco26Yt2.s:588    .text:00000000000003b4 .L0 
     /tmp/cco26Yt2.s:589    .text:00000000000003b4 .L0 
     /tmp/cco26Yt2.s:593    .text:00000000000003c4 .L0 
     /tmp/cco26Yt2.s:594    .text:00000000000003c4 .L0 
     /tmp/cco26Yt2.s:600    .text:00000000000003d8 .L0 
     /tmp/cco26Yt2.s:601    .text:00000000000003d8 .L0 
     /tmp/cco26Yt2.s:605    .text:00000000000003e8 .L0 
     /tmp/cco26Yt2.s:611    .text:00000000000003f0 .L0 
     /tmp/cco26Yt2.s:612    .text:00000000000003f0 .L0 
     /tmp/cco26Yt2.s:615    .text:00000000000003f8 .L0 
     /tmp/cco26Yt2.s:616    .text:00000000000003f8 .L0 
     /tmp/cco26Yt2.s:620    .text:0000000000000408 .L0 
src/../src/../test/Threads_C_API_test.hpp:78     .text:0000000000000408 .L0 
     /tmp/cco26Yt2.s:626    .text:000000000000040c .L0 
     /tmp/cco26Yt2.s:628    .text:000000000000040c .L0 
     /tmp/cco26Yt2.s:631    .text:0000000000000414 .L0 
     /tmp/cco26Yt2.s:632    .text:0000000000000414 .L0 
     /tmp/cco26Yt2.s:638    .text:0000000000000424 .L0 
     /tmp/cco26Yt2.s:639    .text:0000000000000424 .L0 
     /tmp/cco26Yt2.s:644    .text:0000000000000434 .L0 
     /tmp/cco26Yt2.s:645    .text:0000000000000434 .L0 
     /tmp/cco26Yt2.s:651    .text:0000000000000448 .L0 
     /tmp/cco26Yt2.s:652    .text:0000000000000448 .L0 
     /tmp/cco26Yt2.s:658    .text:000000000000045c .L0 
     /tmp/cco26Yt2.s:659    .text:000000000000045c .L0 
     /tmp/cco26Yt2.s:663    .text:000000000000046c .L0 
     /tmp/cco26Yt2.s:664    .text:000000000000046c .L0 
     /tmp/cco26Yt2.s:670    .text:0000000000000480 .L0 
     /tmp/cco26Yt2.s:671    .text:0000000000000480 .L0 
     /tmp/cco26Yt2.s:675    .text:0000000000000490 .L0 
     /tmp/cco26Yt2.s:681    .text:0000000000000498 .L0 
     /tmp/cco26Yt2.s:682    .text:0000000000000498 .L0 
     /tmp/cco26Yt2.s:685    .text:00000000000004a0 .L0 
     /tmp/cco26Yt2.s:686    .text:00000000000004a0 .L0 
     /tmp/cco26Yt2.s:690    .text:00000000000004b0 .L0 
     /tmp/cco26Yt2.s:691    .text:00000000000004b0 .L0 
     /tmp/cco26Yt2.s:694    .text:00000000000004bc .L0 
     /tmp/cco26Yt2.s:695    .text:00000000000004bc .L0 
GAS LISTING /tmp/cco26Yt2.s 			page 32


     /tmp/cco26Yt2.s:698    .text:00000000000004c4 .L0 
     /tmp/cco26Yt2.s:699    .text:00000000000004c8 .L0 
     /tmp/cco26Yt2.s:701    .text:00000000000004cc .L0 
     /tmp/cco26Yt2.s:702    .text:00000000000004cc .L0 
     /tmp/cco26Yt2.s:704    .text:00000000000004d0 .L0 
     /tmp/cco26Yt2.s:707    .text:00000000000004d4 .L0 
     /tmp/cco26Yt2.s:710    .text:00000000000004d8 .L0 
     /tmp/cco26Yt2.s:712    .text:00000000000004dc .L0 
     /tmp/cco26Yt2.s:732    .text:00000000000004dc _Z18Threads_C_API_testv
     /tmp/cco26Yt2.s:735    .text:00000000000004dc .L0 
     /tmp/cco26Yt2.s:736    .text:00000000000004dc .L0 
     /tmp/cco26Yt2.s:737    .text:00000000000004e0 .L0 
     /tmp/cco26Yt2.s:740    .text:00000000000004e8 .L0 
     /tmp/cco26Yt2.s:741    .text:00000000000004e8 .L0 
     /tmp/cco26Yt2.s:743    .text:00000000000004ec .L0 
     /tmp/cco26Yt2.s:745    .text:00000000000004ec .L0 
     /tmp/cco26Yt2.s:746    .text:00000000000004ec .L0 
     /tmp/cco26Yt2.s:747    .text:00000000000004ec .L0 
     /tmp/cco26Yt2.s:753    .text:0000000000000504 .L0 
     /tmp/cco26Yt2.s:754    .text:0000000000000504 .L0 
     /tmp/cco26Yt2.s:758    .text:0000000000000514 .L0 
     /tmp/cco26Yt2.s:759    .text:0000000000000514 .L0 
     /tmp/cco26Yt2.s:765    .text:000000000000052c .L0 
     /tmp/cco26Yt2.s:766    .text:000000000000052c .L0 
     /tmp/cco26Yt2.s:770    .text:000000000000053c .L0 
     /tmp/cco26Yt2.s:771    .text:000000000000053c .L0 
     /tmp/cco26Yt2.s:777    .text:0000000000000554 .L0 
     /tmp/cco26Yt2.s:778    .text:0000000000000554 .L0 
     /tmp/cco26Yt2.s:782    .text:0000000000000564 .L0 
     /tmp/cco26Yt2.s:783    .text:0000000000000564 .L0 
     /tmp/cco26Yt2.s:789    .text:000000000000057c .L0 
     /tmp/cco26Yt2.s:790    .text:000000000000057c .L0 
     /tmp/cco26Yt2.s:796    .text:0000000000000590 .L0 
     /tmp/cco26Yt2.s:797    .text:0000000000000590 .L0 
     /tmp/cco26Yt2.s:801    .text:0000000000000598 .L0 
     /tmp/cco26Yt2.s:802    .text:0000000000000598 .L0 
     /tmp/cco26Yt2.s:805    .text:00000000000005a4 .L0 
     /tmp/cco26Yt2.s:808    .text:00000000000005b0 .L0 
     /tmp/cco26Yt2.s:811    .text:00000000000005bc .L0 
     /tmp/cco26Yt2.s:814    .text:00000000000005c8 .L0 
     /tmp/cco26Yt2.s:815    .text:00000000000005cc .L0 
     /tmp/cco26Yt2.s:817    .text:00000000000005d0 .L0 
     /tmp/cco26Yt2.s:818    .text:00000000000005d0 .L0 
     /tmp/cco26Yt2.s:820    .text:00000000000005d4 .L0 
     /tmp/cco26Yt2.s:822    .text:00000000000005d8 .L0 
     /tmp/cco26Yt2.s:828    .text:00000000000005d8 _Z8userMainv
     /tmp/cco26Yt2.s:832    .text:00000000000005d8 .L0 
     /tmp/cco26Yt2.s:833    .text:00000000000005d8 .L0 
     /tmp/cco26Yt2.s:834    .text:00000000000005dc .L0 
     /tmp/cco26Yt2.s:837    .text:00000000000005e4 .L0 
     /tmp/cco26Yt2.s:838    .text:00000000000005e4 .L0 
     /tmp/cco26Yt2.s:840    .text:00000000000005e8 .L0 
     /tmp/cco26Yt2.s:842    .text:00000000000005e8 .L0 
     /tmp/cco26Yt2.s:843    .text:00000000000005e8 .L0 
     /tmp/cco26Yt2.s:846    .text:00000000000005f0 .L0 
     /tmp/cco26Yt2.s:847    .text:00000000000005f4 .L0 
     /tmp/cco26Yt2.s:849    .text:00000000000005f8 .L0 
GAS LISTING /tmp/cco26Yt2.s 			page 33


     /tmp/cco26Yt2.s:850    .text:00000000000005f8 .L0 
     /tmp/cco26Yt2.s:852    .text:00000000000005fc .L0 
     /tmp/cco26Yt2.s:854    .text:0000000000000600 .L0 
     /tmp/cco26Yt2.s:860    .text:0000000000000600 main
     /tmp/cco26Yt2.s:864    .text:0000000000000600 .L0 
     /tmp/cco26Yt2.s:865    .text:0000000000000600 .L0 
     /tmp/cco26Yt2.s:866    .text:0000000000000604 .L0 
     /tmp/cco26Yt2.s:869    .text:000000000000060c .L0 
     /tmp/cco26Yt2.s:870    .text:000000000000060c .L0 
     /tmp/cco26Yt2.s:872    .text:0000000000000610 .L0 
     /tmp/cco26Yt2.s:874    .text:0000000000000610 .L0 
     /tmp/cco26Yt2.s:876    .text:0000000000000610 .L0 
     /tmp/cco26Yt2.s:879    .text:0000000000000610 .L0 
     /tmp/cco26Yt2.s:880    .text:0000000000000610 .L0 
     /tmp/cco26Yt2.s:883    .text:000000000000061c .L0 
     /tmp/cco26Yt2.s:888    .text:0000000000000620 .L0 
     /tmp/cco26Yt2.s:889    .text:0000000000000620 .L0 
     /tmp/cco26Yt2.s:895    .text:0000000000000628 .L0 
  src/../h/RiscV.hpp:116    .text:0000000000000628 .L0 
     /tmp/cco26Yt2.s:905    .text:000000000000062c .L0 
     /tmp/cco26Yt2.s:906    .text:000000000000062c .L0 
     /tmp/cco26Yt2.s:909    .text:0000000000000634 .L0 
     /tmp/cco26Yt2.s:910    .text:0000000000000634 .L0 
     /tmp/cco26Yt2.s:912    .text:000000000000063c .L0 
     /tmp/cco26Yt2.s:913    .text:000000000000063c .L0 
     /tmp/cco26Yt2.s:915    .text:0000000000000640 .L0 
     /tmp/cco26Yt2.s:916    .text:0000000000000640 .L0 
     /tmp/cco26Yt2.s:918    .text:0000000000000644 .L0 
     /tmp/cco26Yt2.s:921    .text:0000000000000648 .L0 
     /tmp/cco26Yt2.s:926    .text:0000000000000648 .L0 
     /tmp/cco26Yt2.s:927    .text:0000000000000648 .L0 
     /tmp/cco26Yt2.s:932    .text:0000000000000660 .L0 
     /tmp/cco26Yt2.s:933    .text:0000000000000660 .L0 
     /tmp/cco26Yt2.s:936    .text:000000000000066c .L0 
     /tmp/cco26Yt2.s:938    .text:0000000000000670 .L0 
     /tmp/cco26Yt2.s:940    .text:0000000000000674 .L0 
     /tmp/cco26Yt2.s:941    .text:0000000000000674 .L0 
     /tmp/cco26Yt2.s:943    .text:0000000000000678 .L0 
     /tmp/cco26Yt2.s:944    .text:0000000000000678 .L0 
     /tmp/cco26Yt2.s:946    .text:000000000000067c .L0 
     /tmp/cco26Yt2.s:948    .text:0000000000000680 .L0 
     /tmp/cco26Yt2.s:949    .text:0000000000000680 .L0 
     /tmp/cco26Yt2.s:950    .text:0000000000000680 .L0 
     /tmp/cco26Yt2.s:954    .text:0000000000000684 .L0 
     /tmp/cco26Yt2.s:977    .bss:0000000000000003 finishedD
     /tmp/cco26Yt2.s:973    .bss:0000000000000002 finishedC
     /tmp/cco26Yt2.s:969    .bss:0000000000000001 finishedB
     /tmp/cco26Yt2.s:965    .bss:0000000000000000 finishedA
     /tmp/cco26Yt2.s:962    .bss:0000000000000000 .LANCHOR0
     /tmp/cco26Yt2.s:985    .text:0000000000000684 .L0 
     /tmp/cco26Yt2.s:8      .rodata.str1.8:0000000000000000 .LC0
     /tmp/cco26Yt2.s:92     .text:000000000000005c .L0 
     /tmp/cco26Yt2.s:11     .rodata.str1.8:0000000000000008 .LC1
     /tmp/cco26Yt2.s:104    .text:0000000000000080 .L0 
     /tmp/cco26Yt2.s:14     .rodata.str1.8:0000000000000010 .LC2
     /tmp/cco26Yt2.s:119    .text:0000000000000098 .L0 
     /tmp/cco26Yt2.s:125    .text:00000000000000ac .L0 
GAS LISTING /tmp/cco26Yt2.s 			page 34


     /tmp/cco26Yt2.s:145    .rodata.str1.8:0000000000000020 .LC3
     /tmp/cco26Yt2.s:225    .text:0000000000000128 .L0 
     /tmp/cco26Yt2.s:237    .text:000000000000014c .L0 
     /tmp/cco26Yt2.s:148    .rodata.str1.8:0000000000000028 .LC4
     /tmp/cco26Yt2.s:252    .text:0000000000000164 .L0 
     /tmp/cco26Yt2.s:258    .text:0000000000000178 .L0 
     /tmp/cco26Yt2.s:353    .rodata.str1.8:0000000000000038 .LC5
     /tmp/cco26Yt2.s:394    .text:0000000000000234 .L0 
     /tmp/cco26Yt2.s:406    .text:0000000000000258 .L0 
     /tmp/cco26Yt2.s:356    .rodata.str1.8:0000000000000040 .LC6
     /tmp/cco26Yt2.s:421    .text:0000000000000278 .L0 
     /tmp/cco26Yt2.s:359    .rodata.str1.8:0000000000000050 .LC7
     /tmp/cco26Yt2.s:446    .text:0000000000000298 .L0 
     /tmp/cco26Yt2.s:458    .text:00000000000002bc .L0 
     /tmp/cco26Yt2.s:362    .rodata.str1.8:0000000000000058 .LC8
     /tmp/cco26Yt2.s:470    .text:00000000000002dc .L0 
     /tmp/cco26Yt2.s:483    .text:0000000000000300 .L0 
     /tmp/cco26Yt2.s:490    .text:0000000000000314 .L0 
     /tmp/cco26Yt2.s:502    .text:0000000000000338 .L0 
     /tmp/cco26Yt2.s:517    .text:0000000000000358 .L0 
     /tmp/cco26Yt2.s:523    .text:000000000000036c .L0 
     /tmp/cco26Yt2.s:548    .rodata.str1.8:0000000000000068 .LC9
     /tmp/cco26Yt2.s:589    .text:00000000000003b4 .L0 
     /tmp/cco26Yt2.s:601    .text:00000000000003d8 .L0 
     /tmp/cco26Yt2.s:551    .rodata.str1.8:0000000000000070 .LC10
     /tmp/cco26Yt2.s:616    .text:00000000000003f8 .L0 
     /tmp/cco26Yt2.s:554    .rodata.str1.8:0000000000000080 .LC11
     /tmp/cco26Yt2.s:639    .text:0000000000000424 .L0 
     /tmp/cco26Yt2.s:652    .text:0000000000000448 .L0 
     /tmp/cco26Yt2.s:659    .text:000000000000045c .L0 
     /tmp/cco26Yt2.s:671    .text:0000000000000480 .L0 
     /tmp/cco26Yt2.s:557    .rodata.str1.8:0000000000000090 .LC12
     /tmp/cco26Yt2.s:686    .text:00000000000004a0 .L0 
     /tmp/cco26Yt2.s:692    .text:00000000000004b4 .L0 
     /tmp/cco26Yt2.s:748    .text:00000000000004f0 .L0 
     /tmp/cco26Yt2.s:717    .rodata.str1.8:00000000000000a0 .LC13
     /tmp/cco26Yt2.s:754    .text:0000000000000504 .L0 
     /tmp/cco26Yt2.s:760    .text:0000000000000518 .L0 
     /tmp/cco26Yt2.s:720    .rodata.str1.8:00000000000000b8 .LC14
     /tmp/cco26Yt2.s:766    .text:000000000000052c .L0 
     /tmp/cco26Yt2.s:772    .text:0000000000000540 .L0 
     /tmp/cco26Yt2.s:723    .rodata.str1.8:00000000000000d0 .LC15
     /tmp/cco26Yt2.s:778    .text:0000000000000554 .L0 
     /tmp/cco26Yt2.s:784    .text:0000000000000568 .L0 
     /tmp/cco26Yt2.s:726    .rodata.str1.8:00000000000000e8 .LC16
     /tmp/cco26Yt2.s:790    .text:000000000000057c .L0 
     /tmp/cco26Yt2.s:802    .text:0000000000000598 .L0 
     /tmp/cco26Yt2.s:805    .text:00000000000005a4 .L0 
     /tmp/cco26Yt2.s:808    .text:00000000000005b0 .L0 
     /tmp/cco26Yt2.s:811    .text:00000000000005bc .L0 
     /tmp/cco26Yt2.s:880    .text:0000000000000610 .L0 
     /tmp/cco26Yt2.s:889    .text:0000000000000620 .L0 
     /tmp/cco26Yt2.s:927    .text:0000000000000648 .L0 
     /tmp/cco26Yt2.s:929    .text:0000000000000654 .L0 
     /tmp/cco26Yt2.s:933    .text:0000000000000660 .L0 
     /tmp/cco26Yt2.s:85     .text:0000000000000054 .L7
     /tmp/cco26Yt2.s:77     .text:0000000000000050 .L3
GAS LISTING /tmp/cco26Yt2.s 			page 35


     /tmp/cco26Yt2.s:45     .text:0000000000000020 .L4
     /tmp/cco26Yt2.s:66     .text:000000000000003c .L5
     /tmp/cco26Yt2.s:113    .text:0000000000000098 .L2
     /tmp/cco26Yt2.s:57     .text:000000000000002c .L6
     /tmp/cco26Yt2.s:218    .text:0000000000000120 .L15
     /tmp/cco26Yt2.s:210    .text:000000000000011c .L11
     /tmp/cco26Yt2.s:178    .text:00000000000000ec .L12
     /tmp/cco26Yt2.s:199    .text:0000000000000108 .L13
     /tmp/cco26Yt2.s:246    .text:0000000000000164 .L10
     /tmp/cco26Yt2.s:190    .text:00000000000000f8 .L14
     /tmp/cco26Yt2.s:324    .text:00000000000001f0 .L17
     /tmp/cco26Yt2.s:341    .text:0000000000000208 .L22
     /tmp/cco26Yt2.s:311    .text:00000000000001d0 .L19
     /tmp/cco26Yt2.s:414    .text:0000000000000270 .L25
     /tmp/cco26Yt2.s:391    .text:0000000000000234 .L29
     /tmp/cco26Yt2.s:510    .text:0000000000000350 .L27
     /tmp/cco26Yt2.s:487    .text:0000000000000314 .L30
     /tmp/cco26Yt2.s:609    .text:00000000000003f0 .L33
     /tmp/cco26Yt2.s:586    .text:00000000000003b4 .L37
     /tmp/cco26Yt2.s:679    .text:0000000000000498 .L35
     /tmp/cco26Yt2.s:656    .text:000000000000045c .L38
     /tmp/cco26Yt2.s:799    .text:0000000000000598 .L42
     /tmp/cco26Yt2.s:794    .text:0000000000000590 .L40
     /tmp/cco26Yt2.s:920    .text:0000000000000648 .L49
     /tmp/cco26Yt2.s:884    .text:0000000000000620 .L47
     /tmp/cco26Yt2.s:2809   .debug_abbrev:0000000000000000 .Ldebug_abbrev0
     /tmp/cco26Yt2.s:4303   .debug_str:00000000000007f2 .LASF148
     /tmp/cco26Yt2.s:4173   .debug_str:000000000000042d .LASF149
     /tmp/cco26Yt2.s:4121   .debug_str:0000000000000254 .LASF150
     /tmp/cco26Yt2.s:5      .text:0000000000000000 .Ltext0
     /tmp/cco26Yt2.s:980    .text:0000000000000684 .Letext0
     /tmp/cco26Yt2.s:4029   .debug_line:0000000000000000 .Ldebug_line0
     /tmp/cco26Yt2.s:4211   .debug_str:0000000000000527 .LASF0
     /tmp/cco26Yt2.s:4229   .debug_str:00000000000005ab .LASF1
     /tmp/cco26Yt2.s:4191   .debug_str:00000000000004a8 .LASF2
     /tmp/cco26Yt2.s:4105   .debug_str:00000000000001e7 .LASF3
     /tmp/cco26Yt2.s:4155   .debug_str:00000000000003a2 .LASF4
     /tmp/cco26Yt2.s:4279   .debug_str:0000000000000741 .LASF5
     /tmp/cco26Yt2.s:4071   .debug_str:00000000000000db .LASF6
     /tmp/cco26Yt2.s:4235   .debug_str:00000000000005dc .LASF7
     /tmp/cco26Yt2.s:4209   .debug_str:0000000000000514 .LASF8
     /tmp/cco26Yt2.s:4317   .debug_str:0000000000000945 .LASF9
     /tmp/cco26Yt2.s:4135   .debug_str:00000000000002bc .LASF10
     /tmp/cco26Yt2.s:4249   .debug_str:0000000000000662 .LASF11
     /tmp/cco26Yt2.s:4307   .debug_str:00000000000008c2 .LASF12
     /tmp/cco26Yt2.s:4073   .debug_str:00000000000000e2 .LASF13
     /tmp/cco26Yt2.s:4041   .debug_str:0000000000000030 .LASF14
     /tmp/cco26Yt2.s:4085   .debug_str:0000000000000131 .LASF15
     /tmp/cco26Yt2.s:4271   .debug_str:00000000000006fd .LASF16
     /tmp/cco26Yt2.s:4093   .debug_str:0000000000000173 .LASF17
     /tmp/cco26Yt2.s:4297   .debug_str:00000000000007ce .LASF24
     /tmp/cco26Yt2.s:4119   .debug_str:000000000000024c .LASF82
     /tmp/cco26Yt2.s:4349   .debug_str:0000000000000a71 .LASF18
     /tmp/cco26Yt2.s:4335   .debug_str:00000000000009cd .LASF19
     /tmp/cco26Yt2.s:4299   .debug_str:00000000000007df .LASF20
     /tmp/cco26Yt2.s:4247   .debug_str:0000000000000658 .LASF21
     /tmp/cco26Yt2.s:4217   .debug_str:0000000000000543 .LASF22
GAS LISTING /tmp/cco26Yt2.s 			page 36


     /tmp/cco26Yt2.s:4265   .debug_str:00000000000006e0 .LASF23
     /tmp/cco26Yt2.s:4285   .debug_str:000000000000076e .LASF25
     /tmp/cco26Yt2.s:4241   .debug_str:0000000000000615 .LASF26
     /tmp/cco26Yt2.s:4201   .debug_str:00000000000004eb .LASF27
     /tmp/cco26Yt2.s:4095   .debug_str:0000000000000189 .LASF28
     /tmp/cco26Yt2.s:4305   .debug_str:00000000000008b6 .LASF46
     /tmp/cco26Yt2.s:4169   .debug_str:00000000000003f2 .LASF48
     /tmp/cco26Yt2.s:4077   .debug_str:000000000000010a .LASF100
     /tmp/cco26Yt2.s:4343   .debug_str:0000000000000a01 .LASF102
     /tmp/cco26Yt2.s:4081   .debug_str:000000000000011f .LASF29
     /tmp/cco26Yt2.s:4139   .debug_str:00000000000002d4 .LASF31
     /tmp/cco26Yt2.s:4277   .debug_str:0000000000000733 .LASF30
     /tmp/cco26Yt2.s:4109   .debug_str:00000000000001f6 .LASF32
     /tmp/cco26Yt2.s:4111   .debug_str:000000000000021d .LASF33
     /tmp/cco26Yt2.s:4345   .debug_str:0000000000000a21 .LASF34
     /tmp/cco26Yt2.s:4253   .debug_str:0000000000000686 .LASF35
     /tmp/cco26Yt2.s:4347   .debug_str:0000000000000a4f .LASF36
     /tmp/cco26Yt2.s:4283   .debug_str:0000000000000764 .LASF37
     /tmp/cco26Yt2.s:4311   .debug_str:00000000000008e9 .LASF38
     /tmp/cco26Yt2.s:4189   .debug_str:00000000000004a2 .LASF39
     /tmp/cco26Yt2.s:4269   .debug_str:00000000000006f2 .LASF40
     /tmp/cco26Yt2.s:4075   .debug_str:00000000000000f2 .LASF42
     /tmp/cco26Yt2.s:4065   .debug_str:00000000000000ab .LASF41
     /tmp/cco26Yt2.s:4321   .debug_str:000000000000095f .LASF43
     /tmp/cco26Yt2.s:4295   .debug_str:00000000000007c1 .LASF44
     /tmp/cco26Yt2.s:4275   .debug_str:0000000000000719 .LASF45
     /tmp/cco26Yt2.s:4043   .debug_str:0000000000000040 .LASF47
     /tmp/cco26Yt2.s:4261   .debug_str:00000000000006c6 .LASF49
     /tmp/cco26Yt2.s:4107   .debug_str:00000000000001ed .LASF50
     /tmp/cco26Yt2.s:4251   .debug_str:0000000000000671 .LASF51
     /tmp/cco26Yt2.s:4197   .debug_str:00000000000004d4 .LASF52
     /tmp/cco26Yt2.s:4179   .debug_str:0000000000000454 .LASF53
     /tmp/cco26Yt2.s:4293   .debug_str:00000000000007ba .LASF54
     /tmp/cco26Yt2.s:4181   .debug_str:0000000000000467 .LASF55
     /tmp/cco26Yt2.s:4125   .debug_str:0000000000000286 .LASF56
     /tmp/cco26Yt2.s:4123   .debug_str:0000000000000272 .LASF57
     /tmp/cco26Yt2.s:4033   .debug_str:0000000000000009 .LASF58
     /tmp/cco26Yt2.s:4177   .debug_str:0000000000000440 .LASF59
     /tmp/cco26Yt2.s:4113   .debug_str:0000000000000227 .LASF60
     /tmp/cco26Yt2.s:4099   .debug_str:00000000000001b8 .LASF61
     /tmp/cco26Yt2.s:4145   .debug_str:000000000000033d .LASF62
     /tmp/cco26Yt2.s:4147   .debug_str:0000000000000345 .LASF63
     /tmp/cco26Yt2.s:4257   .debug_str:000000000000069b .LASF64
     /tmp/cco26Yt2.s:4063   .debug_str:0000000000000098 .LASF65
     /tmp/cco26Yt2.s:4061   .debug_str:0000000000000091 .LASF66
     /tmp/cco26Yt2.s:4325   .debug_str:000000000000098c .LASF67
     /tmp/cco26Yt2.s:4131   .debug_str:000000000000029f .LASF68
     /tmp/cco26Yt2.s:4225   .debug_str:000000000000058c .LASF69
     /tmp/cco26Yt2.s:4059   .debug_str:000000000000008b .LASF70
     /tmp/cco26Yt2.s:4323   .debug_str:000000000000097a .LASF71
     /tmp/cco26Yt2.s:4207   .debug_str:0000000000000509 .LASF72
     /tmp/cco26Yt2.s:4219   .debug_str:000000000000054c .LASF73
     /tmp/cco26Yt2.s:4165   .debug_str:00000000000003df .LASF74
     /tmp/cco26Yt2.s:4309   .debug_str:00000000000008d1 .LASF75
     /tmp/cco26Yt2.s:4083   .debug_str:0000000000000127 .LASF76
     /tmp/cco26Yt2.s:4171   .debug_str:0000000000000417 .LASF77
     /tmp/cco26Yt2.s:4117   .debug_str:0000000000000242 .LASF78
GAS LISTING /tmp/cco26Yt2.s 			page 37


     /tmp/cco26Yt2.s:4069   .debug_str:00000000000000c5 .LASF79
     /tmp/cco26Yt2.s:4287   .debug_str:0000000000000788 .LASF80
     /tmp/cco26Yt2.s:4221   .debug_str:0000000000000564 .LASF81
     /tmp/cco26Yt2.s:4157   .debug_str:00000000000003a9 .LASF113
     /tmp/cco26Yt2.s:4315   .debug_str:0000000000000923 .LASF115
     /tmp/cco26Yt2.s:4049   .debug_str:000000000000005f .LASF83
     /tmp/cco26Yt2.s:4331   .debug_str:00000000000009b8 .LASF84
     /tmp/cco26Yt2.s:4067   .debug_str:00000000000000b9 .LASF85
     /tmp/cco26Yt2.s:4351   .debug_str:0000000000000a76 .LASF86
     /tmp/cco26Yt2.s:4255   .debug_str:000000000000068f .LASF87
     /tmp/cco26Yt2.s:4289   .debug_str:0000000000000797 .LASF88
     /tmp/cco26Yt2.s:4267   .debug_str:00000000000006e5 .LASF89
     /tmp/cco26Yt2.s:4159   .debug_str:00000000000003be .LASF90
     /tmp/cco26Yt2.s:4079   .debug_str:0000000000000112 .LASF91
     /tmp/cco26Yt2.s:4185   .debug_str:000000000000048f .LASF92
     /tmp/cco26Yt2.s:4045   .debug_str:0000000000000049 .LASF93
     /tmp/cco26Yt2.s:4227   .debug_str:000000000000059e .LASF94
     /tmp/cco26Yt2.s:4259   .debug_str:00000000000006a2 .LASF95
     /tmp/cco26Yt2.s:4263   .debug_str:00000000000006db .LASF151
     /tmp/cco26Yt2.s:4087   .debug_str:000000000000013d .LASF96
     /tmp/cco26Yt2.s:4239   .debug_str:00000000000005fa .LASF97
     /tmp/cco26Yt2.s:4055   .debug_str:0000000000000076 .LASF98
     /tmp/cco26Yt2.s:4091   .debug_str:000000000000015c .LASF99
     /tmp/cco26Yt2.s:4237   .debug_str:00000000000005ef .LASF101
     /tmp/cco26Yt2.s:4133   .debug_str:00000000000002a5 .LASF103
     /tmp/cco26Yt2.s:4193   .debug_str:00000000000004b6 .LASF104
     /tmp/cco26Yt2.s:4149   .debug_str:0000000000000359 .LASF105
     /tmp/cco26Yt2.s:4273   .debug_str:0000000000000713 .LASF106
     /tmp/cco26Yt2.s:4199   .debug_str:00000000000004db .LASF107
     /tmp/cco26Yt2.s:4333   .debug_str:00000000000009c5 .LASF152
     /tmp/cco26Yt2.s:4163   .debug_str:00000000000003da .LASF108
     /tmp/cco26Yt2.s:4215   .debug_str:000000000000053d .LASF109
     /tmp/cco26Yt2.s:4167   .debug_str:00000000000003ea .LASF110
     /tmp/cco26Yt2.s:4161   .debug_str:00000000000003d1 .LASF111
     /tmp/cco26Yt2.s:4341   .debug_str:00000000000009f7 .LASF112
     /tmp/cco26Yt2.s:4187   .debug_str:0000000000000494 .LASF114
     /tmp/cco26Yt2.s:4143   .debug_str:0000000000000324 .LASF116
     /tmp/cco26Yt2.s:4327   .debug_str:000000000000099f .LASF153
     /tmp/cco26Yt2.s:4151   .debug_str:0000000000000370 .LASF154
     /tmp/cco26Yt2.s:4213   .debug_str:0000000000000534 .LASF117
     /tmp/cco26Yt2.s:4115   .debug_str:000000000000022f .LASF118
     /tmp/cco26Yt2.s:4281   .debug_str:0000000000000753 .LASF119
     /tmp/cco26Yt2.s:4329   .debug_str:00000000000009ad .LASF155
     /tmp/cco26Yt2.s:4053   .debug_str:0000000000000071 .LASF120
     /tmp/cco26Yt2.s:4031   .debug_str:0000000000000000 .LASF121
     /tmp/cco26Yt2.s:4137   .debug_str:00000000000002ca .LASF122
     /tmp/cco26Yt2.s:4153   .debug_str:0000000000000398 .LASF123
     /tmp/cco26Yt2.s:4047   .debug_str:0000000000000055 .LASF124
     /tmp/cco26Yt2.s:4051   .debug_str:0000000000000067 .LASF125
     /tmp/cco26Yt2.s:4243   .debug_str:0000000000000632 .LASF126
     /tmp/cco26Yt2.s:861    .text:0000000000000600 .LFB51
     /tmp/cco26Yt2.s:955    .text:0000000000000684 .LFE51
     /tmp/cco26Yt2.s:4205   .debug_str:0000000000000501 .LASF156
     /tmp/cco26Yt2.s:877    .text:0000000000000610 .LBB24
     /tmp/cco26Yt2.s:4009   .debug_ranges:0000000000000000 .Ldebug_ranges0
     /tmp/cco26Yt2.s:924    .text:0000000000000648 .LBB26
     /tmp/cco26Yt2.s:951    .text:0000000000000684 .LBE26
GAS LISTING /tmp/cco26Yt2.s 			page 38


     /tmp/cco26Yt2.s:891    .text:0000000000000628 .LBB28
     /tmp/cco26Yt2.s:903    .text:000000000000062c .LBE28
     /tmp/cco26Yt2.s:907    .text:0000000000000634 .LVL104
     /tmp/cco26Yt2.s:4057   .debug_str:0000000000000082 .LASF127
     /tmp/cco26Yt2.s:4101   .debug_str:00000000000001cc .LASF128
     /tmp/cco26Yt2.s:829    .text:00000000000005d8 .LFB50
     /tmp/cco26Yt2.s:855    .text:0000000000000600 .LFE50
     /tmp/cco26Yt2.s:844    .text:00000000000005f0 .LVL101
     /tmp/cco26Yt2.s:4291   .debug_str:00000000000007a7 .LASF129
     /tmp/cco26Yt2.s:4313   .debug_str:000000000000090b .LASF130
     /tmp/cco26Yt2.s:733    .text:00000000000004dc .LFB49
     /tmp/cco26Yt2.s:823    .text:00000000000005d8 .LFE49
     /tmp/cco26Yt2.s:4129   .debug_str:0000000000000297 .LASF131
     /tmp/cco26Yt2.s:751    .text:0000000000000504 .LVL92
     /tmp/cco26Yt2.s:756    .text:0000000000000514 .LVL93
     /tmp/cco26Yt2.s:763    .text:000000000000052c .LVL94
     /tmp/cco26Yt2.s:768    .text:000000000000053c .LVL95
     /tmp/cco26Yt2.s:775    .text:0000000000000554 .LVL96
     /tmp/cco26Yt2.s:780    .text:0000000000000564 .LVL97
     /tmp/cco26Yt2.s:787    .text:000000000000057c .LVL98
     /tmp/cco26Yt2.s:792    .text:000000000000058c .LVL99
     /tmp/cco26Yt2.s:798    .text:0000000000000598 .LVL100
     /tmp/cco26Yt2.s:4233   .debug_str:00000000000005d0 .LASF132
     /tmp/cco26Yt2.s:4195   .debug_str:00000000000004c2 .LASF133
     /tmp/cco26Yt2.s:564    .text:0000000000000394 .LFB48
     /tmp/cco26Yt2.s:713    .text:00000000000004dc .LFE48
     /tmp/cco26Yt2.s:3778   .debug_loc:0000000000000000 .LLST13
     /tmp/cco26Yt2.s:3792   .debug_loc:0000000000000039 .LLST14
     /tmp/cco26Yt2.s:4035   .debug_str:0000000000000011 .LASF134
     /tmp/cco26Yt2.s:3812   .debug_loc:0000000000000096 .LLST15
     /tmp/cco26Yt2.s:591    .text:00000000000003c4 .LVL70
     /tmp/cco26Yt2.s:598    .text:00000000000003d8 .LVL71
     /tmp/cco26Yt2.s:603    .text:00000000000003e8 .LVL72
     /tmp/cco26Yt2.s:618    .text:0000000000000408 .LVL75
     /tmp/cco26Yt2.s:629    .text:0000000000000414 .LVL76
     /tmp/cco26Yt2.s:634    .text:0000000000000420 .LVL77
     /tmp/cco26Yt2.s:642    .text:0000000000000434 .LVL80
     /tmp/cco26Yt2.s:649    .text:0000000000000448 .LVL81
     /tmp/cco26Yt2.s:654    .text:0000000000000458 .LVL82
     /tmp/cco26Yt2.s:661    .text:000000000000046c .LVL83
     /tmp/cco26Yt2.s:668    .text:0000000000000480 .LVL84
     /tmp/cco26Yt2.s:673    .text:0000000000000490 .LVL85
     /tmp/cco26Yt2.s:688    .text:00000000000004b0 .LVL88
     /tmp/cco26Yt2.s:696    .text:00000000000004c4 .LVL89
     /tmp/cco26Yt2.s:4039   .debug_str:0000000000000024 .LASF135
     /tmp/cco26Yt2.s:4231   .debug_str:00000000000005be .LASF136
     /tmp/cco26Yt2.s:369    .text:0000000000000214 .LFB47
     /tmp/cco26Yt2.s:544    .text:0000000000000394 .LFE47
     /tmp/cco26Yt2.s:3823   .debug_loc:00000000000000cc .LLST9
     /tmp/cco26Yt2.s:3837   .debug_loc:0000000000000105 .LLST10
     /tmp/cco26Yt2.s:3857   .debug_loc:0000000000000162 .LLST11
     /tmp/cco26Yt2.s:3865   .debug_loc:0000000000000186 .LLST12
     /tmp/cco26Yt2.s:396    .text:0000000000000244 .LVL41
     /tmp/cco26Yt2.s:403    .text:0000000000000258 .LVL42
     /tmp/cco26Yt2.s:408    .text:0000000000000268 .LVL43
     /tmp/cco26Yt2.s:423    .text:0000000000000288 .LVL46
     /tmp/cco26Yt2.s:434    .text:0000000000000294 .LVL47
GAS LISTING /tmp/cco26Yt2.s 			page 39


     /tmp/cco26Yt2.s:448    .text:00000000000002a8 .LVL49
     /tmp/cco26Yt2.s:455    .text:00000000000002bc .LVL50
     /tmp/cco26Yt2.s:460    .text:00000000000002cc .LVL51
     /tmp/cco26Yt2.s:465    .text:00000000000002d8 .LVL52
     /tmp/cco26Yt2.s:473    .text:00000000000002ec .LVL55
     /tmp/cco26Yt2.s:480    .text:0000000000000300 .LVL56
     /tmp/cco26Yt2.s:485    .text:0000000000000310 .LVL57
     /tmp/cco26Yt2.s:492    .text:0000000000000324 .LVL58
     /tmp/cco26Yt2.s:499    .text:0000000000000338 .LVL59
     /tmp/cco26Yt2.s:504    .text:0000000000000348 .LVL60
     /tmp/cco26Yt2.s:519    .text:0000000000000368 .LVL63
     /tmp/cco26Yt2.s:527    .text:000000000000037c .LVL64
     /tmp/cco26Yt2.s:4037   .debug_str:0000000000000018 .LASF137
     /tmp/cco26Yt2.s:4337   .debug_str:00000000000009d2 .LASF138
     /tmp/cco26Yt2.s:155    .text:00000000000000cc .LFB46
     /tmp/cco26Yt2.s:278    .text:00000000000001a0 .LFE46
     /tmp/cco26Yt2.s:3876   .debug_loc:00000000000001bc .LLST4
     /tmp/cco26Yt2.s:173    .text:00000000000000e4 .LBB16
     /tmp/cco26Yt2.s:249    .text:0000000000000164 .LBE16
     /tmp/cco26Yt2.s:3890   .debug_loc:00000000000001f5 .LLST5
     /tmp/cco26Yt2.s:3902   .debug_loc:000000000000022c .LLST6
     /tmp/cco26Yt2.s:196    .text:0000000000000104 .LBB20
     /tmp/cco26Yt2.s:211    .text:000000000000011c .LBE20
     /tmp/cco26Yt2.s:3914   .debug_loc:0000000000000263 .LLST7
     /tmp/cco26Yt2.s:185    .text:00000000000000f4 .LVL18
     /tmp/cco26Yt2.s:227    .text:0000000000000138 .LVL24
     /tmp/cco26Yt2.s:234    .text:000000000000014c .LVL25
     /tmp/cco26Yt2.s:239    .text:000000000000015c .LVL26
     /tmp/cco26Yt2.s:254    .text:0000000000000174 .LVL28
     /tmp/cco26Yt2.s:262    .text:0000000000000188 .LVL29
     /tmp/cco26Yt2.s:4203   .debug_str:00000000000004f5 .LASF139
     /tmp/cco26Yt2.s:4097   .debug_str:00000000000001a6 .LASF140
     /tmp/cco26Yt2.s:21     .text:0000000000000000 .LFB45
     /tmp/cco26Yt2.s:141    .text:00000000000000cc .LFE45
     /tmp/cco26Yt2.s:3925   .debug_loc:0000000000000299 .LLST0
     /tmp/cco26Yt2.s:40     .text:0000000000000018 .LBB8
     /tmp/cco26Yt2.s:116    .text:0000000000000098 .LBE8
     /tmp/cco26Yt2.s:3939   .debug_loc:00000000000002d2 .LLST1
     /tmp/cco26Yt2.s:3951   .debug_loc:0000000000000309 .LLST2
     /tmp/cco26Yt2.s:63     .text:0000000000000038 .LBB12
     /tmp/cco26Yt2.s:78     .text:0000000000000050 .LBE12
     /tmp/cco26Yt2.s:3963   .debug_loc:0000000000000340 .LLST3
     /tmp/cco26Yt2.s:52     .text:0000000000000028 .LVL3
     /tmp/cco26Yt2.s:94     .text:000000000000006c .LVL9
     /tmp/cco26Yt2.s:101    .text:0000000000000080 .LVL10
     /tmp/cco26Yt2.s:106    .text:0000000000000090 .LVL11
     /tmp/cco26Yt2.s:121    .text:00000000000000a8 .LVL13
     /tmp/cco26Yt2.s:4319   .debug_str:0000000000000955 .LASF157
     /tmp/cco26Yt2.s:4301   .debug_str:00000000000007e4 .LASF158
     /tmp/cco26Yt2.s:284    .text:00000000000001a0 .LFB44
     /tmp/cco26Yt2.s:349    .text:0000000000000214 .LFE44
     /tmp/cco26Yt2.s:3974   .debug_loc:0000000000000376 .LLST8
     /tmp/cco26Yt2.s:316    .text:00000000000001dc .LVL33
     /tmp/cco26Yt2.s:321    .text:00000000000001ec .LVL34
     /tmp/cco26Yt2.s:346    .text:0000000000000210 .LVL37
     /tmp/cco26Yt2.s:4175   .debug_str:000000000000043a .LASF159
     /tmp/cco26Yt2.s:4141   .debug_str:00000000000002f4 .LASF160
GAS LISTING /tmp/cco26Yt2.s 			page 40


     /tmp/cco26Yt2.s:4245   .debug_str:0000000000000637 .LASF141
     /tmp/cco26Yt2.s:4103   .debug_str:00000000000001d9 .LASF143
     /tmp/cco26Yt2.s:4339   .debug_str:00000000000009e4 .LASF142
     /tmp/cco26Yt2.s:4223   .debug_str:0000000000000580 .LASF144
     /tmp/cco26Yt2.s:4183   .debug_str:000000000000047a .LASF145
     /tmp/cco26Yt2.s:4089   .debug_str:000000000000014d .LASF146
     /tmp/cco26Yt2.s:4127   .debug_str:000000000000028e .LASF147
     /tmp/cco26Yt2.s:567    .text:0000000000000394 .LVL67
     /tmp/cco26Yt2.s:585    .text:00000000000003b4 .LVL69
     /tmp/cco26Yt2.s:581    .text:00000000000003ac .LVL68
     /tmp/cco26Yt2.s:606    .text:00000000000003ec .LVL73
     /tmp/cco26Yt2.s:608    .text:00000000000003f0 .LVL74
     /tmp/cco26Yt2.s:676    .text:0000000000000494 .LVL86
     /tmp/cco26Yt2.s:678    .text:0000000000000498 .LVL87
     /tmp/cco26Yt2.s:705    .text:00000000000004d0 .LVL90
     /tmp/cco26Yt2.s:636    .text:0000000000000424 .LVL78
     /tmp/cco26Yt2.s:640    .text:000000000000042c .LVL79
     /tmp/cco26Yt2.s:708    .text:00000000000004d4 .LVL91
     /tmp/cco26Yt2.s:372    .text:0000000000000214 .LVL38
     /tmp/cco26Yt2.s:390    .text:0000000000000234 .LVL40
     /tmp/cco26Yt2.s:386    .text:000000000000022c .LVL39
     /tmp/cco26Yt2.s:411    .text:000000000000026c .LVL44
     /tmp/cco26Yt2.s:413    .text:0000000000000270 .LVL45
     /tmp/cco26Yt2.s:507    .text:000000000000034c .LVL61
     /tmp/cco26Yt2.s:509    .text:0000000000000350 .LVL62
     /tmp/cco26Yt2.s:536    .text:0000000000000388 .LVL65
     /tmp/cco26Yt2.s:442    .text:0000000000000298 .LVL48
     /tmp/cco26Yt2.s:467    .text:00000000000002dc .LVL53
     /tmp/cco26Yt2.s:471    .text:00000000000002e4 .LVL54
     /tmp/cco26Yt2.s:539    .text:000000000000038c .LVL66
     /tmp/cco26Yt2.s:158    .text:00000000000000cc .LVL15
     /tmp/cco26Yt2.s:177    .text:00000000000000ec .LVL17
     /tmp/cco26Yt2.s:172    .text:00000000000000e4 .LVL16
     /tmp/cco26Yt2.s:273    .text:0000000000000198 .LVL30
     /tmp/cco26Yt2.s:217    .text:0000000000000120 .LVL23
     /tmp/cco26Yt2.s:245    .text:0000000000000164 .LVL27
     /tmp/cco26Yt2.s:200    .text:0000000000000108 .LVL20
     /tmp/cco26Yt2.s:209    .text:000000000000011c .LVL22
     /tmp/cco26Yt2.s:25     .text:0000000000000000 .LVL0
     /tmp/cco26Yt2.s:44     .text:0000000000000020 .LVL2
     /tmp/cco26Yt2.s:39     .text:0000000000000018 .LVL1
     /tmp/cco26Yt2.s:136    .text:00000000000000c4 .LVL14
     /tmp/cco26Yt2.s:84     .text:0000000000000054 .LVL8
     /tmp/cco26Yt2.s:112    .text:0000000000000098 .LVL12
     /tmp/cco26Yt2.s:67     .text:000000000000003c .LVL5
     /tmp/cco26Yt2.s:76     .text:0000000000000050 .LVL7
     /tmp/cco26Yt2.s:287    .text:00000000000001a0 .LVL31
     /tmp/cco26Yt2.s:310    .text:00000000000001d0 .LVL32
     /tmp/cco26Yt2.s:334    .text:00000000000001fc .LVL35
     /tmp/cco26Yt2.s:340    .text:0000000000000208 .LVL36
     /tmp/cco26Yt2.s:986    .debug_info:0000000000000000 .Ldebug_info0
     /tmp/cco26Yt2.s:47     .text:0000000000000020 .LBB10
     /tmp/cco26Yt2.s:80     .text:0000000000000050 .LBE10
     /tmp/cco26Yt2.s:108    .text:0000000000000090 .LBB14
     /tmp/cco26Yt2.s:114    .text:0000000000000098 .LBE14
     /tmp/cco26Yt2.s:180    .text:00000000000000ec .LBB18
     /tmp/cco26Yt2.s:213    .text:000000000000011c .LBE18
GAS LISTING /tmp/cco26Yt2.s 			page 41


     /tmp/cco26Yt2.s:241    .text:000000000000015c .LBB22
     /tmp/cco26Yt2.s:247    .text:0000000000000164 .LBE22
     /tmp/cco26Yt2.s:886    .text:0000000000000620 .LBE24
     /tmp/cco26Yt2.s:922    .text:0000000000000648 .LBB30
     /tmp/cco26Yt2.s:953    .text:0000000000000684 .LBE30

UNDEFINED SYMBOLS
_Z15thread_dispatchv
_Z11printStringPKc
_Z8printIntiii
_Z13thread_createPP3TCBPFvPvES2_
_ZN16MemoryAllocation8instanceE
_ZN5RiscV14supervisorTrapEv
HEAP_START_ADDR
_ZN16MemoryAllocation9fmem_headE
HEAP_END_ADDR
