GAS LISTING /tmp/ccDRXMN3.s 			page 1


   1              		.file	"main.cpp"
   2              		.option pic
   3              		.option norelax
   4              		.text
   5              	.Ltext0:
   6              		.section	.rodata.str1.8,"aMS",@progbits,1
   7              		.align	3
   8              	.LC0:
   9 0000 436F726F 		.string	"Coroutine A created\n"
   9      7574696E 
   9      65204120 
   9      63726561 
   9      7465640A 
  10 0015 000000   		.align	3
  11              	.LC1:
  12 0018 436F726F 		.string	"Coroutine B created\n"
  12      7574696E 
  12      65204220 
  12      63726561 
  12      7465640A 
  13 002d 000000   		.align	3
  14              	.LC2:
  15 0030 66696E69 		.string	"finished\n"
  15      73686564 
  15      0A00
  16              		.text
  17              		.align	2
  18              		.globl	main
  20              	main:
  21              	.LFB24:
  22              		.file 1 "src/main.cpp"
   1:src/main.cpp  **** #include "../lib/hw.h"
   2:src/main.cpp  **** #include "../lib/console.h"
   3:src/main.cpp  **** #include "../h/ccb.hpp"
   4:src/main.cpp  **** #include "../h/workers.hpp"
   5:src/main.cpp  **** #include "../h/Print.hpp"
   6:src/main.cpp  **** #include "../h/MemoryAllocation.hpp"
   7:src/main.cpp  **** int main(){
  23              		.loc 1 7 11
  24              		.cfi_startproc
  25 0000 130101FC 		addi	sp,sp,-64
  26              		.cfi_def_cfa_offset 64
  27 0004 233C1102 		sd	ra,56(sp)
  28 0008 23388102 		sd	s0,48(sp)
  29 000c 23349102 		sd	s1,40(sp)
  30 0010 23302103 		sd	s2,32(sp)
  31              		.cfi_offset 1, -8
  32              		.cfi_offset 8, -16
  33              		.cfi_offset 9, -24
  34              		.cfi_offset 18, -32
  35 0014 13040104 		addi	s0,sp,64
  36              		.cfi_def_cfa 8, 0
   8:src/main.cpp  ****     MemoryAllocation* mem_obj;
  37              		.loc 1 8 5
   9:src/main.cpp  ****     mem_obj = mem_obj->getInstance();
  38              		.loc 1 9 5
  39              		.file 2 "src/../h/MemoryAllocation.hpp"
GAS LISTING /tmp/ccDRXMN3.s 			page 2


   1:src/../h/MemoryAllocation.hpp **** #include "../lib/hw.h"
   2:src/../h/MemoryAllocation.hpp **** 
   3:src/../h/MemoryAllocation.hpp **** 
   4:src/../h/MemoryAllocation.hpp **** #ifndef PROJECT_BASE_MEMORYALLOCATION_HPP
   5:src/../h/MemoryAllocation.hpp **** #define PROJECT_BASE_MEMORYALLOCATION_HPP
   6:src/../h/MemoryAllocation.hpp **** 
   7:src/../h/MemoryAllocation.hpp **** 
   8:src/../h/MemoryAllocation.hpp **** class MemoryAllocation {
   9:src/../h/MemoryAllocation.hpp **** 
  10:src/../h/MemoryAllocation.hpp ****     //===========================DEFINICIJA SINGLETON KLASE POCETAK=======================k
  11:src/../h/MemoryAllocation.hpp **** private:
  12:src/../h/MemoryAllocation.hpp **** 
  13:src/../h/MemoryAllocation.hpp ****     struct FreeMem {
  14:src/../h/MemoryAllocation.hpp ****         FreeMem *next;
  15:src/../h/MemoryAllocation.hpp ****         FreeMem *prev;
  16:src/../h/MemoryAllocation.hpp ****         size_t size;
  17:src/../h/MemoryAllocation.hpp ****     };
  18:src/../h/MemoryAllocation.hpp **** 
  19:src/../h/MemoryAllocation.hpp **** 
  20:src/../h/MemoryAllocation.hpp ****     static FreeMem *fmem_head; //koja pocetna vrednost?
  21:src/../h/MemoryAllocation.hpp **** 
  22:src/../h/MemoryAllocation.hpp **** 
  23:src/../h/MemoryAllocation.hpp **** 
  24:src/../h/MemoryAllocation.hpp ****     static MemoryAllocation *instance;
  25:src/../h/MemoryAllocation.hpp ****     int data;
  26:src/../h/MemoryAllocation.hpp **** 
  27:src/../h/MemoryAllocation.hpp **** 
  28:src/../h/MemoryAllocation.hpp ****     MemoryAllocation() { //OVO SE SADA NIGGDE
  29:src/../h/MemoryAllocation.hpp ****         fmem_head->size = (size_t) ((char *) HEAP_END_ADDR -
  30:src/../h/MemoryAllocation.hpp ****                                     (char *) HEAP_START_ADDR); //da li smem ovo da castujem u size_
  31:src/../h/MemoryAllocation.hpp ****         fmem_head->next = nullptr;
  32:src/../h/MemoryAllocation.hpp ****         fmem_head->prev = nullptr;
  33:src/../h/MemoryAllocation.hpp ****         data = 0;
  34:src/../h/MemoryAllocation.hpp ****     }
  35:src/../h/MemoryAllocation.hpp **** 
  36:src/../h/MemoryAllocation.hpp ****     MemoryAllocation(MemoryAllocation const &);
  37:src/../h/MemoryAllocation.hpp **** 
  38:src/../h/MemoryAllocation.hpp ****     void operator=(MemoryAllocation const &);
  39:src/../h/MemoryAllocation.hpp **** 
  40:src/../h/MemoryAllocation.hpp **** public:
  41:src/../h/MemoryAllocation.hpp **** 
  42:src/../h/MemoryAllocation.hpp **** 
  43:src/../h/MemoryAllocation.hpp ****     static MemoryAllocation *getInstance() {
  44:src/../h/MemoryAllocation.hpp ****         if (!instance) {
  40              		.loc 2 44 9
  41              	.LBB10:
  42              	.LBB11:
  43              		.loc 2 44 13 is_stmt 0
  44 0018 97070000 		la	a5,_ZN16MemoryAllocation8instanceE
  44      83B70700 
  45 0020 83B70700 		ld	a5,0(a5)
  46              		.loc 2 44 9
  47 0024 638C0706 		beqz	a5,.L8
  48              	.L2:
  49              	.LBE11:
  50              	.LBE10:
  10:src/main.cpp  ****     TCB *coroutines[3];
GAS LISTING /tmp/ccDRXMN3.s 			page 3


  51              		.loc 1 10 5 is_stmt 1
  11:src/main.cpp  **** 
  12:src/main.cpp  ****     coroutines[0] = TCB::createCoroutine(nullptr);
  52              		.loc 1 12 5
  53              		.loc 1 12 41 is_stmt 0
  54 0028 13050000 		li	a0,0
  55 002c 97000000 		call	_ZN3CCB15createCoroutineEPFvvE@plt
  55      E7800000 
  56              	.LVL0:
  57              		.loc 1 12 19
  58 0034 2334A4FC 		sd	a0,-56(s0)
  13:src/main.cpp  ****     TCB::running=coroutines[0];
  59              		.loc 1 13 5 is_stmt 1
  60              		.loc 1 13 17 is_stmt 0
  61 0038 97070000 		la	a5,_ZN3CCB7runningE
  61      83B70700 
  62 0040 23B0A700 		sd	a0,0(a5)
  14:src/main.cpp  **** 
  15:src/main.cpp  ****     coroutines[1] = TCB::createCoroutine(workerBodyA); //ovde su neki workeri, prepisi to ako te ne
  63              		.loc 1 15 5 is_stmt 1
  64              		.loc 1 15 41 is_stmt 0
  65 0044 17050000 		la	a0,_Z11workerBodyAv
  65      03350500 
  66 004c 97000000 		call	_ZN3CCB15createCoroutineEPFvvE@plt
  66      E7800000 
  67              	.LVL1:
  68              		.loc 1 15 19
  69 0054 2338A4FC 		sd	a0,-48(s0)
  16:src/main.cpp  ****     printString("Coroutine A created\n");
  70              		.loc 1 16 5 is_stmt 1
  71              		.loc 1 16 16 is_stmt 0
  72 0058 17050000 		lla	a0,.LC0
  72      13050500 
  73 0060 97000000 		call	_Z11printStringPKc@plt
  73      E7800000 
  74              	.LVL2:
  17:src/main.cpp  **** 
  18:src/main.cpp  ****     coroutines[1] = TCB::createCoroutine(workerBodyB); //ovde su neki workeri, prepisi to ako te ne
  75              		.loc 1 18 5 is_stmt 1
  76              		.loc 1 18 41 is_stmt 0
  77 0068 17050000 		la	a0,_Z11workerBodyBv
  77      03350500 
  78 0070 97000000 		call	_ZN3CCB15createCoroutineEPFvvE@plt
  78      E7800000 
  79              	.LVL3:
  80              		.loc 1 18 19
  81 0078 2338A4FC 		sd	a0,-48(s0)
  19:src/main.cpp  ****     printString("Coroutine B created\n");
  82              		.loc 1 19 5 is_stmt 1
  83              		.loc 1 19 16 is_stmt 0
  84 007c 17050000 		lla	a0,.LC1
  84      13050500 
  85 0084 97000000 		call	_Z11printStringPKc@plt
  85      E7800000 
  86              	.LVL4:
  20:src/main.cpp  **** 
  21:src/main.cpp  ****     TCB::yield();
GAS LISTING /tmp/ccDRXMN3.s 			page 4


  87              		.loc 1 21 5 is_stmt 1
  88              		.loc 1 21 15 is_stmt 0
  89 008c 97000000 		call	_ZN3CCB5yieldEv@plt
  89      E7800000 
  90              	.LVL5:
  91              	.LBB14:
  22:src/main.cpp  **** 
  23:src/main.cpp  ****     for (auto &coroutine : coroutines){
  92              		.loc 1 23 28
  93 0094 930484FC 		addi	s1,s0,-56
  94 0098 6F000005 		j	.L6
  95              	.L8:
  96              	.LBE14:
  97              	.LBB17:
  98              	.LBB13:
  99              	.LBB12:
  45:src/../h/MemoryAllocation.hpp ****             fmem_head =  (FreeMem*) HEAP_START_ADDR;
 100              		.loc 2 45 13 is_stmt 1
 101              		.loc 2 45 23 is_stmt 0
 102 009c 97070000 		la	a5,HEAP_START_ADDR
 102      83B70700 
 103 00a4 83B70700 		ld	a5,0(a5)
 104 00a8 97060000 		la	a3,_ZN16MemoryAllocation9fmem_headE
 104      83B60600 
 105 00b0 23B0F600 		sd	a5,0(a3)
  46:src/../h/MemoryAllocation.hpp ****             fmem_head->size = (size_t) ((char *) HEAP_END_ADDR -
 106              		.loc 2 46 13 is_stmt 1
 107              		.loc 2 46 41 is_stmt 0
 108 00b4 17070000 		la	a4,HEAP_END_ADDR
 108      03370700 
 109 00bc 03370700 		ld	a4,0(a4)
 110              		.loc 2 46 64
 111 00c0 3307F740 		sub	a4,a4,a5
 112              		.loc 2 46 29
 113 00c4 23B8E700 		sd	a4,16(a5)
  47:src/../h/MemoryAllocation.hpp ****                                         (char *) HEAP_START_ADDR); //da li smem ovo da castujem u s
  48:src/../h/MemoryAllocation.hpp ****             fmem_head->next = nullptr;
 114              		.loc 2 48 13 is_stmt 1
 115              		.loc 2 48 29 is_stmt 0
 116 00c8 23B00700 		sd	zero,0(a5)
  49:src/../h/MemoryAllocation.hpp ****             fmem_head->prev = nullptr;
 117              		.loc 2 49 13 is_stmt 1
 118              		.loc 2 49 24 is_stmt 0
 119 00cc 83B70600 		ld	a5,0(a3)
 120              		.loc 2 49 29
 121 00d0 23B40700 		sd	zero,8(a5)
  50:src/../h/MemoryAllocation.hpp ****             static MemoryAllocation* instance;
 122              		.loc 2 50 13 is_stmt 1
  51:src/../h/MemoryAllocation.hpp ****             return instance;
 123              		.loc 2 51 13
 124              		.loc 2 51 20 is_stmt 0
 125 00d4 6FF05FF5 		j	.L2
 126              	.LVL6:
 127              	.L5:
 128              	.LBE12:
 129              	.LBE13:
 130              	.LBE17:
GAS LISTING /tmp/ccDRXMN3.s 			page 5


 131              	.LBB18:
  24:src/main.cpp  ****         delete coroutine;
 132              		.loc 1 24 16
 133 00d8 13050900 		mv	a0,s2
 134 00dc 97000000 		call	_ZdlPv@plt
 134      E7800000 
 135              	.LVL7:
 136              	.L4:
  23:src/main.cpp  ****         delete coroutine;
 137              		.loc 1 23 5 is_stmt 1 discriminator 3
 138 00e4 93848400 		addi	s1,s1,8
 139              	.LVL8:
 140              	.L6:
  23:src/main.cpp  ****         delete coroutine;
 141              		.loc 1 23 28 discriminator 1
 142 00e8 930704FE 		addi	a5,s0,-32
 143 00ec 6380F402 		beq	s1,a5,.L3
 144              	.LVL9:
 145              		.loc 1 24 9 discriminator 2
 146              		.loc 1 24 16 is_stmt 0 discriminator 2
 147 00f0 03B90400 		ld	s2,0(s1)
 148              		.loc 1 24 25 discriminator 2
 149 00f4 E30809FE 		beqz	s2,.L4
 150              	.LVL10:
 151              	.LBB15:
 152              	.LBB16:
 153              		.file 3 "src/../h/ccb.hpp"
   1:src/../h/ccb.hpp **** //
   2:src/../h/ccb.hpp **** // Created by os on 8/14/22.
   3:src/../h/ccb.hpp **** //
   4:src/../h/ccb.hpp **** 
   5:src/../h/ccb.hpp **** #ifndef PROJECT_BASE_CCB_HPP
   6:src/../h/ccb.hpp **** #define PROJECT_BASE_CCB_HPP
   7:src/../h/ccb.hpp **** #include "../lib/hw.h"
   8:src/../h/ccb.hpp **** #include "../h/Scheduler.hpp"
   9:src/../h/ccb.hpp **** 
  10:src/../h/ccb.hpp **** class TCB{
  11:src/../h/ccb.hpp **** 
  12:src/../h/ccb.hpp **** public:
  13:src/../h/ccb.hpp **** 
  14:src/../h/ccb.hpp ****     TCB(){ delete[] stack;}
 154              		.loc 3 14 13 is_stmt 1
 155              		.loc 3 14 22 is_stmt 0
 156 00f8 03358900 		ld	a0,8(s2)
 157              		.loc 3 14 27
 158 00fc E30E05FC 		beqz	a0,.L5
 159              		.loc 3 14 22
 160 0100 97000000 		call	_ZdaPv@plt
 160      E7800000 
 161              	.LVL11:
 162 0108 6FF01FFD 		j	.L5
 163              	.LVL12:
 164              	.L3:
 165              	.LBE16:
 166              	.LBE15:
 167              	.LBE18:
  25:src/main.cpp  ****     }
GAS LISTING /tmp/ccDRXMN3.s 			page 6


  26:src/main.cpp  **** 
  27:src/main.cpp  ****     printString("finished\n");
 168              		.loc 1 27 5 is_stmt 1
 169              		.loc 1 27 16 is_stmt 0
 170 010c 17050000 		lla	a0,.LC2
 170      13050500 
 171 0114 97000000 		call	_Z11printStringPKc@plt
 171      E7800000 
 172              	.LVL13:
  28:src/main.cpp  **** 
  29:src/main.cpp  ****     return 0;
 173              		.loc 1 29 5 is_stmt 1
  30:src/main.cpp  **** }...
 174              		.loc 1 30 1 is_stmt 0
 175 011c 13050000 		li	a0,0
 176 0120 83308103 		ld	ra,56(sp)
 177              		.cfi_restore 1
 178 0124 03340103 		ld	s0,48(sp)
 179              		.cfi_restore 8
 180              		.cfi_def_cfa 2, 64
 181 0128 83348102 		ld	s1,40(sp)
 182              		.cfi_restore 9
 183              	.LVL14:
 184 012c 03390102 		ld	s2,32(sp)
 185              		.cfi_restore 18
 186 0130 13010104 		addi	sp,sp,64
 187              		.cfi_def_cfa_offset 0
 188 0134 67800000 		jr	ra
 189              		.cfi_endproc
 190              	.LFE24:
 192              	.Letext0:
 193              		.file 4 "src/../lib/hw.h"
 194              		.file 5 "src/../h/Print.hpp"
GAS LISTING /tmp/ccDRXMN3.s 			page 7


DEFINED SYMBOLS
                            *ABS*:0000000000000000 main.cpp
     /tmp/ccDRXMN3.s:20     .text:0000000000000000 main
     /tmp/ccDRXMN3.s:24     .text:0000000000000000 .L0 
     /tmp/ccDRXMN3.s:25     .text:0000000000000000 .L0 
     /tmp/ccDRXMN3.s:26     .text:0000000000000004 .L0 
     /tmp/ccDRXMN3.s:31     .text:0000000000000014 .L0 
     /tmp/ccDRXMN3.s:32     .text:0000000000000014 .L0 
     /tmp/ccDRXMN3.s:33     .text:0000000000000014 .L0 
     /tmp/ccDRXMN3.s:34     .text:0000000000000014 .L0 
     /tmp/ccDRXMN3.s:36     .text:0000000000000018 .L0 
     /tmp/ccDRXMN3.s:38     .text:0000000000000018 .L0 
     /tmp/ccDRXMN3.s:40     .text:0000000000000018 .L0 
     /tmp/ccDRXMN3.s:43     .text:0000000000000018 .L0 
     /tmp/ccDRXMN3.s:44     .text:0000000000000018 .L0 
     /tmp/ccDRXMN3.s:47     .text:0000000000000024 .L0 
     /tmp/ccDRXMN3.s:52     .text:0000000000000028 .L0 
     /tmp/ccDRXMN3.s:53     .text:0000000000000028 .L0 
     /tmp/ccDRXMN3.s:54     .text:0000000000000028 .L0 
     /tmp/ccDRXMN3.s:58     .text:0000000000000034 .L0 
     /tmp/ccDRXMN3.s:60     .text:0000000000000038 .L0 
     /tmp/ccDRXMN3.s:61     .text:0000000000000038 .L0 
     /tmp/ccDRXMN3.s:64     .text:0000000000000044 .L0 
     /tmp/ccDRXMN3.s:65     .text:0000000000000044 .L0 
     /tmp/ccDRXMN3.s:69     .text:0000000000000054 .L0 
     /tmp/ccDRXMN3.s:71     .text:0000000000000058 .L0 
     /tmp/ccDRXMN3.s:72     .text:0000000000000058 .L0 
     /tmp/ccDRXMN3.s:76     .text:0000000000000068 .L0 
     /tmp/ccDRXMN3.s:77     .text:0000000000000068 .L0 
     /tmp/ccDRXMN3.s:81     .text:0000000000000078 .L0 
     /tmp/ccDRXMN3.s:83     .text:000000000000007c .L0 
     /tmp/ccDRXMN3.s:84     .text:000000000000007c .L0 
     /tmp/ccDRXMN3.s:88     .text:000000000000008c .L0 
     /tmp/ccDRXMN3.s:89     .text:000000000000008c .L0 
     /tmp/ccDRXMN3.s:93     .text:0000000000000094 .L0 
     /tmp/ccDRXMN3.s:101    .text:000000000000009c .L0 
     /tmp/ccDRXMN3.s:102    .text:000000000000009c .L0 
     /tmp/ccDRXMN3.s:107    .text:00000000000000b4 .L0 
     /tmp/ccDRXMN3.s:108    .text:00000000000000b4 .L0 
     /tmp/ccDRXMN3.s:111    .text:00000000000000c0 .L0 
     /tmp/ccDRXMN3.s:113    .text:00000000000000c4 .L0 
     /tmp/ccDRXMN3.s:115    .text:00000000000000c8 .L0 
     /tmp/ccDRXMN3.s:116    .text:00000000000000c8 .L0 
     /tmp/ccDRXMN3.s:118    .text:00000000000000cc .L0 
     /tmp/ccDRXMN3.s:119    .text:00000000000000cc .L0 
     /tmp/ccDRXMN3.s:121    .text:00000000000000d0 .L0 
     /tmp/ccDRXMN3.s:123    .text:00000000000000d4 .L0 
     /tmp/ccDRXMN3.s:124    .text:00000000000000d4 .L0 
     /tmp/ccDRXMN3.s:125    .text:00000000000000d4 .L0 
     /tmp/ccDRXMN3.s:133    .text:00000000000000d8 .L0 
     /tmp/ccDRXMN3.s:138    .text:00000000000000e4 .L0 
     /tmp/ccDRXMN3.s:142    .text:00000000000000e8 .L0 
     /tmp/ccDRXMN3.s:146    .text:00000000000000f0 .L0 
     /tmp/ccDRXMN3.s:147    .text:00000000000000f0 .L0 
     /tmp/ccDRXMN3.s:149    .text:00000000000000f4 .L0 
     /tmp/ccDRXMN3.s:155    .text:00000000000000f8 .L0 
     /tmp/ccDRXMN3.s:156    .text:00000000000000f8 .L0 
GAS LISTING /tmp/ccDRXMN3.s 			page 8


     /tmp/ccDRXMN3.s:158    .text:00000000000000fc .L0 
     /tmp/ccDRXMN3.s:160    .text:0000000000000100 .L0 
     /tmp/ccDRXMN3.s:169    .text:000000000000010c .L0 
     /tmp/ccDRXMN3.s:170    .text:000000000000010c .L0 
     /tmp/ccDRXMN3.s:174    .text:000000000000011c .L0 
     /tmp/ccDRXMN3.s:175    .text:000000000000011c .L0 
     /tmp/ccDRXMN3.s:177    .text:0000000000000124 .L0 
     /tmp/ccDRXMN3.s:179    .text:0000000000000128 .L0 
     /tmp/ccDRXMN3.s:180    .text:0000000000000128 .L0 
     /tmp/ccDRXMN3.s:182    .text:000000000000012c .L0 
     /tmp/ccDRXMN3.s:185    .text:0000000000000130 .L0 
     /tmp/ccDRXMN3.s:187    .text:0000000000000134 .L0 
     /tmp/ccDRXMN3.s:189    .text:0000000000000138 .L0 
     /tmp/ccDRXMN3.s:195    .text:0000000000000138 .L0 
     /tmp/ccDRXMN3.s:44     .text:0000000000000018 .L0 
     /tmp/ccDRXMN3.s:61     .text:0000000000000038 .L0 
     /tmp/ccDRXMN3.s:65     .text:0000000000000044 .L0 
     /tmp/ccDRXMN3.s:8      .rodata.str1.8:0000000000000000 .LC0
     /tmp/ccDRXMN3.s:72     .text:0000000000000058 .L0 
     /tmp/ccDRXMN3.s:77     .text:0000000000000068 .L0 
     /tmp/ccDRXMN3.s:11     .rodata.str1.8:0000000000000018 .LC1
     /tmp/ccDRXMN3.s:84     .text:000000000000007c .L0 
     /tmp/ccDRXMN3.s:102    .text:000000000000009c .L0 
     /tmp/ccDRXMN3.s:104    .text:00000000000000a8 .L0 
     /tmp/ccDRXMN3.s:108    .text:00000000000000b4 .L0 
     /tmp/ccDRXMN3.s:14     .rodata.str1.8:0000000000000030 .LC2
     /tmp/ccDRXMN3.s:170    .text:000000000000010c .L0 
     /tmp/ccDRXMN3.s:95     .text:000000000000009c .L8
     /tmp/ccDRXMN3.s:140    .text:00000000000000e8 .L6
     /tmp/ccDRXMN3.s:48     .text:0000000000000028 .L2
     /tmp/ccDRXMN3.s:164    .text:000000000000010c .L3
     /tmp/ccDRXMN3.s:136    .text:00000000000000e4 .L4
     /tmp/ccDRXMN3.s:127    .text:00000000000000d8 .L5
     /tmp/ccDRXMN3.s:898    .debug_abbrev:0000000000000000 .Ldebug_abbrev0
     /tmp/ccDRXMN3.s:1998   .debug_str:000000000000044a .LASF66
     /tmp/ccDRXMN3.s:1918   .debug_str:0000000000000210 .LASF67
     /tmp/ccDRXMN3.s:1892   .debug_str:0000000000000106 .LASF68
     /tmp/ccDRXMN3.s:5      .text:0000000000000000 .Ltext0
     /tmp/ccDRXMN3.s:192    .text:0000000000000138 .Letext0
     /tmp/ccDRXMN3.s:1850   .debug_line:0000000000000000 .Ldebug_line0
     /tmp/ccDRXMN3.s:1938   .debug_str:0000000000000298 .LASF0
     /tmp/ccDRXMN3.s:1948   .debug_str:00000000000002d6 .LASF1
     /tmp/ccDRXMN3.s:1926   .debug_str:0000000000000237 .LASF2
     /tmp/ccDRXMN3.s:1906   .debug_str:00000000000001a6 .LASF4
     /tmp/ccDRXMN3.s:1982   .debug_str:00000000000003c8 .LASF3
     /tmp/ccDRXMN3.s:1858   .debug_str:0000000000000024 .LASF5
     /tmp/ccDRXMN3.s:1950   .debug_str:00000000000002e9 .LASF6
     /tmp/ccDRXMN3.s:1936   .debug_str:0000000000000285 .LASF7
     /tmp/ccDRXMN3.s:2006   .debug_str:000000000000054b .LASF8
     /tmp/ccDRXMN3.s:1894   .debug_str:0000000000000124 .LASF9
     /tmp/ccDRXMN3.s:1962   .debug_str:0000000000000354 .LASF10
     /tmp/ccDRXMN3.s:2002   .debug_str:000000000000051a .LASF11
     /tmp/ccDRXMN3.s:1862   .debug_str:0000000000000037 .LASF12
     /tmp/ccDRXMN3.s:1852   .debug_str:0000000000000000 .LASF13
     /tmp/ccDRXMN3.s:1872   .debug_str:0000000000000071 .LASF14
     /tmp/ccDRXMN3.s:1976   .debug_str:000000000000039e .LASF15
     /tmp/ccDRXMN3.s:1878   .debug_str:0000000000000092 .LASF16
GAS LISTING /tmp/ccDRXMN3.s 			page 9


     /tmp/ccDRXMN3.s:1856   .debug_str:000000000000001c .LASF29
     /tmp/ccDRXMN3.s:1882   .debug_str:00000000000000c5 .LASF17
     /tmp/ccDRXMN3.s:2020   .debug_str:00000000000005db .LASF19
     /tmp/ccDRXMN3.s:2008   .debug_str:000000000000055b .LASF18
     /tmp/ccDRXMN3.s:1960   .debug_str:0000000000000335 .LASF20
     /tmp/ccDRXMN3.s:1970   .debug_str:000000000000037d .LASF69
     /tmp/ccDRXMN3.s:1952   .debug_str:00000000000002fc .LASF41
     /tmp/ccDRXMN3.s:1944   .debug_str:00000000000002b4 .LASF43
     /tmp/ccDRXMN3.s:1928   .debug_str:0000000000000245 .LASF21
     /tmp/ccDRXMN3.s:1974   .debug_str:0000000000000387 .LASF22
     /tmp/ccDRXMN3.s:1978   .debug_str:00000000000003b4 .LASF70
     /tmp/ccDRXMN3.s:1868   .debug_str:0000000000000059 .LASF71
     /tmp/ccDRXMN3.s:1886   .debug_str:00000000000000f1 .LASF72
     /tmp/ccDRXMN3.s:1902   .debug_str:0000000000000176 .LASF73
     /tmp/ccDRXMN3.s:1910   .debug_str:00000000000001b6 .LASF23
     /tmp/ccDRXMN3.s:1942   .debug_str:00000000000002ae .LASF24
     /tmp/ccDRXMN3.s:1912   .debug_str:00000000000001bb .LASF25
     /tmp/ccDRXMN3.s:1908   .debug_str:00000000000001ad .LASF26
     /tmp/ccDRXMN3.s:1876   .debug_str:0000000000000084 .LASF74
     /tmp/ccDRXMN3.s:1916   .debug_str:00000000000001e8 .LASF75
     /tmp/ccDRXMN3.s:1940   .debug_str:00000000000002a5 .LASF76
     /tmp/ccDRXMN3.s:1984   .debug_str:00000000000003da .LASF77
     /tmp/ccDRXMN3.s:1888   .debug_str:00000000000000f9 .LASF27
     /tmp/ccDRXMN3.s:1994   .debug_str:0000000000000434 .LASF28
     /tmp/ccDRXMN3.s:1890   .debug_str:00000000000000fe .LASF30
     /tmp/ccDRXMN3.s:2022   .debug_str:00000000000005e7 .LASF31
     /tmp/ccDRXMN3.s:2012   .debug_str:0000000000000575 .LASF32
     /tmp/ccDRXMN3.s:1996   .debug_str:0000000000000445 .LASF33
     /tmp/ccDRXMN3.s:1898   .debug_str:0000000000000162 .LASF34
     /tmp/ccDRXMN3.s:1922   .debug_str:0000000000000227 .LASF35
     /tmp/ccDRXMN3.s:1972   .debug_str:0000000000000382 .LASF36
     /tmp/ccDRXMN3.s:1988   .debug_str:00000000000003f7 .LASF37
     /tmp/ccDRXMN3.s:1956   .debug_str:0000000000000313 .LASF38
     /tmp/ccDRXMN3.s:1930   .debug_str:0000000000000251 .LASF39
     /tmp/ccDRXMN3.s:1880   .debug_str:00000000000000a8 .LASF40
     /tmp/ccDRXMN3.s:2000   .debug_str:000000000000050e .LASF78
     /tmp/ccDRXMN3.s:1914   .debug_str:00000000000001c3 .LASF79
     /tmp/ccDRXMN3.s:1866   .debug_str:0000000000000051 .LASF42
     /tmp/ccDRXMN3.s:2016   .debug_str:000000000000058d .LASF44
     /tmp/ccDRXMN3.s:1870   .debug_str:0000000000000069 .LASF45
     /tmp/ccDRXMN3.s:1904   .debug_str:0000000000000186 .LASF46
     /tmp/ccDRXMN3.s:1980   .debug_str:00000000000003ba .LASF47
     /tmp/ccDRXMN3.s:1884   .debug_str:00000000000000ca .LASF48
     /tmp/ccDRXMN3.s:2010   .debug_str:000000000000056b .LASF49
     /tmp/ccDRXMN3.s:2018   .debug_str:00000000000005ad .LASF50
     /tmp/ccDRXMN3.s:1966   .debug_str:000000000000036f .LASF51
     /tmp/ccDRXMN3.s:1932   .debug_str:000000000000025b .LASF52
     /tmp/ccDRXMN3.s:1986   .debug_str:00000000000003ed .LASF53
     /tmp/ccDRXMN3.s:2004   .debug_str:0000000000000529 .LASF54
     /tmp/ccDRXMN3.s:1958   .debug_str:0000000000000330 .LASF55
     /tmp/ccDRXMN3.s:21     .text:0000000000000000 .LFB24
     /tmp/ccDRXMN3.s:190    .text:0000000000000138 .LFE24
     /tmp/ccDRXMN3.s:1934   .debug_str:000000000000027d .LASF80
     /tmp/ccDRXMN3.s:1946   .debug_str:00000000000002cb .LASF56
     /tmp/ccDRXMN3.s:1836   .debug_ranges:0000000000000000 .Ldebug_ranges0
     /tmp/ccDRXMN3.s:1864   .debug_str:0000000000000047 .LASF57
     /tmp/ccDRXMN3.s:1798   .debug_loc:0000000000000000 .LLST0
GAS LISTING /tmp/ccDRXMN3.s 			page 10


     /tmp/ccDRXMN3.s:1954   .debug_str:0000000000000307 .LASF58
     /tmp/ccDRXMN3.s:1964   .debug_str:0000000000000363 .LASF81
     /tmp/ccDRXMN3.s:1809   .debug_loc:0000000000000036 .LLST1
     /tmp/ccDRXMN3.s:1920   .debug_str:000000000000021d .LASF59
     /tmp/ccDRXMN3.s:151    .text:00000000000000f8 .LBB15
     /tmp/ccDRXMN3.s:166    .text:000000000000010c .LBE15
     /tmp/ccDRXMN3.s:1816   .debug_loc:0000000000000059 .LLST2
     /tmp/ccDRXMN3.s:161    .text:0000000000000108 .LVL11
     /tmp/ccDRXMN3.s:135    .text:00000000000000e4 .LVL7
     /tmp/ccDRXMN3.s:41     .text:0000000000000018 .LBB10
     /tmp/ccDRXMN3.s:99     .text:000000000000009c .LBB12
     /tmp/ccDRXMN3.s:128    .text:00000000000000d8 .LBE12
     /tmp/ccDRXMN3.s:56     .text:0000000000000034 .LVL0
     /tmp/ccDRXMN3.s:67     .text:0000000000000054 .LVL1
     /tmp/ccDRXMN3.s:74     .text:0000000000000068 .LVL2
     /tmp/ccDRXMN3.s:79     .text:0000000000000078 .LVL3
     /tmp/ccDRXMN3.s:86     .text:000000000000008c .LVL4
     /tmp/ccDRXMN3.s:90     .text:0000000000000094 .LVL5
     /tmp/ccDRXMN3.s:172    .text:000000000000011c .LVL13
     /tmp/ccDRXMN3.s:1896   .debug_str:0000000000000132 .LASF82
     /tmp/ccDRXMN3.s:1968   .debug_str:0000000000000378 .LASF60
     /tmp/ccDRXMN3.s:1900   .debug_str:000000000000016c .LASF61
     /tmp/ccDRXMN3.s:1860   .debug_str:000000000000002b .LASF83
     /tmp/ccDRXMN3.s:1874   .debug_str:000000000000007d .LASF62
     /tmp/ccDRXMN3.s:1992   .debug_str:0000000000000421 .LASF64
     /tmp/ccDRXMN3.s:1924   .debug_str:0000000000000230 .LASF63
     /tmp/ccDRXMN3.s:1990   .debug_str:0000000000000411 .LASF65
     /tmp/ccDRXMN3.s:2014   .debug_str:000000000000057a .LASF84
     /tmp/ccDRXMN3.s:1854   .debug_str:0000000000000010 .LASF85
     /tmp/ccDRXMN3.s:126    .text:00000000000000d8 .LVL6
     /tmp/ccDRXMN3.s:139    .text:00000000000000e8 .LVL8
     /tmp/ccDRXMN3.s:144    .text:00000000000000f0 .LVL9
     /tmp/ccDRXMN3.s:163    .text:000000000000010c .LVL12
     /tmp/ccDRXMN3.s:183    .text:000000000000012c .LVL14
     /tmp/ccDRXMN3.s:150    .text:00000000000000f8 .LVL10
     /tmp/ccDRXMN3.s:196    .debug_info:0000000000000000 .Ldebug_info0
     /tmp/ccDRXMN3.s:50     .text:0000000000000028 .LBE10
     /tmp/ccDRXMN3.s:97     .text:000000000000009c .LBB17
     /tmp/ccDRXMN3.s:130    .text:00000000000000d8 .LBE17
     /tmp/ccDRXMN3.s:91     .text:0000000000000094 .LBB14
     /tmp/ccDRXMN3.s:96     .text:000000000000009c .LBE14
     /tmp/ccDRXMN3.s:131    .text:00000000000000d8 .LBB18
     /tmp/ccDRXMN3.s:167    .text:000000000000010c .LBE18

UNDEFINED SYMBOLS
_ZN16MemoryAllocation8instanceE
_ZN3CCB15createCoroutineEPFvvE
_ZN3CCB7runningE
_Z11workerBodyAv
_Z11printStringPKc
_Z11workerBodyBv
_ZN3CCB5yieldEv
HEAP_START_ADDR
_ZN16MemoryAllocation9fmem_headE
HEAP_END_ADDR
_ZdlPv
_ZdaPv
GAS LISTING /tmp/ccDRXMN3.s 			page 11


