GAS LISTING /tmp/ccbmCWrB.s 			page 1


   1              		.file	"main.cpp"
   2              		.option pic
   3              		.option norelax
   4              		.text
   5              	.Ltext0:
   6              		.section	.rodata.str1.8,"aMS",@progbits,1
   7              		.align	3
   8              	.LC0:
   9 0000 77616974 		.string	"waitvreacagreskukadjeubijemnem \n"
   9      76726561 
   9      63616772 
   9      65736B75 
   9      6B61646A 
  10 0021 00000000 		.align	3
  10      000000
  11              	.LC1:
  12 0028 6B697461 		.string	"kitaljka\n"
  12      6C6A6B61 
  12      0A00
  13              		.text
  14              		.align	2
  15              		.globl	_Z8dummyfunPv
  17              	_Z8dummyfunPv:
  18              	.LFB50:
  19              		.file 1 "src/main.cpp"
   1:src/main.cpp  **** #include "../lib/hw.h"
   2:src/main.cpp  **** #include "../lib/console.h"
   3:src/main.cpp  **** #include "../h/tcb.hpp"
   4:src/main.cpp  **** //#include "../h/workers.hpp"
   5:src/main.cpp  **** #include "../h/Print.hpp"
   6:src/main.cpp  **** //#include "../h/MemoryAllocation.hpp"
   7:src/main.cpp  **** #include "../h/RiscV.hpp"
   8:src/main.cpp  **** #include "../h/syscall_c.hpp"
   9:src/main.cpp  **** #include "../h/semaphore.hpp"
  10:src/main.cpp  **** //#include "../src/userMain.cpp"
  11:src/main.cpp  **** //#include "../test/Threads_C_API_test.hpp"
  12:src/main.cpp  **** //extern void userMain();
  13:src/main.cpp  **** typedef semaphore* sem_t;
  14:src/main.cpp  **** sem_t agent,mutex,matches,paper,tabacco,dummy;
  15:src/main.cpp  **** void agentfun(void *arg);
  16:src/main.cpp  **** void smoker1(void* arg);
  17:src/main.cpp  **** void smoker2(void* arg);
  18:src/main.cpp  **** void smoker3(void* arg);
  19:src/main.cpp  **** void dummyfun(void* arg);
  20:src/main.cpp  **** 
  21:src/main.cpp  **** int main(){
  22:src/main.cpp  ****     MemoryAllocation* mem_obj;
  23:src/main.cpp  ****     mem_obj = mem_obj->getInstance();
  24:src/main.cpp  ****     RiscV::w_stvec((uint64) &RiscV::supervisorTrap);
  25:src/main.cpp  ****     thread_t main;
  26:src/main.cpp  ****     thread_create(&main, nullptr, nullptr);
  27:src/main.cpp  ****     TCB::running = main;
  28:src/main.cpp  **** 
  29:src/main.cpp  ****     semaphore::semOpen(&mutex,1);
  30:src/main.cpp  ****     semaphore::semOpen(&paper,0);
  31:src/main.cpp  ****     //semaphore::semOpen(&matches,0);
  32:src/main.cpp  ****     semaphore::semOpen(&matches, 0);
GAS LISTING /tmp/ccbmCWrB.s 			page 2


  33:src/main.cpp  ****     semaphore::semOpen(&agent,0);
  34:src/main.cpp  ****     semaphore::semOpen(&tabacco,0);
  35:src/main.cpp  **** 
  36:src/main.cpp  ****     thread_t t= nullptr;
  37:src/main.cpp  ****     thread_t t1= nullptr;
  38:src/main.cpp  ****     thread_t t2= nullptr;
  39:src/main.cpp  ****     thread_t t3= nullptr;
  40:src/main.cpp  **** 
  41:src/main.cpp  ****     thread_create(&t, agentfun, nullptr);
  42:src/main.cpp  ****     thread_create(&t1, smoker1, nullptr);
  43:src/main.cpp  ****     thread_create(&t2, smoker2, nullptr);
  44:src/main.cpp  ****     thread_create(&t3, smoker3, nullptr);
  45:src/main.cpp  **** 
  46:src/main.cpp  **** 
  47:src/main.cpp  ****     semaphore::semOpen(&dummy,-1);
  48:src/main.cpp  ****     thread_t tt= nullptr;
  49:src/main.cpp  ****     thread_t t11= nullptr;
  50:src/main.cpp  ****     thread_t t21= nullptr;
  51:src/main.cpp  ****     thread_t t31= nullptr;
  52:src/main.cpp  **** 
  53:src/main.cpp  ****     thread_create(&tt, dummyfun, nullptr);
  54:src/main.cpp  ****     thread_create(&t11, dummyfun, nullptr);
  55:src/main.cpp  ****     thread_create(&t21, dummyfun, nullptr);
  56:src/main.cpp  ****     thread_create(&t31, dummyfun, nullptr);
  57:src/main.cpp  ****     for (int i = 0; i < 30; ++i) {
  58:src/main.cpp  ****         thread_dispatch();
  59:src/main.cpp  ****     }
  60:src/main.cpp  ****     if(semaphore::semWait(dummy)==-1) printString("ubien semafor\n");
  61:src/main.cpp  ****     return 0;
  62:src/main.cpp  **** }
  63:src/main.cpp  **** void agentfun(void *args){
  64:src/main.cpp  ****     int i=0;
  65:src/main.cpp  ****     while (true){
  66:src/main.cpp  ****         semaphore::semWait(mutex);
  67:src/main.cpp  ****         switch (i%3) {
  68:src/main.cpp  ****             case 0:
  69:src/main.cpp  ****                 printString("duvan i papir\n");
  70:src/main.cpp  ****                 semaphore::semSignal(matches);
  71:src/main.cpp  ****                 break;
  72:src/main.cpp  ****             case 1:
  73:src/main.cpp  ****                 printString("duvan i sibice\n");
  74:src/main.cpp  ****                 semaphore::semSignal(paper);
  75:src/main.cpp  ****                 break;
  76:src/main.cpp  ****             case 2:
  77:src/main.cpp  ****                 printString("sibice i papir\n");
  78:src/main.cpp  ****                 semaphore::semSignal(tabacco);
  79:src/main.cpp  ****                 break;
  80:src/main.cpp  ****         }
  81:src/main.cpp  ****         if(i==50) semaphore::semClose(dummy);
  82:src/main.cpp  ****         i++;
  83:src/main.cpp  ****         semaphore::semSignal(mutex);
  84:src/main.cpp  ****         semaphore::semWait(agent);
  85:src/main.cpp  ****     }
  86:src/main.cpp  **** }
  87:src/main.cpp  **** 
  88:src/main.cpp  **** void smoker1(void *arg){
  89:src/main.cpp  ****     while (true){
GAS LISTING /tmp/ccbmCWrB.s 			page 3


  90:src/main.cpp  ****         semaphore::semWait(paper);
  91:src/main.cpp  ****         semaphore::semWait(mutex);
  92:src/main.cpp  **** 
  93:src/main.cpp  ****         printString("duvan i sibice cigaraaa\n");
  94:src/main.cpp  ****         semaphore::semSignal(agent);
  95:src/main.cpp  ****         semaphore::semSignal(mutex);
  96:src/main.cpp  ****     }
  97:src/main.cpp  **** }
  98:src/main.cpp  **** 
  99:src/main.cpp  **** void smoker2(void *arg){
 100:src/main.cpp  ****     while (true){
 101:src/main.cpp  ****         semaphore::semWait(matches);
 102:src/main.cpp  ****         semaphore::semWait(mutex);
 103:src/main.cpp  **** 
 104:src/main.cpp  ****         printString("duvan i papir cigaraaaaa\n");
 105:src/main.cpp  ****         semaphore::semSignal(agent);
 106:src/main.cpp  ****         semaphore::semSignal(mutex);
 107:src/main.cpp  ****     }
 108:src/main.cpp  **** }
 109:src/main.cpp  **** 
 110:src/main.cpp  **** void smoker3(void *arg){
 111:src/main.cpp  ****     while (true){
 112:src/main.cpp  ****         semaphore::semWait(tabacco);
 113:src/main.cpp  ****         semaphore::semWait(mutex);
 114:src/main.cpp  ****         printString("sibiceee i papirr cigaraaa\n");
 115:src/main.cpp  ****         semaphore::semSignal(agent);
 116:src/main.cpp  ****         semaphore::semSignal(mutex);
 117:src/main.cpp  ****     }
 118:src/main.cpp  **** }
 119:src/main.cpp  **** void dummyfun(void *){
  20              		.loc 1 119 22
  21              		.cfi_startproc
  22 0000 130101FF 		addi	sp,sp,-16
  23              		.cfi_def_cfa_offset 16
  24 0004 23341100 		sd	ra,8(sp)
  25 0008 23308100 		sd	s0,0(sp)
  26              		.cfi_offset 1, -8
  27              		.cfi_offset 8, -16
  28 000c 13040101 		addi	s0,sp,16
  29              		.cfi_def_cfa 8, 0
 120:src/main.cpp  ****     int i = semaphore::semWait(dummy);
  30              		.loc 1 120 5
  31              		.loc 1 120 31 is_stmt 0
  32 0010 17050000 		ld	a0,.LANCHOR0
  32      03350500 
  33 0018 97000000 		call	_ZN9semaphore7semWaitEPS_@plt
  33      E7800000 
  34              	.LVL0:
 121:src/main.cpp  ****     if(i==-1)printString("waitvreacagreskukadjeubijemnem \n");
  35              		.loc 1 121 5 is_stmt 1
  36 0020 9307F0FF 		li	a5,-1
  37 0024 6302F502 		beq	a0,a5,.L4
  38              	.LVL1:
  39              	.L2:
 122:src/main.cpp  ****     printString("kitaljka\n");
  40              		.loc 1 122 5
  41              		.loc 1 122 16 is_stmt 0
GAS LISTING /tmp/ccbmCWrB.s 			page 4


  42 0028 17050000 		lla	a0,.LC1
  42      13050500 
  43 0030 97000000 		call	_Z11printStringPKc@plt
  43      E7800000 
  44              	.LVL2:
 123:src/main.cpp  **** }...
  45              		.loc 1 123 1
  46 0038 83308100 		ld	ra,8(sp)
  47              		.cfi_remember_state
  48              		.cfi_restore 1
  49 003c 03340100 		ld	s0,0(sp)
  50              		.cfi_restore 8
  51              		.cfi_def_cfa 2, 16
  52 0040 13010101 		addi	sp,sp,16
  53              		.cfi_def_cfa_offset 0
  54 0044 67800000 		jr	ra
  55              	.LVL3:
  56              	.L4:
  57              		.cfi_restore_state
 121:src/main.cpp  ****     if(i==-1)printString("waitvreacagreskukadjeubijemnem \n");
  58              		.loc 1 121 14 is_stmt 1 discriminator 1
 121:src/main.cpp  ****     if(i==-1)printString("waitvreacagreskukadjeubijemnem \n");
  59              		.loc 1 121 25 is_stmt 0 discriminator 1
  60 0048 17050000 		lla	a0,.LC0
  60      13050500 
  61              	.LVL4:
  62 0050 97000000 		call	_Z11printStringPKc@plt
  62      E7800000 
  63              	.LVL5:
  64 0058 6FF01FFD 		j	.L2
  65              		.cfi_endproc
  66              	.LFE50:
  68              		.section	.rodata.str1.8
  69 0032 00000000 		.align	3
  69      0000
  70              	.LC2:
  71 0038 64757661 		.string	"duvan i sibice cigaraaa\n"
  71      6E206920 
  71      73696269 
  71      63652063 
  71      69676172 
  72              		.text
  73              		.align	2
  74              		.globl	_Z7smoker1Pv
  76              	_Z7smoker1Pv:
  77              	.LFB47:
  88:src/main.cpp  **** void smoker1(void *arg){
  78              		.loc 1 88 24 is_stmt 1
  79              		.cfi_startproc
  80              	.LVL6:
  81 005c 130101FE 		addi	sp,sp,-32
  82              		.cfi_def_cfa_offset 32
  83 0060 233C1100 		sd	ra,24(sp)
  84 0064 23388100 		sd	s0,16(sp)
  85 0068 23349100 		sd	s1,8(sp)
  86              		.cfi_offset 1, -8
  87              		.cfi_offset 8, -16
GAS LISTING /tmp/ccbmCWrB.s 			page 5


  88              		.cfi_offset 9, -24
  89 006c 13040102 		addi	s0,sp,32
  90              		.cfi_def_cfa 8, 0
  91              	.LVL7:
  92              	.L6:
  89:src/main.cpp  ****     while (true){
  93              		.loc 1 89 5 discriminator 1
  90:src/main.cpp  ****         semaphore::semWait(paper);
  94              		.loc 1 90 9 discriminator 1
  90:src/main.cpp  ****         semaphore::semWait(paper);
  95              		.loc 1 90 27 is_stmt 0 discriminator 1
  96 0070 97040000 		lla	s1,.LANCHOR0
  96      93840400 
  97 0078 03B58400 		ld	a0,8(s1)
  98 007c 97000000 		call	_ZN9semaphore7semWaitEPS_@plt
  98      E7800000 
  99              	.LVL8:
  91:src/main.cpp  ****         semaphore::semWait(mutex);
 100              		.loc 1 91 9 is_stmt 1 discriminator 1
  91:src/main.cpp  ****         semaphore::semWait(mutex);
 101              		.loc 1 91 27 is_stmt 0 discriminator 1
 102 0084 03B50401 		ld	a0,16(s1)
 103 0088 97000000 		call	_ZN9semaphore7semWaitEPS_@plt
 103      E7800000 
 104              	.LVL9:
  93:src/main.cpp  ****         printString("duvan i sibice cigaraaa\n");
 105              		.loc 1 93 9 is_stmt 1 discriminator 1
  93:src/main.cpp  ****         printString("duvan i sibice cigaraaa\n");
 106              		.loc 1 93 20 is_stmt 0 discriminator 1
 107 0090 17050000 		lla	a0,.LC2
 107      13050500 
 108 0098 97000000 		call	_Z11printStringPKc@plt
 108      E7800000 
 109              	.LVL10:
  94:src/main.cpp  ****         semaphore::semSignal(agent);
 110              		.loc 1 94 9 is_stmt 1 discriminator 1
  94:src/main.cpp  ****         semaphore::semSignal(agent);
 111              		.loc 1 94 29 is_stmt 0 discriminator 1
 112 00a0 03B58401 		ld	a0,24(s1)
 113 00a4 97000000 		call	_ZN9semaphore9semSignalEPS_@plt
 113      E7800000 
 114              	.LVL11:
  95:src/main.cpp  ****         semaphore::semSignal(mutex);
 115              		.loc 1 95 9 is_stmt 1 discriminator 1
  95:src/main.cpp  ****         semaphore::semSignal(mutex);
 116              		.loc 1 95 29 is_stmt 0 discriminator 1
 117 00ac 03B50401 		ld	a0,16(s1)
 118 00b0 97000000 		call	_ZN9semaphore9semSignalEPS_@plt
 118      E7800000 
 119              	.LVL12:
  89:src/main.cpp  ****     while (true){
 120              		.loc 1 89 5 is_stmt 1 discriminator 1
 121 00b8 6FF09FFB 		j	.L6
 122              		.cfi_endproc
 123              	.LFE47:
 125              		.section	.rodata.str1.8
 126 0051 00000000 		.align	3
GAS LISTING /tmp/ccbmCWrB.s 			page 6


 126      000000
 127              	.LC3:
 128 0058 64757661 		.string	"duvan i papir cigaraaaaa\n"
 128      6E206920 
 128      70617069 
 128      72206369 
 128      67617261 
 129              		.text
 130              		.align	2
 131              		.globl	_Z7smoker2Pv
 133              	_Z7smoker2Pv:
 134              	.LFB48:
  99:src/main.cpp  **** void smoker2(void *arg){
 135              		.loc 1 99 24
 136              		.cfi_startproc
 137              	.LVL13:
 138 00bc 130101FE 		addi	sp,sp,-32
 139              		.cfi_def_cfa_offset 32
 140 00c0 233C1100 		sd	ra,24(sp)
 141 00c4 23388100 		sd	s0,16(sp)
 142 00c8 23349100 		sd	s1,8(sp)
 143              		.cfi_offset 1, -8
 144              		.cfi_offset 8, -16
 145              		.cfi_offset 9, -24
 146 00cc 13040102 		addi	s0,sp,32
 147              		.cfi_def_cfa 8, 0
 148              	.LVL14:
 149              	.L9:
 100:src/main.cpp  ****     while (true){
 150              		.loc 1 100 5 discriminator 1
 101:src/main.cpp  ****         semaphore::semWait(matches);
 151              		.loc 1 101 9 discriminator 1
 101:src/main.cpp  ****         semaphore::semWait(matches);
 152              		.loc 1 101 27 is_stmt 0 discriminator 1
 153 00d0 97040000 		lla	s1,.LANCHOR0
 153      93840400 
 154 00d8 03B50402 		ld	a0,32(s1)
 155 00dc 97000000 		call	_ZN9semaphore7semWaitEPS_@plt
 155      E7800000 
 156              	.LVL15:
 102:src/main.cpp  ****         semaphore::semWait(mutex);
 157              		.loc 1 102 9 is_stmt 1 discriminator 1
 102:src/main.cpp  ****         semaphore::semWait(mutex);
 158              		.loc 1 102 27 is_stmt 0 discriminator 1
 159 00e4 03B50401 		ld	a0,16(s1)
 160 00e8 97000000 		call	_ZN9semaphore7semWaitEPS_@plt
 160      E7800000 
 161              	.LVL16:
 104:src/main.cpp  ****         printString("duvan i papir cigaraaaaa\n");
 162              		.loc 1 104 9 is_stmt 1 discriminator 1
 104:src/main.cpp  ****         printString("duvan i papir cigaraaaaa\n");
 163              		.loc 1 104 20 is_stmt 0 discriminator 1
 164 00f0 17050000 		lla	a0,.LC3
 164      13050500 
 165 00f8 97000000 		call	_Z11printStringPKc@plt
 165      E7800000 
 166              	.LVL17:
GAS LISTING /tmp/ccbmCWrB.s 			page 7


 105:src/main.cpp  ****         semaphore::semSignal(agent);
 167              		.loc 1 105 9 is_stmt 1 discriminator 1
 105:src/main.cpp  ****         semaphore::semSignal(agent);
 168              		.loc 1 105 29 is_stmt 0 discriminator 1
 169 0100 03B58401 		ld	a0,24(s1)
 170 0104 97000000 		call	_ZN9semaphore9semSignalEPS_@plt
 170      E7800000 
 171              	.LVL18:
 106:src/main.cpp  ****         semaphore::semSignal(mutex);
 172              		.loc 1 106 9 is_stmt 1 discriminator 1
 106:src/main.cpp  ****         semaphore::semSignal(mutex);
 173              		.loc 1 106 29 is_stmt 0 discriminator 1
 174 010c 03B50401 		ld	a0,16(s1)
 175 0110 97000000 		call	_ZN9semaphore9semSignalEPS_@plt
 175      E7800000 
 176              	.LVL19:
 100:src/main.cpp  ****     while (true){
 177              		.loc 1 100 5 is_stmt 1 discriminator 1
 178 0118 6FF09FFB 		j	.L9
 179              		.cfi_endproc
 180              	.LFE48:
 182              		.section	.rodata.str1.8
 183 0072 00000000 		.align	3
 183      0000
 184              	.LC4:
 185 0078 73696269 		.string	"sibiceee i papirr cigaraaa\n"
 185      63656565 
 185      20692070 
 185      61706972 
 185      72206369 
 186              		.text
 187              		.align	2
 188              		.globl	_Z7smoker3Pv
 190              	_Z7smoker3Pv:
 191              	.LFB49:
 110:src/main.cpp  **** void smoker3(void *arg){
 192              		.loc 1 110 24
 193              		.cfi_startproc
 194              	.LVL20:
 195 011c 130101FE 		addi	sp,sp,-32
 196              		.cfi_def_cfa_offset 32
 197 0120 233C1100 		sd	ra,24(sp)
 198 0124 23388100 		sd	s0,16(sp)
 199 0128 23349100 		sd	s1,8(sp)
 200              		.cfi_offset 1, -8
 201              		.cfi_offset 8, -16
 202              		.cfi_offset 9, -24
 203 012c 13040102 		addi	s0,sp,32
 204              		.cfi_def_cfa 8, 0
 205              	.LVL21:
 206              	.L12:
 111:src/main.cpp  ****     while (true){
 207              		.loc 1 111 5 discriminator 1
 112:src/main.cpp  ****         semaphore::semWait(tabacco);
 208              		.loc 1 112 9 discriminator 1
 112:src/main.cpp  ****         semaphore::semWait(tabacco);
 209              		.loc 1 112 27 is_stmt 0 discriminator 1
GAS LISTING /tmp/ccbmCWrB.s 			page 8


 210 0130 97040000 		lla	s1,.LANCHOR0
 210      93840400 
 211 0138 03B58402 		ld	a0,40(s1)
 212 013c 97000000 		call	_ZN9semaphore7semWaitEPS_@plt
 212      E7800000 
 213              	.LVL22:
 113:src/main.cpp  ****         semaphore::semWait(mutex);
 214              		.loc 1 113 9 is_stmt 1 discriminator 1
 113:src/main.cpp  ****         semaphore::semWait(mutex);
 215              		.loc 1 113 27 is_stmt 0 discriminator 1
 216 0144 03B50401 		ld	a0,16(s1)
 217 0148 97000000 		call	_ZN9semaphore7semWaitEPS_@plt
 217      E7800000 
 218              	.LVL23:
 114:src/main.cpp  ****         printString("sibiceee i papirr cigaraaa\n");
 219              		.loc 1 114 9 is_stmt 1 discriminator 1
 114:src/main.cpp  ****         printString("sibiceee i papirr cigaraaa\n");
 220              		.loc 1 114 20 is_stmt 0 discriminator 1
 221 0150 17050000 		lla	a0,.LC4
 221      13050500 
 222 0158 97000000 		call	_Z11printStringPKc@plt
 222      E7800000 
 223              	.LVL24:
 115:src/main.cpp  ****         semaphore::semSignal(agent);
 224              		.loc 1 115 9 is_stmt 1 discriminator 1
 115:src/main.cpp  ****         semaphore::semSignal(agent);
 225              		.loc 1 115 29 is_stmt 0 discriminator 1
 226 0160 03B58401 		ld	a0,24(s1)
 227 0164 97000000 		call	_ZN9semaphore9semSignalEPS_@plt
 227      E7800000 
 228              	.LVL25:
 116:src/main.cpp  ****         semaphore::semSignal(mutex);
 229              		.loc 1 116 9 is_stmt 1 discriminator 1
 116:src/main.cpp  ****         semaphore::semSignal(mutex);
 230              		.loc 1 116 29 is_stmt 0 discriminator 1
 231 016c 03B50401 		ld	a0,16(s1)
 232 0170 97000000 		call	_ZN9semaphore9semSignalEPS_@plt
 232      E7800000 
 233              	.LVL26:
 111:src/main.cpp  ****     while (true){
 234              		.loc 1 111 5 is_stmt 1 discriminator 1
 235 0178 6FF09FFB 		j	.L12
 236              		.cfi_endproc
 237              	.LFE49:
 239              		.section	.rodata.str1.8
 240 0094 00000000 		.align	3
 241              	.LC5:
 242 0098 64757661 		.string	"duvan i papir\n"
 242      6E206920 
 242      70617069 
 242      720A00
 243 00a7 00       		.align	3
 244              	.LC6:
 245 00a8 64757661 		.string	"duvan i sibice\n"
 245      6E206920 
 245      73696269 
 245      63650A00 
GAS LISTING /tmp/ccbmCWrB.s 			page 9


 246              		.align	3
 247              	.LC7:
 248 00b8 73696269 		.string	"sibice i papir\n"
 248      63652069 
 248      20706170 
 248      69720A00 
 249              		.text
 250              		.align	2
 251              		.globl	_Z8agentfunPv
 253              	_Z8agentfunPv:
 254              	.LFB46:
  63:src/main.cpp  **** void agentfun(void *args){
 255              		.loc 1 63 26
 256              		.cfi_startproc
 257              	.LVL27:
 258 017c 130101FE 		addi	sp,sp,-32
 259              		.cfi_def_cfa_offset 32
 260 0180 233C1100 		sd	ra,24(sp)
 261 0184 23388100 		sd	s0,16(sp)
 262 0188 23349100 		sd	s1,8(sp)
 263 018c 23302101 		sd	s2,0(sp)
 264              		.cfi_offset 1, -8
 265              		.cfi_offset 8, -16
 266              		.cfi_offset 9, -24
 267              		.cfi_offset 18, -32
 268 0190 13040102 		addi	s0,sp,32
 269              		.cfi_def_cfa 8, 0
  64:src/main.cpp  ****     int i=0;
 270              		.loc 1 64 5
 271              	.LVL28:
  64:src/main.cpp  ****     int i=0;
 272              		.loc 1 64 9 is_stmt 0
 273 0194 93040000 		li	s1,0
 274 0198 6F004009 		j	.L19
 275              	.LVL29:
 276              	.L21:
  68:src/main.cpp  ****             case 0:
 277              		.loc 1 68 13 is_stmt 1
  69:src/main.cpp  ****                 printString("duvan i papir\n");
 278              		.loc 1 69 17
  69:src/main.cpp  ****                 printString("duvan i papir\n");
 279              		.loc 1 69 28 is_stmt 0
 280 019c 17050000 		lla	a0,.LC5
 280      13050500 
 281 01a4 97000000 		call	_Z11printStringPKc@plt
 281      E7800000 
 282              	.LVL30:
  70:src/main.cpp  ****                 semaphore::semSignal(matches);
 283              		.loc 1 70 17 is_stmt 1
  70:src/main.cpp  ****                 semaphore::semSignal(matches);
 284              		.loc 1 70 37 is_stmt 0
 285 01ac 17050000 		ld	a0,.LANCHOR0+32
 285      03350500 
 286 01b4 97000000 		call	_ZN9semaphore9semSignalEPS_@plt
 286      E7800000 
 287              	.LVL31:
  71:src/main.cpp  ****                 break;
GAS LISTING /tmp/ccbmCWrB.s 			page 10


 288              		.loc 1 71 17 is_stmt 1
 289 01bc 6F00C009 		j	.L17
 290              	.L15:
  72:src/main.cpp  ****             case 1:
 291              		.loc 1 72 13
  73:src/main.cpp  ****                 printString("duvan i sibice\n");
 292              		.loc 1 73 17
  73:src/main.cpp  ****                 printString("duvan i sibice\n");
 293              		.loc 1 73 28 is_stmt 0
 294 01c0 17050000 		lla	a0,.LC6
 294      13050500 
 295 01c8 97000000 		call	_Z11printStringPKc@plt
 295      E7800000 
 296              	.LVL32:
  74:src/main.cpp  ****                 semaphore::semSignal(paper);
 297              		.loc 1 74 17 is_stmt 1
  74:src/main.cpp  ****                 semaphore::semSignal(paper);
 298              		.loc 1 74 37 is_stmt 0
 299 01d0 17050000 		ld	a0,.LANCHOR0+8
 299      03350500 
 300 01d8 97000000 		call	_ZN9semaphore9semSignalEPS_@plt
 300      E7800000 
 301              	.LVL33:
  75:src/main.cpp  ****                 break;
 302              		.loc 1 75 17 is_stmt 1
 303 01e0 6F008007 		j	.L17
 304              	.L16:
  76:src/main.cpp  ****             case 2:
 305              		.loc 1 76 13
  77:src/main.cpp  ****                 printString("sibice i papir\n");
 306              		.loc 1 77 17
  77:src/main.cpp  ****                 printString("sibice i papir\n");
 307              		.loc 1 77 28 is_stmt 0
 308 01e4 17050000 		lla	a0,.LC7
 308      13050500 
 309 01ec 97000000 		call	_Z11printStringPKc@plt
 309      E7800000 
 310              	.LVL34:
  78:src/main.cpp  ****                 semaphore::semSignal(tabacco);
 311              		.loc 1 78 17 is_stmt 1
  78:src/main.cpp  ****                 semaphore::semSignal(tabacco);
 312              		.loc 1 78 37 is_stmt 0
 313 01f4 17050000 		ld	a0,.LANCHOR0+40
 313      03350500 
 314 01fc 97000000 		call	_ZN9semaphore9semSignalEPS_@plt
 314      E7800000 
 315              	.LVL35:
  79:src/main.cpp  ****                 break;
 316              		.loc 1 79 17 is_stmt 1
 317 0204 6F004005 		j	.L17
 318              	.L18:
  82:src/main.cpp  ****         i++;
 319              		.loc 1 82 9
  82:src/main.cpp  ****         i++;
 320              		.loc 1 82 10 is_stmt 0
 321 0208 9B841400 		addiw	s1,s1,1
 322              	.LVL36:
GAS LISTING /tmp/ccbmCWrB.s 			page 11


  83:src/main.cpp  ****         semaphore::semSignal(mutex);
 323              		.loc 1 83 9 is_stmt 1
  83:src/main.cpp  ****         semaphore::semSignal(mutex);
 324              		.loc 1 83 29 is_stmt 0
 325 020c 17090000 		lla	s2,.LANCHOR0
 325      13090900 
 326 0214 03350901 		ld	a0,16(s2)
 327 0218 97000000 		call	_ZN9semaphore9semSignalEPS_@plt
 327      E7800000 
 328              	.LVL37:
  84:src/main.cpp  ****         semaphore::semWait(agent);
 329              		.loc 1 84 9 is_stmt 1
  84:src/main.cpp  ****         semaphore::semWait(agent);
 330              		.loc 1 84 27 is_stmt 0
 331 0220 03358901 		ld	a0,24(s2)
 332 0224 97000000 		call	_ZN9semaphore7semWaitEPS_@plt
 332      E7800000 
 333              	.LVL38:
  65:src/main.cpp  ****     while (true){
 334              		.loc 1 65 5 is_stmt 1
 335              	.L19:
  65:src/main.cpp  ****     while (true){
 336              		.loc 1 65 5
  66:src/main.cpp  ****         semaphore::semWait(mutex);
 337              		.loc 1 66 9
  66:src/main.cpp  ****         semaphore::semWait(mutex);
 338              		.loc 1 66 27 is_stmt 0
 339 022c 17050000 		ld	a0,.LANCHOR0+16
 339      03350500 
 340 0234 97000000 		call	_ZN9semaphore7semWaitEPS_@plt
 340      E7800000 
 341              	.LVL39:
  67:src/main.cpp  ****         switch (i%3) {
 342              		.loc 1 67 9 is_stmt 1
  67:src/main.cpp  ****         switch (i%3) {
 343              		.loc 1 67 18 is_stmt 0
 344 023c 93073000 		li	a5,3
 345 0240 BBE7F402 		remw	a5,s1,a5
  67:src/main.cpp  ****         switch (i%3) {
 346              		.loc 1 67 9
 347 0244 13071000 		li	a4,1
 348 0248 E38CE7F6 		beq	a5,a4,.L15
 349 024c 13072000 		li	a4,2
 350 0250 E38AE7F8 		beq	a5,a4,.L16
 351 0254 E38407F4 		beqz	a5,.L21
 352              	.L17:
  81:src/main.cpp  ****         if(i==50) semaphore::semClose(dummy);
 353              		.loc 1 81 9 is_stmt 1
 354 0258 93072003 		li	a5,50
 355 025c E396F4FA 		bne	s1,a5,.L18
  81:src/main.cpp  ****         if(i==50) semaphore::semClose(dummy);
 356              		.loc 1 81 19 discriminator 1
  81:src/main.cpp  ****         if(i==50) semaphore::semClose(dummy);
 357              		.loc 1 81 38 is_stmt 0 discriminator 1
 358 0260 17050000 		ld	a0,.LANCHOR0
 358      03350500 
 359 0268 97000000 		call	_ZN9semaphore8semCloseEPS_@plt
GAS LISTING /tmp/ccbmCWrB.s 			page 12


 359      E7800000 
 360              	.LVL40:
 361 0270 6FF09FF9 		j	.L18
 362              		.cfi_endproc
 363              	.LFE46:
 365              		.section	.rodata.str1.8
 366              		.align	3
 367              	.LC8:
 368 00c8 75626965 		.string	"ubien semafor\n"
 368      6E207365 
 368      6D61666F 
 368      720A00
 369              		.text
 370              		.align	2
 371              		.globl	main
 373              	main:
 374              	.LFB45:
  21:src/main.cpp  **** int main(){
 375              		.loc 1 21 11 is_stmt 1
 376              		.cfi_startproc
 377 0274 130101F9 		addi	sp,sp,-112
 378              		.cfi_def_cfa_offset 112
 379 0278 23341106 		sd	ra,104(sp)
 380 027c 23308106 		sd	s0,96(sp)
 381 0280 233C9104 		sd	s1,88(sp)
 382              		.cfi_offset 1, -8
 383              		.cfi_offset 8, -16
 384              		.cfi_offset 9, -24
 385 0284 13040107 		addi	s0,sp,112
 386              		.cfi_def_cfa 8, 0
  22:src/main.cpp  ****     MemoryAllocation* mem_obj;
 387              		.loc 1 22 5
  23:src/main.cpp  ****     mem_obj = mem_obj->getInstance();
 388              		.loc 1 23 5
 389              		.file 2 "src/../h/../h/../h/MemoryAllocation.hpp"
   1:src/../h/../h/../h/MemoryAllocation.hpp **** #include "../lib/hw.h"
   2:src/../h/../h/../h/MemoryAllocation.hpp **** 
   3:src/../h/../h/../h/MemoryAllocation.hpp **** 
   4:src/../h/../h/../h/MemoryAllocation.hpp **** #ifndef PROJECT_BASE_MEMORYALLOCATION_HPP
   5:src/../h/../h/../h/MemoryAllocation.hpp **** #define PROJECT_BASE_MEMORYALLOCATION_HPP
   6:src/../h/../h/../h/MemoryAllocation.hpp **** 
   7:src/../h/../h/../h/MemoryAllocation.hpp **** 
   8:src/../h/../h/../h/MemoryAllocation.hpp **** class MemoryAllocation {
   9:src/../h/../h/../h/MemoryAllocation.hpp **** 
  10:src/../h/../h/../h/MemoryAllocation.hpp ****     //===========================DEFINICIJA SINGLETON KLASE POCETAK=======================k
  11:src/../h/../h/../h/MemoryAllocation.hpp **** private:
  12:src/../h/../h/../h/MemoryAllocation.hpp **** 
  13:src/../h/../h/../h/MemoryAllocation.hpp ****     struct FreeMem {
  14:src/../h/../h/../h/MemoryAllocation.hpp ****         FreeMem *next;
  15:src/../h/../h/../h/MemoryAllocation.hpp ****         FreeMem *prev;
  16:src/../h/../h/../h/MemoryAllocation.hpp ****         size_t size;
  17:src/../h/../h/../h/MemoryAllocation.hpp ****     };
  18:src/../h/../h/../h/MemoryAllocation.hpp **** 
  19:src/../h/../h/../h/MemoryAllocation.hpp **** 
  20:src/../h/../h/../h/MemoryAllocation.hpp ****     static FreeMem *fmem_head; //koja pocetna vrednost?
  21:src/../h/../h/../h/MemoryAllocation.hpp **** 
  22:src/../h/../h/../h/MemoryAllocation.hpp **** 
GAS LISTING /tmp/ccbmCWrB.s 			page 13


  23:src/../h/../h/../h/MemoryAllocation.hpp **** 
  24:src/../h/../h/../h/MemoryAllocation.hpp ****     static MemoryAllocation *instance;
  25:src/../h/../h/../h/MemoryAllocation.hpp ****     int data;
  26:src/../h/../h/../h/MemoryAllocation.hpp **** 
  27:src/../h/../h/../h/MemoryAllocation.hpp **** 
  28:src/../h/../h/../h/MemoryAllocation.hpp ****     MemoryAllocation() { //OVO SE SADA NIGGDE
  29:src/../h/../h/../h/MemoryAllocation.hpp ****         fmem_head->size = (size_t) ((char *) HEAP_END_ADDR -
  30:src/../h/../h/../h/MemoryAllocation.hpp ****                                     (char *) HEAP_START_ADDR); //da li smem ovo da castujem u size_
  31:src/../h/../h/../h/MemoryAllocation.hpp ****         fmem_head->next = nullptr;
  32:src/../h/../h/../h/MemoryAllocation.hpp ****         fmem_head->prev = nullptr;
  33:src/../h/../h/../h/MemoryAllocation.hpp ****         data = 0;
  34:src/../h/../h/../h/MemoryAllocation.hpp ****     }
  35:src/../h/../h/../h/MemoryAllocation.hpp **** 
  36:src/../h/../h/../h/MemoryAllocation.hpp ****     MemoryAllocation(MemoryAllocation const &);
  37:src/../h/../h/../h/MemoryAllocation.hpp **** 
  38:src/../h/../h/../h/MemoryAllocation.hpp ****     void operator=(MemoryAllocation const &);
  39:src/../h/../h/../h/MemoryAllocation.hpp **** 
  40:src/../h/../h/../h/MemoryAllocation.hpp **** public:
  41:src/../h/../h/../h/MemoryAllocation.hpp **** 
  42:src/../h/../h/../h/MemoryAllocation.hpp **** 
  43:src/../h/../h/../h/MemoryAllocation.hpp ****     static MemoryAllocation *getInstance() {
  44:src/../h/../h/../h/MemoryAllocation.hpp ****         if (!instance) {
 390              		.loc 2 44 9
 391              	.LBB9:
 392              	.LBB10:
 393              		.loc 2 44 13 is_stmt 0
 394 0288 97070000 		la	a5,_ZN16MemoryAllocation8instanceE
 394      83B70700 
 395 0290 83B70700 		ld	a5,0(a5)
 396              		.loc 2 44 9
 397 0294 638A0718 		beqz	a5,.L28
 398              	.L23:
 399              	.LBE10:
 400              	.LBE9:
  24:src/main.cpp  ****     RiscV::w_stvec((uint64) &RiscV::supervisorTrap);
 401              		.loc 1 24 5 is_stmt 1
  24:src/main.cpp  ****     RiscV::w_stvec((uint64) &RiscV::supervisorTrap);
 402              		.loc 1 24 19 is_stmt 0
 403 0298 97070000 		la	a5,_ZN5RiscV14supervisorTrapEv
 403      83B70700 
 404              	.LVL41:
 405              	.LBB13:
 406              	.LBB14:
 407              		.file 3 "src/../h/RiscV.hpp"
   1:src/../h/RiscV.hpp **** //
   2:src/../h/RiscV.hpp **** // Created by os on 8/14/22.
   3:src/../h/RiscV.hpp **** //
   4:src/../h/RiscV.hpp **** 
   5:src/../h/RiscV.hpp **** #ifndef PROJECT_BASE_RISCV_HPP
   6:src/../h/RiscV.hpp **** #define PROJECT_BASE_RISCV_HPP
   7:src/../h/RiscV.hpp **** #include "../lib/hw.h"
   8:src/../h/RiscV.hpp **** 
   9:src/../h/RiscV.hpp **** class RiscV {
  10:src/../h/RiscV.hpp **** public:
  11:src/../h/RiscV.hpp ****     //pop sstatus.spp and sstatus.spie bits(mora da bude ne inline funkcija)
  12:src/../h/RiscV.hpp ****     static void popSppSpie();
  13:src/../h/RiscV.hpp **** 
GAS LISTING /tmp/ccbmCWrB.s 			page 14


  14:src/../h/RiscV.hpp ****     //push x3...x31 registers on stack
  15:src/../h/RiscV.hpp ****     static void pushRegisters();
  16:src/../h/RiscV.hpp **** 
  17:src/../h/RiscV.hpp ****     //pop x3...x31 registers on stack
  18:src/../h/RiscV.hpp ****     static void popRegisters();
  19:src/../h/RiscV.hpp **** 
  20:src/../h/RiscV.hpp ****     //read register scause
  21:src/../h/RiscV.hpp ****     static uint64 r_scause();
  22:src/../h/RiscV.hpp **** 
  23:src/../h/RiscV.hpp ****     //write register scause
  24:src/../h/RiscV.hpp ****     static void w_scause(uint64 scause);
  25:src/../h/RiscV.hpp **** 
  26:src/../h/RiscV.hpp ****     //read register sepc
  27:src/../h/RiscV.hpp ****     static uint64 r_sepc();
  28:src/../h/RiscV.hpp **** 
  29:src/../h/RiscV.hpp ****     //write register sepc
  30:src/../h/RiscV.hpp ****     static void w_sepc(uint64 sepc);
  31:src/../h/RiscV.hpp **** 
  32:src/../h/RiscV.hpp ****     //read register stvec
  33:src/../h/RiscV.hpp ****     static uint64 r_stvec();
  34:src/../h/RiscV.hpp **** 
  35:src/../h/RiscV.hpp ****     //write register stvec
  36:src/../h/RiscV.hpp ****     static void w_stvec(uint64 stvec);
  37:src/../h/RiscV.hpp **** 
  38:src/../h/RiscV.hpp ****     //write register stval
  39:src/../h/RiscV.hpp ****     static uint64 r_stval();
  40:src/../h/RiscV.hpp **** 
  41:src/../h/RiscV.hpp ****     //write register stval
  42:src/../h/RiscV.hpp ****     static void w_stval(uint64 stval);
  43:src/../h/RiscV.hpp **** 
  44:src/../h/RiscV.hpp ****     enum BitMaskSip{
  45:src/../h/RiscV.hpp ****         SIP_SSIP = (1 << 1),
  46:src/../h/RiscV.hpp ****         SIP_STIP = (1 << 5),
  47:src/../h/RiscV.hpp ****         SIP_SEIP = (1 << 9),
  48:src/../h/RiscV.hpp ****     };
  49:src/../h/RiscV.hpp **** 
  50:src/../h/RiscV.hpp ****     //mask set register sip
  51:src/../h/RiscV.hpp ****     static void ms_sip(uint64 mask);
  52:src/../h/RiscV.hpp **** 
  53:src/../h/RiscV.hpp ****     //mask clear register sip
  54:src/../h/RiscV.hpp ****     static void mc_sip(uint64 mask);
  55:src/../h/RiscV.hpp **** 
  56:src/../h/RiscV.hpp ****     //read register sip
  57:src/../h/RiscV.hpp ****     static uint64 r_sip();
  58:src/../h/RiscV.hpp **** 
  59:src/../h/RiscV.hpp ****     //write register sip
  60:src/../h/RiscV.hpp ****     static void w_sip(uint64 sip);
  61:src/../h/RiscV.hpp **** 
  62:src/../h/RiscV.hpp ****     enum BitMaskSstatus{
  63:src/../h/RiscV.hpp ****         SSTATUS_SIE = (1<<1),
  64:src/../h/RiscV.hpp ****         SSTATUS_SPIE = (1<<5),
  65:src/../h/RiscV.hpp ****         SSTATUS_SPP=  (1<<8),
  66:src/../h/RiscV.hpp ****     };
  67:src/../h/RiscV.hpp **** 
  68:src/../h/RiscV.hpp ****     //mask set register sstatus
  69:src/../h/RiscV.hpp ****     static void ms_sstatus(uint64 mask);
  70:src/../h/RiscV.hpp **** 
GAS LISTING /tmp/ccbmCWrB.s 			page 15


  71:src/../h/RiscV.hpp ****     //mask clear register sstatus
  72:src/../h/RiscV.hpp ****     static void mc_sstatus(uint64 mask);
  73:src/../h/RiscV.hpp **** 
  74:src/../h/RiscV.hpp ****     //read register sstatus
  75:src/../h/RiscV.hpp ****     static uint64 r_sstatus();
  76:src/../h/RiscV.hpp **** 
  77:src/../h/RiscV.hpp ****     //write register sstatus
  78:src/../h/RiscV.hpp ****     static void w_sstatus(uint64 sstatus);
  79:src/../h/RiscV.hpp **** 
  80:src/../h/RiscV.hpp ****     static void supervisorTrap();
  81:src/../h/RiscV.hpp **** 
  82:src/../h/RiscV.hpp **** private:
  83:src/../h/RiscV.hpp ****     //obradjuje trap handler
  84:src/../h/RiscV.hpp ****     static void handleSupervisorTrap();
  85:src/../h/RiscV.hpp **** };
  86:src/../h/RiscV.hpp **** 
  87:src/../h/RiscV.hpp **** inline uint64 RiscV::r_scause() {
  88:src/../h/RiscV.hpp ****     uint64 volatile scause;
  89:src/../h/RiscV.hpp ****     __asm__ volatile("csrr %[scause], scause" : [scause] "=r"(scause));
  90:src/../h/RiscV.hpp ****     return scause;
  91:src/../h/RiscV.hpp **** 
  92:src/../h/RiscV.hpp **** }
  93:src/../h/RiscV.hpp **** 
  94:src/../h/RiscV.hpp **** inline void RiscV::w_scause(uint64 scause){
  95:src/../h/RiscV.hpp ****     __asm__ volatile("csrw scause, %[scause]": : [scause] "r"(scause));
  96:src/../h/RiscV.hpp **** 
  97:src/../h/RiscV.hpp **** }
  98:src/../h/RiscV.hpp **** 
  99:src/../h/RiscV.hpp **** inline uint64 RiscV::r_sepc(){
 100:src/../h/RiscV.hpp ****     uint64  sepc;
 101:src/../h/RiscV.hpp ****     __asm__ volatile("csrr %[sepc], sepc" : [sepc] "=r"(sepc));
 102:src/../h/RiscV.hpp ****     return sepc;
 103:src/../h/RiscV.hpp **** }
 104:src/../h/RiscV.hpp **** 
 105:src/../h/RiscV.hpp **** inline void RiscV::w_sepc(uint64 volatile sepc){
 106:src/../h/RiscV.hpp ****     __asm__ volatile ("csrw sepc, %[sepc]": : [sepc] "r"(sepc));
 107:src/../h/RiscV.hpp **** }
 108:src/../h/RiscV.hpp **** 
 109:src/../h/RiscV.hpp **** inline uint64 RiscV::r_stvec() {
 110:src/../h/RiscV.hpp ****     uint64 volatile stvec;
 111:src/../h/RiscV.hpp ****     __asm__ volatile ("csrr %[stvec], stvec": [stvec] "=r"(stvec));
 112:src/../h/RiscV.hpp ****     return stvec;
 113:src/../h/RiscV.hpp **** }
 114:src/../h/RiscV.hpp **** 
 115:src/../h/RiscV.hpp **** inline void RiscV::w_stvec(uint64 stvec){
 116:src/../h/RiscV.hpp ****     __asm__ volatile ("csrw stvec, %[stvec]": : [stvec] "r"(stvec));
 408              		.loc 3 116 5 is_stmt 1
 409              		.loc 3 116 68 is_stmt 0
 410              	#APP
 411              	# 116 "src/../h/RiscV.hpp" 1
 117              	}
 412              		csrw stvec, a5
 413              	# 0 "" 2
 414              	.LVL42:
 415              	#NO_APP
 416              	.LBE14:
 417              	.LBE13:
GAS LISTING /tmp/ccbmCWrB.s 			page 16


  25:src/main.cpp  ****     thread_t main;
 418              		.loc 1 25 5 is_stmt 1
  26:src/main.cpp  ****     thread_create(&main, nullptr, nullptr);
 419              		.loc 1 26 5
  26:src/main.cpp  ****     thread_create(&main, nullptr, nullptr);
 420              		.loc 1 26 18 is_stmt 0
 421 02a4 13060000 		li	a2,0
 422 02a8 93050000 		li	a1,0
 423 02ac 130584FD 		addi	a0,s0,-40
 424 02b0 97000000 		call	_Z13thread_createPP3TCBPFvPvES2_@plt
 424      E7800000 
 425              	.LVL43:
  27:src/main.cpp  ****     TCB::running = main;
 426              		.loc 1 27 5 is_stmt 1
  27:src/main.cpp  ****     TCB::running = main;
 427              		.loc 1 27 18 is_stmt 0
 428 02b8 97070000 		la	a5,_ZN3TCB7runningE
 428      83B70700 
 429 02c0 033784FD 		ld	a4,-40(s0)
 430 02c4 23B0E700 		sd	a4,0(a5)
  29:src/main.cpp  ****     semaphore::semOpen(&mutex,1);
 431              		.loc 1 29 5 is_stmt 1
  29:src/main.cpp  ****     semaphore::semOpen(&mutex,1);
 432              		.loc 1 29 23 is_stmt 0
 433 02c8 93051000 		li	a1,1
 434 02cc 17050000 		lla	a0,.LANCHOR0+16
 434      13050500 
 435 02d4 97000000 		call	_ZN9semaphore7semOpenEPPS_i@plt
 435      E7800000 
 436              	.LVL44:
  30:src/main.cpp  ****     semaphore::semOpen(&paper,0);
 437              		.loc 1 30 5 is_stmt 1
  30:src/main.cpp  ****     semaphore::semOpen(&paper,0);
 438              		.loc 1 30 23 is_stmt 0
 439 02dc 93050000 		li	a1,0
 440 02e0 17050000 		lla	a0,.LANCHOR0+8
 440      13050500 
 441 02e8 97000000 		call	_ZN9semaphore7semOpenEPPS_i@plt
 441      E7800000 
 442              	.LVL45:
  32:src/main.cpp  ****     semaphore::semOpen(&matches, 0);
 443              		.loc 1 32 5 is_stmt 1
  32:src/main.cpp  ****     semaphore::semOpen(&matches, 0);
 444              		.loc 1 32 23 is_stmt 0
 445 02f0 93050000 		li	a1,0
 446 02f4 17050000 		lla	a0,.LANCHOR0+32
 446      13050500 
 447 02fc 97000000 		call	_ZN9semaphore7semOpenEPPS_i@plt
 447      E7800000 
 448              	.LVL46:
  33:src/main.cpp  ****     semaphore::semOpen(&agent,0);
 449              		.loc 1 33 5 is_stmt 1
  33:src/main.cpp  ****     semaphore::semOpen(&agent,0);
 450              		.loc 1 33 23 is_stmt 0
 451 0304 93050000 		li	a1,0
 452 0308 17050000 		lla	a0,.LANCHOR0+24
 452      13050500 
GAS LISTING /tmp/ccbmCWrB.s 			page 17


 453 0310 97000000 		call	_ZN9semaphore7semOpenEPPS_i@plt
 453      E7800000 
 454              	.LVL47:
  34:src/main.cpp  ****     semaphore::semOpen(&tabacco,0);
 455              		.loc 1 34 5 is_stmt 1
  34:src/main.cpp  ****     semaphore::semOpen(&tabacco,0);
 456              		.loc 1 34 23 is_stmt 0
 457 0318 93050000 		li	a1,0
 458 031c 17050000 		lla	a0,.LANCHOR0+40
 458      13050500 
 459 0324 97000000 		call	_ZN9semaphore7semOpenEPPS_i@plt
 459      E7800000 
 460              	.LVL48:
  36:src/main.cpp  ****     thread_t t= nullptr;
 461              		.loc 1 36 5 is_stmt 1
  36:src/main.cpp  ****     thread_t t= nullptr;
 462              		.loc 1 36 14 is_stmt 0
 463 032c 233804FC 		sd	zero,-48(s0)
  37:src/main.cpp  ****     thread_t t1= nullptr;
 464              		.loc 1 37 5 is_stmt 1
  37:src/main.cpp  ****     thread_t t1= nullptr;
 465              		.loc 1 37 14 is_stmt 0
 466 0330 233404FC 		sd	zero,-56(s0)
  38:src/main.cpp  ****     thread_t t2= nullptr;
 467              		.loc 1 38 5 is_stmt 1
  38:src/main.cpp  ****     thread_t t2= nullptr;
 468              		.loc 1 38 14 is_stmt 0
 469 0334 233004FC 		sd	zero,-64(s0)
  39:src/main.cpp  ****     thread_t t3= nullptr;
 470              		.loc 1 39 5 is_stmt 1
  39:src/main.cpp  ****     thread_t t3= nullptr;
 471              		.loc 1 39 14 is_stmt 0
 472 0338 233C04FA 		sd	zero,-72(s0)
  41:src/main.cpp  ****     thread_create(&t, agentfun, nullptr);
 473              		.loc 1 41 5 is_stmt 1
  41:src/main.cpp  ****     thread_create(&t, agentfun, nullptr);
 474              		.loc 1 41 18 is_stmt 0
 475 033c 13060000 		li	a2,0
 476 0340 97050000 		lla	a1,_Z8agentfunPv
 476      93850500 
 477 0348 130504FD 		addi	a0,s0,-48
 478 034c 97000000 		call	_Z13thread_createPP3TCBPFvPvES2_@plt
 478      E7800000 
 479              	.LVL49:
  42:src/main.cpp  ****     thread_create(&t1, smoker1, nullptr);
 480              		.loc 1 42 5 is_stmt 1
  42:src/main.cpp  ****     thread_create(&t1, smoker1, nullptr);
 481              		.loc 1 42 18 is_stmt 0
 482 0354 13060000 		li	a2,0
 483 0358 97050000 		lla	a1,_Z7smoker1Pv
 483      93850500 
 484 0360 130584FC 		addi	a0,s0,-56
 485 0364 97000000 		call	_Z13thread_createPP3TCBPFvPvES2_@plt
 485      E7800000 
 486              	.LVL50:
  43:src/main.cpp  ****     thread_create(&t2, smoker2, nullptr);
 487              		.loc 1 43 5 is_stmt 1
GAS LISTING /tmp/ccbmCWrB.s 			page 18


  43:src/main.cpp  ****     thread_create(&t2, smoker2, nullptr);
 488              		.loc 1 43 18 is_stmt 0
 489 036c 13060000 		li	a2,0
 490 0370 97050000 		lla	a1,_Z7smoker2Pv
 490      93850500 
 491 0378 130504FC 		addi	a0,s0,-64
 492 037c 97000000 		call	_Z13thread_createPP3TCBPFvPvES2_@plt
 492      E7800000 
 493              	.LVL51:
  44:src/main.cpp  ****     thread_create(&t3, smoker3, nullptr);
 494              		.loc 1 44 5 is_stmt 1
  44:src/main.cpp  ****     thread_create(&t3, smoker3, nullptr);
 495              		.loc 1 44 18 is_stmt 0
 496 0384 13060000 		li	a2,0
 497 0388 97050000 		lla	a1,_Z7smoker3Pv
 497      93850500 
 498 0390 130584FB 		addi	a0,s0,-72
 499 0394 97000000 		call	_Z13thread_createPP3TCBPFvPvES2_@plt
 499      E7800000 
 500              	.LVL52:
  47:src/main.cpp  ****     semaphore::semOpen(&dummy,-1);
 501              		.loc 1 47 5 is_stmt 1
  47:src/main.cpp  ****     semaphore::semOpen(&dummy,-1);
 502              		.loc 1 47 23 is_stmt 0
 503 039c 9305F0FF 		li	a1,-1
 504 03a0 17050000 		lla	a0,.LANCHOR0
 504      13050500 
 505 03a8 97000000 		call	_ZN9semaphore7semOpenEPPS_i@plt
 505      E7800000 
 506              	.LVL53:
  48:src/main.cpp  ****     thread_t tt= nullptr;
 507              		.loc 1 48 5 is_stmt 1
  48:src/main.cpp  ****     thread_t tt= nullptr;
 508              		.loc 1 48 14 is_stmt 0
 509 03b0 233804FA 		sd	zero,-80(s0)
  49:src/main.cpp  ****     thread_t t11= nullptr;
 510              		.loc 1 49 5 is_stmt 1
  49:src/main.cpp  ****     thread_t t11= nullptr;
 511              		.loc 1 49 14 is_stmt 0
 512 03b4 233404FA 		sd	zero,-88(s0)
  50:src/main.cpp  ****     thread_t t21= nullptr;
 513              		.loc 1 50 5 is_stmt 1
  50:src/main.cpp  ****     thread_t t21= nullptr;
 514              		.loc 1 50 14 is_stmt 0
 515 03b8 233004FA 		sd	zero,-96(s0)
  51:src/main.cpp  ****     thread_t t31= nullptr;
 516              		.loc 1 51 5 is_stmt 1
  51:src/main.cpp  ****     thread_t t31= nullptr;
 517              		.loc 1 51 14 is_stmt 0
 518 03bc 233C04F8 		sd	zero,-104(s0)
  53:src/main.cpp  ****     thread_create(&tt, dummyfun, nullptr);
 519              		.loc 1 53 5 is_stmt 1
  53:src/main.cpp  ****     thread_create(&tt, dummyfun, nullptr);
 520              		.loc 1 53 18 is_stmt 0
 521 03c0 13060000 		li	a2,0
 522 03c4 97050000 		lla	a1,_Z8dummyfunPv
 522      93850500 
GAS LISTING /tmp/ccbmCWrB.s 			page 19


 523 03cc 130504FB 		addi	a0,s0,-80
 524 03d0 97000000 		call	_Z13thread_createPP3TCBPFvPvES2_@plt
 524      E7800000 
 525              	.LVL54:
  54:src/main.cpp  ****     thread_create(&t11, dummyfun, nullptr);
 526              		.loc 1 54 5 is_stmt 1
  54:src/main.cpp  ****     thread_create(&t11, dummyfun, nullptr);
 527              		.loc 1 54 18 is_stmt 0
 528 03d8 13060000 		li	a2,0
 529 03dc 97050000 		lla	a1,_Z8dummyfunPv
 529      93850500 
 530 03e4 130584FA 		addi	a0,s0,-88
 531 03e8 97000000 		call	_Z13thread_createPP3TCBPFvPvES2_@plt
 531      E7800000 
 532              	.LVL55:
  55:src/main.cpp  ****     thread_create(&t21, dummyfun, nullptr);
 533              		.loc 1 55 5 is_stmt 1
  55:src/main.cpp  ****     thread_create(&t21, dummyfun, nullptr);
 534              		.loc 1 55 18 is_stmt 0
 535 03f0 13060000 		li	a2,0
 536 03f4 97050000 		lla	a1,_Z8dummyfunPv
 536      93850500 
 537 03fc 130504FA 		addi	a0,s0,-96
 538 0400 97000000 		call	_Z13thread_createPP3TCBPFvPvES2_@plt
 538      E7800000 
 539              	.LVL56:
  56:src/main.cpp  ****     thread_create(&t31, dummyfun, nullptr);
 540              		.loc 1 56 5 is_stmt 1
  56:src/main.cpp  ****     thread_create(&t31, dummyfun, nullptr);
 541              		.loc 1 56 18 is_stmt 0
 542 0408 13060000 		li	a2,0
 543 040c 97050000 		lla	a1,_Z8dummyfunPv
 543      93850500 
 544 0414 130584F9 		addi	a0,s0,-104
 545 0418 97000000 		call	_Z13thread_createPP3TCBPFvPvES2_@plt
 545      E7800000 
 546              	.LVL57:
 547              	.LBB15:
  57:src/main.cpp  ****     for (int i = 0; i < 30; ++i) {
 548              		.loc 1 57 14
 549 0420 93040000 		li	s1,0
 550 0424 6F00C004 		j	.L25
 551              	.L28:
 552              	.LBE15:
 553              	.LBB16:
 554              	.LBB12:
 555              	.LBB11:
  45:src/../h/../h/../h/MemoryAllocation.hpp ****             fmem_head =  (FreeMem*) HEAP_START_ADDR;
 556              		.loc 2 45 13 is_stmt 1
 557              		.loc 2 45 23 is_stmt 0
 558 0428 97070000 		la	a5,HEAP_START_ADDR
 558      83B70700 
 559 0430 83B70700 		ld	a5,0(a5)
 560 0434 97060000 		la	a3,_ZN16MemoryAllocation9fmem_headE
 560      83B60600 
 561 043c 23B0F600 		sd	a5,0(a3)
  46:src/../h/../h/../h/MemoryAllocation.hpp ****             fmem_head->size = (size_t) ((char *) HEAP_END_ADDR -
GAS LISTING /tmp/ccbmCWrB.s 			page 20


 562              		.loc 2 46 13 is_stmt 1
 563              		.loc 2 46 41 is_stmt 0
 564 0440 17070000 		la	a4,HEAP_END_ADDR
 564      03370700 
 565 0448 03370700 		ld	a4,0(a4)
 566              		.loc 2 46 64
 567 044c 3307F740 		sub	a4,a4,a5
 568              		.loc 2 46 29
 569 0450 23B8E700 		sd	a4,16(a5)
  47:src/../h/../h/../h/MemoryAllocation.hpp ****                                         (char *) HEAP_START_ADDR); //da li smem ovo da castujem u s
  48:src/../h/../h/../h/MemoryAllocation.hpp ****             fmem_head->next = nullptr;
 570              		.loc 2 48 13 is_stmt 1
 571              		.loc 2 48 29 is_stmt 0
 572 0454 23B00700 		sd	zero,0(a5)
  49:src/../h/../h/../h/MemoryAllocation.hpp ****             fmem_head->prev = nullptr;
 573              		.loc 2 49 13 is_stmt 1
 574              		.loc 2 49 24 is_stmt 0
 575 0458 83B70600 		ld	a5,0(a3)
 576              		.loc 2 49 29
 577 045c 23B40700 		sd	zero,8(a5)
  50:src/../h/../h/../h/MemoryAllocation.hpp ****             static MemoryAllocation* instance;
 578              		.loc 2 50 13 is_stmt 1
  51:src/../h/../h/../h/MemoryAllocation.hpp ****             return instance;
 579              		.loc 2 51 13
 580              		.loc 2 51 20 is_stmt 0
 581 0460 6FF09FE3 		j	.L23
 582              	.LVL58:
 583              	.L29:
 584              	.LBE11:
 585              	.LBE12:
 586              	.LBE16:
 587              	.LBB17:
  58:src/main.cpp  ****         thread_dispatch();
 588              		.loc 1 58 9 is_stmt 1
  58:src/main.cpp  ****         thread_dispatch();
 589              		.loc 1 58 24 is_stmt 0
 590 0464 97000000 		call	_Z15thread_dispatchv@plt
 590      E7800000 
 591              	.LVL59:
  57:src/main.cpp  ****     for (int i = 0; i < 30; ++i) {
 592              		.loc 1 57 5 is_stmt 1
 593 046c 9B841400 		addiw	s1,s1,1
 594              	.LVL60:
 595              	.L25:
  57:src/main.cpp  ****     for (int i = 0; i < 30; ++i) {
 596              		.loc 1 57 23 discriminator 1
 597 0470 9307D001 		li	a5,29
 598 0474 E3D897FE 		ble	s1,a5,.L29
 599              	.LBE17:
  60:src/main.cpp  ****     if(semaphore::semWait(dummy)==-1) printString("ubien semafor\n");
 600              		.loc 1 60 5
  60:src/main.cpp  ****     if(semaphore::semWait(dummy)==-1) printString("ubien semafor\n");
 601              		.loc 1 60 26 is_stmt 0
 602 0478 17050000 		ld	a0,.LANCHOR0
 602      03350500 
 603 0480 97000000 		call	_ZN9semaphore7semWaitEPS_@plt
 603      E7800000 
GAS LISTING /tmp/ccbmCWrB.s 			page 21


 604              	.LVL61:
  60:src/main.cpp  ****     if(semaphore::semWait(dummy)==-1) printString("ubien semafor\n");
 605              		.loc 1 60 5
 606 0488 9307F0FF 		li	a5,-1
 607 048c 630EF500 		beq	a0,a5,.L30
 608              	.L26:
  61:src/main.cpp  ****     return 0;
 609              		.loc 1 61 5 is_stmt 1
  62:src/main.cpp  **** }
 610              		.loc 1 62 1 is_stmt 0
 611 0490 13050000 		li	a0,0
 612 0494 83308106 		ld	ra,104(sp)
 613              		.cfi_remember_state
 614              		.cfi_restore 1
 615 0498 03340106 		ld	s0,96(sp)
 616              		.cfi_restore 8
 617              		.cfi_def_cfa 2, 112
 618 049c 83348105 		ld	s1,88(sp)
 619              		.cfi_restore 9
 620              	.LVL62:
 621 04a0 13010107 		addi	sp,sp,112
 622              		.cfi_def_cfa_offset 0
 623 04a4 67800000 		jr	ra
 624              	.LVL63:
 625              	.L30:
 626              		.cfi_restore_state
  60:src/main.cpp  ****     if(semaphore::semWait(dummy)==-1) printString("ubien semafor\n");
 627              		.loc 1 60 39 is_stmt 1 discriminator 2
  60:src/main.cpp  ****     if(semaphore::semWait(dummy)==-1) printString("ubien semafor\n");
 628              		.loc 1 60 50 is_stmt 0 discriminator 2
 629 04a8 17050000 		lla	a0,.LC8
 629      13050500 
 630 04b0 97000000 		call	_Z11printStringPKc@plt
 630      E7800000 
 631              	.LVL64:
 632 04b8 6FF09FFD 		j	.L26
 633              		.cfi_endproc
 634              	.LFE45:
 636              		.globl	dummy
 637              		.globl	tabacco
 638              		.globl	paper
 639              		.globl	matches
 640              		.globl	mutex
 641              		.globl	agent
 642              		.bss
 643              		.align	3
 644              		.set	.LANCHOR0,. + 0
 647              	dummy:
 648 0000 00000000 		.zero	8
 648      00000000 
 651              	paper:
 652 0008 00000000 		.zero	8
 652      00000000 
 655              	mutex:
 656 0010 00000000 		.zero	8
 656      00000000 
 659              	agent:
GAS LISTING /tmp/ccbmCWrB.s 			page 22


 660 0018 00000000 		.zero	8
 660      00000000 
 663              	matches:
 664 0020 00000000 		.zero	8
 664      00000000 
 667              	tabacco:
 668 0028 00000000 		.zero	8
 668      00000000 
 669              		.text
 670              	.Letext0:
 671              		.file 4 "src/../lib/hw.h"
 672              		.file 5 "src/../h/tcb.hpp"
 673              		.file 6 "src/../h/../h/semaphore.hpp"
 674              		.file 7 "src/../h/syscall_c.hpp"
 675              		.file 8 "src/../h/Print.hpp"
GAS LISTING /tmp/ccbmCWrB.s 			page 23


DEFINED SYMBOLS
                            *ABS*:0000000000000000 main.cpp
     /tmp/ccbmCWrB.s:17     .text:0000000000000000 _Z8dummyfunPv
     /tmp/ccbmCWrB.s:21     .text:0000000000000000 .L0 
     /tmp/ccbmCWrB.s:22     .text:0000000000000000 .L0 
     /tmp/ccbmCWrB.s:23     .text:0000000000000004 .L0 
     /tmp/ccbmCWrB.s:26     .text:000000000000000c .L0 
     /tmp/ccbmCWrB.s:27     .text:000000000000000c .L0 
     /tmp/ccbmCWrB.s:29     .text:0000000000000010 .L0 
     /tmp/ccbmCWrB.s:31     .text:0000000000000010 .L0 
     /tmp/ccbmCWrB.s:32     .text:0000000000000010 .L0 
     /tmp/ccbmCWrB.s:36     .text:0000000000000020 .L0 
     /tmp/ccbmCWrB.s:41     .text:0000000000000028 .L0 
     /tmp/ccbmCWrB.s:42     .text:0000000000000028 .L0 
     /tmp/ccbmCWrB.s:46     .text:0000000000000038 .L0 
     /tmp/ccbmCWrB.s:47     .text:000000000000003c .L0 
     /tmp/ccbmCWrB.s:48     .text:000000000000003c .L0 
     /tmp/ccbmCWrB.s:50     .text:0000000000000040 .L0 
     /tmp/ccbmCWrB.s:51     .text:0000000000000040 .L0 
     /tmp/ccbmCWrB.s:53     .text:0000000000000044 .L0 
     /tmp/ccbmCWrB.s:57     .text:0000000000000048 .L0 
     /tmp/ccbmCWrB.s:59     .text:0000000000000048 .L0 
     /tmp/ccbmCWrB.s:60     .text:0000000000000048 .L0 
     /tmp/ccbmCWrB.s:65     .text:000000000000005c .L0 
     /tmp/ccbmCWrB.s:76     .text:000000000000005c _Z7smoker1Pv
     /tmp/ccbmCWrB.s:79     .text:000000000000005c .L0 
     /tmp/ccbmCWrB.s:81     .text:000000000000005c .L0 
     /tmp/ccbmCWrB.s:82     .text:0000000000000060 .L0 
     /tmp/ccbmCWrB.s:86     .text:000000000000006c .L0 
     /tmp/ccbmCWrB.s:87     .text:000000000000006c .L0 
     /tmp/ccbmCWrB.s:88     .text:000000000000006c .L0 
     /tmp/ccbmCWrB.s:90     .text:0000000000000070 .L0 
     /tmp/ccbmCWrB.s:94     .text:0000000000000070 .L0 
     /tmp/ccbmCWrB.s:95     .text:0000000000000070 .L0 
     /tmp/ccbmCWrB.s:96     .text:0000000000000070 .L0 
     /tmp/ccbmCWrB.s:101    .text:0000000000000084 .L0 
     /tmp/ccbmCWrB.s:102    .text:0000000000000084 .L0 
     /tmp/ccbmCWrB.s:106    .text:0000000000000090 .L0 
     /tmp/ccbmCWrB.s:107    .text:0000000000000090 .L0 
     /tmp/ccbmCWrB.s:111    .text:00000000000000a0 .L0 
     /tmp/ccbmCWrB.s:112    .text:00000000000000a0 .L0 
     /tmp/ccbmCWrB.s:116    .text:00000000000000ac .L0 
     /tmp/ccbmCWrB.s:117    .text:00000000000000ac .L0 
     /tmp/ccbmCWrB.s:121    .text:00000000000000b8 .L0 
     /tmp/ccbmCWrB.s:122    .text:00000000000000bc .L0 
     /tmp/ccbmCWrB.s:133    .text:00000000000000bc _Z7smoker2Pv
     /tmp/ccbmCWrB.s:136    .text:00000000000000bc .L0 
     /tmp/ccbmCWrB.s:138    .text:00000000000000bc .L0 
     /tmp/ccbmCWrB.s:139    .text:00000000000000c0 .L0 
     /tmp/ccbmCWrB.s:143    .text:00000000000000cc .L0 
     /tmp/ccbmCWrB.s:144    .text:00000000000000cc .L0 
     /tmp/ccbmCWrB.s:145    .text:00000000000000cc .L0 
     /tmp/ccbmCWrB.s:147    .text:00000000000000d0 .L0 
     /tmp/ccbmCWrB.s:151    .text:00000000000000d0 .L0 
     /tmp/ccbmCWrB.s:152    .text:00000000000000d0 .L0 
     /tmp/ccbmCWrB.s:153    .text:00000000000000d0 .L0 
     /tmp/ccbmCWrB.s:158    .text:00000000000000e4 .L0 
GAS LISTING /tmp/ccbmCWrB.s 			page 24


     /tmp/ccbmCWrB.s:159    .text:00000000000000e4 .L0 
     /tmp/ccbmCWrB.s:163    .text:00000000000000f0 .L0 
     /tmp/ccbmCWrB.s:164    .text:00000000000000f0 .L0 
     /tmp/ccbmCWrB.s:168    .text:0000000000000100 .L0 
     /tmp/ccbmCWrB.s:169    .text:0000000000000100 .L0 
     /tmp/ccbmCWrB.s:173    .text:000000000000010c .L0 
     /tmp/ccbmCWrB.s:174    .text:000000000000010c .L0 
     /tmp/ccbmCWrB.s:178    .text:0000000000000118 .L0 
     /tmp/ccbmCWrB.s:179    .text:000000000000011c .L0 
     /tmp/ccbmCWrB.s:190    .text:000000000000011c _Z7smoker3Pv
     /tmp/ccbmCWrB.s:193    .text:000000000000011c .L0 
     /tmp/ccbmCWrB.s:195    .text:000000000000011c .L0 
     /tmp/ccbmCWrB.s:196    .text:0000000000000120 .L0 
     /tmp/ccbmCWrB.s:200    .text:000000000000012c .L0 
     /tmp/ccbmCWrB.s:201    .text:000000000000012c .L0 
     /tmp/ccbmCWrB.s:202    .text:000000000000012c .L0 
     /tmp/ccbmCWrB.s:204    .text:0000000000000130 .L0 
     /tmp/ccbmCWrB.s:208    .text:0000000000000130 .L0 
     /tmp/ccbmCWrB.s:209    .text:0000000000000130 .L0 
     /tmp/ccbmCWrB.s:210    .text:0000000000000130 .L0 
     /tmp/ccbmCWrB.s:215    .text:0000000000000144 .L0 
     /tmp/ccbmCWrB.s:216    .text:0000000000000144 .L0 
     /tmp/ccbmCWrB.s:220    .text:0000000000000150 .L0 
     /tmp/ccbmCWrB.s:221    .text:0000000000000150 .L0 
     /tmp/ccbmCWrB.s:225    .text:0000000000000160 .L0 
     /tmp/ccbmCWrB.s:226    .text:0000000000000160 .L0 
     /tmp/ccbmCWrB.s:230    .text:000000000000016c .L0 
     /tmp/ccbmCWrB.s:231    .text:000000000000016c .L0 
     /tmp/ccbmCWrB.s:235    .text:0000000000000178 .L0 
     /tmp/ccbmCWrB.s:236    .text:000000000000017c .L0 
     /tmp/ccbmCWrB.s:253    .text:000000000000017c _Z8agentfunPv
     /tmp/ccbmCWrB.s:256    .text:000000000000017c .L0 
     /tmp/ccbmCWrB.s:258    .text:000000000000017c .L0 
     /tmp/ccbmCWrB.s:259    .text:0000000000000180 .L0 
     /tmp/ccbmCWrB.s:264    .text:0000000000000190 .L0 
     /tmp/ccbmCWrB.s:265    .text:0000000000000190 .L0 
     /tmp/ccbmCWrB.s:266    .text:0000000000000190 .L0 
     /tmp/ccbmCWrB.s:267    .text:0000000000000190 .L0 
     /tmp/ccbmCWrB.s:269    .text:0000000000000194 .L0 
     /tmp/ccbmCWrB.s:272    .text:0000000000000194 .L0 
     /tmp/ccbmCWrB.s:273    .text:0000000000000194 .L0 
     /tmp/ccbmCWrB.s:278    .text:000000000000019c .L0 
     /tmp/ccbmCWrB.s:279    .text:000000000000019c .L0 
     /tmp/ccbmCWrB.s:280    .text:000000000000019c .L0 
     /tmp/ccbmCWrB.s:284    .text:00000000000001ac .L0 
     /tmp/ccbmCWrB.s:285    .text:00000000000001ac .L0 
     /tmp/ccbmCWrB.s:289    .text:00000000000001bc .L0 
     /tmp/ccbmCWrB.s:292    .text:00000000000001c0 .L0 
     /tmp/ccbmCWrB.s:293    .text:00000000000001c0 .L0 
     /tmp/ccbmCWrB.s:294    .text:00000000000001c0 .L0 
     /tmp/ccbmCWrB.s:298    .text:00000000000001d0 .L0 
     /tmp/ccbmCWrB.s:299    .text:00000000000001d0 .L0 
     /tmp/ccbmCWrB.s:303    .text:00000000000001e0 .L0 
     /tmp/ccbmCWrB.s:306    .text:00000000000001e4 .L0 
     /tmp/ccbmCWrB.s:307    .text:00000000000001e4 .L0 
     /tmp/ccbmCWrB.s:308    .text:00000000000001e4 .L0 
     /tmp/ccbmCWrB.s:312    .text:00000000000001f4 .L0 
GAS LISTING /tmp/ccbmCWrB.s 			page 25


     /tmp/ccbmCWrB.s:313    .text:00000000000001f4 .L0 
     /tmp/ccbmCWrB.s:317    .text:0000000000000204 .L0 
     /tmp/ccbmCWrB.s:320    .text:0000000000000208 .L0 
     /tmp/ccbmCWrB.s:321    .text:0000000000000208 .L0 
     /tmp/ccbmCWrB.s:324    .text:000000000000020c .L0 
     /tmp/ccbmCWrB.s:325    .text:000000000000020c .L0 
     /tmp/ccbmCWrB.s:330    .text:0000000000000220 .L0 
     /tmp/ccbmCWrB.s:331    .text:0000000000000220 .L0 
     /tmp/ccbmCWrB.s:336    .text:000000000000022c .L0 
     /tmp/ccbmCWrB.s:337    .text:000000000000022c .L0 
     /tmp/ccbmCWrB.s:338    .text:000000000000022c .L0 
     /tmp/ccbmCWrB.s:339    .text:000000000000022c .L0 
     /tmp/ccbmCWrB.s:343    .text:000000000000023c .L0 
     /tmp/ccbmCWrB.s:344    .text:000000000000023c .L0 
     /tmp/ccbmCWrB.s:347    .text:0000000000000244 .L0 
     /tmp/ccbmCWrB.s:354    .text:0000000000000258 .L0 
     /tmp/ccbmCWrB.s:357    .text:0000000000000260 .L0 
     /tmp/ccbmCWrB.s:358    .text:0000000000000260 .L0 
     /tmp/ccbmCWrB.s:362    .text:0000000000000274 .L0 
     /tmp/ccbmCWrB.s:373    .text:0000000000000274 main
     /tmp/ccbmCWrB.s:376    .text:0000000000000274 .L0 
     /tmp/ccbmCWrB.s:377    .text:0000000000000274 .L0 
     /tmp/ccbmCWrB.s:378    .text:0000000000000278 .L0 
     /tmp/ccbmCWrB.s:382    .text:0000000000000284 .L0 
     /tmp/ccbmCWrB.s:383    .text:0000000000000284 .L0 
     /tmp/ccbmCWrB.s:384    .text:0000000000000284 .L0 
     /tmp/ccbmCWrB.s:386    .text:0000000000000288 .L0 
     /tmp/ccbmCWrB.s:388    .text:0000000000000288 .L0 
     /tmp/ccbmCWrB.s:390    .text:0000000000000288 .L0 
     /tmp/ccbmCWrB.s:393    .text:0000000000000288 .L0 
     /tmp/ccbmCWrB.s:394    .text:0000000000000288 .L0 
     /tmp/ccbmCWrB.s:397    .text:0000000000000294 .L0 
     /tmp/ccbmCWrB.s:402    .text:0000000000000298 .L0 
     /tmp/ccbmCWrB.s:403    .text:0000000000000298 .L0 
     /tmp/ccbmCWrB.s:409    .text:00000000000002a0 .L0 
  src/../h/RiscV.hpp:116    .text:00000000000002a0 .L0 
     /tmp/ccbmCWrB.s:419    .text:00000000000002a4 .L0 
     /tmp/ccbmCWrB.s:420    .text:00000000000002a4 .L0 
     /tmp/ccbmCWrB.s:421    .text:00000000000002a4 .L0 
     /tmp/ccbmCWrB.s:427    .text:00000000000002b8 .L0 
     /tmp/ccbmCWrB.s:428    .text:00000000000002b8 .L0 
     /tmp/ccbmCWrB.s:432    .text:00000000000002c8 .L0 
     /tmp/ccbmCWrB.s:433    .text:00000000000002c8 .L0 
     /tmp/ccbmCWrB.s:438    .text:00000000000002dc .L0 
     /tmp/ccbmCWrB.s:439    .text:00000000000002dc .L0 
     /tmp/ccbmCWrB.s:444    .text:00000000000002f0 .L0 
     /tmp/ccbmCWrB.s:445    .text:00000000000002f0 .L0 
     /tmp/ccbmCWrB.s:450    .text:0000000000000304 .L0 
     /tmp/ccbmCWrB.s:451    .text:0000000000000304 .L0 
     /tmp/ccbmCWrB.s:456    .text:0000000000000318 .L0 
     /tmp/ccbmCWrB.s:457    .text:0000000000000318 .L0 
     /tmp/ccbmCWrB.s:462    .text:000000000000032c .L0 
     /tmp/ccbmCWrB.s:463    .text:000000000000032c .L0 
     /tmp/ccbmCWrB.s:465    .text:0000000000000330 .L0 
     /tmp/ccbmCWrB.s:466    .text:0000000000000330 .L0 
     /tmp/ccbmCWrB.s:468    .text:0000000000000334 .L0 
     /tmp/ccbmCWrB.s:469    .text:0000000000000334 .L0 
GAS LISTING /tmp/ccbmCWrB.s 			page 26


     /tmp/ccbmCWrB.s:471    .text:0000000000000338 .L0 
     /tmp/ccbmCWrB.s:472    .text:0000000000000338 .L0 
     /tmp/ccbmCWrB.s:474    .text:000000000000033c .L0 
     /tmp/ccbmCWrB.s:475    .text:000000000000033c .L0 
     /tmp/ccbmCWrB.s:481    .text:0000000000000354 .L0 
     /tmp/ccbmCWrB.s:482    .text:0000000000000354 .L0 
     /tmp/ccbmCWrB.s:488    .text:000000000000036c .L0 
     /tmp/ccbmCWrB.s:489    .text:000000000000036c .L0 
     /tmp/ccbmCWrB.s:495    .text:0000000000000384 .L0 
     /tmp/ccbmCWrB.s:496    .text:0000000000000384 .L0 
     /tmp/ccbmCWrB.s:502    .text:000000000000039c .L0 
     /tmp/ccbmCWrB.s:503    .text:000000000000039c .L0 
     /tmp/ccbmCWrB.s:508    .text:00000000000003b0 .L0 
     /tmp/ccbmCWrB.s:509    .text:00000000000003b0 .L0 
     /tmp/ccbmCWrB.s:511    .text:00000000000003b4 .L0 
     /tmp/ccbmCWrB.s:512    .text:00000000000003b4 .L0 
     /tmp/ccbmCWrB.s:514    .text:00000000000003b8 .L0 
     /tmp/ccbmCWrB.s:515    .text:00000000000003b8 .L0 
     /tmp/ccbmCWrB.s:517    .text:00000000000003bc .L0 
     /tmp/ccbmCWrB.s:518    .text:00000000000003bc .L0 
     /tmp/ccbmCWrB.s:520    .text:00000000000003c0 .L0 
     /tmp/ccbmCWrB.s:521    .text:00000000000003c0 .L0 
     /tmp/ccbmCWrB.s:527    .text:00000000000003d8 .L0 
     /tmp/ccbmCWrB.s:528    .text:00000000000003d8 .L0 
     /tmp/ccbmCWrB.s:534    .text:00000000000003f0 .L0 
     /tmp/ccbmCWrB.s:535    .text:00000000000003f0 .L0 
     /tmp/ccbmCWrB.s:541    .text:0000000000000408 .L0 
     /tmp/ccbmCWrB.s:542    .text:0000000000000408 .L0 
     /tmp/ccbmCWrB.s:549    .text:0000000000000420 .L0 
     /tmp/ccbmCWrB.s:557    .text:0000000000000428 .L0 
     /tmp/ccbmCWrB.s:558    .text:0000000000000428 .L0 
     /tmp/ccbmCWrB.s:563    .text:0000000000000440 .L0 
     /tmp/ccbmCWrB.s:564    .text:0000000000000440 .L0 
     /tmp/ccbmCWrB.s:567    .text:000000000000044c .L0 
     /tmp/ccbmCWrB.s:569    .text:0000000000000450 .L0 
     /tmp/ccbmCWrB.s:571    .text:0000000000000454 .L0 
     /tmp/ccbmCWrB.s:572    .text:0000000000000454 .L0 
     /tmp/ccbmCWrB.s:574    .text:0000000000000458 .L0 
     /tmp/ccbmCWrB.s:575    .text:0000000000000458 .L0 
     /tmp/ccbmCWrB.s:577    .text:000000000000045c .L0 
     /tmp/ccbmCWrB.s:579    .text:0000000000000460 .L0 
     /tmp/ccbmCWrB.s:580    .text:0000000000000460 .L0 
     /tmp/ccbmCWrB.s:581    .text:0000000000000460 .L0 
     /tmp/ccbmCWrB.s:589    .text:0000000000000464 .L0 
     /tmp/ccbmCWrB.s:590    .text:0000000000000464 .L0 
     /tmp/ccbmCWrB.s:593    .text:000000000000046c .L0 
     /tmp/ccbmCWrB.s:597    .text:0000000000000470 .L0 
     /tmp/ccbmCWrB.s:601    .text:0000000000000478 .L0 
     /tmp/ccbmCWrB.s:602    .text:0000000000000478 .L0 
     /tmp/ccbmCWrB.s:606    .text:0000000000000488 .L0 
     /tmp/ccbmCWrB.s:610    .text:0000000000000490 .L0 
     /tmp/ccbmCWrB.s:611    .text:0000000000000490 .L0 
     /tmp/ccbmCWrB.s:613    .text:0000000000000498 .L0 
     /tmp/ccbmCWrB.s:614    .text:0000000000000498 .L0 
     /tmp/ccbmCWrB.s:616    .text:000000000000049c .L0 
     /tmp/ccbmCWrB.s:617    .text:000000000000049c .L0 
     /tmp/ccbmCWrB.s:619    .text:00000000000004a0 .L0 
GAS LISTING /tmp/ccbmCWrB.s 			page 27


     /tmp/ccbmCWrB.s:622    .text:00000000000004a4 .L0 
     /tmp/ccbmCWrB.s:626    .text:00000000000004a8 .L0 
     /tmp/ccbmCWrB.s:628    .text:00000000000004a8 .L0 
     /tmp/ccbmCWrB.s:629    .text:00000000000004a8 .L0 
     /tmp/ccbmCWrB.s:633    .text:00000000000004bc .L0 
     /tmp/ccbmCWrB.s:647    .bss:0000000000000000 dummy
     /tmp/ccbmCWrB.s:667    .bss:0000000000000028 tabacco
     /tmp/ccbmCWrB.s:651    .bss:0000000000000008 paper
     /tmp/ccbmCWrB.s:663    .bss:0000000000000020 matches
     /tmp/ccbmCWrB.s:655    .bss:0000000000000010 mutex
     /tmp/ccbmCWrB.s:659    .bss:0000000000000018 agent
     /tmp/ccbmCWrB.s:644    .bss:0000000000000000 .LANCHOR0
     /tmp/ccbmCWrB.s:676    .text:00000000000004bc .L0 
     /tmp/ccbmCWrB.s:32     .text:0000000000000010 .L0 
     /tmp/ccbmCWrB.s:11     .rodata.str1.8:0000000000000028 .LC1
     /tmp/ccbmCWrB.s:42     .text:0000000000000028 .L0 
     /tmp/ccbmCWrB.s:8      .rodata.str1.8:0000000000000000 .LC0
     /tmp/ccbmCWrB.s:60     .text:0000000000000048 .L0 
     /tmp/ccbmCWrB.s:96     .text:0000000000000070 .L0 
     /tmp/ccbmCWrB.s:70     .rodata.str1.8:0000000000000038 .LC2
     /tmp/ccbmCWrB.s:107    .text:0000000000000090 .L0 
     /tmp/ccbmCWrB.s:153    .text:00000000000000d0 .L0 
     /tmp/ccbmCWrB.s:127    .rodata.str1.8:0000000000000058 .LC3
     /tmp/ccbmCWrB.s:164    .text:00000000000000f0 .L0 
     /tmp/ccbmCWrB.s:210    .text:0000000000000130 .L0 
     /tmp/ccbmCWrB.s:184    .rodata.str1.8:0000000000000078 .LC4
     /tmp/ccbmCWrB.s:221    .text:0000000000000150 .L0 
     /tmp/ccbmCWrB.s:241    .rodata.str1.8:0000000000000098 .LC5
     /tmp/ccbmCWrB.s:280    .text:000000000000019c .L0 
     /tmp/ccbmCWrB.s:285    .text:00000000000001ac .L0 
     /tmp/ccbmCWrB.s:244    .rodata.str1.8:00000000000000a8 .LC6
     /tmp/ccbmCWrB.s:294    .text:00000000000001c0 .L0 
     /tmp/ccbmCWrB.s:299    .text:00000000000001d0 .L0 
     /tmp/ccbmCWrB.s:247    .rodata.str1.8:00000000000000b8 .LC7
     /tmp/ccbmCWrB.s:308    .text:00000000000001e4 .L0 
     /tmp/ccbmCWrB.s:313    .text:00000000000001f4 .L0 
     /tmp/ccbmCWrB.s:325    .text:000000000000020c .L0 
     /tmp/ccbmCWrB.s:339    .text:000000000000022c .L0 
     /tmp/ccbmCWrB.s:358    .text:0000000000000260 .L0 
     /tmp/ccbmCWrB.s:394    .text:0000000000000288 .L0 
     /tmp/ccbmCWrB.s:403    .text:0000000000000298 .L0 
     /tmp/ccbmCWrB.s:428    .text:00000000000002b8 .L0 
     /tmp/ccbmCWrB.s:434    .text:00000000000002cc .L0 
     /tmp/ccbmCWrB.s:440    .text:00000000000002e0 .L0 
     /tmp/ccbmCWrB.s:446    .text:00000000000002f4 .L0 
     /tmp/ccbmCWrB.s:452    .text:0000000000000308 .L0 
     /tmp/ccbmCWrB.s:458    .text:000000000000031c .L0 
     /tmp/ccbmCWrB.s:476    .text:0000000000000340 .L0 
     /tmp/ccbmCWrB.s:483    .text:0000000000000358 .L0 
     /tmp/ccbmCWrB.s:490    .text:0000000000000370 .L0 
     /tmp/ccbmCWrB.s:497    .text:0000000000000388 .L0 
     /tmp/ccbmCWrB.s:504    .text:00000000000003a0 .L0 
     /tmp/ccbmCWrB.s:522    .text:00000000000003c4 .L0 
     /tmp/ccbmCWrB.s:529    .text:00000000000003dc .L0 
     /tmp/ccbmCWrB.s:536    .text:00000000000003f4 .L0 
     /tmp/ccbmCWrB.s:543    .text:000000000000040c .L0 
     /tmp/ccbmCWrB.s:558    .text:0000000000000428 .L0 
GAS LISTING /tmp/ccbmCWrB.s 			page 28


     /tmp/ccbmCWrB.s:560    .text:0000000000000434 .L0 
     /tmp/ccbmCWrB.s:564    .text:0000000000000440 .L0 
     /tmp/ccbmCWrB.s:602    .text:0000000000000478 .L0 
     /tmp/ccbmCWrB.s:367    .rodata.str1.8:00000000000000c8 .LC8
     /tmp/ccbmCWrB.s:629    .text:00000000000004a8 .L0 
     /tmp/ccbmCWrB.s:56     .text:0000000000000048 .L4
     /tmp/ccbmCWrB.s:39     .text:0000000000000028 .L2
     /tmp/ccbmCWrB.s:92     .text:0000000000000070 .L6
     /tmp/ccbmCWrB.s:149    .text:00000000000000d0 .L9
     /tmp/ccbmCWrB.s:206    .text:0000000000000130 .L12
     /tmp/ccbmCWrB.s:335    .text:000000000000022c .L19
     /tmp/ccbmCWrB.s:352    .text:0000000000000258 .L17
     /tmp/ccbmCWrB.s:290    .text:00000000000001c0 .L15
     /tmp/ccbmCWrB.s:304    .text:00000000000001e4 .L16
     /tmp/ccbmCWrB.s:276    .text:000000000000019c .L21
     /tmp/ccbmCWrB.s:318    .text:0000000000000208 .L18
     /tmp/ccbmCWrB.s:551    .text:0000000000000428 .L28
     /tmp/ccbmCWrB.s:595    .text:0000000000000470 .L25
     /tmp/ccbmCWrB.s:398    .text:0000000000000298 .L23
     /tmp/ccbmCWrB.s:583    .text:0000000000000464 .L29
     /tmp/ccbmCWrB.s:625    .text:00000000000004a8 .L30
     /tmp/ccbmCWrB.s:608    .text:0000000000000490 .L26
     /tmp/ccbmCWrB.s:2401   .debug_abbrev:0000000000000000 .Ldebug_abbrev0
     /tmp/ccbmCWrB.s:3756   .debug_str:000000000000087f .LASF162
     /tmp/ccbmCWrB.s:3552   .debug_str:000000000000026d .LASF163
     /tmp/ccbmCWrB.s:3564   .debug_str:00000000000002d8 .LASF164
     /tmp/ccbmCWrB.s:5      .text:0000000000000000 .Ltext0
     /tmp/ccbmCWrB.s:670    .text:00000000000004bc .Letext0
     /tmp/ccbmCWrB.s:3468   .debug_line:0000000000000000 .Ldebug_line0
     /tmp/ccbmCWrB.s:3584   .debug_str:0000000000000385 .LASF0
     /tmp/ccbmCWrB.s:3606   .debug_str:0000000000000423 .LASF1
     /tmp/ccbmCWrB.s:3706   .debug_str:0000000000000739 .LASF2
     /tmp/ccbmCWrB.s:3714   .debug_str:0000000000000776 .LASF4
     /tmp/ccbmCWrB.s:3592   .debug_str:00000000000003af .LASF3
     /tmp/ccbmCWrB.s:3480   .debug_str:0000000000000051 .LASF5
     /tmp/ccbmCWrB.s:3676   .debug_str:000000000000065d .LASF6
     /tmp/ccbmCWrB.s:3596   .debug_str:00000000000003ca .LASF7
     /tmp/ccbmCWrB.s:3560   .debug_str:00000000000002a7 .LASF8
     /tmp/ccbmCWrB.s:3568   .debug_str:0000000000000302 .LASF9
     /tmp/ccbmCWrB.s:3502   .debug_str:00000000000000e1 .LASF10
     /tmp/ccbmCWrB.s:3550   .debug_str:000000000000025e .LASF11
     /tmp/ccbmCWrB.s:3516   .debug_str:0000000000000139 .LASF12
     /tmp/ccbmCWrB.s:3500   .debug_str:00000000000000d1 .LASF13
     /tmp/ccbmCWrB.s:3738   .debug_str:000000000000080b .LASF14
     /tmp/ccbmCWrB.s:3540   .debug_str:0000000000000207 .LASF15
     /tmp/ccbmCWrB.s:3730   .debug_str:00000000000007ce .LASF16
     /tmp/ccbmCWrB.s:3614   .debug_str:0000000000000467 .LASF23
     /tmp/ccbmCWrB.s:3750   .debug_str:000000000000085c .LASF38
     /tmp/ccbmCWrB.s:3504   .debug_str:00000000000000f0 .LASF17
     /tmp/ccbmCWrB.s:3486   .debug_str:0000000000000069 .LASF18
     /tmp/ccbmCWrB.s:3604   .debug_str:000000000000041e .LASF19
     /tmp/ccbmCWrB.s:3726   .debug_str:00000000000007b1 .LASF20
     /tmp/ccbmCWrB.s:3512   .debug_str:000000000000011d .LASF21
     /tmp/ccbmCWrB.s:3600   .debug_str:000000000000040b .LASF22
     /tmp/ccbmCWrB.s:3640   .debug_str:0000000000000522 .LASF24
     /tmp/ccbmCWrB.s:3708   .debug_str:0000000000000747 .LASF25
     /tmp/ccbmCWrB.s:3710   .debug_str:0000000000000764 .LASF26
GAS LISTING /tmp/ccbmCWrB.s 			page 29


     /tmp/ccbmCWrB.s:3648   .debug_str:0000000000000585 .LASF27
     /tmp/ccbmCWrB.s:3794   .debug_str:0000000000000a6a .LASF52
     /tmp/ccbmCWrB.s:3634   .debug_str:00000000000004de .LASF54
     /tmp/ccbmCWrB.s:3810   .debug_str:0000000000000ae5 .LASF56
     /tmp/ccbmCWrB.s:3746   .debug_str:0000000000000834 .LASF58
     /tmp/ccbmCWrB.s:3632   .debug_str:00000000000004d6 .LASF28
     /tmp/ccbmCWrB.s:3660   .debug_str:00000000000005e0 .LASF30
     /tmp/ccbmCWrB.s:3602   .debug_str:0000000000000410 .LASF29
     /tmp/ccbmCWrB.s:3666   .debug_str:000000000000060d .LASF31
     /tmp/ccbmCWrB.s:3590   .debug_str:00000000000003a5 .LASF32
     /tmp/ccbmCWrB.s:3598   .debug_str:00000000000003dd .LASF33
     /tmp/ccbmCWrB.s:3742   .debug_str:0000000000000820 .LASF34
     /tmp/ccbmCWrB.s:3806   .debug_str:0000000000000abd .LASF35
     /tmp/ccbmCWrB.s:3636   .debug_str:0000000000000503 .LASF36
     /tmp/ccbmCWrB.s:3768   .debug_str:0000000000000997 .LASF37
     /tmp/ccbmCWrB.s:3658   .debug_str:00000000000005d0 .LASF165
     /tmp/ccbmCWrB.s:3506   .debug_str:00000000000000f5 .LASF39
     /tmp/ccbmCWrB.s:3812   .debug_str:0000000000000aed .LASF40
     /tmp/ccbmCWrB.s:3566   .debug_str:00000000000002f6 .LASF41
     /tmp/ccbmCWrB.s:3496   .debug_str:00000000000000a6 .LASF42
     /tmp/ccbmCWrB.s:3556   .debug_str:000000000000028e .LASF43
     /tmp/ccbmCWrB.s:3472   .debug_str:0000000000000005 .LASF44
     /tmp/ccbmCWrB.s:3628   .debug_str:00000000000004bd .LASF45
     /tmp/ccbmCWrB.s:3728   .debug_str:00000000000007bb .LASF46
     /tmp/ccbmCWrB.s:3576   .debug_str:0000000000000361 .LASF47
     /tmp/ccbmCWrB.s:3716   .debug_str:000000000000077d .LASF48
     /tmp/ccbmCWrB.s:3478   .debug_str:0000000000000045 .LASF49
     /tmp/ccbmCWrB.s:3736   .debug_str:00000000000007fe .LASF50
     /tmp/ccbmCWrB.s:3694   .debug_str:00000000000006ea .LASF51
     /tmp/ccbmCWrB.s:3668   .debug_str:0000000000000634 .LASF166
     /tmp/ccbmCWrB.s:3692   .debug_str:00000000000006da .LASF62
     /tmp/ccbmCWrB.s:3618   .debug_str:0000000000000481 .LASF64
     /tmp/ccbmCWrB.s:3630   .debug_str:00000000000004ca .LASF53
     /tmp/ccbmCWrB.s:3548   .debug_str:0000000000000247 .LASF55
     /tmp/ccbmCWrB.s:3744   .debug_str:0000000000000829 .LASF57
     /tmp/ccbmCWrB.s:3646   .debug_str:000000000000056e .LASF59
     /tmp/ccbmCWrB.s:3490   .debug_str:0000000000000082 .LASF60
     /tmp/ccbmCWrB.s:3770   .debug_str:00000000000009b9 .LASF61
     /tmp/ccbmCWrB.s:3608   .debug_str:0000000000000436 .LASF63
     /tmp/ccbmCWrB.s:3758   .debug_str:0000000000000943 .LASF65
     /tmp/ccbmCWrB.s:3752   .debug_str:0000000000000864 .LASF167
     /tmp/ccbmCWrB.s:3470   .debug_str:0000000000000000 .LASF66
     /tmp/ccbmCWrB.s:3808   .debug_str:0000000000000adf .LASF67
     /tmp/ccbmCWrB.s:3766   .debug_str:000000000000098f .LASF68
     /tmp/ccbmCWrB.s:3740   .debug_str:0000000000000817 .LASF69
     /tmp/ccbmCWrB.s:3674   .debug_str:0000000000000653 .LASF70
     /tmp/ccbmCWrB.s:3680   .debug_str:0000000000000685 .LASF71
     /tmp/ccbmCWrB.s:3494   .debug_str:0000000000000098 .LASF72
     /tmp/ccbmCWrB.s:3612   .debug_str:000000000000044e .LASF74
     /tmp/ccbmCWrB.s:3524   .debug_str:000000000000019a .LASF168
     /tmp/ccbmCWrB.s:3476   .debug_str:000000000000001d .LASF169
     /tmp/ccbmCWrB.s:3532   .debug_str:00000000000001dc .LASF73
     /tmp/ccbmCWrB.s:3508   .debug_str:00000000000000fd .LASF75
     /tmp/ccbmCWrB.s:3722   .debug_str:0000000000000797 .LASF76
     /tmp/ccbmCWrB.s:3796   .debug_str:0000000000000a76 .LASF170
     /tmp/ccbmCWrB.s:3696   .debug_str:000000000000070e .LASF77
     /tmp/ccbmCWrB.s:3698   .debug_str:0000000000000713 .LASF78
GAS LISTING /tmp/ccbmCWrB.s 			page 30


     /tmp/ccbmCWrB.s:3580   .debug_str:0000000000000379 .LASF79
     /tmp/ccbmCWrB.s:3656   .debug_str:00000000000005b9 .LASF80
     /tmp/ccbmCWrB.s:3530   .debug_str:00000000000001d4 .LASF81
     /tmp/ccbmCWrB.s:3522   .debug_str:000000000000017e .LASF82
     /tmp/ccbmCWrB.s:3594   .debug_str:00000000000003c1 .LASF83
     /tmp/ccbmCWrB.s:3498   .debug_str:00000000000000b6 .LASF84
     /tmp/ccbmCWrB.s:3672   .debug_str:000000000000064b .LASF85
     /tmp/ccbmCWrB.s:3690   .debug_str:00000000000006c0 .LASF86
     /tmp/ccbmCWrB.s:3492   .debug_str:000000000000008e .LASF87
     /tmp/ccbmCWrB.s:3762   .debug_str:000000000000095b .LASF88
     /tmp/ccbmCWrB.s:3582   .debug_str:000000000000037f .LASF89
     /tmp/ccbmCWrB.s:3538   .debug_str:00000000000001f1 .LASF90
     /tmp/ccbmCWrB.s:3474   .debug_str:0000000000000015 .LASF91
     /tmp/ccbmCWrB.s:3528   .debug_str:00000000000001bc .LASF92
     /tmp/ccbmCWrB.s:3662   .debug_str:0000000000000600 .LASF93
     /tmp/ccbmCWrB.s:3484   .debug_str:0000000000000063 .LASF94
     /tmp/ccbmCWrB.s:3578   .debug_str:000000000000036e .LASF95
     /tmp/ccbmCWrB.s:3642   .debug_str:000000000000053c .LASF96
     /tmp/ccbmCWrB.s:3720   .debug_str:0000000000000789 .LASF97
     /tmp/ccbmCWrB.s:3570   .debug_str:0000000000000310 .LASF98
     /tmp/ccbmCWrB.s:3586   .debug_str:0000000000000392 .LASF99
     /tmp/ccbmCWrB.s:3644   .debug_str:0000000000000554 .LASF100
     /tmp/ccbmCWrB.s:3774   .debug_str:00000000000009ec .LASF101
     /tmp/ccbmCWrB.s:3802   .debug_str:0000000000000a93 .LASF102
     /tmp/ccbmCWrB.s:3700   .debug_str:000000000000071d .LASF103
     /tmp/ccbmCWrB.s:3804   .debug_str:0000000000000aa8 .LASF104
     /tmp/ccbmCWrB.s:3684   .debug_str:0000000000000698 .LASF105
     /tmp/ccbmCWrB.s:3754   .debug_str:000000000000086c .LASF106
     /tmp/ccbmCWrB.s:3652   .debug_str:00000000000005aa .LASF107
     /tmp/ccbmCWrB.s:3520   .debug_str:000000000000016b .LASF108
     /tmp/ccbmCWrB.s:3792   .debug_str:0000000000000a62 .LASF109
     /tmp/ccbmCWrB.s:3488   .debug_str:000000000000006e .LASF110
     /tmp/ccbmCWrB.s:3650   .debug_str:00000000000005a2 .LASF111
     /tmp/ccbmCWrB.s:3526   .debug_str:00000000000001a8 .LASF112
     /tmp/ccbmCWrB.s:3620   .debug_str:000000000000049c .LASF113
     /tmp/ccbmCWrB.s:3554   .debug_str:000000000000027a .LASF114
     /tmp/ccbmCWrB.s:3816   .debug_str:0000000000000b0e .LASF115
     /tmp/ccbmCWrB.s:3814   .debug_str:0000000000000afa .LASF116
     /tmp/ccbmCWrB.s:3734   .debug_str:00000000000007f7 .LASF117
     /tmp/ccbmCWrB.s:3514   .debug_str:0000000000000126 .LASF118
     /tmp/ccbmCWrB.s:3718   .debug_str:0000000000000782 .LASF119
     /tmp/ccbmCWrB.s:3688   .debug_str:00000000000006ad .LASF120
     /tmp/ccbmCWrB.s:3534   .debug_str:00000000000001e5 .LASF121
     /tmp/ccbmCWrB.s:3670   .debug_str:0000000000000639 .LASF122
     /tmp/ccbmCWrB.s:3588   .debug_str:000000000000039f .LASF123
     /tmp/ccbmCWrB.s:3610   .debug_str:000000000000043c .LASF124
     /tmp/ccbmCWrB.s:3482   .debug_str:0000000000000058 .LASF125
     /tmp/ccbmCWrB.s:3764   .debug_str:0000000000000977 .LASF126
     /tmp/ccbmCWrB.s:3704   .debug_str:000000000000072e .LASF127
     /tmp/ccbmCWrB.s:3778   .debug_str:00000000000009fa .LASF128
     /tmp/ccbmCWrB.s:3788   .debug_str:0000000000000a49 .LASF129
     /tmp/ccbmCWrB.s:3782   .debug_str:0000000000000a20 .LASF130
     /tmp/ccbmCWrB.s:3786   .debug_str:0000000000000a3f .LASF131
     /tmp/ccbmCWrB.s:3544   .debug_str:0000000000000223 .LASF132
     /tmp/ccbmCWrB.s:3790   .debug_str:0000000000000a53 .LASF133
     /tmp/ccbmCWrB.s:3772   .debug_str:00000000000009d0 .LASF134
     /tmp/ccbmCWrB.s:3678   .debug_str:0000000000000670 .LASF135
GAS LISTING /tmp/ccbmCWrB.s 			page 31


     /tmp/ccbmCWrB.s:3518   .debug_str:0000000000000149 .LASF136
     /tmp/ccbmCWrB.s:3784   .debug_str:0000000000000a36 .LASF137
     /tmp/ccbmCWrB.s:3798   .debug_str:0000000000000a81 .LASF138
     /tmp/ccbmCWrB.s:3542   .debug_str:000000000000021d .LASF139
     /tmp/ccbmCWrB.s:3536   .debug_str:00000000000001eb .LASF140
     /tmp/ccbmCWrB.s:3712   .debug_str:000000000000076e .LASF141
     /tmp/ccbmCWrB.s:3624   .debug_str:00000000000004aa .LASF142
     /tmp/ccbmCWrB.s:3682   .debug_str:0000000000000690 .LASF143
     /tmp/ccbmCWrB.s:3574   .debug_str:000000000000035b .LASF144
     /tmp/ccbmCWrB.s:3724   .debug_str:00000000000007a8 .LASF145
     /tmp/ccbmCWrB.s:3546   .debug_str:0000000000000239 .LASF146
     /tmp/ccbmCWrB.s:18     .text:0000000000000000 .LFB50
     /tmp/ccbmCWrB.s:66     .text:000000000000005c .LFE50
     /tmp/ccbmCWrB.s:3347   .debug_loc:0000000000000000 .LLST0
     /tmp/ccbmCWrB.s:34     .text:0000000000000020 .LVL0
     /tmp/ccbmCWrB.s:44     .text:0000000000000038 .LVL2
     /tmp/ccbmCWrB.s:63     .text:0000000000000058 .LVL5
     /tmp/ccbmCWrB.s:3748   .debug_str:0000000000000854 .LASF147
     /tmp/ccbmCWrB.s:3558   .debug_str:000000000000029a .LASF148
     /tmp/ccbmCWrB.s:191    .text:000000000000011c .LFB49
     /tmp/ccbmCWrB.s:237    .text:000000000000017c .LFE49
     /tmp/ccbmCWrB.s:3358   .debug_loc:0000000000000036 .LLST3
     /tmp/ccbmCWrB.s:213    .text:0000000000000144 .LVL22
     /tmp/ccbmCWrB.s:218    .text:0000000000000150 .LVL23
     /tmp/ccbmCWrB.s:223    .text:0000000000000160 .LVL24
     /tmp/ccbmCWrB.s:228    .text:000000000000016c .LVL25
     /tmp/ccbmCWrB.s:233    .text:0000000000000178 .LVL26
     /tmp/ccbmCWrB.s:3702   .debug_str:0000000000000726 .LASF149
     /tmp/ccbmCWrB.s:3626   .debug_str:00000000000004b0 .LASF150
     /tmp/ccbmCWrB.s:134    .text:00000000000000bc .LFB48
     /tmp/ccbmCWrB.s:180    .text:000000000000011c .LFE48
     /tmp/ccbmCWrB.s:3372   .debug_loc:000000000000006f .LLST2
     /tmp/ccbmCWrB.s:156    .text:00000000000000e4 .LVL15
     /tmp/ccbmCWrB.s:161    .text:00000000000000f0 .LVL16
     /tmp/ccbmCWrB.s:166    .text:0000000000000100 .LVL17
     /tmp/ccbmCWrB.s:171    .text:000000000000010c .LVL18
     /tmp/ccbmCWrB.s:176    .text:0000000000000118 .LVL19
     /tmp/ccbmCWrB.s:3654   .debug_str:00000000000005b1 .LASF151
     /tmp/ccbmCWrB.s:3510   .debug_str:0000000000000110 .LASF152
     /tmp/ccbmCWrB.s:77     .text:000000000000005c .LFB47
     /tmp/ccbmCWrB.s:123    .text:00000000000000bc .LFE47
     /tmp/ccbmCWrB.s:3386   .debug_loc:00000000000000a8 .LLST1
     /tmp/ccbmCWrB.s:99     .text:0000000000000084 .LVL8
     /tmp/ccbmCWrB.s:104    .text:0000000000000090 .LVL9
     /tmp/ccbmCWrB.s:109    .text:00000000000000a0 .LVL10
     /tmp/ccbmCWrB.s:114    .text:00000000000000ac .LVL11
     /tmp/ccbmCWrB.s:119    .text:00000000000000b8 .LVL12
     /tmp/ccbmCWrB.s:3616   .debug_str:0000000000000478 .LASF153
     /tmp/ccbmCWrB.s:3686   .debug_str:000000000000069f .LASF154
     /tmp/ccbmCWrB.s:254    .text:000000000000017c .LFB46
     /tmp/ccbmCWrB.s:363    .text:0000000000000274 .LFE46
     /tmp/ccbmCWrB.s:3776   .debug_str:00000000000009f5 .LASF155
     /tmp/ccbmCWrB.s:3400   .debug_loc:00000000000000e1 .LLST4
     /tmp/ccbmCWrB.s:3414   .debug_loc:000000000000011a .LLST5
     /tmp/ccbmCWrB.s:282    .text:00000000000001ac .LVL30
     /tmp/ccbmCWrB.s:287    .text:00000000000001bc .LVL31
     /tmp/ccbmCWrB.s:296    .text:00000000000001d0 .LVL32
GAS LISTING /tmp/ccbmCWrB.s 			page 32


     /tmp/ccbmCWrB.s:301    .text:00000000000001e0 .LVL33
     /tmp/ccbmCWrB.s:310    .text:00000000000001f4 .LVL34
     /tmp/ccbmCWrB.s:315    .text:0000000000000204 .LVL35
     /tmp/ccbmCWrB.s:328    .text:0000000000000220 .LVL37
     /tmp/ccbmCWrB.s:333    .text:000000000000022c .LVL38
     /tmp/ccbmCWrB.s:341    .text:000000000000023c .LVL39
     /tmp/ccbmCWrB.s:360    .text:0000000000000270 .LVL40
     /tmp/ccbmCWrB.s:3664   .debug_str:0000000000000608 .LASF156
     /tmp/ccbmCWrB.s:374    .text:0000000000000274 .LFB45
     /tmp/ccbmCWrB.s:634    .text:00000000000004bc .LFE45
     /tmp/ccbmCWrB.s:3760   .debug_str:0000000000000953 .LASF171
     /tmp/ccbmCWrB.s:3454   .debug_ranges:0000000000000000 .Ldebug_ranges0
     /tmp/ccbmCWrB.s:3430   .debug_loc:0000000000000164 .LLST6
     /tmp/ccbmCWrB.s:591    .text:000000000000046c .LVL59
     /tmp/ccbmCWrB.s:391    .text:0000000000000288 .LBB9
     /tmp/ccbmCWrB.s:555    .text:0000000000000428 .LBB11
     /tmp/ccbmCWrB.s:584    .text:0000000000000464 .LBE11
     /tmp/ccbmCWrB.s:405    .text:00000000000002a0 .LBB13
     /tmp/ccbmCWrB.s:417    .text:00000000000002a4 .LBE13
     /tmp/ccbmCWrB.s:425    .text:00000000000002b8 .LVL43
     /tmp/ccbmCWrB.s:436    .text:00000000000002dc .LVL44
     /tmp/ccbmCWrB.s:442    .text:00000000000002f0 .LVL45
     /tmp/ccbmCWrB.s:448    .text:0000000000000304 .LVL46
     /tmp/ccbmCWrB.s:454    .text:0000000000000318 .LVL47
     /tmp/ccbmCWrB.s:460    .text:000000000000032c .LVL48
     /tmp/ccbmCWrB.s:479    .text:0000000000000354 .LVL49
     /tmp/ccbmCWrB.s:486    .text:000000000000036c .LVL50
     /tmp/ccbmCWrB.s:493    .text:0000000000000384 .LVL51
     /tmp/ccbmCWrB.s:500    .text:000000000000039c .LVL52
     /tmp/ccbmCWrB.s:506    .text:00000000000003b0 .LVL53
     /tmp/ccbmCWrB.s:525    .text:00000000000003d8 .LVL54
     /tmp/ccbmCWrB.s:532    .text:00000000000003f0 .LVL55
     /tmp/ccbmCWrB.s:539    .text:0000000000000408 .LVL56
     /tmp/ccbmCWrB.s:546    .text:0000000000000420 .LVL57
     /tmp/ccbmCWrB.s:604    .text:0000000000000488 .LVL61
     /tmp/ccbmCWrB.s:631    .text:00000000000004b8 .LVL64
     /tmp/ccbmCWrB.s:3622   .debug_str:00000000000004a4 .LASF172
     /tmp/ccbmCWrB.s:3572   .debug_str:000000000000032b .LASF173
     /tmp/ccbmCWrB.s:3732   .debug_str:00000000000007e4 .LASF157
     /tmp/ccbmCWrB.s:3800   .debug_str:0000000000000a87 .LASF159
     /tmp/ccbmCWrB.s:3638   .debug_str:000000000000050d .LASF158
     /tmp/ccbmCWrB.s:3562   .debug_str:00000000000002b7 .LASF160
     /tmp/ccbmCWrB.s:3780   .debug_str:0000000000000a12 .LASF161
     /tmp/ccbmCWrB.s:38     .text:0000000000000028 .LVL1
     /tmp/ccbmCWrB.s:55     .text:0000000000000048 .LVL3
     /tmp/ccbmCWrB.s:61     .text:0000000000000050 .LVL4
     /tmp/ccbmCWrB.s:194    .text:000000000000011c .LVL20
     /tmp/ccbmCWrB.s:205    .text:0000000000000130 .LVL21
     /tmp/ccbmCWrB.s:137    .text:00000000000000bc .LVL13
     /tmp/ccbmCWrB.s:148    .text:00000000000000d0 .LVL14
     /tmp/ccbmCWrB.s:80     .text:000000000000005c .LVL6
     /tmp/ccbmCWrB.s:91     .text:0000000000000070 .LVL7
     /tmp/ccbmCWrB.s:257    .text:000000000000017c .LVL27
     /tmp/ccbmCWrB.s:275    .text:000000000000019c .LVL29
     /tmp/ccbmCWrB.s:271    .text:0000000000000194 .LVL28
     /tmp/ccbmCWrB.s:322    .text:000000000000020c .LVL36
     /tmp/ccbmCWrB.s:582    .text:0000000000000464 .LVL58
GAS LISTING /tmp/ccbmCWrB.s 			page 33


     /tmp/ccbmCWrB.s:620    .text:00000000000004a0 .LVL62
     /tmp/ccbmCWrB.s:624    .text:00000000000004a8 .LVL63
     /tmp/ccbmCWrB.s:677    .debug_info:0000000000000000 .Ldebug_info0
     /tmp/ccbmCWrB.s:400    .text:0000000000000298 .LBE9
     /tmp/ccbmCWrB.s:553    .text:0000000000000428 .LBB16
     /tmp/ccbmCWrB.s:586    .text:0000000000000464 .LBE16
     /tmp/ccbmCWrB.s:547    .text:0000000000000420 .LBB15
     /tmp/ccbmCWrB.s:552    .text:0000000000000428 .LBE15
     /tmp/ccbmCWrB.s:587    .text:0000000000000464 .LBB17
     /tmp/ccbmCWrB.s:599    .text:0000000000000478 .LBE17

UNDEFINED SYMBOLS
_ZN9semaphore7semWaitEPS_
_Z11printStringPKc
_ZN9semaphore9semSignalEPS_
_ZN9semaphore8semCloseEPS_
_ZN16MemoryAllocation8instanceE
_ZN5RiscV14supervisorTrapEv
_Z13thread_createPP3TCBPFvPvES2_
_ZN3TCB7runningE
_ZN9semaphore7semOpenEPPS_i
HEAP_START_ADDR
_ZN16MemoryAllocation9fmem_headE
HEAP_END_ADDR
_Z15thread_dispatchv
