GAS LISTING /tmp/ccByoLA1.s 			page 1


   1              		.file	"main.cpp"
   2              		.option pic
   3              		.option norelax
   4              		.text
   5              	.Ltext0:
   6              		.section	.rodata.str1.8,"aMS",@progbits,1
   7              		.align	3
   8              	.LC0:
   9 0000 54687265 		.string	"Thread A created\n"
   9      61642041 
   9      20637265 
   9      61746564 
   9      0A00
  10 0012 00000000 		.align	3
  10      0000
  11              	.LC1:
  12 0018 54687265 		.string	"Thread B created\n"
  12      61642042 
  12      20637265 
  12      61746564 
  12      0A00
  13 002a 00000000 		.align	3
  13      0000
  14              	.LC2:
  15 0030 66696E69 		.string	"finished\n"
  15      73686564 
  15      0A00
  16              		.text
  17              		.align	2
  18              		.globl	main
  20              	main:
  21              	.LFB44:
  22              		.file 1 "src/main.cpp"
   1:src/main.cpp  **** #include "../lib/hw.h"
   2:src/main.cpp  **** #include "../lib/console.h"
   3:src/main.cpp  **** #include "../h/tcb.hpp"
   4:src/main.cpp  **** #include "../h/workers.hpp"
   5:src/main.cpp  **** #include "../h/Print.hpp"
   6:src/main.cpp  **** #include "../h/MemoryAllocation.hpp"
   7:src/main.cpp  **** #include "../h/RiscV.hpp"
   8:src/main.cpp  **** #include "../h/syscall_c.hpp"
   9:src/main.cpp  **** int main(){
  23              		.loc 1 9 11
  24              		.cfi_startproc
  25 0000 130101FC 		addi	sp,sp,-64
  26              		.cfi_def_cfa_offset 64
  27 0004 233C1102 		sd	ra,56(sp)
  28 0008 23388102 		sd	s0,48(sp)
  29 000c 23349102 		sd	s1,40(sp)
  30 0010 23302103 		sd	s2,32(sp)
  31              		.cfi_offset 1, -8
  32              		.cfi_offset 8, -16
  33              		.cfi_offset 9, -24
  34              		.cfi_offset 18, -32
  35 0014 13040104 		addi	s0,sp,64
  36              		.cfi_def_cfa 8, 0
  10:src/main.cpp  ****     MemoryAllocation* mem_obj;
GAS LISTING /tmp/ccByoLA1.s 			page 2


  37              		.loc 1 10 5
  11:src/main.cpp  ****     mem_obj = mem_obj->getInstance();
  38              		.loc 1 11 5
  39              		.file 2 "src/../h/MemoryAllocation.hpp"
   1:src/../h/MemoryAllocation.hpp **** #include "../lib/hw.h"
   2:src/../h/MemoryAllocation.hpp **** 
   3:src/../h/MemoryAllocation.hpp **** 
   4:src/../h/MemoryAllocation.hpp **** #ifndef PROJECT_BASE_MEMORYALLOCATION_HPP
   5:src/../h/MemoryAllocation.hpp **** #define PROJECT_BASE_MEMORYALLOCATION_HPP
   6:src/../h/MemoryAllocation.hpp **** 
   7:src/../h/MemoryAllocation.hpp **** 
   8:src/../h/MemoryAllocation.hpp **** class MemoryAllocation {
   9:src/../h/MemoryAllocation.hpp **** 
  10:src/../h/MemoryAllocation.hpp ****     //===========================DEFINICIJA SINGLETON KLASE POCETAK=======================k
  11:src/../h/MemoryAllocation.hpp **** private:
  12:src/../h/MemoryAllocation.hpp **** 
  13:src/../h/MemoryAllocation.hpp ****     struct FreeMem {
  14:src/../h/MemoryAllocation.hpp ****         FreeMem *next;
  15:src/../h/MemoryAllocation.hpp ****         FreeMem *prev;
  16:src/../h/MemoryAllocation.hpp ****         size_t size;
  17:src/../h/MemoryAllocation.hpp ****     };
  18:src/../h/MemoryAllocation.hpp **** 
  19:src/../h/MemoryAllocation.hpp **** 
  20:src/../h/MemoryAllocation.hpp ****     static FreeMem *fmem_head; //koja pocetna vrednost?
  21:src/../h/MemoryAllocation.hpp **** 
  22:src/../h/MemoryAllocation.hpp **** 
  23:src/../h/MemoryAllocation.hpp **** 
  24:src/../h/MemoryAllocation.hpp ****     static MemoryAllocation *instance;
  25:src/../h/MemoryAllocation.hpp ****     int data;
  26:src/../h/MemoryAllocation.hpp **** 
  27:src/../h/MemoryAllocation.hpp **** 
  28:src/../h/MemoryAllocation.hpp ****     MemoryAllocation() { //OVO SE SADA NIGGDE
  29:src/../h/MemoryAllocation.hpp ****         fmem_head->size = (size_t) ((char *) HEAP_END_ADDR -
  30:src/../h/MemoryAllocation.hpp ****                                     (char *) HEAP_START_ADDR); //da li smem ovo da castujem u size_
  31:src/../h/MemoryAllocation.hpp ****         fmem_head->next = nullptr;
  32:src/../h/MemoryAllocation.hpp ****         fmem_head->prev = nullptr;
  33:src/../h/MemoryAllocation.hpp ****         data = 0;
  34:src/../h/MemoryAllocation.hpp ****     }
  35:src/../h/MemoryAllocation.hpp **** 
  36:src/../h/MemoryAllocation.hpp ****     MemoryAllocation(MemoryAllocation const &);
  37:src/../h/MemoryAllocation.hpp **** 
  38:src/../h/MemoryAllocation.hpp ****     void operator=(MemoryAllocation const &);
  39:src/../h/MemoryAllocation.hpp **** 
  40:src/../h/MemoryAllocation.hpp **** public:
  41:src/../h/MemoryAllocation.hpp **** 
  42:src/../h/MemoryAllocation.hpp **** 
  43:src/../h/MemoryAllocation.hpp ****     static MemoryAllocation *getInstance() {
  44:src/../h/MemoryAllocation.hpp ****         if (!instance) {
  40              		.loc 2 44 9
  41              	.LBB12:
  42              	.LBB13:
  43              		.loc 2 44 13 is_stmt 0
  44 0018 97070000 		la	a5,_ZN16MemoryAllocation8instanceE
  44      83B70700 
  45 0020 83B70700 		ld	a5,0(a5)
  46              		.loc 2 44 9
  47 0024 63840708 		beqz	a5,.L11
GAS LISTING /tmp/ccByoLA1.s 			page 3


  48              	.L2:
  49              	.LBE13:
  50              	.LBE12:
  12:src/main.cpp  ****     RiscV::w_stvec((uint64) &RiscV::supervisorTrap);
  51              		.loc 1 12 5 is_stmt 1
  52              		.loc 1 12 19 is_stmt 0
  53 0028 97070000 		la	a5,_ZN5RiscV14supervisorTrapEv
  53      83B70700 
  54              	.LVL0:
  55              	.LBB16:
  56              	.LBB17:
  57              		.file 3 "src/../h/RiscV.hpp"
   1:src/../h/RiscV.hpp **** //
   2:src/../h/RiscV.hpp **** // Created by os on 8/14/22.
   3:src/../h/RiscV.hpp **** //
   4:src/../h/RiscV.hpp **** 
   5:src/../h/RiscV.hpp **** #ifndef PROJECT_BASE_RISCV_HPP
   6:src/../h/RiscV.hpp **** #define PROJECT_BASE_RISCV_HPP
   7:src/../h/RiscV.hpp **** #include "../lib/hw.h"
   8:src/../h/RiscV.hpp **** 
   9:src/../h/RiscV.hpp **** class RiscV {
  10:src/../h/RiscV.hpp **** public:
  11:src/../h/RiscV.hpp ****     //pop sstatus.spp and sstatus.spie bits(mora da bude ne inline funkcija)
  12:src/../h/RiscV.hpp ****     static void popSppSpie();
  13:src/../h/RiscV.hpp **** 
  14:src/../h/RiscV.hpp ****     //push x3...x31 registers on stack
  15:src/../h/RiscV.hpp ****     static void pushRegisters();
  16:src/../h/RiscV.hpp **** 
  17:src/../h/RiscV.hpp ****     //pop x3...x31 registers on stack
  18:src/../h/RiscV.hpp ****     static void popRegisters();
  19:src/../h/RiscV.hpp **** 
  20:src/../h/RiscV.hpp ****     //read register scause
  21:src/../h/RiscV.hpp ****     static uint64 r_scause();
  22:src/../h/RiscV.hpp **** 
  23:src/../h/RiscV.hpp ****     //write register scause
  24:src/../h/RiscV.hpp ****     static void w_scause(uint64 scause);
  25:src/../h/RiscV.hpp **** 
  26:src/../h/RiscV.hpp ****     //read register sepc
  27:src/../h/RiscV.hpp ****     static uint64 r_sepc();
  28:src/../h/RiscV.hpp **** 
  29:src/../h/RiscV.hpp ****     //write register sepc
  30:src/../h/RiscV.hpp ****     static void w_sepc(uint64 sepc);
  31:src/../h/RiscV.hpp **** 
  32:src/../h/RiscV.hpp ****     //read register stvec
  33:src/../h/RiscV.hpp ****     static uint64 r_stvec();
  34:src/../h/RiscV.hpp **** 
  35:src/../h/RiscV.hpp ****     //write register stvec
  36:src/../h/RiscV.hpp ****     static void w_stvec(uint64 stvec);
  37:src/../h/RiscV.hpp **** 
  38:src/../h/RiscV.hpp ****     //write register stval
  39:src/../h/RiscV.hpp ****     static uint64 r_stval();
  40:src/../h/RiscV.hpp **** 
  41:src/../h/RiscV.hpp ****     //write register stval
  42:src/../h/RiscV.hpp ****     static void w_stval(uint64 stval);
  43:src/../h/RiscV.hpp **** 
  44:src/../h/RiscV.hpp ****     enum BitMaskSip{
  45:src/../h/RiscV.hpp ****         SIP_SSIP = (1 << 1),
GAS LISTING /tmp/ccByoLA1.s 			page 4


  46:src/../h/RiscV.hpp ****         SIP_STIP = (1 << 5),
  47:src/../h/RiscV.hpp ****         SIP_SEIP = (1 << 9),
  48:src/../h/RiscV.hpp ****     };
  49:src/../h/RiscV.hpp **** 
  50:src/../h/RiscV.hpp ****     //mask set register sip
  51:src/../h/RiscV.hpp ****     static void ms_sip(uint64 mask);
  52:src/../h/RiscV.hpp **** 
  53:src/../h/RiscV.hpp ****     //mask clear register sip
  54:src/../h/RiscV.hpp ****     static void mc_sip(uint64 mask);
  55:src/../h/RiscV.hpp **** 
  56:src/../h/RiscV.hpp ****     //read register sip
  57:src/../h/RiscV.hpp ****     static uint64 r_sip();
  58:src/../h/RiscV.hpp **** 
  59:src/../h/RiscV.hpp ****     //write register sip
  60:src/../h/RiscV.hpp ****     static void w_sip(uint64 sip);
  61:src/../h/RiscV.hpp **** 
  62:src/../h/RiscV.hpp ****     enum BitMaskSstatus{
  63:src/../h/RiscV.hpp ****         SSTATUS_SIE = (1<<1),
  64:src/../h/RiscV.hpp ****         SSTATUS_SPIE = (1<<5),
  65:src/../h/RiscV.hpp ****         SSTATUS_SPP=  (1<<8),
  66:src/../h/RiscV.hpp ****     };
  67:src/../h/RiscV.hpp **** 
  68:src/../h/RiscV.hpp ****     //mask set register sstatus
  69:src/../h/RiscV.hpp ****     static void ms_sstatus(uint64 mask);
  70:src/../h/RiscV.hpp **** 
  71:src/../h/RiscV.hpp ****     //mask clear register sstatus
  72:src/../h/RiscV.hpp ****     static void mc_sstatus(uint64 mask);
  73:src/../h/RiscV.hpp **** 
  74:src/../h/RiscV.hpp ****     //read register sstatus
  75:src/../h/RiscV.hpp ****     static uint64 r_sstatus();
  76:src/../h/RiscV.hpp **** 
  77:src/../h/RiscV.hpp ****     //write register sstatus
  78:src/../h/RiscV.hpp ****     static void w_sstatus(uint64 sstatus);
  79:src/../h/RiscV.hpp **** 
  80:src/../h/RiscV.hpp ****     static void supervisorTrap();
  81:src/../h/RiscV.hpp **** 
  82:src/../h/RiscV.hpp **** private:
  83:src/../h/RiscV.hpp ****     //obradjuje trap handler
  84:src/../h/RiscV.hpp ****     static void handleSupervisorTrap();
  85:src/../h/RiscV.hpp **** };
  86:src/../h/RiscV.hpp **** 
  87:src/../h/RiscV.hpp **** inline uint64 RiscV::r_scause() {
  88:src/../h/RiscV.hpp ****     uint64 volatile scause;
  89:src/../h/RiscV.hpp ****     __asm__ volatile("csrr %[scause], scause" : [scause] "=r"(scause));
  90:src/../h/RiscV.hpp ****     return scause;
  91:src/../h/RiscV.hpp **** 
  92:src/../h/RiscV.hpp **** }
  93:src/../h/RiscV.hpp **** 
  94:src/../h/RiscV.hpp **** inline void RiscV::w_scause(uint64 scause){
  95:src/../h/RiscV.hpp ****     __asm__ volatile("csrw scause, %[scause]": : [scause] "r"(scause));
  96:src/../h/RiscV.hpp **** 
  97:src/../h/RiscV.hpp **** }
  98:src/../h/RiscV.hpp **** 
  99:src/../h/RiscV.hpp **** inline uint64 RiscV::r_sepc(){
 100:src/../h/RiscV.hpp ****     uint64  sepc;
 101:src/../h/RiscV.hpp ****     __asm__ volatile("csrr %[sepc], sepc" : [sepc] "=r"(sepc));
 102:src/../h/RiscV.hpp ****     return sepc;
GAS LISTING /tmp/ccByoLA1.s 			page 5


 103:src/../h/RiscV.hpp **** }
 104:src/../h/RiscV.hpp **** 
 105:src/../h/RiscV.hpp **** inline void RiscV::w_sepc(uint64 volatile sepc){
 106:src/../h/RiscV.hpp ****     __asm__ volatile ("csrw sepc, %[sepc]": : [sepc] "r"(sepc));
 107:src/../h/RiscV.hpp **** }
 108:src/../h/RiscV.hpp **** 
 109:src/../h/RiscV.hpp **** inline uint64 RiscV::r_stvec() {
 110:src/../h/RiscV.hpp ****     uint64 volatile stvec;
 111:src/../h/RiscV.hpp ****     __asm__ volatile ("csrr %[stvec], stvec": [stvec] "=r"(stvec));
 112:src/../h/RiscV.hpp ****     return stvec;
 113:src/../h/RiscV.hpp **** }
 114:src/../h/RiscV.hpp **** 
 115:src/../h/RiscV.hpp **** inline void RiscV::w_stvec(uint64 stvec){
 116:src/../h/RiscV.hpp ****     __asm__ volatile ("csrw stvec, %[stvec]": : [stvec] "r"(stvec));
  58              		.loc 3 116 5 is_stmt 1
  59              		.loc 3 116 68 is_stmt 0
  60              	#APP
  61              	# 116 "src/../h/RiscV.hpp" 1
 117              	}
  62              		csrw stvec, a5
  63              	# 0 "" 2
  64              	.LVL1:
  65              	#NO_APP
  66              	.LBE17:
  67              	.LBE16:
  13:src/main.cpp  ****     TCB *threads[3];
  68              		.loc 1 13 5 is_stmt 1
  14:src/main.cpp  **** 
  15:src/main.cpp  ****     thread_create( &threads[0], nullptr, nullptr);
  69              		.loc 1 15 5
  70              		.loc 1 15 18 is_stmt 0
  71 0034 13060000 		li	a2,0
  72 0038 93050000 		li	a1,0
  73 003c 130584FC 		addi	a0,s0,-56
  74 0040 97000000 		call	_Z13thread_createPP3TCBPFvPvES2_@plt
  74      E7800000 
  75              	.LVL2:
  16:src/main.cpp  ****     TCB::running=threads[0];
  76              		.loc 1 16 5 is_stmt 1
  77              		.loc 1 16 17 is_stmt 0
  78 0048 033784FC 		ld	a4,-56(s0)
  79 004c 97070000 		la	a5,_ZN3TCB7runningE
  79      83B70700 
  80 0054 23B0E700 		sd	a4,0(a5)
  17:src/main.cpp  **** 
  18:src/main.cpp  ****     thread_create(&threads[1], workerBodyA, nullptr); //ovde su neki workeri, prepisi to ako te ne 
  81              		.loc 1 18 5 is_stmt 1
  82              		.loc 1 18 18 is_stmt 0
  83 0058 13060000 		li	a2,0
  84 005c 97050000 		la	a1,_Z11workerBodyAPv
  84      83B50500 
  85 0064 130504FD 		addi	a0,s0,-48
  86 0068 97000000 		call	_Z13thread_createPP3TCBPFvPvES2_@plt
  86      E7800000 
  87              	.LVL3:
  19:src/main.cpp  ****     printString("Thread A created\n");
  88              		.loc 1 19 5 is_stmt 1
GAS LISTING /tmp/ccByoLA1.s 			page 6


  89              		.loc 1 19 16 is_stmt 0
  90 0070 17050000 		lla	a0,.LC0
  90      13050500 
  91 0078 97000000 		call	_Z11printStringPKc@plt
  91      E7800000 
  92              	.LVL4:
  20:src/main.cpp  **** 
  21:src/main.cpp  ****     thread_create( &threads[2],workerBodyB, nullptr); //ovde su neki workeri, prepisi to ako te ne 
  93              		.loc 1 21 5 is_stmt 1
  94              		.loc 1 21 18 is_stmt 0
  95 0080 13060000 		li	a2,0
  96 0084 97050000 		la	a1,_Z11workerBodyBPv
  96      83B50500 
  97 008c 130584FD 		addi	a0,s0,-40
  98 0090 97000000 		call	_Z13thread_createPP3TCBPFvPvES2_@plt
  98      E7800000 
  99              	.LVL5:
  22:src/main.cpp  ****     printString("Thread B created\n");
 100              		.loc 1 22 5 is_stmt 1
 101              		.loc 1 22 16 is_stmt 0
 102 0098 17050000 		lla	a0,.LC1
 102      13050500 
 103 00a0 97000000 		call	_Z11printStringPKc@plt
 103      E7800000 
 104              	.LVL6:
 105 00a8 6F008004 		j	.L5
 106              	.L11:
 107              	.LBB18:
 108              	.LBB15:
 109              	.LBB14:
  45:src/../h/MemoryAllocation.hpp ****             fmem_head =  (FreeMem*) HEAP_START_ADDR;
 110              		.loc 2 45 13 is_stmt 1
 111              		.loc 2 45 23 is_stmt 0
 112 00ac 97070000 		la	a5,HEAP_START_ADDR
 112      83B70700 
 113 00b4 83B70700 		ld	a5,0(a5)
 114 00b8 97060000 		la	a3,_ZN16MemoryAllocation9fmem_headE
 114      83B60600 
 115 00c0 23B0F600 		sd	a5,0(a3)
  46:src/../h/MemoryAllocation.hpp ****             fmem_head->size = (size_t) ((char *) HEAP_END_ADDR -
 116              		.loc 2 46 13 is_stmt 1
 117              		.loc 2 46 41 is_stmt 0
 118 00c4 17070000 		la	a4,HEAP_END_ADDR
 118      03370700 
 119 00cc 03370700 		ld	a4,0(a4)
 120              		.loc 2 46 64
 121 00d0 3307F740 		sub	a4,a4,a5
 122              		.loc 2 46 29
 123 00d4 23B8E700 		sd	a4,16(a5)
  47:src/../h/MemoryAllocation.hpp ****                                         (char *) HEAP_START_ADDR); //da li smem ovo da castujem u s
  48:src/../h/MemoryAllocation.hpp ****             fmem_head->next = nullptr;
 124              		.loc 2 48 13 is_stmt 1
 125              		.loc 2 48 29 is_stmt 0
 126 00d8 23B00700 		sd	zero,0(a5)
  49:src/../h/MemoryAllocation.hpp ****             fmem_head->prev = nullptr;
 127              		.loc 2 49 13 is_stmt 1
 128              		.loc 2 49 24 is_stmt 0
GAS LISTING /tmp/ccByoLA1.s 			page 7


 129 00dc 83B70600 		ld	a5,0(a3)
 130              		.loc 2 49 29
 131 00e0 23B40700 		sd	zero,8(a5)
  50:src/../h/MemoryAllocation.hpp ****             static MemoryAllocation* instance;
 132              		.loc 2 50 13 is_stmt 1
  51:src/../h/MemoryAllocation.hpp ****             return instance;
 133              		.loc 2 51 13
 134              		.loc 2 51 20 is_stmt 0
 135 00e4 6FF05FF4 		j	.L2
 136              	.L3:
 137              	.LBE14:
 138              	.LBE15:
 139              	.LBE18:
  23:src/main.cpp  **** 
  24:src/main.cpp  **** 
  25:src/main.cpp  ****     //RiscV::ms_sstatus(RiscV::SSTATUS_SIE); //omogucava prekide, probaj i sa i bez toga, ali misli
  26:src/main.cpp  ****     //__asm__ volatile ("csrs sstatus, 0x2");
  27:src/main.cpp  **** 
  28:src/main.cpp  ****     while(!(threads[1]->isFinished() && threads[2]->isFinished())){
  29:src/main.cpp  ****         TCB::yield();
 140              		.loc 1 29 9 is_stmt 1 discriminator 5
 141              		.loc 1 29 19 is_stmt 0 discriminator 5
 142 00e8 97000000 		call	_ZN3TCB5yieldEv@plt
 142      E7800000 
 143              	.LVL7:
 144              	.L5:
  28:src/main.cpp  ****         TCB::yield();
 145              		.loc 1 28 5 is_stmt 1
  28:src/main.cpp  ****         TCB::yield();
 146              		.loc 1 28 11
  28:src/main.cpp  ****         TCB::yield();
 147              		.loc 1 28 35 is_stmt 0
 148 00f0 033504FD 		ld	a0,-48(s0)
 149 00f4 97000000 		call	_ZNK3TCB10isFinishedEv@plt
 149      E7800000 
 150              	.LVL8:
  28:src/main.cpp  ****         TCB::yield();
 151              		.loc 1 28 11
 152 00fc E30605FE 		beqz	a0,.L3
  28:src/main.cpp  ****         TCB::yield();
 153              		.loc 1 28 63 discriminator 3
 154 0100 033584FD 		ld	a0,-40(s0)
 155 0104 97000000 		call	_ZNK3TCB10isFinishedEv@plt
 155      E7800000 
 156              	.LVL9:
  28:src/main.cpp  ****         TCB::yield();
 157              		.loc 1 28 11 discriminator 3
 158 010c E30E05FC 		beqz	a0,.L3
 159 0110 930484FC 		addi	s1,s0,-56
 160 0114 6F004001 		j	.L4
 161              	.LVL10:
 162              	.L8:
 163              	.LBB19:
  30:src/main.cpp  ****     }
  31:src/main.cpp  **** 
  32:src/main.cpp  **** 
  33:src/main.cpp  ****     for (auto &coroutine : threads){
GAS LISTING /tmp/ccByoLA1.s 			page 8


  34:src/main.cpp  ****         delete coroutine;
 164              		.loc 1 34 16
 165 0118 13050900 		mv	a0,s2
 166 011c 97000000 		call	_ZdlPv@plt
 166      E7800000 
 167              	.LVL11:
 168              	.L7:
  33:src/main.cpp  ****         delete coroutine;
 169              		.loc 1 33 5 is_stmt 1 discriminator 3
 170 0124 93848400 		addi	s1,s1,8
 171              	.LVL12:
 172              	.L4:
  33:src/main.cpp  ****         delete coroutine;
 173              		.loc 1 33 28 discriminator 1
 174 0128 930704FE 		addi	a5,s0,-32
 175 012c 6380F402 		beq	s1,a5,.L6
 176              	.LVL13:
 177              		.loc 1 34 9 discriminator 2
 178              		.loc 1 34 16 is_stmt 0 discriminator 2
 179 0130 03B90400 		ld	s2,0(s1)
 180              		.loc 1 34 25 discriminator 2
 181 0134 E30809FE 		beqz	s2,.L7
 182              	.LVL14:
 183              	.LBB20:
 184              	.LBB21:
 185              		.file 4 "src/../h/tcb.hpp"
   1:src/../h/tcb.hpp **** //
   2:src/../h/tcb.hpp **** // Created by os on 8/14/22.
   3:src/../h/tcb.hpp **** //
   4:src/../h/tcb.hpp **** 
   5:src/../h/tcb.hpp **** #ifndef PROJECT_BASE_TCB_HPP
   6:src/../h/tcb.hpp **** #define PROJECT_BASE_TCB_HPP
   7:src/../h/tcb.hpp **** #include "../lib/hw.h"
   8:src/../h/tcb.hpp **** #include "../h/Scheduler.hpp"
   9:src/../h/tcb.hpp **** 
  10:src/../h/tcb.hpp **** class TCB {
  11:src/../h/tcb.hpp **** 
  12:src/../h/tcb.hpp **** public:
  13:src/../h/tcb.hpp ****     ~TCB() { delete[] stack; }
 186              		.loc 4 13 14 is_stmt 1
 187              		.loc 4 13 23 is_stmt 0
 188 0138 03358900 		ld	a0,8(s2)
 189              		.loc 4 13 28
 190 013c E30E05FC 		beqz	a0,.L8
 191              		.loc 4 13 23
 192 0140 97000000 		call	_ZdaPv@plt
 192      E7800000 
 193              	.LVL15:
 194 0148 6FF01FFD 		j	.L8
 195              	.LVL16:
 196              	.L6:
 197              	.LBE21:
 198              	.LBE20:
 199              	.LBE19:
  35:src/main.cpp  ****     }
  36:src/main.cpp  **** 
  37:src/main.cpp  ****     printString("finished\n");
GAS LISTING /tmp/ccByoLA1.s 			page 9


 200              		.loc 1 37 5 is_stmt 1
 201              		.loc 1 37 16 is_stmt 0
 202 014c 17050000 		lla	a0,.LC2
 202      13050500 
 203 0154 97000000 		call	_Z11printStringPKc@plt
 203      E7800000 
 204              	.LVL17:
  38:src/main.cpp  **** 
  39:src/main.cpp  ****     return 0;
 205              		.loc 1 39 5 is_stmt 1
  40:src/main.cpp  **** }...
 206              		.loc 1 40 1 is_stmt 0
 207 015c 13050000 		li	a0,0
 208 0160 83308103 		ld	ra,56(sp)
 209              		.cfi_restore 1
 210 0164 03340103 		ld	s0,48(sp)
 211              		.cfi_restore 8
 212              		.cfi_def_cfa 2, 64
 213 0168 83348102 		ld	s1,40(sp)
 214              		.cfi_restore 9
 215              	.LVL18:
 216 016c 03390102 		ld	s2,32(sp)
 217              		.cfi_restore 18
 218 0170 13010104 		addi	sp,sp,64
 219              		.cfi_def_cfa_offset 0
 220 0174 67800000 		jr	ra
 221              		.cfi_endproc
 222              	.LFE44:
 224              	.Letext0:
 225              		.file 5 "src/../lib/hw.h"
 226              		.file 6 "src/../h/syscall_c.hpp"
 227              		.file 7 "src/../h/Print.hpp"
GAS LISTING /tmp/ccByoLA1.s 			page 10


DEFINED SYMBOLS
                            *ABS*:0000000000000000 main.cpp
     /tmp/ccByoLA1.s:20     .text:0000000000000000 main
     /tmp/ccByoLA1.s:24     .text:0000000000000000 .L0 
     /tmp/ccByoLA1.s:25     .text:0000000000000000 .L0 
     /tmp/ccByoLA1.s:26     .text:0000000000000004 .L0 
     /tmp/ccByoLA1.s:31     .text:0000000000000014 .L0 
     /tmp/ccByoLA1.s:32     .text:0000000000000014 .L0 
     /tmp/ccByoLA1.s:33     .text:0000000000000014 .L0 
     /tmp/ccByoLA1.s:34     .text:0000000000000014 .L0 
     /tmp/ccByoLA1.s:36     .text:0000000000000018 .L0 
     /tmp/ccByoLA1.s:38     .text:0000000000000018 .L0 
     /tmp/ccByoLA1.s:40     .text:0000000000000018 .L0 
     /tmp/ccByoLA1.s:43     .text:0000000000000018 .L0 
     /tmp/ccByoLA1.s:44     .text:0000000000000018 .L0 
     /tmp/ccByoLA1.s:47     .text:0000000000000024 .L0 
     /tmp/ccByoLA1.s:52     .text:0000000000000028 .L0 
     /tmp/ccByoLA1.s:53     .text:0000000000000028 .L0 
     /tmp/ccByoLA1.s:59     .text:0000000000000030 .L0 
  src/../h/RiscV.hpp:116    .text:0000000000000030 .L0 
     /tmp/ccByoLA1.s:69     .text:0000000000000034 .L0 
     /tmp/ccByoLA1.s:70     .text:0000000000000034 .L0 
     /tmp/ccByoLA1.s:71     .text:0000000000000034 .L0 
     /tmp/ccByoLA1.s:77     .text:0000000000000048 .L0 
     /tmp/ccByoLA1.s:78     .text:0000000000000048 .L0 
     /tmp/ccByoLA1.s:82     .text:0000000000000058 .L0 
     /tmp/ccByoLA1.s:83     .text:0000000000000058 .L0 
     /tmp/ccByoLA1.s:89     .text:0000000000000070 .L0 
     /tmp/ccByoLA1.s:90     .text:0000000000000070 .L0 
     /tmp/ccByoLA1.s:94     .text:0000000000000080 .L0 
     /tmp/ccByoLA1.s:95     .text:0000000000000080 .L0 
     /tmp/ccByoLA1.s:101    .text:0000000000000098 .L0 
     /tmp/ccByoLA1.s:102    .text:0000000000000098 .L0 
     /tmp/ccByoLA1.s:111    .text:00000000000000ac .L0 
     /tmp/ccByoLA1.s:112    .text:00000000000000ac .L0 
     /tmp/ccByoLA1.s:117    .text:00000000000000c4 .L0 
     /tmp/ccByoLA1.s:118    .text:00000000000000c4 .L0 
     /tmp/ccByoLA1.s:121    .text:00000000000000d0 .L0 
     /tmp/ccByoLA1.s:123    .text:00000000000000d4 .L0 
     /tmp/ccByoLA1.s:125    .text:00000000000000d8 .L0 
     /tmp/ccByoLA1.s:126    .text:00000000000000d8 .L0 
     /tmp/ccByoLA1.s:128    .text:00000000000000dc .L0 
     /tmp/ccByoLA1.s:129    .text:00000000000000dc .L0 
     /tmp/ccByoLA1.s:131    .text:00000000000000e0 .L0 
     /tmp/ccByoLA1.s:133    .text:00000000000000e4 .L0 
     /tmp/ccByoLA1.s:134    .text:00000000000000e4 .L0 
     /tmp/ccByoLA1.s:135    .text:00000000000000e4 .L0 
     /tmp/ccByoLA1.s:141    .text:00000000000000e8 .L0 
     /tmp/ccByoLA1.s:142    .text:00000000000000e8 .L0 
     /tmp/ccByoLA1.s:146    .text:00000000000000f0 .L0 
     /tmp/ccByoLA1.s:147    .text:00000000000000f0 .L0 
     /tmp/ccByoLA1.s:148    .text:00000000000000f0 .L0 
     /tmp/ccByoLA1.s:152    .text:00000000000000fc .L0 
     /tmp/ccByoLA1.s:154    .text:0000000000000100 .L0 
     /tmp/ccByoLA1.s:158    .text:000000000000010c .L0 
     /tmp/ccByoLA1.s:165    .text:0000000000000118 .L0 
     /tmp/ccByoLA1.s:170    .text:0000000000000124 .L0 
GAS LISTING /tmp/ccByoLA1.s 			page 11


     /tmp/ccByoLA1.s:174    .text:0000000000000128 .L0 
     /tmp/ccByoLA1.s:178    .text:0000000000000130 .L0 
     /tmp/ccByoLA1.s:179    .text:0000000000000130 .L0 
     /tmp/ccByoLA1.s:181    .text:0000000000000134 .L0 
     /tmp/ccByoLA1.s:187    .text:0000000000000138 .L0 
     /tmp/ccByoLA1.s:188    .text:0000000000000138 .L0 
     /tmp/ccByoLA1.s:190    .text:000000000000013c .L0 
     /tmp/ccByoLA1.s:192    .text:0000000000000140 .L0 
     /tmp/ccByoLA1.s:201    .text:000000000000014c .L0 
     /tmp/ccByoLA1.s:202    .text:000000000000014c .L0 
     /tmp/ccByoLA1.s:206    .text:000000000000015c .L0 
     /tmp/ccByoLA1.s:207    .text:000000000000015c .L0 
     /tmp/ccByoLA1.s:209    .text:0000000000000164 .L0 
     /tmp/ccByoLA1.s:211    .text:0000000000000168 .L0 
     /tmp/ccByoLA1.s:212    .text:0000000000000168 .L0 
     /tmp/ccByoLA1.s:214    .text:000000000000016c .L0 
     /tmp/ccByoLA1.s:217    .text:0000000000000170 .L0 
     /tmp/ccByoLA1.s:219    .text:0000000000000174 .L0 
     /tmp/ccByoLA1.s:221    .text:0000000000000178 .L0 
     /tmp/ccByoLA1.s:228    .text:0000000000000178 .L0 
     /tmp/ccByoLA1.s:44     .text:0000000000000018 .L0 
     /tmp/ccByoLA1.s:53     .text:0000000000000028 .L0 
     /tmp/ccByoLA1.s:79     .text:000000000000004c .L0 
     /tmp/ccByoLA1.s:84     .text:000000000000005c .L0 
     /tmp/ccByoLA1.s:8      .rodata.str1.8:0000000000000000 .LC0
     /tmp/ccByoLA1.s:90     .text:0000000000000070 .L0 
     /tmp/ccByoLA1.s:96     .text:0000000000000084 .L0 
     /tmp/ccByoLA1.s:11     .rodata.str1.8:0000000000000018 .LC1
     /tmp/ccByoLA1.s:102    .text:0000000000000098 .L0 
     /tmp/ccByoLA1.s:112    .text:00000000000000ac .L0 
     /tmp/ccByoLA1.s:114    .text:00000000000000b8 .L0 
     /tmp/ccByoLA1.s:118    .text:00000000000000c4 .L0 
     /tmp/ccByoLA1.s:14     .rodata.str1.8:0000000000000030 .LC2
     /tmp/ccByoLA1.s:202    .text:000000000000014c .L0 
     /tmp/ccByoLA1.s:106    .text:00000000000000ac .L11
     /tmp/ccByoLA1.s:144    .text:00000000000000f0 .L5
     /tmp/ccByoLA1.s:48     .text:0000000000000028 .L2
     /tmp/ccByoLA1.s:136    .text:00000000000000e8 .L3
     /tmp/ccByoLA1.s:172    .text:0000000000000128 .L4
     /tmp/ccByoLA1.s:196    .text:000000000000014c .L6
     /tmp/ccByoLA1.s:168    .text:0000000000000124 .L7
     /tmp/ccByoLA1.s:162    .text:0000000000000118 .L8
     /tmp/ccByoLA1.s:1278   .debug_abbrev:0000000000000000 .Ldebug_abbrev0
     /tmp/ccByoLA1.s:2531   .debug_str:0000000000000741 .LASF130
     /tmp/ccByoLA1.s:2417   .debug_str:0000000000000410 .LASF131
     /tmp/ccByoLA1.s:2369   .debug_str:0000000000000245 .LASF132
     /tmp/ccByoLA1.s:5      .text:0000000000000000 .Ltext0
     /tmp/ccByoLA1.s:224    .text:0000000000000178 .Letext0
     /tmp/ccByoLA1.s:2283   .debug_line:0000000000000000 .Ldebug_line0
     /tmp/ccByoLA1.s:2453   .debug_str:0000000000000516 .LASF0
     /tmp/ccByoLA1.s:2469   .debug_str:0000000000000576 .LASF1
     /tmp/ccByoLA1.s:2437   .debug_str:00000000000004b5 .LASF2
     /tmp/ccByoLA1.s:2399   .debug_str:000000000000038e .LASF4
     /tmp/ccByoLA1.s:2509   .debug_str:0000000000000699 .LASF3
     /tmp/ccByoLA1.s:2317   .debug_str:00000000000000e4 .LASF5
     /tmp/ccByoLA1.s:2473   .debug_str:00000000000005aa .LASF6
     /tmp/ccByoLA1.s:2451   .debug_str:0000000000000503 .LASF7
GAS LISTING /tmp/ccByoLA1.s 			page 12


     /tmp/ccByoLA1.s:2543   .debug_str:000000000000087c .LASF8
     /tmp/ccByoLA1.s:2383   .debug_str:00000000000002b9 .LASF9
     /tmp/ccByoLA1.s:2485   .debug_str:0000000000000600 .LASF10
     /tmp/ccByoLA1.s:2535   .debug_str:0000000000000811 .LASF11
     /tmp/ccByoLA1.s:2319   .debug_str:00000000000000eb .LASF12
     /tmp/ccByoLA1.s:2289   .debug_str:000000000000001e .LASF13
     /tmp/ccByoLA1.s:2335   .debug_str:0000000000000139 .LASF14
     /tmp/ccByoLA1.s:2501   .debug_str:0000000000000655 .LASF15
     /tmp/ccByoLA1.s:2343   .debug_str:000000000000017f .LASF16
     /tmp/ccByoLA1.s:2297   .debug_str:000000000000005f .LASF43
     /tmp/ccByoLA1.s:2353   .debug_str:00000000000001e0 .LASF17
     /tmp/ccByoLA1.s:2493   .debug_str:0000000000000634 .LASF19
     /tmp/ccByoLA1.s:2415   .debug_str:0000000000000403 .LASF18
     /tmp/ccByoLA1.s:2425   .debug_str:0000000000000441 .LASF20
     /tmp/ccByoLA1.s:2495   .debug_str:0000000000000640 .LASF133
     /tmp/ccByoLA1.s:2339   .debug_str:0000000000000158 .LASF23
     /tmp/ccByoLA1.s:2433   .debug_str:0000000000000493 .LASF25
     /tmp/ccByoLA1.s:2301   .debug_str:0000000000000071 .LASF56
     /tmp/ccByoLA1.s:2341   .debug_str:0000000000000168 .LASF58
     /tmp/ccByoLA1.s:2475   .debug_str:00000000000005bd .LASF27
     /tmp/ccByoLA1.s:2381   .debug_str:00000000000002a2 .LASF29
     /tmp/ccByoLA1.s:2439   .debug_str:00000000000004c3 .LASF21
     /tmp/ccByoLA1.s:2395   .debug_str:000000000000034f .LASF22
     /tmp/ccByoLA1.s:2503   .debug_str:000000000000066b .LASF24
     /tmp/ccByoLA1.s:2443   .debug_str:00000000000004d6 .LASF26
     /tmp/ccByoLA1.s:2359   .debug_str:0000000000000215 .LASF134
     /tmp/ccByoLA1.s:2429   .debug_str:0000000000000478 .LASF28
     /tmp/ccByoLA1.s:2313   .debug_str:00000000000000b5 .LASF30
     /tmp/ccByoLA1.s:2545   .debug_str:000000000000088c .LASF135
     /tmp/ccByoLA1.s:2407   .debug_str:00000000000003c6 .LASF31
     /tmp/ccByoLA1.s:2457   .debug_str:000000000000052c .LASF32
     /tmp/ccByoLA1.s:2411   .debug_str:00000000000003d6 .LASF33
     /tmp/ccByoLA1.s:2463   .debug_str:0000000000000553 .LASF34
     /tmp/ccByoLA1.s:2405   .debug_str:00000000000003bd .LASF35
     /tmp/ccByoLA1.s:2563   .debug_str:0000000000000916 .LASF36
     /tmp/ccByoLA1.s:2431   .debug_str:0000000000000485 .LASF37
     /tmp/ccByoLA1.s:2389   .debug_str:0000000000000317 .LASF39
     /tmp/ccByoLA1.s:2553   .debug_str:00000000000008e1 .LASF136
     /tmp/ccByoLA1.s:2397   .debug_str:0000000000000366 .LASF137
     /tmp/ccByoLA1.s:2455   .debug_str:0000000000000523 .LASF38
     /tmp/ccByoLA1.s:2363   .debug_str:0000000000000225 .LASF40
     /tmp/ccByoLA1.s:2511   .debug_str:00000000000006ab .LASF48
     /tmp/ccByoLA1.s:2391   .debug_str:0000000000000330 .LASF138
     /tmp/ccByoLA1.s:2365   .debug_str:0000000000000238 .LASF41
     /tmp/ccByoLA1.s:2525   .debug_str:0000000000000713 .LASF42
     /tmp/ccByoLA1.s:2367   .debug_str:000000000000023d .LASF44
     /tmp/ccByoLA1.s:2571   .debug_str:0000000000000990 .LASF45
     /tmp/ccByoLA1.s:2557   .debug_str:00000000000008f9 .LASF46
     /tmp/ccByoLA1.s:2527   .debug_str:0000000000000724 .LASF47
     /tmp/ccByoLA1.s:2483   .debug_str:00000000000005f6 .LASF49
     /tmp/ccByoLA1.s:2459   .debug_str:0000000000000532 .LASF50
     /tmp/ccByoLA1.s:2497   .debug_str:0000000000000645 .LASF51
     /tmp/ccByoLA1.s:2515   .debug_str:00000000000006c6 .LASF52
     /tmp/ccByoLA1.s:2479   .debug_str:00000000000005d4 .LASF53
     /tmp/ccByoLA1.s:2445   .debug_str:00000000000004e6 .LASF54
     /tmp/ccByoLA1.s:2345   .debug_str:0000000000000195 .LASF55
     /tmp/ccByoLA1.s:2533   .debug_str:0000000000000805 .LASF57
GAS LISTING /tmp/ccByoLA1.s 			page 13


     /tmp/ccByoLA1.s:2413   .debug_str:00000000000003de .LASF59
     /tmp/ccByoLA1.s:2327   .debug_str:0000000000000113 .LASF60
     /tmp/ccByoLA1.s:2565   .debug_str:0000000000000920 .LASF61
     /tmp/ccByoLA1.s:2331   .debug_str:0000000000000127 .LASF62
     /tmp/ccByoLA1.s:2385   .debug_str:00000000000002c7 .LASF63
     /tmp/ccByoLA1.s:2507   .debug_str:000000000000068b .LASF64
     /tmp/ccByoLA1.s:2357   .debug_str:00000000000001ee .LASF65
     /tmp/ccByoLA1.s:2555   .debug_str:00000000000008ef .LASF66
     /tmp/ccByoLA1.s:2567   .debug_str:0000000000000940 .LASF67
     /tmp/ccByoLA1.s:2489   .debug_str:0000000000000624 .LASF68
     /tmp/ccByoLA1.s:2569   .debug_str:000000000000096e .LASF69
     /tmp/ccByoLA1.s:2513   .debug_str:00000000000006bc .LASF70
     /tmp/ccByoLA1.s:2539   .debug_str:0000000000000838 .LASF71
     /tmp/ccByoLA1.s:2325   .debug_str:000000000000010d .LASF72
     /tmp/ccByoLA1.s:2499   .debug_str:000000000000064a .LASF73
     /tmp/ccByoLA1.s:2529   .debug_str:0000000000000729 .LASF74
     /tmp/ccByoLA1.s:2311   .debug_str:00000000000000a7 .LASF75
     /tmp/ccByoLA1.s:2547   .debug_str:00000000000008a1 .LASF76
     /tmp/ccByoLA1.s:2523   .debug_str:0000000000000706 .LASF77
     /tmp/ccByoLA1.s:2505   .debug_str:0000000000000671 .LASF78
     /tmp/ccByoLA1.s:2291   .debug_str:000000000000002e .LASF79
     /tmp/ccByoLA1.s:2375   .debug_str:000000000000027f .LASF80
     /tmp/ccByoLA1.s:2355   .debug_str:00000000000001e5 .LASF81
     /tmp/ccByoLA1.s:2487   .debug_str:000000000000060f .LASF82
     /tmp/ccByoLA1.s:2441   .debug_str:00000000000004cf .LASF83
     /tmp/ccByoLA1.s:2337   .debug_str:0000000000000145 .LASF84
     /tmp/ccByoLA1.s:2521   .debug_str:00000000000006ff .LASF85
     /tmp/ccByoLA1.s:2427   .debug_str:0000000000000465 .LASF86
     /tmp/ccByoLA1.s:2373   .debug_str:0000000000000277 .LASF87
     /tmp/ccByoLA1.s:2371   .debug_str:0000000000000263 .LASF88
     /tmp/ccByoLA1.s:2287   .debug_str:0000000000000016 .LASF89
     /tmp/ccByoLA1.s:2423   .debug_str:000000000000042d .LASF90
     /tmp/ccByoLA1.s:2361   .debug_str:000000000000021d .LASF91
     /tmp/ccByoLA1.s:2349   .debug_str:00000000000001be .LASF92
     /tmp/ccByoLA1.s:2321   .debug_str:00000000000000fb .LASF93
     /tmp/ccByoLA1.s:2393   .debug_str:000000000000033b .LASF94
     /tmp/ccByoLA1.s:2491   .debug_str:000000000000062d .LASF95
     /tmp/ccByoLA1.s:2309   .debug_str:0000000000000094 .LASF96
     /tmp/ccByoLA1.s:2307   .debug_str:000000000000008d .LASF97
     /tmp/ccByoLA1.s:2551   .debug_str:00000000000008ce .LASF98
     /tmp/ccByoLA1.s:2379   .debug_str:000000000000029c .LASF99
     /tmp/ccByoLA1.s:2467   .debug_str:0000000000000564 .LASF100
     /tmp/ccByoLA1.s:2305   .debug_str:0000000000000087 .LASF101
     /tmp/ccByoLA1.s:2549   .debug_str:00000000000008bc .LASF102
     /tmp/ccByoLA1.s:2449   .debug_str:00000000000004f8 .LASF103
     /tmp/ccByoLA1.s:2461   .debug_str:000000000000053b .LASF104
     /tmp/ccByoLA1.s:2409   .debug_str:00000000000003cb .LASF105
     /tmp/ccByoLA1.s:2537   .debug_str:0000000000000820 .LASF106
     /tmp/ccByoLA1.s:2333   .debug_str:000000000000012f .LASF107
     /tmp/ccByoLA1.s:2285   .debug_str:0000000000000000 .LASF108
     /tmp/ccByoLA1.s:2299   .debug_str:0000000000000067 .LASF109
     /tmp/ccByoLA1.s:2315   .debug_str:00000000000000ce .LASF110
     /tmp/ccByoLA1.s:2517   .debug_str:00000000000006e0 .LASF111
     /tmp/ccByoLA1.s:2293   .debug_str:0000000000000037 .LASF112
     /tmp/ccByoLA1.s:2401   .debug_str:0000000000000395 .LASF113
     /tmp/ccByoLA1.s:2541   .debug_str:000000000000085a .LASF114
     /tmp/ccByoLA1.s:2481   .debug_str:00000000000005f1 .LASF115
GAS LISTING /tmp/ccByoLA1.s 			page 14


     /tmp/ccByoLA1.s:21     .text:0000000000000000 .LFB44
     /tmp/ccByoLA1.s:222    .text:0000000000000178 .LFE44
     /tmp/ccByoLA1.s:2447   .debug_str:00000000000004f0 .LASF139
     /tmp/ccByoLA1.s:2377   .debug_str:0000000000000294 .LASF116
     /tmp/ccByoLA1.s:163    .text:0000000000000118 .LBB19
     /tmp/ccByoLA1.s:199    .text:000000000000014c .LBE19
     /tmp/ccByoLA1.s:2323   .debug_str:0000000000000103 .LASF117
     /tmp/ccByoLA1.s:2237   .debug_loc:0000000000000000 .LLST0
     /tmp/ccByoLA1.s:2477   .debug_str:00000000000005c8 .LASF118
     /tmp/ccByoLA1.s:2329   .debug_str:000000000000011b .LASF140
     /tmp/ccByoLA1.s:2248   .debug_loc:0000000000000036 .LLST1
     /tmp/ccByoLA1.s:2419   .debug_str:000000000000041d .LASF119
     /tmp/ccByoLA1.s:183    .text:0000000000000138 .LBB20
     /tmp/ccByoLA1.s:198    .text:000000000000014c .LBE20
     /tmp/ccByoLA1.s:2255   .debug_loc:0000000000000059 .LLST2
     /tmp/ccByoLA1.s:193    .text:0000000000000148 .LVL15
     /tmp/ccByoLA1.s:167    .text:0000000000000124 .LVL11
     /tmp/ccByoLA1.s:41     .text:0000000000000018 .LBB12
     /tmp/ccByoLA1.s:2275   .debug_ranges:0000000000000000 .Ldebug_ranges0
     /tmp/ccByoLA1.s:109    .text:00000000000000ac .LBB14
     /tmp/ccByoLA1.s:137    .text:00000000000000e8 .LBE14
     /tmp/ccByoLA1.s:55     .text:0000000000000030 .LBB16
     /tmp/ccByoLA1.s:67     .text:0000000000000034 .LBE16
     /tmp/ccByoLA1.s:75     .text:0000000000000048 .LVL2
     /tmp/ccByoLA1.s:87     .text:0000000000000070 .LVL3
     /tmp/ccByoLA1.s:92     .text:0000000000000080 .LVL4
     /tmp/ccByoLA1.s:99     .text:0000000000000098 .LVL5
     /tmp/ccByoLA1.s:104    .text:00000000000000a8 .LVL6
     /tmp/ccByoLA1.s:143    .text:00000000000000f0 .LVL7
     /tmp/ccByoLA1.s:150    .text:00000000000000fc .LVL8
     /tmp/ccByoLA1.s:156    .text:000000000000010c .LVL9
     /tmp/ccByoLA1.s:204    .text:000000000000015c .LVL17
     /tmp/ccByoLA1.s:2421   .debug_str:0000000000000427 .LASF141
     /tmp/ccByoLA1.s:2387   .debug_str:00000000000002e7 .LASF142
     /tmp/ccByoLA1.s:2559   .debug_str:00000000000008fe .LASF120
     /tmp/ccByoLA1.s:2303   .debug_str:000000000000007d .LASF121
     /tmp/ccByoLA1.s:2347   .debug_str:00000000000001b2 .LASF143
     /tmp/ccByoLA1.s:2465   .debug_str:000000000000055d .LASF122
     /tmp/ccByoLA1.s:2403   .debug_str:00000000000003aa .LASF124
     /tmp/ccByoLA1.s:2435   .debug_str:00000000000004ae .LASF123
     /tmp/ccByoLA1.s:2519   .debug_str:00000000000006ef .LASF125
     /tmp/ccByoLA1.s:2471   .debug_str:0000000000000589 .LASF126
     /tmp/ccByoLA1.s:2351   .debug_str:00000000000001d2 .LASF128
     /tmp/ccByoLA1.s:2561   .debug_str:0000000000000903 .LASF127
     /tmp/ccByoLA1.s:2295   .debug_str:0000000000000053 .LASF129
     /tmp/ccByoLA1.s:161    .text:0000000000000118 .LVL10
     /tmp/ccByoLA1.s:171    .text:0000000000000128 .LVL12
     /tmp/ccByoLA1.s:176    .text:0000000000000130 .LVL13
     /tmp/ccByoLA1.s:195    .text:000000000000014c .LVL16
     /tmp/ccByoLA1.s:215    .text:000000000000016c .LVL18
     /tmp/ccByoLA1.s:182    .text:0000000000000138 .LVL14
     /tmp/ccByoLA1.s:229    .debug_info:0000000000000000 .Ldebug_info0
     /tmp/ccByoLA1.s:50     .text:0000000000000028 .LBE12
     /tmp/ccByoLA1.s:107    .text:00000000000000ac .LBB18
     /tmp/ccByoLA1.s:139    .text:00000000000000e8 .LBE18

UNDEFINED SYMBOLS
GAS LISTING /tmp/ccByoLA1.s 			page 15


_ZN16MemoryAllocation8instanceE
_ZN5RiscV14supervisorTrapEv
_Z13thread_createPP3TCBPFvPvES2_
_ZN3TCB7runningE
_Z11workerBodyAPv
_Z11printStringPKc
_Z11workerBodyBPv
HEAP_START_ADDR
_ZN16MemoryAllocation9fmem_headE
HEAP_END_ADDR
_ZN3TCB5yieldEv
_ZNK3TCB10isFinishedEv
_ZdlPv
_ZdaPv
