GAS LISTING /tmp/ccHl6jYC.s 			page 1


   1              		.file	"main.cpp"
   2              		.option pic
   3              		.option norelax
   4              		.text
   5              	.Ltext0:
   6              		.align	2
   7              		.globl	main
   9              	main:
  10              	.LFB46:
  11              		.file 1 "src/main.cpp"
   1:src/main.cpp  **** #include "../lib/hw.h"
   2:src/main.cpp  **** #include "../lib/console.h"
   3:src/main.cpp  **** #include "../h/tcb.hpp"
   4:src/main.cpp  **** //#include "../h/workers.hpp"
   5:src/main.cpp  **** #include "../h/Print.hpp"
   6:src/main.cpp  **** //#include "../h/MemoryAllocation.hpp"
   7:src/main.cpp  **** #include "../h/RiscV.hpp"
   8:src/main.cpp  **** #include "../h/syscall_c.hpp"
   9:src/main.cpp  **** #include "../h/semaphore.hpp"
  10:src/main.cpp  **** //#include "../src/userMain.cpp"
  11:src/main.cpp  **** //#include "../test/Threads_C_API_test.hpp"
  12:src/main.cpp  **** extern void userMain();
  13:src/main.cpp  **** //typedef semaphore* sem_t;
  14:src/main.cpp  **** //sem_t agent,mutex,matches,paper,tabacco,dummy;
  15:src/main.cpp  **** //void agentfun(void *arg);
  16:src/main.cpp  **** //void smoker1(void* arg);
  17:src/main.cpp  **** //void smoker2(void* arg);
  18:src/main.cpp  **** //void smoker3(void* arg);
  19:src/main.cpp  **** //void dummyfun(void* arg);
  20:src/main.cpp  **** 
  21:src/main.cpp  **** int main(){
  12              		.loc 1 21 11
  13              		.cfi_startproc
  14 0000 130101FE 		addi	sp,sp,-32
  15              		.cfi_def_cfa_offset 32
  16 0004 233C1100 		sd	ra,24(sp)
  17 0008 23388100 		sd	s0,16(sp)
  18              		.cfi_offset 1, -8
  19              		.cfi_offset 8, -16
  20 000c 13040102 		addi	s0,sp,32
  21              		.cfi_def_cfa 8, 0
  22:src/main.cpp  ****     MemoryAllocation* mem_obj;
  22              		.loc 1 22 5
  23:src/main.cpp  ****     mem_obj = mem_obj->getInstance();
  23              		.loc 1 23 5
  24              		.file 2 "src/../h/../h/../h/MemoryAllocation.hpp"
   1:src/../h/../h/../h/MemoryAllocation.hpp **** #include "../lib/hw.h"
   2:src/../h/../h/../h/MemoryAllocation.hpp **** 
   3:src/../h/../h/../h/MemoryAllocation.hpp **** 
   4:src/../h/../h/../h/MemoryAllocation.hpp **** #ifndef PROJECT_BASE_MEMORYALLOCATION_HPP
   5:src/../h/../h/../h/MemoryAllocation.hpp **** #define PROJECT_BASE_MEMORYALLOCATION_HPP
   6:src/../h/../h/../h/MemoryAllocation.hpp **** 
   7:src/../h/../h/../h/MemoryAllocation.hpp **** 
   8:src/../h/../h/../h/MemoryAllocation.hpp **** class MemoryAllocation {
   9:src/../h/../h/../h/MemoryAllocation.hpp **** 
  10:src/../h/../h/../h/MemoryAllocation.hpp ****     //===========================DEFINICIJA SINGLETON KLASE POCETAK=======================k
  11:src/../h/../h/../h/MemoryAllocation.hpp **** private:
GAS LISTING /tmp/ccHl6jYC.s 			page 2


  12:src/../h/../h/../h/MemoryAllocation.hpp **** 
  13:src/../h/../h/../h/MemoryAllocation.hpp ****     struct FreeMem {
  14:src/../h/../h/../h/MemoryAllocation.hpp ****         FreeMem *next;
  15:src/../h/../h/../h/MemoryAllocation.hpp ****         FreeMem *prev;
  16:src/../h/../h/../h/MemoryAllocation.hpp ****         size_t size;
  17:src/../h/../h/../h/MemoryAllocation.hpp ****     };
  18:src/../h/../h/../h/MemoryAllocation.hpp **** 
  19:src/../h/../h/../h/MemoryAllocation.hpp **** 
  20:src/../h/../h/../h/MemoryAllocation.hpp ****     static FreeMem *fmem_head; //koja pocetna vrednost?
  21:src/../h/../h/../h/MemoryAllocation.hpp **** 
  22:src/../h/../h/../h/MemoryAllocation.hpp **** 
  23:src/../h/../h/../h/MemoryAllocation.hpp **** 
  24:src/../h/../h/../h/MemoryAllocation.hpp ****     static MemoryAllocation *instance;
  25:src/../h/../h/../h/MemoryAllocation.hpp ****     int data;
  26:src/../h/../h/../h/MemoryAllocation.hpp **** 
  27:src/../h/../h/../h/MemoryAllocation.hpp **** 
  28:src/../h/../h/../h/MemoryAllocation.hpp ****     MemoryAllocation() { //OVO SE SADA NIGGDE
  29:src/../h/../h/../h/MemoryAllocation.hpp ****         fmem_head->size = (size_t) ((char *) HEAP_END_ADDR -
  30:src/../h/../h/../h/MemoryAllocation.hpp ****                                     (char *) HEAP_START_ADDR); //da li smem ovo da castujem u size_
  31:src/../h/../h/../h/MemoryAllocation.hpp ****         fmem_head->next = nullptr;
  32:src/../h/../h/../h/MemoryAllocation.hpp ****         fmem_head->prev = nullptr;
  33:src/../h/../h/../h/MemoryAllocation.hpp ****         data = 0;
  34:src/../h/../h/../h/MemoryAllocation.hpp ****     }
  35:src/../h/../h/../h/MemoryAllocation.hpp **** 
  36:src/../h/../h/../h/MemoryAllocation.hpp ****     MemoryAllocation(MemoryAllocation const &);
  37:src/../h/../h/../h/MemoryAllocation.hpp **** 
  38:src/../h/../h/../h/MemoryAllocation.hpp ****     void operator=(MemoryAllocation const &);
  39:src/../h/../h/../h/MemoryAllocation.hpp **** 
  40:src/../h/../h/../h/MemoryAllocation.hpp **** public:
  41:src/../h/../h/../h/MemoryAllocation.hpp **** 
  42:src/../h/../h/../h/MemoryAllocation.hpp **** 
  43:src/../h/../h/../h/MemoryAllocation.hpp ****     static MemoryAllocation *getInstance() {
  44:src/../h/../h/../h/MemoryAllocation.hpp ****         if (!instance) {
  25              		.loc 2 44 9
  26              	.LBB8:
  27              	.LBB9:
  28              		.loc 2 44 13 is_stmt 0
  29 0010 97070000 		la	a5,_ZN16MemoryAllocation8instanceE
  29      83B70700 
  30 0018 83B70700 		ld	a5,0(a5)
  31              		.loc 2 44 9
  32 001c 63880704 		beqz	a5,.L4
  33              	.L2:
  34              	.LBE9:
  35              	.LBE8:
  24:src/main.cpp  ****     RiscV::w_stvec((uint64) &RiscV::supervisorTrap);
  36              		.loc 1 24 5 is_stmt 1
  37              		.loc 1 24 19 is_stmt 0
  38 0020 97070000 		la	a5,_ZN5RiscV14supervisorTrapEv
  38      83B70700 
  39              	.LVL0:
  40              	.LBB12:
  41              	.LBB13:
  42              		.file 3 "src/../h/RiscV.hpp"
   1:src/../h/RiscV.hpp **** //
   2:src/../h/RiscV.hpp **** // Created by os on 8/14/22.
   3:src/../h/RiscV.hpp **** //
GAS LISTING /tmp/ccHl6jYC.s 			page 3


   4:src/../h/RiscV.hpp **** 
   5:src/../h/RiscV.hpp **** #ifndef PROJECT_BASE_RISCV_HPP
   6:src/../h/RiscV.hpp **** #define PROJECT_BASE_RISCV_HPP
   7:src/../h/RiscV.hpp **** #include "../lib/hw.h"
   8:src/../h/RiscV.hpp **** 
   9:src/../h/RiscV.hpp **** class RiscV {
  10:src/../h/RiscV.hpp **** public:
  11:src/../h/RiscV.hpp ****     //pop sstatus.spp and sstatus.spie bits(mora da bude ne inline funkcija)
  12:src/../h/RiscV.hpp ****     static void popSppSpie();
  13:src/../h/RiscV.hpp **** 
  14:src/../h/RiscV.hpp ****     //push x3...x31 registers on stack
  15:src/../h/RiscV.hpp ****     static void pushRegisters();
  16:src/../h/RiscV.hpp **** 
  17:src/../h/RiscV.hpp ****     //pop x3...x31 registers on stack
  18:src/../h/RiscV.hpp ****     static void popRegisters();
  19:src/../h/RiscV.hpp **** 
  20:src/../h/RiscV.hpp ****     //read register scause
  21:src/../h/RiscV.hpp ****     static uint64 r_scause();
  22:src/../h/RiscV.hpp **** 
  23:src/../h/RiscV.hpp ****     //write register scause
  24:src/../h/RiscV.hpp ****     static void w_scause(uint64 scause);
  25:src/../h/RiscV.hpp **** 
  26:src/../h/RiscV.hpp ****     //read register sepc
  27:src/../h/RiscV.hpp ****     static uint64 r_sepc();
  28:src/../h/RiscV.hpp **** 
  29:src/../h/RiscV.hpp ****     //write register sepc
  30:src/../h/RiscV.hpp ****     static void w_sepc(uint64 sepc);
  31:src/../h/RiscV.hpp **** 
  32:src/../h/RiscV.hpp ****     //read register stvec
  33:src/../h/RiscV.hpp ****     static uint64 r_stvec();
  34:src/../h/RiscV.hpp **** 
  35:src/../h/RiscV.hpp ****     //write register stvec
  36:src/../h/RiscV.hpp ****     static void w_stvec(uint64 stvec);
  37:src/../h/RiscV.hpp **** 
  38:src/../h/RiscV.hpp ****     //write register stval
  39:src/../h/RiscV.hpp ****     static uint64 r_stval();
  40:src/../h/RiscV.hpp **** 
  41:src/../h/RiscV.hpp ****     //write register stval
  42:src/../h/RiscV.hpp ****     static void w_stval(uint64 stval);
  43:src/../h/RiscV.hpp **** 
  44:src/../h/RiscV.hpp ****     enum BitMaskSip{
  45:src/../h/RiscV.hpp ****         SIP_SSIP = (1 << 1),
  46:src/../h/RiscV.hpp ****         SIP_STIP = (1 << 5),
  47:src/../h/RiscV.hpp ****         SIP_SEIP = (1 << 9),
  48:src/../h/RiscV.hpp ****     };
  49:src/../h/RiscV.hpp **** 
  50:src/../h/RiscV.hpp ****     //mask set register sip
  51:src/../h/RiscV.hpp ****     static void ms_sip(uint64 mask);
  52:src/../h/RiscV.hpp **** 
  53:src/../h/RiscV.hpp ****     //mask clear register sip
  54:src/../h/RiscV.hpp ****     static void mc_sip(uint64 mask);
  55:src/../h/RiscV.hpp **** 
  56:src/../h/RiscV.hpp ****     //read register sip
  57:src/../h/RiscV.hpp ****     static uint64 r_sip();
  58:src/../h/RiscV.hpp **** 
  59:src/../h/RiscV.hpp ****     //write register sip
  60:src/../h/RiscV.hpp ****     static void w_sip(uint64 sip);
GAS LISTING /tmp/ccHl6jYC.s 			page 4


  61:src/../h/RiscV.hpp **** 
  62:src/../h/RiscV.hpp ****     enum BitMaskSstatus{
  63:src/../h/RiscV.hpp ****         SSTATUS_SIE = (1<<1),
  64:src/../h/RiscV.hpp ****         SSTATUS_SPIE = (1<<5),
  65:src/../h/RiscV.hpp ****         SSTATUS_SPP=  (1<<8),
  66:src/../h/RiscV.hpp ****     };
  67:src/../h/RiscV.hpp **** 
  68:src/../h/RiscV.hpp ****     //mask set register sstatus
  69:src/../h/RiscV.hpp ****     static void ms_sstatus(uint64 mask);
  70:src/../h/RiscV.hpp **** 
  71:src/../h/RiscV.hpp ****     //mask clear register sstatus
  72:src/../h/RiscV.hpp ****     static void mc_sstatus(uint64 mask);
  73:src/../h/RiscV.hpp **** 
  74:src/../h/RiscV.hpp ****     //read register sstatus
  75:src/../h/RiscV.hpp ****     static uint64 r_sstatus();
  76:src/../h/RiscV.hpp **** 
  77:src/../h/RiscV.hpp ****     //write register sstatus
  78:src/../h/RiscV.hpp ****     static void w_sstatus(uint64 sstatus);
  79:src/../h/RiscV.hpp **** 
  80:src/../h/RiscV.hpp ****     static void supervisorTrap();
  81:src/../h/RiscV.hpp **** 
  82:src/../h/RiscV.hpp **** private:
  83:src/../h/RiscV.hpp ****     //obradjuje trap handler
  84:src/../h/RiscV.hpp ****     static void handleSupervisorTrap();
  85:src/../h/RiscV.hpp **** };
  86:src/../h/RiscV.hpp **** 
  87:src/../h/RiscV.hpp **** inline uint64 RiscV::r_scause() {
  88:src/../h/RiscV.hpp ****     uint64 volatile scause;
  89:src/../h/RiscV.hpp ****     __asm__ volatile("csrr %[scause], scause" : [scause] "=r"(scause));
  90:src/../h/RiscV.hpp ****     return scause;
  91:src/../h/RiscV.hpp **** 
  92:src/../h/RiscV.hpp **** }
  93:src/../h/RiscV.hpp **** 
  94:src/../h/RiscV.hpp **** inline void RiscV::w_scause(uint64 scause){
  95:src/../h/RiscV.hpp ****     __asm__ volatile("csrw scause, %[scause]": : [scause] "r"(scause));
  96:src/../h/RiscV.hpp **** 
  97:src/../h/RiscV.hpp **** }
  98:src/../h/RiscV.hpp **** 
  99:src/../h/RiscV.hpp **** inline uint64 RiscV::r_sepc(){
 100:src/../h/RiscV.hpp ****     uint64  sepc;
 101:src/../h/RiscV.hpp ****     __asm__ volatile("csrr %[sepc], sepc" : [sepc] "=r"(sepc));
 102:src/../h/RiscV.hpp ****     return sepc;
 103:src/../h/RiscV.hpp **** }
 104:src/../h/RiscV.hpp **** 
 105:src/../h/RiscV.hpp **** inline void RiscV::w_sepc(uint64 volatile sepc){
 106:src/../h/RiscV.hpp ****     __asm__ volatile ("csrw sepc, %[sepc]": : [sepc] "r"(sepc));
 107:src/../h/RiscV.hpp **** }
 108:src/../h/RiscV.hpp **** 
 109:src/../h/RiscV.hpp **** inline uint64 RiscV::r_stvec() {
 110:src/../h/RiscV.hpp ****     uint64 volatile stvec;
 111:src/../h/RiscV.hpp ****     __asm__ volatile ("csrr %[stvec], stvec": [stvec] "=r"(stvec));
 112:src/../h/RiscV.hpp ****     return stvec;
 113:src/../h/RiscV.hpp **** }
 114:src/../h/RiscV.hpp **** 
 115:src/../h/RiscV.hpp **** inline void RiscV::w_stvec(uint64 stvec){
 116:src/../h/RiscV.hpp ****     __asm__ volatile ("csrw stvec, %[stvec]": : [stvec] "r"(stvec));
  43              		.loc 3 116 5 is_stmt 1
GAS LISTING /tmp/ccHl6jYC.s 			page 5


  44              		.loc 3 116 68 is_stmt 0
  45              	#APP
  46              	# 116 "src/../h/RiscV.hpp" 1
 117              	}
  47              		csrw stvec, a5
  48              	# 0 "" 2
  49              	.LVL1:
  50              	#NO_APP
  51              	.LBE13:
  52              	.LBE12:
  25:src/main.cpp  ****     //__asm__ volatile ("csrs sstatus, 0x2"); //todo nesto treba sa ovim spoljasnjim prekidima da s
  26:src/main.cpp  ****     thread_t main;
  53              		.loc 1 26 5 is_stmt 1
  27:src/main.cpp  ****     thread_create(&main, nullptr, nullptr);
  54              		.loc 1 27 5
  55              		.loc 1 27 18 is_stmt 0
  56 002c 13060000 		li	a2,0
  57 0030 93050000 		li	a1,0
  58 0034 130584FE 		addi	a0,s0,-24
  59 0038 97000000 		call	_Z13thread_createPP3TCBPFvPvES2_@plt
  59      E7800000 
  60              	.LVL2:
  28:src/main.cpp  ****     TCB::running = main;
  61              		.loc 1 28 5 is_stmt 1
  62              		.loc 1 28 18 is_stmt 0
  63 0040 97070000 		la	a5,_ZN3TCB7runningE
  63      83B70700 
  64 0048 033784FE 		ld	a4,-24(s0)
  65 004c 23B0E700 		sd	a4,0(a5)
  29:src/main.cpp  **** 
  30:src/main.cpp  **** 
  31:src/main.cpp  **** //    sem_open(&mutex,1);
  32:src/main.cpp  **** //    sem_open(&paper,0);
  33:src/main.cpp  **** //    sem_open(&matches, 0);
  34:src/main.cpp  **** //    sem_open(&agent,0);
  35:src/main.cpp  **** //    sem_open(&tabacco,0);
  36:src/main.cpp  **** //
  37:src/main.cpp  **** //    thread_t t= nullptr;
  38:src/main.cpp  **** //    thread_t t1= nullptr;
  39:src/main.cpp  **** //    thread_t t2= nullptr;
  40:src/main.cpp  **** //    thread_t t3= nullptr;
  41:src/main.cpp  **** //
  42:src/main.cpp  **** //    thread_create(&t, agentfun, nullptr);
  43:src/main.cpp  **** //    thread_create(&t1, smoker1, nullptr);
  44:src/main.cpp  **** //    thread_create(&t2, smoker2, nullptr);
  45:src/main.cpp  **** //    thread_create(&t3, smoker3, nullptr);
  46:src/main.cpp  **** //
  47:src/main.cpp  **** //
  48:src/main.cpp  **** //    sem_open(&dummy,-1);
  49:src/main.cpp  **** //    thread_t tt= nullptr;
  50:src/main.cpp  **** //    thread_t t11= nullptr;
  51:src/main.cpp  **** //    thread_t t21= nullptr;
  52:src/main.cpp  **** //    thread_t t31= nullptr;
  53:src/main.cpp  **** //
  54:src/main.cpp  **** //    thread_create(&tt, dummyfun, nullptr);
  55:src/main.cpp  **** //    thread_create(&t11, dummyfun, nullptr);
  56:src/main.cpp  **** //    thread_create(&t21, dummyfun, nullptr);
GAS LISTING /tmp/ccHl6jYC.s 			page 6


  57:src/main.cpp  **** //    thread_create(&t31, dummyfun, nullptr);
  58:src/main.cpp  **** //    for (int i = 0; i < 30; ++i) {
  59:src/main.cpp  **** //        thread_dispatch();
  60:src/main.cpp  **** //    }
  61:src/main.cpp  **** //    if(sem_wait(dummy)==-1) printString("ubien semafor\n");
  62:src/main.cpp  ****     userMain();
  66              		.loc 1 62 5 is_stmt 1
  67              		.loc 1 62 13 is_stmt 0
  68 0050 97000000 		call	_Z8userMainv@plt
  68      E7800000 
  69              	.LVL3:
  63:src/main.cpp  **** //    char x=getc();
  64:src/main.cpp  **** //    putc(x);
  65:src/main.cpp  **** 
  66:src/main.cpp  ****     return 0;
  70              		.loc 1 66 5 is_stmt 1
  67:src/main.cpp  **** }
  71              		.loc 1 67 1 is_stmt 0
  72 0058 13050000 		li	a0,0
  73 005c 83308101 		ld	ra,24(sp)
  74              		.cfi_remember_state
  75              		.cfi_restore 1
  76 0060 03340101 		ld	s0,16(sp)
  77              		.cfi_restore 8
  78              		.cfi_def_cfa 2, 32
  79 0064 13010102 		addi	sp,sp,32
  80              		.cfi_def_cfa_offset 0
  81 0068 67800000 		jr	ra
  82              	.L4:
  83              		.cfi_restore_state
  84              	.LBB14:
  85              	.LBB11:
  86              	.LBB10:
  45:src/../h/../h/../h/MemoryAllocation.hpp ****             fmem_head =  (FreeMem*) HEAP_START_ADDR;
  87              		.loc 2 45 13 is_stmt 1
  88              		.loc 2 45 23 is_stmt 0
  89 006c 97070000 		la	a5,HEAP_START_ADDR
  89      83B70700 
  90 0074 83B70700 		ld	a5,0(a5)
  91 0078 97060000 		la	a3,_ZN16MemoryAllocation9fmem_headE
  91      83B60600 
  92 0080 23B0F600 		sd	a5,0(a3)
  46:src/../h/../h/../h/MemoryAllocation.hpp ****             fmem_head->size = (size_t) ((char *) HEAP_END_ADDR -
  93              		.loc 2 46 13 is_stmt 1
  94              		.loc 2 46 41 is_stmt 0
  95 0084 17070000 		la	a4,HEAP_END_ADDR
  95      03370700 
  96 008c 03370700 		ld	a4,0(a4)
  97              		.loc 2 46 64
  98 0090 3307F740 		sub	a4,a4,a5
  99              		.loc 2 46 29
 100 0094 23B8E700 		sd	a4,16(a5)
  47:src/../h/../h/../h/MemoryAllocation.hpp ****                                         (char *) HEAP_START_ADDR); //da li smem ovo da castujem u s
  48:src/../h/../h/../h/MemoryAllocation.hpp ****             fmem_head->next = nullptr;
 101              		.loc 2 48 13 is_stmt 1
 102              		.loc 2 48 29 is_stmt 0
 103 0098 23B00700 		sd	zero,0(a5)
GAS LISTING /tmp/ccHl6jYC.s 			page 7


  49:src/../h/../h/../h/MemoryAllocation.hpp ****             fmem_head->prev = nullptr;
 104              		.loc 2 49 13 is_stmt 1
 105              		.loc 2 49 24 is_stmt 0
 106 009c 83B70600 		ld	a5,0(a3)
 107              		.loc 2 49 29
 108 00a0 23B40700 		sd	zero,8(a5)
  50:src/../h/../h/../h/MemoryAllocation.hpp ****             static MemoryAllocation* instance;
 109              		.loc 2 50 13 is_stmt 1
  51:src/../h/../h/../h/MemoryAllocation.hpp ****             return instance;
 110              		.loc 2 51 13
 111              		.loc 2 51 20 is_stmt 0
 112 00a4 6FF0DFF7 		j	.L2
 113              	.LBE10:
 114              	.LBE11:
 115              	.LBE14:
 116              		.cfi_endproc
 117              	.LFE46:
 119              	.Letext0:
 120              		.file 4 "src/../lib/hw.h"
 121              		.file 5 "src/../h/tcb.hpp"
 122              		.file 6 "src/../h/../h/semaphore.hpp"
 123              		.file 7 "src/../h/syscall_c.hpp"
GAS LISTING /tmp/ccHl6jYC.s 			page 8


DEFINED SYMBOLS
                            *ABS*:0000000000000000 main.cpp
     /tmp/ccHl6jYC.s:9      .text:0000000000000000 main
     /tmp/ccHl6jYC.s:13     .text:0000000000000000 .L0 
     /tmp/ccHl6jYC.s:14     .text:0000000000000000 .L0 
     /tmp/ccHl6jYC.s:15     .text:0000000000000004 .L0 
     /tmp/ccHl6jYC.s:18     .text:000000000000000c .L0 
     /tmp/ccHl6jYC.s:19     .text:000000000000000c .L0 
     /tmp/ccHl6jYC.s:21     .text:0000000000000010 .L0 
     /tmp/ccHl6jYC.s:23     .text:0000000000000010 .L0 
     /tmp/ccHl6jYC.s:25     .text:0000000000000010 .L0 
     /tmp/ccHl6jYC.s:28     .text:0000000000000010 .L0 
     /tmp/ccHl6jYC.s:29     .text:0000000000000010 .L0 
     /tmp/ccHl6jYC.s:32     .text:000000000000001c .L0 
     /tmp/ccHl6jYC.s:37     .text:0000000000000020 .L0 
     /tmp/ccHl6jYC.s:38     .text:0000000000000020 .L0 
     /tmp/ccHl6jYC.s:44     .text:0000000000000028 .L0 
  src/../h/RiscV.hpp:116    .text:0000000000000028 .L0 
     /tmp/ccHl6jYC.s:54     .text:000000000000002c .L0 
     /tmp/ccHl6jYC.s:55     .text:000000000000002c .L0 
     /tmp/ccHl6jYC.s:56     .text:000000000000002c .L0 
     /tmp/ccHl6jYC.s:62     .text:0000000000000040 .L0 
     /tmp/ccHl6jYC.s:63     .text:0000000000000040 .L0 
     /tmp/ccHl6jYC.s:67     .text:0000000000000050 .L0 
     /tmp/ccHl6jYC.s:68     .text:0000000000000050 .L0 
     /tmp/ccHl6jYC.s:71     .text:0000000000000058 .L0 
     /tmp/ccHl6jYC.s:72     .text:0000000000000058 .L0 
     /tmp/ccHl6jYC.s:74     .text:0000000000000060 .L0 
     /tmp/ccHl6jYC.s:75     .text:0000000000000060 .L0 
     /tmp/ccHl6jYC.s:77     .text:0000000000000064 .L0 
     /tmp/ccHl6jYC.s:78     .text:0000000000000064 .L0 
     /tmp/ccHl6jYC.s:80     .text:0000000000000068 .L0 
     /tmp/ccHl6jYC.s:83     .text:000000000000006c .L0 
     /tmp/ccHl6jYC.s:88     .text:000000000000006c .L0 
     /tmp/ccHl6jYC.s:89     .text:000000000000006c .L0 
     /tmp/ccHl6jYC.s:94     .text:0000000000000084 .L0 
     /tmp/ccHl6jYC.s:95     .text:0000000000000084 .L0 
     /tmp/ccHl6jYC.s:98     .text:0000000000000090 .L0 
     /tmp/ccHl6jYC.s:100    .text:0000000000000094 .L0 
     /tmp/ccHl6jYC.s:102    .text:0000000000000098 .L0 
     /tmp/ccHl6jYC.s:103    .text:0000000000000098 .L0 
     /tmp/ccHl6jYC.s:105    .text:000000000000009c .L0 
     /tmp/ccHl6jYC.s:106    .text:000000000000009c .L0 
     /tmp/ccHl6jYC.s:108    .text:00000000000000a0 .L0 
     /tmp/ccHl6jYC.s:110    .text:00000000000000a4 .L0 
     /tmp/ccHl6jYC.s:111    .text:00000000000000a4 .L0 
     /tmp/ccHl6jYC.s:112    .text:00000000000000a4 .L0 
     /tmp/ccHl6jYC.s:116    .text:00000000000000a8 .L0 
     /tmp/ccHl6jYC.s:124    .text:00000000000000a8 .L0 
     /tmp/ccHl6jYC.s:29     .text:0000000000000010 .L0 
     /tmp/ccHl6jYC.s:38     .text:0000000000000020 .L0 
     /tmp/ccHl6jYC.s:63     .text:0000000000000040 .L0 
     /tmp/ccHl6jYC.s:89     .text:000000000000006c .L0 
     /tmp/ccHl6jYC.s:91     .text:0000000000000078 .L0 
     /tmp/ccHl6jYC.s:95     .text:0000000000000084 .L0 
     /tmp/ccHl6jYC.s:82     .text:000000000000006c .L4
     /tmp/ccHl6jYC.s:33     .text:0000000000000020 .L2
GAS LISTING /tmp/ccHl6jYC.s 			page 9


     /tmp/ccHl6jYC.s:1190   .debug_abbrev:0000000000000000 .Ldebug_abbrev0
     /tmp/ccHl6jYC.s:2301   .debug_str:000000000000080d .LASF146
     /tmp/ccHl6jYC.s:2175   .debug_str:0000000000000470 .LASF147
     /tmp/ccHl6jYC.s:2127   .debug_str:000000000000029f .LASF148
     /tmp/ccHl6jYC.s:5      .text:0000000000000000 .Ltext0
     /tmp/ccHl6jYC.s:119    .text:00000000000000a8 .Letext0
     /tmp/ccHl6jYC.s:2031   .debug_line:0000000000000000 .Ldebug_line0
     /tmp/ccHl6jYC.s:2211   .debug_str:0000000000000574 .LASF0
     /tmp/ccHl6jYC.s:2229   .debug_str:00000000000005f1 .LASF1
     /tmp/ccHl6jYC.s:2191   .debug_str:0000000000000504 .LASF2
     /tmp/ccHl6jYC.s:2159   .debug_str:0000000000000401 .LASF4
     /tmp/ccHl6jYC.s:2279   .debug_str:0000000000000760 .LASF3
     /tmp/ccHl6jYC.s:2065   .debug_str:00000000000000da .LASF5
     /tmp/ccHl6jYC.s:2235   .debug_str:000000000000062f .LASF6
     /tmp/ccHl6jYC.s:2209   .debug_str:0000000000000561 .LASF7
     /tmp/ccHl6jYC.s:2319   .debug_str:0000000000000963 .LASF8
     /tmp/ccHl6jYC.s:2141   .debug_str:0000000000000322 .LASF9
     /tmp/ccHl6jYC.s:2249   .debug_str:00000000000006a5 .LASF10
     /tmp/ccHl6jYC.s:2305   .debug_str:00000000000008dd .LASF11
     /tmp/ccHl6jYC.s:2069   .debug_str:00000000000000e9 .LASF12
     /tmp/ccHl6jYC.s:2039   .debug_str:000000000000001d .LASF13
     /tmp/ccHl6jYC.s:2087   .debug_str:000000000000014a .LASF14
     /tmp/ccHl6jYC.s:2269   .debug_str:0000000000000714 .LASF15
     /tmp/ccHl6jYC.s:2095   .debug_str:0000000000000190 .LASF16
     /tmp/ccHl6jYC.s:2295   .debug_str:00000000000007df .LASF23
     /tmp/ccHl6jYC.s:2125   .debug_str:0000000000000297 .LASF38
     /tmp/ccHl6jYC.s:2347   .debug_str:0000000000000a82 .LASF17
     /tmp/ccHl6jYC.s:2333   .debug_str:00000000000009e5 .LASF18
     /tmp/ccHl6jYC.s:2297   .debug_str:00000000000007f0 .LASF19
     /tmp/ccHl6jYC.s:2247   .debug_str:000000000000069b .LASF20
     /tmp/ccHl6jYC.s:2217   .debug_str:0000000000000590 .LASF21
     /tmp/ccHl6jYC.s:2263   .debug_str:00000000000006f7 .LASF22
     /tmp/ccHl6jYC.s:2285   .debug_str:000000000000078c .LASF24
     /tmp/ccHl6jYC.s:2243   .debug_str:000000000000065c .LASF25
     /tmp/ccHl6jYC.s:2203   .debug_str:0000000000000544 .LASF26
     /tmp/ccHl6jYC.s:2097   .debug_str:00000000000001a6 .LASF27
     /tmp/ccHl6jYC.s:2303   .debug_str:00000000000008d1 .LASF52
     /tmp/ccHl6jYC.s:2171   .debug_str:000000000000043e .LASF54
     /tmp/ccHl6jYC.s:2077   .debug_str:0000000000000118 .LASF56
     /tmp/ccHl6jYC.s:2341   .debug_str:0000000000000a12 .LASF58
     /tmp/ccHl6jYC.s:2083   .debug_str:0000000000000138 .LASF28
     /tmp/ccHl6jYC.s:2143   .debug_str:0000000000000330 .LASF30
     /tmp/ccHl6jYC.s:2277   .debug_str:0000000000000752 .LASF29
     /tmp/ccHl6jYC.s:2113   .debug_str:0000000000000230 .LASF31
     /tmp/ccHl6jYC.s:2115   .debug_str:0000000000000257 .LASF32
     /tmp/ccHl6jYC.s:2343   .debug_str:0000000000000a32 .LASF33
     /tmp/ccHl6jYC.s:2253   .debug_str:00000000000006c9 .LASF34
     /tmp/ccHl6jYC.s:2345   .debug_str:0000000000000a60 .LASF35
     /tmp/ccHl6jYC.s:2283   .debug_str:0000000000000782 .LASF36
     /tmp/ccHl6jYC.s:2313   .debug_str:0000000000000932 .LASF37
     /tmp/ccHl6jYC.s:2281   .debug_str:0000000000000772 .LASF149
     /tmp/ccHl6jYC.s:2045   .debug_str:0000000000000052 .LASF39
     /tmp/ccHl6jYC.s:2331   .debug_str:00000000000009d8 .LASF40
     /tmp/ccHl6jYC.s:2061   .debug_str:00000000000000b8 .LASF41
     /tmp/ccHl6jYC.s:2137   .debug_str:00000000000002fb .LASF42
     /tmp/ccHl6jYC.s:2037   .debug_str:0000000000000011 .LASF43
     /tmp/ccHl6jYC.s:2289   .debug_str:00000000000007b5 .LASF44
GAS LISTING /tmp/ccHl6jYC.s 			page 10


     /tmp/ccHl6jYC.s:2265   .debug_str:00000000000006fc .LASF45
     /tmp/ccHl6jYC.s:2293   .debug_str:00000000000007cc .LASF46
     /tmp/ccHl6jYC.s:2081   .debug_str:000000000000012b .LASF47
     /tmp/ccHl6jYC.s:2107   .debug_str:000000000000021c .LASF48
     /tmp/ccHl6jYC.s:2259   .debug_str:00000000000006e6 .LASF49
     /tmp/ccHl6jYC.s:2173   .debug_str:0000000000000463 .LASF50
     /tmp/ccHl6jYC.s:2181   .debug_str:0000000000000497 .LASF51
     /tmp/ccHl6jYC.s:2261   .debug_str:00000000000006f2 .LASF150
     /tmp/ccHl6jYC.s:2091   .debug_str:0000000000000169 .LASF62
     /tmp/ccHl6jYC.s:2189   .debug_str:00000000000004e9 .LASF64
     /tmp/ccHl6jYC.s:2049   .debug_str:0000000000000062 .LASF53
     /tmp/ccHl6jYC.s:2093   .debug_str:0000000000000179 .LASF55
     /tmp/ccHl6jYC.s:2237   .debug_str:0000000000000642 .LASF57
     /tmp/ccHl6jYC.s:2139   .debug_str:000000000000030b .LASF59
     /tmp/ccHl6jYC.s:2193   .debug_str:0000000000000512 .LASF60
     /tmp/ccHl6jYC.s:2155   .debug_str:00000000000003c2 .LASF61
     /tmp/ccHl6jYC.s:2271   .debug_str:000000000000072a .LASF63
     /tmp/ccHl6jYC.s:2199   .debug_str:000000000000052e .LASF65
     /tmp/ccHl6jYC.s:2185   .debug_str:00000000000004ce .LASF66
     /tmp/ccHl6jYC.s:2219   .debug_str:0000000000000599 .LASF67
     /tmp/ccHl6jYC.s:2227   .debug_str:00000000000005e9 .LASF151
     /tmp/ccHl6jYC.s:2165   .debug_str:0000000000000426 .LASF68
     /tmp/ccHl6jYC.s:2215   .debug_str:000000000000058a .LASF69
     /tmp/ccHl6jYC.s:2169   .debug_str:0000000000000436 .LASF70
     /tmp/ccHl6jYC.s:2163   .debug_str:000000000000041d .LASF71
     /tmp/ccHl6jYC.s:2339   .debug_str:0000000000000a08 .LASF72
     /tmp/ccHl6jYC.s:2079   .debug_str:0000000000000120 .LASF73
     /tmp/ccHl6jYC.s:2223   .debug_str:00000000000005c9 .LASF74
     /tmp/ccHl6jYC.s:2187   .debug_str:00000000000004db .LASF75
     /tmp/ccHl6jYC.s:2147   .debug_str:0000000000000380 .LASF77
     /tmp/ccHl6jYC.s:2329   .debug_str:00000000000009ca .LASF152
     /tmp/ccHl6jYC.s:2157   .debug_str:00000000000003d9 .LASF153
     /tmp/ccHl6jYC.s:2213   .debug_str:0000000000000581 .LASF76
     /tmp/ccHl6jYC.s:2121   .debug_str:000000000000027f .LASF78
     /tmp/ccHl6jYC.s:2075   .debug_str:0000000000000107 .LASF79
     /tmp/ccHl6jYC.s:2151   .debug_str:00000000000003a3 .LASF154
     /tmp/ccHl6jYC.s:2123   .debug_str:0000000000000292 .LASF80
     /tmp/ccHl6jYC.s:2085   .debug_str:0000000000000140 .LASF81
     /tmp/ccHl6jYC.s:2335   .debug_str:00000000000009ea .LASF82
     /tmp/ccHl6jYC.s:2321   .debug_str:0000000000000973 .LASF83
     /tmp/ccHl6jYC.s:2315   .debug_str:0000000000000954 .LASF84
     /tmp/ccHl6jYC.s:2099   .debug_str:00000000000001c3 .LASF85
     /tmp/ccHl6jYC.s:2195   .debug_str:000000000000051e .LASF86
     /tmp/ccHl6jYC.s:2101   .debug_str:00000000000001df .LASF87
     /tmp/ccHl6jYC.s:2047   .debug_str:000000000000005a .LASF88
     /tmp/ccHl6jYC.s:2055   .debug_str:000000000000007d .LASF89
     /tmp/ccHl6jYC.s:2239   .debug_str:000000000000064d .LASF90
     /tmp/ccHl6jYC.s:2307   .debug_str:00000000000008ec .LASF91
     /tmp/ccHl6jYC.s:2111   .debug_str:000000000000022a .LASF92
     /tmp/ccHl6jYC.s:2119   .debug_str:0000000000000269 .LASF93
     /tmp/ccHl6jYC.s:2067   .debug_str:00000000000000e1 .LASF94
     /tmp/ccHl6jYC.s:2337   .debug_str:00000000000009f0 .LASF95
     /tmp/ccHl6jYC.s:2035   .debug_str:0000000000000009 .LASF96
     /tmp/ccHl6jYC.s:2073   .debug_str:0000000000000101 .LASF97
     /tmp/ccHl6jYC.s:2267   .debug_str:0000000000000709 .LASF98
     /tmp/ccHl6jYC.s:2299   .debug_str:00000000000007f5 .LASF99
     /tmp/ccHl6jYC.s:2059   .debug_str:00000000000000aa .LASF100
GAS LISTING /tmp/ccHl6jYC.s 			page 11


     /tmp/ccHl6jYC.s:2323   .debug_str:000000000000098a .LASF101
     /tmp/ccHl6jYC.s:2129   .debug_str:00000000000002bd .LASF102
     /tmp/ccHl6jYC.s:2273   .debug_str:0000000000000730 .LASF103
     /tmp/ccHl6jYC.s:2041   .debug_str:000000000000002d .LASF104
     /tmp/ccHl6jYC.s:2135   .debug_str:00000000000002e6 .LASF105
     /tmp/ccHl6jYC.s:2109   .debug_str:0000000000000221 .LASF106
     /tmp/ccHl6jYC.s:2251   .debug_str:00000000000006b4 .LASF107
     /tmp/ccHl6jYC.s:2197   .debug_str:0000000000000527 .LASF108
     /tmp/ccHl6jYC.s:2089   .debug_str:0000000000000156 .LASF109
     /tmp/ccHl6jYC.s:2291   .debug_str:00000000000007c5 .LASF110
     /tmp/ccHl6jYC.s:2183   .debug_str:00000000000004bb .LASF111
     /tmp/ccHl6jYC.s:2133   .debug_str:00000000000002de .LASF112
     /tmp/ccHl6jYC.s:2131   .debug_str:00000000000002ca .LASF113
     /tmp/ccHl6jYC.s:2275   .debug_str:000000000000074a .LASF114
     /tmp/ccHl6jYC.s:2179   .debug_str:0000000000000483 .LASF115
     /tmp/ccHl6jYC.s:2117   .debug_str:0000000000000261 .LASF116
     /tmp/ccHl6jYC.s:2103   .debug_str:00000000000001fa .LASF117
     /tmp/ccHl6jYC.s:2071   .debug_str:00000000000000f9 .LASF118
     /tmp/ccHl6jYC.s:2153   .debug_str:00000000000003ae .LASF119
     /tmp/ccHl6jYC.s:2257   .debug_str:00000000000006df .LASF120
     /tmp/ccHl6jYC.s:2057   .debug_str:0000000000000097 .LASF121
     /tmp/ccHl6jYC.s:2317   .debug_str:000000000000095c .LASF122
     /tmp/ccHl6jYC.s:2327   .debug_str:00000000000009b7 .LASF123
     /tmp/ccHl6jYC.s:2201   .debug_str:000000000000053e .LASF124
     /tmp/ccHl6jYC.s:2309   .debug_str:0000000000000908 .LASF125
     /tmp/ccHl6jYC.s:2053   .debug_str:0000000000000077 .LASF126
     /tmp/ccHl6jYC.s:2325   .debug_str:00000000000009a5 .LASF127
     /tmp/ccHl6jYC.s:2207   .debug_str:0000000000000556 .LASF128
     /tmp/ccHl6jYC.s:2221   .debug_str:00000000000005b1 .LASF129
     /tmp/ccHl6jYC.s:2167   .debug_str:000000000000042b .LASF130
     /tmp/ccHl6jYC.s:2311   .debug_str:000000000000091a .LASF131
     /tmp/ccHl6jYC.s:2149   .debug_str:0000000000000399 .LASF132
     /tmp/ccHl6jYC.s:2225   .debug_str:00000000000005d3 .LASF133
     /tmp/ccHl6jYC.s:2231   .debug_str:0000000000000604 .LASF134
     /tmp/ccHl6jYC.s:2063   .debug_str:00000000000000c4 .LASF135
     /tmp/ccHl6jYC.s:2287   .debug_str:00000000000007a6 .LASF136
     /tmp/ccHl6jYC.s:2043   .debug_str:0000000000000036 .LASF137
     /tmp/ccHl6jYC.s:2161   .debug_str:0000000000000408 .LASF138
     /tmp/ccHl6jYC.s:2245   .debug_str:0000000000000679 .LASF139
     /tmp/ccHl6jYC.s:2033   .debug_str:0000000000000000 .LASF140
     /tmp/ccHl6jYC.s:2241   .debug_str:0000000000000657 .LASF141
     /tmp/ccHl6jYC.s:10     .text:0000000000000000 .LFB46
     /tmp/ccHl6jYC.s:117    .text:00000000000000a8 .LFE46
     /tmp/ccHl6jYC.s:2205   .debug_str:000000000000054e .LASF155
     /tmp/ccHl6jYC.s:26     .text:0000000000000010 .LBB8
     /tmp/ccHl6jYC.s:2023   .debug_ranges:0000000000000000 .Ldebug_ranges0
     /tmp/ccHl6jYC.s:86     .text:000000000000006c .LBB10
     /tmp/ccHl6jYC.s:113    .text:00000000000000a8 .LBE10
     /tmp/ccHl6jYC.s:40     .text:0000000000000028 .LBB12
     /tmp/ccHl6jYC.s:52     .text:000000000000002c .LBE12
     /tmp/ccHl6jYC.s:60     .text:0000000000000040 .LVL2
     /tmp/ccHl6jYC.s:69     .text:0000000000000058 .LVL3
     /tmp/ccHl6jYC.s:2177   .debug_str:000000000000047d .LASF156
     /tmp/ccHl6jYC.s:2145   .debug_str:0000000000000350 .LASF157
     /tmp/ccHl6jYC.s:2233   .debug_str:000000000000060e .LASF142
     /tmp/ccHl6jYC.s:2105   .debug_str:000000000000020e .LASF144
     /tmp/ccHl6jYC.s:2255   .debug_str:00000000000006d2 .LASF143
GAS LISTING /tmp/ccHl6jYC.s 			page 12


     /tmp/ccHl6jYC.s:2051   .debug_str:000000000000006e .LASF145
     /tmp/ccHl6jYC.s:125    .debug_info:0000000000000000 .Ldebug_info0
     /tmp/ccHl6jYC.s:35     .text:0000000000000020 .LBE8
     /tmp/ccHl6jYC.s:84     .text:000000000000006c .LBB14
     /tmp/ccHl6jYC.s:115    .text:00000000000000a8 .LBE14

UNDEFINED SYMBOLS
_ZN16MemoryAllocation8instanceE
_ZN5RiscV14supervisorTrapEv
_Z13thread_createPP3TCBPFvPvES2_
_ZN3TCB7runningE
_Z8userMainv
HEAP_START_ADDR
_ZN16MemoryAllocation9fmem_headE
HEAP_END_ADDR
