GAS LISTING /tmp/cc1kFpjO.s 			page 1


   1              		.file	"main.cpp"
   2              		.option pic
   3              		.option norelax
   4              		.text
   5              	.Ltext0:
   6              		.align	2
   7              		.globl	_Z11printStringPKc
   9              	_Z11printStringPKc:
  10              	.LFB10:
  11              		.file 1 "src/main.cpp"
   1:src/main.cpp  **** #include "../lib/console.h"
   2:src/main.cpp  **** #include "../h/MemoryAllocation.hpp"
   3:src/main.cpp  **** 
   4:src/main.cpp  **** 
   5:src/main.cpp  **** 
   6:src/main.cpp  **** void printString(const char *string){
  12              		.loc 1 6 37
  13              		.cfi_startproc
  14              	.LVL0:
  15 0000 130101FE 		addi	sp,sp,-32
  16              		.cfi_def_cfa_offset 32
  17 0004 233C1100 		sd	ra,24(sp)
  18 0008 23388100 		sd	s0,16(sp)
  19 000c 23349100 		sd	s1,8(sp)
  20 0010 23302101 		sd	s2,0(sp)
  21              		.cfi_offset 1, -8
  22              		.cfi_offset 8, -16
  23              		.cfi_offset 9, -24
  24              		.cfi_offset 18, -32
  25 0014 13040102 		addi	s0,sp,32
  26              		.cfi_def_cfa 8, 0
  27 0018 13090500 		mv	s2,a0
   7:src/main.cpp  ****     char c;
  28              		.loc 1 7 5
   8:src/main.cpp  ****     int i = 0;
  29              		.loc 1 8 5
  30              	.LVL1:
  31              		.loc 1 8 9 is_stmt 0
  32 001c 93070000 		li	a5,0
  33              	.LVL2:
  34              	.L3:
   9:src/main.cpp  ****     while((c=string[i++])!='\0') __putc(c);
  35              		.loc 1 9 5 is_stmt 1 discriminator 2
  36              		.loc 1 9 26 discriminator 2
  37              		.loc 1 9 22 is_stmt 0 discriminator 2
  38 0020 9B841700 		addiw	s1,a5,1
  39              	.LVL3:
  40              		.loc 1 9 24 discriminator 2
  41 0024 B307F900 		add	a5,s2,a5
  42              	.LVL4:
  43              		.loc 1 9 13 discriminator 2
  44 0028 03C50700 		lbu	a0,0(a5)
  45              	.LVL5:
  46              		.loc 1 9 26 discriminator 2
  47 002c 630A0500 		beqz	a0,.L1
  48              		.loc 1 9 34 is_stmt 1 discriminator 1
  49              		.loc 1 9 40 is_stmt 0 discriminator 1
GAS LISTING /tmp/cc1kFpjO.s 			page 2


  50 0030 97000000 		call	__putc@plt
  50      E7800000 
  51              	.LVL6:
  52              		.loc 1 9 22 discriminator 1
  53 0038 93870400 		mv	a5,s1
  54              		.loc 1 9 5 discriminator 1
  55 003c 6FF05FFE 		j	.L3
  56              	.LVL7:
  57              	.L1:
  10:src/main.cpp  **** }
  58              		.loc 1 10 1
  59 0040 83308101 		ld	ra,24(sp)
  60              		.cfi_restore 1
  61 0044 03340101 		ld	s0,16(sp)
  62              		.cfi_restore 8
  63              		.cfi_def_cfa 2, 32
  64 0048 83348100 		ld	s1,8(sp)
  65              		.cfi_restore 9
  66 004c 03390100 		ld	s2,0(sp)
  67              		.cfi_restore 18
  68              	.LVL8:
  69 0050 13010102 		addi	sp,sp,32
  70              		.cfi_def_cfa_offset 0
  71 0054 67800000 		jr	ra
  72              		.cfi_endproc
  73              	.LFE10:
  75              		.align	2
  76              		.globl	_Z10readStringPc
  78              	_Z10readStringPc:
  79              	.LFB11:
  11:src/main.cpp  **** 
  12:src/main.cpp  **** void readString(char rec[]){
  80              		.loc 1 12 28 is_stmt 1
  81              		.cfi_startproc
  82              	.LVL9:
  83 0058 130101FE 		addi	sp,sp,-32
  84              		.cfi_def_cfa_offset 32
  85 005c 233C1100 		sd	ra,24(sp)
  86 0060 23388100 		sd	s0,16(sp)
  87 0064 23349100 		sd	s1,8(sp)
  88 0068 23302101 		sd	s2,0(sp)
  89              		.cfi_offset 1, -8
  90              		.cfi_offset 8, -16
  91              		.cfi_offset 9, -24
  92              		.cfi_offset 18, -32
  93 006c 13040102 		addi	s0,sp,32
  94              		.cfi_def_cfa 8, 0
  95 0070 13090500 		mv	s2,a0
  13:src/main.cpp  ****     char c;
  96              		.loc 1 13 5
  14:src/main.cpp  ****     int i = 0;
  97              		.loc 1 14 5
  98              	.LVL10:
  99              		.loc 1 14 9 is_stmt 0
 100 0074 93040000 		li	s1,0
 101              	.LVL11:
 102              	.L7:
GAS LISTING /tmp/cc1kFpjO.s 			page 3


  15:src/main.cpp  ****     while((c=__getc())!='\n') rec[i++] = c;
 103              		.loc 1 15 5 is_stmt 1 discriminator 2
 104              		.loc 1 15 23 discriminator 2
 105              		.loc 1 15 20 is_stmt 0 discriminator 2
 106 0078 97000000 		call	__getc@plt
 106      E7800000 
 107              	.LVL12:
 108              		.loc 1 15 23 discriminator 2
 109 0080 9307A000 		li	a5,10
 110 0084 630AF500 		beq	a0,a5,.L5
 111              		.loc 1 15 31 is_stmt 1 discriminator 1
 112              	.LVL13:
 113              		.loc 1 15 38 is_stmt 0 discriminator 1
 114 0088 B3079900 		add	a5,s2,s1
 115              		.loc 1 15 40 discriminator 1
 116 008c 2380A700 		sb	a0,0(a5)
 117              		.loc 1 15 36 discriminator 1
 118 0090 9B841400 		addiw	s1,s1,1
 119              	.LVL14:
 120              		.loc 1 15 5 discriminator 1
 121 0094 6FF05FFE 		j	.L7
 122              	.LVL15:
 123              	.L5:
  16:src/main.cpp  **** }
 124              		.loc 1 16 1
 125 0098 83308101 		ld	ra,24(sp)
 126              		.cfi_restore 1
 127 009c 03340101 		ld	s0,16(sp)
 128              		.cfi_restore 8
 129              		.cfi_def_cfa 2, 32
 130 00a0 83348100 		ld	s1,8(sp)
 131              		.cfi_restore 9
 132              	.LVL16:
 133 00a4 03390100 		ld	s2,0(sp)
 134              		.cfi_restore 18
 135              	.LVL17:
 136 00a8 13010102 		addi	sp,sp,32
 137              		.cfi_def_cfa_offset 0
 138 00ac 67800000 		jr	ra
 139              		.cfi_endproc
 140              	.LFE11:
 142              		.align	2
 143              		.globl	_Z8printIntm
 145              	_Z8printIntm:
 146              	.LFB12:
  17:src/main.cpp  **** 
  18:src/main.cpp  **** 
  19:src/main.cpp  **** void printInt(uint64 n){
 147              		.loc 1 19 24 is_stmt 1
 148              		.cfi_startproc
 149              	.LVL18:
 150 00b0 130101FE 		addi	sp,sp,-32
 151              		.cfi_def_cfa_offset 32
 152 00b4 233C1100 		sd	ra,24(sp)
 153 00b8 23388100 		sd	s0,16(sp)
 154 00bc 23349100 		sd	s1,8(sp)
 155              		.cfi_offset 1, -8
GAS LISTING /tmp/cc1kFpjO.s 			page 4


 156              		.cfi_offset 8, -16
 157              		.cfi_offset 9, -24
 158 00c0 13040102 		addi	s0,sp,32
 159              		.cfi_def_cfa 8, 0
 160 00c4 93040500 		mv	s1,a0
  20:src/main.cpp  ****     if (n < 0) {
 161              		.loc 1 20 5
  21:src/main.cpp  ****         __putc('-');
  22:src/main.cpp  ****         n = -n;
  23:src/main.cpp  ****     }
  24:src/main.cpp  ****     if (n/10)
 162              		.loc 1 24 5
 163 00c8 93079000 		li	a5,9
 164 00cc 63E6A702 		bgtu	a0,a5,.L12
 165              	.LVL19:
 166              	.L10:
  25:src/main.cpp  ****         printInt(n/10);
  26:src/main.cpp  ****     __putc(n%10 + '0');
 167              		.loc 1 26 5
 168              		.loc 1 26 13 is_stmt 0
 169 00d0 1305A000 		li	a0,10
 170 00d4 33F5A402 		remu	a0,s1,a0
 171              		.loc 1 26 11
 172 00d8 13050503 		addi	a0,a0,48
 173 00dc 97000000 		call	__putc@plt
 173      E7800000 
 174              	.LVL20:
  27:src/main.cpp  **** }
 175              		.loc 1 27 1
 176 00e4 83308101 		ld	ra,24(sp)
 177              		.cfi_remember_state
 178              		.cfi_restore 1
 179 00e8 03340101 		ld	s0,16(sp)
 180              		.cfi_restore 8
 181              		.cfi_def_cfa 2, 32
 182 00ec 83348100 		ld	s1,8(sp)
 183              		.cfi_restore 9
 184              	.LVL21:
 185 00f0 13010102 		addi	sp,sp,32
 186              		.cfi_def_cfa_offset 0
 187 00f4 67800000 		jr	ra
 188              	.LVL22:
 189              	.L12:
 190              		.cfi_restore_state
  25:src/main.cpp  ****         printInt(n/10);
 191              		.loc 1 25 9 is_stmt 1
  25:src/main.cpp  ****         printInt(n/10);
 192              		.loc 1 25 17 is_stmt 0
 193 00f8 1305A000 		li	a0,10
 194 00fc 33D5A402 		divu	a0,s1,a0
 195 0100 97000000 		call	_Z8printIntm
 195      E7800000 
 196              	.LVL23:
 197 0108 6FF09FFC 		j	.L10
 198              		.cfi_endproc
 199              	.LFE12:
 201              		.align	2
GAS LISTING /tmp/cc1kFpjO.s 			page 5


 202              		.globl	_Z12printIntegerm
 204              	_Z12printIntegerm:
 205              	.LFB13:
  28:src/main.cpp  **** 
  29:src/main.cpp  **** void printInteger(uint64 n){
 206              		.loc 1 29 28 is_stmt 1
 207              		.cfi_startproc
 208              	.LVL24:
 209 010c 130101FF 		addi	sp,sp,-16
 210              		.cfi_def_cfa_offset 16
 211 0110 23341100 		sd	ra,8(sp)
 212 0114 23308100 		sd	s0,0(sp)
 213              		.cfi_offset 1, -8
 214              		.cfi_offset 8, -16
 215 0118 13040101 		addi	s0,sp,16
 216              		.cfi_def_cfa 8, 0
  30:src/main.cpp  ****     printInt(n);
 217              		.loc 1 30 5
 218              		.loc 1 30 13 is_stmt 0
 219 011c 97000000 		call	_Z8printIntm
 219      E7800000 
 220              	.LVL25:
  31:src/main.cpp  ****     __putc('\n');
 221              		.loc 1 31 5 is_stmt 1
 222              		.loc 1 31 11 is_stmt 0
 223 0124 1305A000 		li	a0,10
 224 0128 97000000 		call	__putc@plt
 224      E7800000 
 225              	.LVL26:
  32:src/main.cpp  **** }
 226              		.loc 1 32 1
 227 0130 83308100 		ld	ra,8(sp)
 228              		.cfi_restore 1
 229 0134 03340100 		ld	s0,0(sp)
 230              		.cfi_restore 8
 231              		.cfi_def_cfa 2, 16
 232 0138 13010101 		addi	sp,sp,16
 233              		.cfi_def_cfa_offset 0
 234 013c 67800000 		jr	ra
 235              		.cfi_endproc
 236              	.LFE13:
 238              		.section	.rodata.str1.8,"aMS",@progbits,1
 239              		.align	3
 240              	.LC0:
 241 0000 6D616C6C 		.string	"mallocFree\n"
 241      6F634672 
 241      65650A00 
 242 000c 00000000 		.align	3
 243              	.LC1:
 244 0010 6E6F7420 		.string	"not ok 1 \n"
 244      6F6B2031 
 244      200A00
 245 001b 00000000 		.align	3
 245      00
 246              	.LC2:
 247 0020 6F6B2031 		.string	"ok 1 \n"
 247      200A00
GAS LISTING /tmp/cc1kFpjO.s 			page 6


 248 0027 00       		.align	3
 249              	.LC3:
 250 0028 6E6F7420 		.string	"not ok 2\n"
 250      6F6B2032 
 250      0A00
 251 0032 00000000 		.align	3
 251      0000
 252              	.LC4:
 253 0038 6F6B2032 		.string	"ok 2 \n"
 253      200A00
 254 003f 00       		.align	3
 255              	.LC5:
 256 0040 6E6F7420 		.string	"not ok 3\n"
 256      6F6B2033 
 256      0A00
 257 004a 00000000 		.align	3
 257      0000
 258              	.LC6:
 259 0050 6F6B2033 		.string	"ok 3 \n"
 259      200A00
 260 0057 00       		.align	3
 261              	.LC7:
 262 0058 6E6F7420 		.string	"not ok 4\n"
 262      6F6B2034 
 262      0A00
 263 0062 00000000 		.align	3
 263      0000
 264              	.LC8:
 265 0068 6F6B0A00 		.string	"ok\n"
 266              		.text
 267              		.align	2
 268              		.globl	_Z10mallocFreev
 270              	_Z10mallocFreev:
 271              	.LFB14:
  33:src/main.cpp  **** void mallocFree(){
 272              		.loc 1 33 18 is_stmt 1
 273              		.cfi_startproc
 274 0140 130101CD 		addi	sp,sp,-816
 275              		.cfi_def_cfa_offset 816
 276 0144 23341132 		sd	ra,808(sp)
 277 0148 23308132 		sd	s0,800(sp)
 278              		.cfi_offset 1, -8
 279              		.cfi_offset 8, -16
 280 014c 13040133 		addi	s0,sp,816
 281              		.cfi_def_cfa 8, 0
  34:src/main.cpp  ****     //================PROVERI CEO OVAJ SEGMENT U DEBUGGERU VEOMA DETALJNO, SADA KADA "RADI"========
  35:src/main.cpp  ****     printString("mallocFree\n");
 282              		.loc 1 35 5
 283              		.loc 1 35 16 is_stmt 0
 284 0150 17050000 		lla	a0,.LC0
 284      13050500 
 285 0158 97000000 		call	_Z11printStringPKc
 285      E7800000 
 286              	.LVL27:
 287              	.LBB68:
  36:src/main.cpp  ****     constexpr int num = 100;
  37:src/main.cpp  ****     void* addrs[num];
GAS LISTING /tmp/cc1kFpjO.s 			page 7


  38:src/main.cpp  ****     for(int i = 0; i<num;i++){
 288              		.loc 1 38 13
 289 0160 93060000 		li	a3,0
 290 0164 6F008009 		j	.L28
 291              	.LVL28:
 292              	.L68:
 293              	.LBB69:
 294              	.LBB70:
 295              	.LBB71:
 296              		.file 2 "src/../h/MemoryAllocation.hpp"
   1:src/../h/MemoryAllocation.hpp **** #include "../lib/hw.h"
   2:src/../h/MemoryAllocation.hpp **** 
   3:src/../h/MemoryAllocation.hpp **** 
   4:src/../h/MemoryAllocation.hpp **** #ifndef PROJECT_BASE_MEMORYALLOCATION_HPP
   5:src/../h/MemoryAllocation.hpp **** #define PROJECT_BASE_MEMORYALLOCATION_HPP
   6:src/../h/MemoryAllocation.hpp **** 
   7:src/../h/MemoryAllocation.hpp **** 
   8:src/../h/MemoryAllocation.hpp **** class MemoryAllocation {
   9:src/../h/MemoryAllocation.hpp **** 
  10:src/../h/MemoryAllocation.hpp ****     //===========================DEFINICIJA SINGLETON KLASE POCETAK=======================
  11:src/../h/MemoryAllocation.hpp **** private:
  12:src/../h/MemoryAllocation.hpp **** 
  13:src/../h/MemoryAllocation.hpp ****     struct FreeMem {
  14:src/../h/MemoryAllocation.hpp ****         FreeMem *next;
  15:src/../h/MemoryAllocation.hpp ****         FreeMem *prev;
  16:src/../h/MemoryAllocation.hpp ****         size_t size;
  17:src/../h/MemoryAllocation.hpp ****     };
  18:src/../h/MemoryAllocation.hpp **** 
  19:src/../h/MemoryAllocation.hpp **** 
  20:src/../h/MemoryAllocation.hpp ****     static FreeMem *fmem_head; //koja pocetna vrednost?
  21:src/../h/MemoryAllocation.hpp **** 
  22:src/../h/MemoryAllocation.hpp **** 
  23:src/../h/MemoryAllocation.hpp **** 
  24:src/../h/MemoryAllocation.hpp ****     static MemoryAllocation *instance;
  25:src/../h/MemoryAllocation.hpp ****     int data;
  26:src/../h/MemoryAllocation.hpp **** 
  27:src/../h/MemoryAllocation.hpp **** 
  28:src/../h/MemoryAllocation.hpp ****     MemoryAllocation() { //OVO SE SADA NIGGDE
  29:src/../h/MemoryAllocation.hpp ****         fmem_head->size = (size_t) ((char *) HEAP_END_ADDR -
  30:src/../h/MemoryAllocation.hpp ****                                     (char *) HEAP_START_ADDR); //da li smem ovo da castujem u size_
  31:src/../h/MemoryAllocation.hpp ****         fmem_head->next = nullptr;
  32:src/../h/MemoryAllocation.hpp ****         fmem_head->prev = nullptr;
  33:src/../h/MemoryAllocation.hpp ****         data = 0;
  34:src/../h/MemoryAllocation.hpp ****     }
  35:src/../h/MemoryAllocation.hpp **** 
  36:src/../h/MemoryAllocation.hpp ****     MemoryAllocation(MemoryAllocation const &);
  37:src/../h/MemoryAllocation.hpp **** 
  38:src/../h/MemoryAllocation.hpp ****     void operator=(MemoryAllocation const &);
  39:src/../h/MemoryAllocation.hpp **** 
  40:src/../h/MemoryAllocation.hpp **** public:
  41:src/../h/MemoryAllocation.hpp **** 
  42:src/../h/MemoryAllocation.hpp **** 
  43:src/../h/MemoryAllocation.hpp ****     static MemoryAllocation *getInstance() {
  44:src/../h/MemoryAllocation.hpp ****         if (!instance) {
  45:src/../h/MemoryAllocation.hpp ****             fmem_head =  (FreeMem*) HEAP_START_ADDR;
  46:src/../h/MemoryAllocation.hpp ****             fmem_head->size = (size_t) ((char *) HEAP_END_ADDR -
  47:src/../h/MemoryAllocation.hpp ****                                         (char *) HEAP_START_ADDR); //da li smem ovo da castujem u s
GAS LISTING /tmp/cc1kFpjO.s 			page 8


  48:src/../h/MemoryAllocation.hpp ****             fmem_head->next = nullptr;
  49:src/../h/MemoryAllocation.hpp ****             fmem_head->prev = nullptr;
  50:src/../h/MemoryAllocation.hpp ****             static MemoryAllocation* instance;
  51:src/../h/MemoryAllocation.hpp ****             return instance;
  52:src/../h/MemoryAllocation.hpp ****         }
  53:src/../h/MemoryAllocation.hpp ****         return instance;
  54:src/../h/MemoryAllocation.hpp ****     }
  55:src/../h/MemoryAllocation.hpp **** 
  56:src/../h/MemoryAllocation.hpp **** 
  57:src/../h/MemoryAllocation.hpp ****     int getData() {
  58:src/../h/MemoryAllocation.hpp ****         return this->data;
  59:src/../h/MemoryAllocation.hpp ****     }
  60:src/../h/MemoryAllocation.hpp **** 
  61:src/../h/MemoryAllocation.hpp ****     void setData(int data) {
  62:src/../h/MemoryAllocation.hpp ****         this->data = data;
  63:src/../h/MemoryAllocation.hpp ****     }
  64:src/../h/MemoryAllocation.hpp **** 
  65:src/../h/MemoryAllocation.hpp ****     /*MemoryAllocation(MemoryAllocation const&) = delete;
  66:src/../h/MemoryAllocation.hpp ****     void operator=(MemoryAllocation const&)  = delete;*/
  67:src/../h/MemoryAllocation.hpp **** //===========================DEFINICIJA SINGLETON KLASE KRAJ========================
  68:src/../h/MemoryAllocation.hpp ****     static int bytesToBlocks(size_t size){
  69:src/../h/MemoryAllocation.hpp ****         return (size+MEM_BLOCK_SIZE-1)/MEM_BLOCK_SIZE;
  70:src/../h/MemoryAllocation.hpp ****     }
  71:src/../h/MemoryAllocation.hpp **** 
  72:src/../h/MemoryAllocation.hpp **** 
  73:src/../h/MemoryAllocation.hpp **** //===========================METODE ZA ALOKACIJU MEMORIJE===========================
  74:src/../h/MemoryAllocation.hpp ****     static void tryToJoin (FreeMem* curr) {
  75:src/../h/MemoryAllocation.hpp ****         if (!curr) return;
  76:src/../h/MemoryAllocation.hpp ****         if (curr->next && (char*)curr+curr->size == (char*)(curr->next)) {
  77:src/../h/MemoryAllocation.hpp ****         // Remove the cur->next segment:
  78:src/../h/MemoryAllocation.hpp ****             curr->size += curr->next->size;
  79:src/../h/MemoryAllocation.hpp ****             curr->next = curr->next->next;
  80:src/../h/MemoryAllocation.hpp ****             if (curr->next) curr->next->prev = curr;
  81:src/../h/MemoryAllocation.hpp ****             return;
  82:src/../h/MemoryAllocation.hpp ****         }
  83:src/../h/MemoryAllocation.hpp **** 
  84:src/../h/MemoryAllocation.hpp ****     }
  85:src/../h/MemoryAllocation.hpp **** 
  86:src/../h/MemoryAllocation.hpp ****     //===================================== mem_free, ali sa ptr ===============
  87:src/../h/MemoryAllocation.hpp ****         static int mem_free(void* ptr) { //radi i kada posaljem sa &
  88:src/../h/MemoryAllocation.hpp ****         FreeMem* cur=0;
  89:src/../h/MemoryAllocation.hpp ****         if(!fmem_head || ptr < (char*)fmem_head)
  90:src/../h/MemoryAllocation.hpp ****         {
  91:src/../h/MemoryAllocation.hpp ****             cur=nullptr;
  92:src/../h/MemoryAllocation.hpp ****         }else {
  93:src/../h/MemoryAllocation.hpp ****                 for (cur=fmem_head; cur->next!=ptr && ptr>(char*)(cur->next); cur=cur->next); //moz
  94:src/../h/MemoryAllocation.hpp ****             }
  95:src/../h/MemoryAllocation.hpp ****                 FreeMem* newSeg = (FreeMem*)ptr;
  96:src/../h/MemoryAllocation.hpp ****                 newSeg->next=nullptr;
  97:src/../h/MemoryAllocation.hpp ****                 newSeg->prev=nullptr;
  98:src/../h/MemoryAllocation.hpp ****                 newSeg->size=bytesToBlocks(sizeof(ptr))*MEM_BLOCK_SIZE+sizeof(fmem_head);
  99:src/../h/MemoryAllocation.hpp ****                         //sizeof(ptr);
 100:src/../h/MemoryAllocation.hpp ****                 newSeg->prev=cur;
 101:src/../h/MemoryAllocation.hpp ****                 if(cur) {
 102:src/../h/MemoryAllocation.hpp ****                     newSeg->next = cur->next;
 103:src/../h/MemoryAllocation.hpp ****                 }
 104:src/../h/MemoryAllocation.hpp ****                 else {
GAS LISTING /tmp/cc1kFpjO.s 			page 9


 105:src/../h/MemoryAllocation.hpp ****                     newSeg->next = fmem_head;
 106:src/../h/MemoryAllocation.hpp ****                 }
 107:src/../h/MemoryAllocation.hpp ****                 if(newSeg->next) {
 108:src/../h/MemoryAllocation.hpp ****                     newSeg->next->prev=newSeg;
 109:src/../h/MemoryAllocation.hpp ****                 }
 110:src/../h/MemoryAllocation.hpp ****                 if (cur) {
 111:src/../h/MemoryAllocation.hpp ****                     cur->next = newSeg; //zasto ovde odjednom uzme vrednost x8000 umesto x8000f...?
 112:src/../h/MemoryAllocation.hpp ****                 }
 113:src/../h/MemoryAllocation.hpp ****                 else {
 114:src/../h/MemoryAllocation.hpp ****                     fmem_head = newSeg;
 115:src/../h/MemoryAllocation.hpp ****                 }
 116:src/../h/MemoryAllocation.hpp ****                 // Try to merge with the previous and next segments:
 117:src/../h/MemoryAllocation.hpp ****             tryToJoin(newSeg);
 118:src/../h/MemoryAllocation.hpp ****             tryToJoin(cur);
 119:src/../h/MemoryAllocation.hpp ****             //mozda da fmem_head nije jednako starom fmem_headu?
 120:src/../h/MemoryAllocation.hpp ****             if(newSeg==nullptr){
 121:src/../h/MemoryAllocation.hpp ****                 return -1;
 122:src/../h/MemoryAllocation.hpp ****             }else{return 0;}
 123:src/../h/MemoryAllocation.hpp **** 
 124:src/../h/MemoryAllocation.hpp **** 
 125:src/../h/MemoryAllocation.hpp ****     }
 126:src/../h/MemoryAllocation.hpp ****     //===================================== kraj probe ==========================
 127:src/../h/MemoryAllocation.hpp **** 
 128:src/../h/MemoryAllocation.hpp **** 
 129:src/../h/MemoryAllocation.hpp **** 
 130:src/../h/MemoryAllocation.hpp ****     /*int mem_free(char* addr, size_t size) {
 131:src/../h/MemoryAllocation.hpp ****         // Find the place where to insert the new free segment (just after cur):
 132:src/../h/MemoryAllocation.hpp ****         FreeMem* cur=0;
 133:src/../h/MemoryAllocation.hpp ****         if (!fmem_head || addr<(char*)fmem_head)
 134:src/../h/MemoryAllocation.hpp ****             cur = 0; // insert as the first
 135:src/../h/MemoryAllocation.hpp ****         else
 136:src/../h/MemoryAllocation.hpp ****             for (cur=fmem_head; cur->next!=0 && addr>(char*)(cur->next);
 137:src/../h/MemoryAllocation.hpp ****                  cur=cur->next);
 138:src/../h/MemoryAllocation.hpp ****             // Insert the new segment after cur:
 139:src/../h/MemoryAllocation.hpp ****         FreeMem* newSeg = (FreeMem*)addr;
 140:src/../h/MemoryAllocation.hpp ****         newSeg->size = size;
 141:src/../h/MemoryAllocation.hpp ****         newSeg->prev = cur;
 142:src/../h/MemoryAllocation.hpp ****         if (cur) newSeg->next = cur->next;
 143:src/../h/MemoryAllocation.hpp ****         else newSeg->next = fmem_head;
 144:src/../h/MemoryAllocation.hpp ****         if (newSeg->next) newSeg->next->prev = newSeg;
 145:src/../h/MemoryAllocation.hpp ****         if (cur) cur->next = newSeg;
 146:src/../h/MemoryAllocation.hpp ****         else fmem_head = newSeg;
 147:src/../h/MemoryAllocation.hpp ****             // Try to merge with the previous and next segments:
 148:src/../h/MemoryAllocation.hpp ****         tryToJoin(newSeg);
 149:src/../h/MemoryAllocation.hpp ****         tryToJoin(cur);
 150:src/../h/MemoryAllocation.hpp ****     }*/
 151:src/../h/MemoryAllocation.hpp **** 
 152:src/../h/MemoryAllocation.hpp ****     static void* mem_alloc(size_t size) {//uopste ne radi, iako u lotsofsmallmallocs pise da radi
 153:src/../h/MemoryAllocation.hpp ****         size=size*(size_t)MEM_BLOCK_SIZE+sizeof(fmem_head); //kada je ovo ukljuceno, pravi problem 
 154:src/../h/MemoryAllocation.hpp ****         for (FreeMem* cur = fmem_head; cur != nullptr; cur=cur->next){ // U DRUGOJ ITERACIJI FMEM_H
 297              		.loc 2 154 59
 298 0168 93070600 		mv	a5,a2
 299              	.LVL29:
 300 016c 6F00400A 		j	.L18
 301              	.LVL30:
 302              	.L20:
 303              	.LBB72:
GAS LISTING /tmp/cc1kFpjO.s 			page 10


 304              	.LBB73:
 155:src/../h/MemoryAllocation.hpp ****             cur->next=fmem_head->next;
 156:src/../h/MemoryAllocation.hpp ****             cur->prev=fmem_head->prev;
 157:src/../h/MemoryAllocation.hpp ****             if (cur->size<size) continue;
 158:src/../h/MemoryAllocation.hpp ****             if (cur->size-size<=sizeof(FreeMem)){
 159:src/../h/MemoryAllocation.hpp ****                 if (cur->prev) cur->prev->next = cur->next;
 160:src/../h/MemoryAllocation.hpp ****                 else fmem_head = cur->next;
 305              		.loc 2 160 22 is_stmt 1
 306              		.loc 2 160 32 is_stmt 0
 307 0170 17070000 		la	a4,_ZN16MemoryAllocation9fmem_headE
 307      03370700 
 308 0178 2330C700 		sd	a2,0(a4)
 309 017c 6F00800D 		j	.L21
 310              	.L19:
 311              	.LBB74:
 161:src/../h/MemoryAllocation.hpp ****                 if (cur->next) cur->next->prev = cur->prev;
 162:src/../h/MemoryAllocation.hpp ****                 return cur;
 163:src/../h/MemoryAllocation.hpp ****             }else {
 164:src/../h/MemoryAllocation.hpp ****                 FreeMem* newfrgm = (FreeMem*)((char*)cur+size);
 312              		.loc 2 164 17 is_stmt 1
 313              		.loc 2 164 26 is_stmt 0
 314 0180 13878704 		addi	a4,a5,72
 315              	.LVL31:
 165:src/../h/MemoryAllocation.hpp ****                 newfrgm->prev=nullptr;
 316              		.loc 2 165 17 is_stmt 1
 317              		.loc 2 165 30 is_stmt 0
 318 0184 23340700 		sd	zero,8(a4)
 166:src/../h/MemoryAllocation.hpp ****                 newfrgm->next=nullptr;
 319              		.loc 2 166 17 is_stmt 1
 320              		.loc 2 166 30 is_stmt 0
 321 0188 23B40704 		sd	zero,72(a5)
 167:src/../h/MemoryAllocation.hpp ****                 if (cur->prev) cur->prev->next = newfrgm;
 322              		.loc 2 167 17 is_stmt 1
 323              		.loc 2 167 26 is_stmt 0
 324 018c 03B68700 		ld	a2,8(a5)
 325              		.loc 2 167 17
 326 0190 630C060C 		beqz	a2,.L23
 327              		.loc 2 167 32 is_stmt 1
 328              		.loc 2 167 48 is_stmt 0
 329 0194 2330E600 		sd	a4,0(a2)
 330              	.L24:
 168:src/../h/MemoryAllocation.hpp ****                 else fmem_head = newfrgm+sizeof(fmem_head); // ovo sam dodao sizeof da bi mi radio 
 169:src/../h/MemoryAllocation.hpp ****                 if (cur->next) cur->next->prev = newfrgm;
 331              		.loc 2 169 17 is_stmt 1
 332              		.loc 2 169 26 is_stmt 0
 333 0198 03B60700 		ld	a2,0(a5)
 334              		.loc 2 169 17
 335 019c 63040600 		beqz	a2,.L25
 336              		.loc 2 169 32 is_stmt 1
 337              		.loc 2 169 48 is_stmt 0
 338 01a0 2334E600 		sd	a4,8(a2)
 339              	.L25:
 170:src/../h/MemoryAllocation.hpp ****                 newfrgm->prev = cur->prev;
 340              		.loc 2 170 17 is_stmt 1
 341              		.loc 2 170 38 is_stmt 0
 342 01a4 83B58700 		ld	a1,8(a5)
 343              		.loc 2 170 31
GAS LISTING /tmp/cc1kFpjO.s 			page 11


 344 01a8 2334B700 		sd	a1,8(a4)
 171:src/../h/MemoryAllocation.hpp ****                 newfrgm->next = cur->next;
 345              		.loc 2 171 17 is_stmt 1
 346              		.loc 2 171 38 is_stmt 0
 347 01ac 03B60700 		ld	a2,0(a5)
 348              		.loc 2 171 31
 349 01b0 2330C700 		sd	a2,0(a4)
 172:src/../h/MemoryAllocation.hpp ****                 newfrgm->size = cur->size-size;
 350              		.loc 2 172 17 is_stmt 1
 351              		.loc 2 172 38 is_stmt 0
 352 01b4 83B70701 		ld	a5,16(a5)
 353              	.LVL32:
 354              		.loc 2 172 42
 355 01b8 938787FB 		addi	a5,a5,-72
 356              		.loc 2 172 31
 357 01bc 2338F700 		sd	a5,16(a4)
 173:src/../h/MemoryAllocation.hpp ****                 fmem_head = newfrgm+sizeof(fmem_head);
 358              		.loc 2 173 17 is_stmt 1
 359              		.loc 2 173 36 is_stmt 0
 360 01c0 1306070C 		addi	a2,a4,192
 361              		.loc 2 173 27
 362 01c4 17050000 		la	a0,_ZN16MemoryAllocation9fmem_headE
 362      03350500 
 363 01cc 2330C500 		sd	a2,0(a0)
 174:src/../h/MemoryAllocation.hpp ****                 fmem_head->next=newfrgm->next;
 364              		.loc 2 174 17 is_stmt 1
 365              		.loc 2 174 42 is_stmt 0
 366 01d0 03350700 		ld	a0,0(a4)
 367              		.loc 2 174 32
 368 01d4 2330A70C 		sd	a0,192(a4)
 175:src/../h/MemoryAllocation.hpp ****                 fmem_head->prev=newfrgm->prev;
 369              		.loc 2 175 17 is_stmt 1
 370              		.loc 2 175 32 is_stmt 0
 371 01d8 2334B70C 		sd	a1,200(a4)
 176:src/../h/MemoryAllocation.hpp ****                 fmem_head->size=newfrgm->size;
 372              		.loc 2 176 17 is_stmt 1
 373              		.loc 2 176 32 is_stmt 0
 374 01dc 2338F70C 		sd	a5,208(a4)
 177:src/../h/MemoryAllocation.hpp ****                 //fmem_head = (FreeMem*) (char*)newfrgm;
 178:src/../h/MemoryAllocation.hpp ****                 return newfrgm;
 375              		.loc 2 178 17 is_stmt 1
 376              		.loc 2 178 24 is_stmt 0
 377 01e0 93070700 		mv	a5,a4
 378              	.LVL33:
 379              	.L17:
 380              	.LBE74:
 381              	.LBE73:
 382              	.LBE72:
 383              	.LBE71:
 384              	.LBE70:
 385              	.LBE69:
  39:src/main.cpp  ****         addrs[i] = MemoryAllocation::mem_alloc(MemoryAllocation::bytesToBlocks(50));
 386              		.loc 1 39 18
 387 01e4 13973600 		slli	a4,a3,3
 388 01e8 130604FF 		addi	a2,s0,-16
 389 01ec 3307E600 		add	a4,a2,a4
 390 01f0 2330F7CE 		sd	a5,-800(a4)
GAS LISTING /tmp/cc1kFpjO.s 			page 12


  40:src/main.cpp  ****         if(addrs[i] == 0){
 391              		.loc 1 40 9 is_stmt 1
 392 01f4 63840708 		beqz	a5,.L77
  38:src/main.cpp  ****         addrs[i] = MemoryAllocation::mem_alloc(MemoryAllocation::bytesToBlocks(50));
 393              		.loc 1 38 5 discriminator 2
 394 01f8 9B861600 		addiw	a3,a3,1
 395              	.LVL34:
 396              	.L28:
  38:src/main.cpp  ****         addrs[i] = MemoryAllocation::mem_alloc(MemoryAllocation::bytesToBlocks(50));
 397              		.loc 1 38 21 discriminator 1
 398 01fc 93073006 		li	a5,99
 399 0200 63CED708 		bgt	a3,a5,.L16
  39:src/main.cpp  ****         addrs[i] = MemoryAllocation::mem_alloc(MemoryAllocation::bytesToBlocks(50));
 400              		.loc 1 39 9
 401              	.LVL35:
 402              	.LBE68:
  69:src/../h/MemoryAllocation.hpp ****     }
 403              		.loc 2 69 9
 404              	.LBB81:
 405              	.LBB80:
 406              	.LBB79:
 153:src/../h/MemoryAllocation.hpp ****         for (FreeMem* cur = fmem_head; cur != nullptr; cur=cur->next){ // U DRUGOJ ITERACIJI FMEM_H
 407              		.loc 2 153 9
 154:src/../h/MemoryAllocation.hpp ****             cur->next=fmem_head->next;
 408              		.loc 2 154 9
 409              	.LBB78:
 154:src/../h/MemoryAllocation.hpp ****             cur->next=fmem_head->next;
 410              		.loc 2 154 23 is_stmt 0
 411 0204 97070000 		la	a5,_ZN16MemoryAllocation9fmem_headE
 411      83B70700 
 412 020c 83B70700 		ld	a5,0(a5)
 413              	.LVL36:
 414              	.L18:
 154:src/../h/MemoryAllocation.hpp ****             cur->next=fmem_head->next;
 415              		.loc 2 154 44 is_stmt 1
 416 0210 E38A07FC 		beqz	a5,.L17
 417              	.LBB77:
 155:src/../h/MemoryAllocation.hpp ****             cur->prev=fmem_head->prev;
 418              		.loc 2 155 13
 155:src/../h/MemoryAllocation.hpp ****             cur->prev=fmem_head->prev;
 419              		.loc 2 155 34 is_stmt 0
 420 0214 17070000 		la	a4,_ZN16MemoryAllocation9fmem_headE
 420      03370700 
 421 021c 03360700 		ld	a2,0(a4)
 422 0220 03360600 		ld	a2,0(a2)
 155:src/../h/MemoryAllocation.hpp ****             cur->prev=fmem_head->prev;
 423              		.loc 2 155 22
 424 0224 23B0C700 		sd	a2,0(a5)
 156:src/../h/MemoryAllocation.hpp ****             if (cur->size<size) continue;
 425              		.loc 2 156 13 is_stmt 1
 156:src/../h/MemoryAllocation.hpp ****             if (cur->size<size) continue;
 426              		.loc 2 156 34 is_stmt 0
 427 0228 03370700 		ld	a4,0(a4)
 428 022c 83358700 		ld	a1,8(a4)
 156:src/../h/MemoryAllocation.hpp ****             if (cur->size<size) continue;
 429              		.loc 2 156 22
 430 0230 23B4B700 		sd	a1,8(a5)
GAS LISTING /tmp/cc1kFpjO.s 			page 13


 157:src/../h/MemoryAllocation.hpp ****             if (cur->size-size<=sizeof(FreeMem)){
 431              		.loc 2 157 13 is_stmt 1
 157:src/../h/MemoryAllocation.hpp ****             if (cur->size-size<=sizeof(FreeMem)){
 432              		.loc 2 157 22 is_stmt 0
 433 0234 03B70701 		ld	a4,16(a5)
 157:src/../h/MemoryAllocation.hpp ****             if (cur->size-size<=sizeof(FreeMem)){
 434              		.loc 2 157 13
 435 0238 13057004 		li	a0,71
 436 023c E376E5F2 		bleu	a4,a0,.L68
 158:src/../h/MemoryAllocation.hpp ****                 if (cur->prev) cur->prev->next = cur->next;
 437              		.loc 2 158 13 is_stmt 1
 438              	.LBB76:
 158:src/../h/MemoryAllocation.hpp ****                 if (cur->prev) cur->prev->next = cur->next;
 439              		.loc 2 158 26 is_stmt 0
 440 0240 130787FB 		addi	a4,a4,-72
 158:src/../h/MemoryAllocation.hpp ****                 if (cur->prev) cur->prev->next = cur->next;
 441              		.loc 2 158 13
 442 0244 13058001 		li	a0,24
 443 0248 E36CE5F2 		bgtu	a4,a0,.L19
 159:src/../h/MemoryAllocation.hpp ****                 else fmem_head = cur->next;
 444              		.loc 2 159 17 is_stmt 1
 445 024c E38205F2 		beqz	a1,.L20
 159:src/../h/MemoryAllocation.hpp ****                 else fmem_head = cur->next;
 446              		.loc 2 159 32
 159:src/../h/MemoryAllocation.hpp ****                 else fmem_head = cur->next;
 447              		.loc 2 159 48 is_stmt 0
 448 0250 23B0C500 		sd	a2,0(a1)
 449              	.L21:
 161:src/../h/MemoryAllocation.hpp ****                 return cur;
 450              		.loc 2 161 17 is_stmt 1
 161:src/../h/MemoryAllocation.hpp ****                 return cur;
 451              		.loc 2 161 26 is_stmt 0
 452 0254 03B70700 		ld	a4,0(a5)
 161:src/../h/MemoryAllocation.hpp ****                 return cur;
 453              		.loc 2 161 17
 454 0258 E30607F8 		beqz	a4,.L17
 161:src/../h/MemoryAllocation.hpp ****                 return cur;
 455              		.loc 2 161 32 is_stmt 1
 161:src/../h/MemoryAllocation.hpp ****                 return cur;
 456              		.loc 2 161 55 is_stmt 0
 457 025c 03B68700 		ld	a2,8(a5)
 161:src/../h/MemoryAllocation.hpp ****                 return cur;
 458              		.loc 2 161 48
 459 0260 2334C700 		sd	a2,8(a4)
 162:src/../h/MemoryAllocation.hpp ****             }else {
 460              		.loc 2 162 17 is_stmt 1
 162:src/../h/MemoryAllocation.hpp ****             }else {
 461              		.loc 2 162 24 is_stmt 0
 462 0264 6FF01FF8 		j	.L17
 463              	.LVL37:
 464              	.L23:
 465              	.LBB75:
 168:src/../h/MemoryAllocation.hpp ****                 if (cur->next) cur->next->prev = newfrgm;
 466              		.loc 2 168 22 is_stmt 1
 168:src/../h/MemoryAllocation.hpp ****                 if (cur->next) cur->next->prev = newfrgm;
 467              		.loc 2 168 41 is_stmt 0
 468 0268 1306070C 		addi	a2,a4,192
GAS LISTING /tmp/cc1kFpjO.s 			page 14


 168:src/../h/MemoryAllocation.hpp ****                 if (cur->next) cur->next->prev = newfrgm;
 469              		.loc 2 168 32
 470 026c 97050000 		la	a1,_ZN16MemoryAllocation9fmem_headE
 470      83B50500 
 471 0274 23B0C500 		sd	a2,0(a1)
 472 0278 6FF01FF2 		j	.L24
 473              	.LVL38:
 474              	.L77:
 475              	.LBE75:
 476              	.LBE76:
 477              	.LBE77:
 478              	.LBE78:
 479              	.LBE79:
 480              	.LBE80:
  41:src/main.cpp  ****             printString("not ok 1 \n");
 481              		.loc 1 41 13 is_stmt 1
 482              		.loc 1 41 24 is_stmt 0
 483 027c 17050000 		lla	a0,.LC1
 483      13050500 
 484 0284 97000000 		call	_Z11printStringPKc
 484      E7800000 
 485              	.LVL39:
  42:src/main.cpp  ****             return;
 486              		.loc 1 42 13 is_stmt 1
 487              	.L15:
 488              	.LBE81:
  43:src/main.cpp  ****         }
  44:src/main.cpp  ****     }
  45:src/main.cpp  ****     printString("ok 1 \n");
  46:src/main.cpp  ****     for(int i = 0 ; i<num;i+=2){
  47:src/main.cpp  ****         int retval = MemoryAllocation::mem_free(addrs[i]); //stavi ove sa &
  48:src/main.cpp  ****         if(retval != 0){
  49:src/main.cpp  ****             printString("not ok 2\n");
  50:src/main.cpp  ****             return;
  51:src/main.cpp  ****         }
  52:src/main.cpp  ****     }
  53:src/main.cpp  ****     printString("ok 2 \n");
  54:src/main.cpp  ****     for(int i = 0 ; i<num;i+=2){
  55:src/main.cpp  ****         addrs[i] = MemoryAllocation::mem_alloc(MemoryAllocation::bytesToBlocks(20));
  56:src/main.cpp  ****         if(addrs[i] == 0){
  57:src/main.cpp  ****             printString("not ok 3\n");;
  58:src/main.cpp  ****             return;
  59:src/main.cpp  ****         }
  60:src/main.cpp  ****     }
  61:src/main.cpp  ****     printString("ok 3 \n");
  62:src/main.cpp  ****     for(int i = 0; i<num;i++){
  63:src/main.cpp  ****         int retval = MemoryAllocation::mem_free(addrs[i]);
  64:src/main.cpp  ****         if(retval != 0){
  65:src/main.cpp  ****             printString("not ok 4\n");;
  66:src/main.cpp  ****             return;
  67:src/main.cpp  ****         }
  68:src/main.cpp  ****     }
  69:src/main.cpp  **** 
  70:src/main.cpp  ****     printString("ok\n");;
  71:src/main.cpp  **** }
 489              		.loc 1 71 1 is_stmt 0
 490 028c 83308132 		ld	ra,808(sp)
GAS LISTING /tmp/cc1kFpjO.s 			page 15


 491              		.cfi_remember_state
 492              		.cfi_restore 1
 493 0290 03340132 		ld	s0,800(sp)
 494              		.cfi_restore 8
 495              		.cfi_def_cfa 2, 816
 496 0294 13010133 		addi	sp,sp,816
 497              		.cfi_def_cfa_offset 0
 498 0298 67800000 		jr	ra
 499              	.LVL40:
 500              	.L16:
 501              		.cfi_restore_state
  45:src/main.cpp  ****     for(int i = 0 ; i<num;i+=2){
 502              		.loc 1 45 5 is_stmt 1
  45:src/main.cpp  ****     for(int i = 0 ; i<num;i+=2){
 503              		.loc 1 45 16 is_stmt 0
 504 029c 17050000 		lla	a0,.LC2
 504      13050500 
 505 02a4 97000000 		call	_Z11printStringPKc
 505      E7800000 
 506              	.LVL41:
 507              	.LBB82:
  46:src/main.cpp  ****         int retval = MemoryAllocation::mem_free(addrs[i]); //stavi ove sa &
 508              		.loc 1 46 13
 509 02ac 13060000 		li	a2,0
 510 02b0 6F000008 		j	.L41
 511              	.LVL42:
 512              	.L69:
 513              	.LBB83:
 514              	.LBB84:
 515              	.LBB85:
  91:src/../h/MemoryAllocation.hpp ****         }else {
 516              		.loc 2 91 16
 517 02b4 93860700 		mv	a3,a5
 518 02b8 6F008000 		j	.L30
 519              	.L70:
 520 02bc 93060000 		li	a3,0
 521              	.LVL43:
 522              	.L30:
  95:src/../h/MemoryAllocation.hpp ****                 newSeg->next=nullptr;
 523              		.loc 2 95 17 is_stmt 1
  96:src/../h/MemoryAllocation.hpp ****                 newSeg->prev=nullptr;
 524              		.loc 2 96 17
  96:src/../h/MemoryAllocation.hpp ****                 newSeg->prev=nullptr;
 525              		.loc 2 96 29 is_stmt 0
 526 02c0 23300700 		sd	zero,0(a4)
  97:src/../h/MemoryAllocation.hpp ****                 newSeg->size=bytesToBlocks(sizeof(ptr))*MEM_BLOCK_SIZE+sizeof(fmem_head);
 527              		.loc 2 97 17 is_stmt 1
  98:src/../h/MemoryAllocation.hpp ****                         //sizeof(ptr);
 528              		.loc 2 98 17
 529              	.LVL44:
 530              	.LBE85:
 531              	.LBE84:
 532              	.LBE83:
 533              	.LBE82:
  69:src/../h/MemoryAllocation.hpp ****     }
 534              		.loc 2 69 9
 535              	.LBB100:
GAS LISTING /tmp/cc1kFpjO.s 			page 16


 536              	.LBB98:
 537              	.LBB96:
 538              	.LBB94:
  98:src/../h/MemoryAllocation.hpp ****                         //sizeof(ptr);
 539              		.loc 2 98 29 is_stmt 0
 540 02c4 93078004 		li	a5,72
 541 02c8 2338F700 		sd	a5,16(a4)
 100:src/../h/MemoryAllocation.hpp ****                 if(cur) {
 542              		.loc 2 100 17 is_stmt 1
 100:src/../h/MemoryAllocation.hpp ****                 if(cur) {
 543              		.loc 2 100 29 is_stmt 0
 544 02cc 2334D700 		sd	a3,8(a4)
 101:src/../h/MemoryAllocation.hpp ****                     newSeg->next = cur->next;
 545              		.loc 2 101 17 is_stmt 1
 546 02d0 6380060A 		beqz	a3,.L32
 102:src/../h/MemoryAllocation.hpp ****                 }
 547              		.loc 2 102 21
 102:src/../h/MemoryAllocation.hpp ****                 }
 548              		.loc 2 102 41 is_stmt 0
 549 02d4 83B70600 		ld	a5,0(a3)
 102:src/../h/MemoryAllocation.hpp ****                 }
 550              		.loc 2 102 34
 551 02d8 2330F700 		sd	a5,0(a4)
 552              	.L33:
 107:src/../h/MemoryAllocation.hpp ****                     newSeg->next->prev=newSeg;
 553              		.loc 2 107 17 is_stmt 1
 107:src/../h/MemoryAllocation.hpp ****                     newSeg->next->prev=newSeg;
 554              		.loc 2 107 28 is_stmt 0
 555 02dc 83370700 		ld	a5,0(a4)
 107:src/../h/MemoryAllocation.hpp ****                     newSeg->next->prev=newSeg;
 556              		.loc 2 107 17
 557 02e0 63840700 		beqz	a5,.L34
 108:src/../h/MemoryAllocation.hpp ****                 }
 558              		.loc 2 108 21 is_stmt 1
 108:src/../h/MemoryAllocation.hpp ****                 }
 559              		.loc 2 108 39 is_stmt 0
 560 02e4 23B4E700 		sd	a4,8(a5)
 561              	.L34:
 110:src/../h/MemoryAllocation.hpp ****                     cur->next = newSeg; //zasto ovde odjednom uzme vrednost x8000 umesto x8000f...?
 562              		.loc 2 110 17 is_stmt 1
 563 02e8 638E0608 		beqz	a3,.L35
 111:src/../h/MemoryAllocation.hpp ****                 }
 564              		.loc 2 111 21
 111:src/../h/MemoryAllocation.hpp ****                 }
 565              		.loc 2 111 31 is_stmt 0
 566 02ec 23B0E600 		sd	a4,0(a3)
 567              	.L36:
 117:src/../h/MemoryAllocation.hpp ****             tryToJoin(cur);
 568              		.loc 2 117 13 is_stmt 1
 569              	.LVL45:
 570              	.LBB86:
 571              	.LBB87:
  75:src/../h/MemoryAllocation.hpp ****         if (curr->next && (char*)curr+curr->size == (char*)(curr->next)) {
 572              		.loc 2 75 9
 573 02f0 630C0700 		beqz	a4,.L37
  76:src/../h/MemoryAllocation.hpp ****         // Remove the cur->next segment:
 574              		.loc 2 76 9
GAS LISTING /tmp/cc1kFpjO.s 			page 17


  76:src/../h/MemoryAllocation.hpp ****         // Remove the cur->next segment:
 575              		.loc 2 76 19 is_stmt 0
 576 02f4 83370700 		ld	a5,0(a4)
  76:src/../h/MemoryAllocation.hpp ****         // Remove the cur->next segment:
 577              		.loc 2 76 9
 578 02f8 63880700 		beqz	a5,.L37
  76:src/../h/MemoryAllocation.hpp ****         // Remove the cur->next segment:
 579              		.loc 2 76 45
 580 02fc 83350701 		ld	a1,16(a4)
  76:src/../h/MemoryAllocation.hpp ****         // Remove the cur->next segment:
 581              		.loc 2 76 38
 582 0300 3305B700 		add	a0,a4,a1
  76:src/../h/MemoryAllocation.hpp ****         // Remove the cur->next segment:
 583              		.loc 2 76 24
 584 0304 6388A708 		beq	a5,a0,.L78
 585              	.L37:
 586              	.LVL46:
 587              	.LBE87:
 588              	.LBE86:
 118:src/../h/MemoryAllocation.hpp ****             //mozda da fmem_head nije jednako starom fmem_headu?
 589              		.loc 2 118 13 is_stmt 1
 590              	.LBB89:
 591              	.LBB90:
  75:src/../h/MemoryAllocation.hpp ****         if (curr->next && (char*)curr+curr->size == (char*)(curr->next)) {
 592              		.loc 2 75 9
 593 0308 638C0600 		beqz	a3,.L38
  76:src/../h/MemoryAllocation.hpp ****         // Remove the cur->next segment:
 594              		.loc 2 76 9
  76:src/../h/MemoryAllocation.hpp ****         // Remove the cur->next segment:
 595              		.loc 2 76 19 is_stmt 0
 596 030c 83B70600 		ld	a5,0(a3)
  76:src/../h/MemoryAllocation.hpp ****         // Remove the cur->next segment:
 597              		.loc 2 76 9
 598 0310 63880700 		beqz	a5,.L38
  76:src/../h/MemoryAllocation.hpp ****         // Remove the cur->next segment:
 599              		.loc 2 76 45
 600 0314 83B50601 		ld	a1,16(a3)
  76:src/../h/MemoryAllocation.hpp ****         // Remove the cur->next segment:
 601              		.loc 2 76 38
 602 0318 3385B600 		add	a0,a3,a1
  76:src/../h/MemoryAllocation.hpp ****         // Remove the cur->next segment:
 603              		.loc 2 76 24
 604 031c 638CA708 		beq	a5,a0,.L79
 605              	.L38:
 606              	.LVL47:
 607              	.LBE90:
 608              	.LBE89:
 120:src/../h/MemoryAllocation.hpp ****                 return -1;
 609              		.loc 2 120 13 is_stmt 1
 610 0320 630A070A 		beqz	a4,.L80
 122:src/../h/MemoryAllocation.hpp **** 
 611              		.loc 2 122 26 is_stmt 0
 612 0324 93070000 		li	a5,0
 613              	.L39:
 614              	.LVL48:
 615              	.LBE94:
 616              	.LBE96:
GAS LISTING /tmp/cc1kFpjO.s 			page 18


  48:src/main.cpp  ****             printString("not ok 2\n");
 617              		.loc 1 48 9 is_stmt 1
 618 0328 639A070A 		bnez	a5,.L81
 619              	.LBE98:
  46:src/main.cpp  ****         int retval = MemoryAllocation::mem_free(addrs[i]); //stavi ove sa &
 620              		.loc 1 46 5 discriminator 2
  46:src/main.cpp  ****         int retval = MemoryAllocation::mem_free(addrs[i]); //stavi ove sa &
 621              		.loc 1 46 28 is_stmt 0 discriminator 2
 622 032c 1B062600 		addiw	a2,a2,2
 623              	.LVL49:
 624              	.L41:
  46:src/main.cpp  ****         int retval = MemoryAllocation::mem_free(addrs[i]); //stavi ove sa &
 625              		.loc 1 46 22 is_stmt 1 discriminator 1
 626 0330 93073006 		li	a5,99
 627 0334 63CEC70A 		bgt	a2,a5,.L29
 628              	.LBB99:
  47:src/main.cpp  ****         if(retval != 0){
 629              		.loc 1 47 9
  47:src/main.cpp  ****         if(retval != 0){
 630              		.loc 1 47 48 is_stmt 0
 631 0338 93173600 		slli	a5,a2,3
 632 033c 130704FF 		addi	a4,s0,-16
 633 0340 B307F700 		add	a5,a4,a5
 634 0344 03B707CE 		ld	a4,-800(a5)
 635              	.LVL50:
 636              	.LBB97:
 637              	.LBB95:
  88:src/../h/MemoryAllocation.hpp ****         if(!fmem_head || ptr < (char*)fmem_head)
 638              		.loc 2 88 9 is_stmt 1
  89:src/../h/MemoryAllocation.hpp ****         {
 639              		.loc 2 89 9
  89:src/../h/MemoryAllocation.hpp ****         {
 640              		.loc 2 89 12 is_stmt 0
 641 0348 97070000 		la	a5,_ZN16MemoryAllocation9fmem_headE
 641      83B70700 
 642 0350 83B70700 		ld	a5,0(a5)
  89:src/../h/MemoryAllocation.hpp ****         {
 643              		.loc 2 89 9
 644 0354 E38007F6 		beqz	a5,.L69
  89:src/../h/MemoryAllocation.hpp ****         {
 645              		.loc 2 89 23
 646 0358 E362F7F6 		bltu	a4,a5,.L70
 647              	.LVL51:
 648              	.L31:
  93:src/../h/MemoryAllocation.hpp ****             }
 649              		.loc 2 93 52 is_stmt 1
 650 035c 93860700 		mv	a3,a5
  93:src/../h/MemoryAllocation.hpp ****             }
 651              		.loc 2 93 42 is_stmt 0
 652 0360 83B70700 		ld	a5,0(a5)
 653              	.LVL52:
  93:src/../h/MemoryAllocation.hpp ****             }
 654              		.loc 2 93 52
 655 0364 E30EF7F4 		beq	a4,a5,.L30
 656 0368 E3EAE7FE 		bgtu	a4,a5,.L31
 657 036c 6FF05FF5 		j	.L30
 658              	.LVL53:
GAS LISTING /tmp/cc1kFpjO.s 			page 19


 659              	.L32:
 105:src/../h/MemoryAllocation.hpp ****                 }
 660              		.loc 2 105 21 is_stmt 1
 105:src/../h/MemoryAllocation.hpp ****                 }
 661              		.loc 2 105 34 is_stmt 0
 662 0370 97070000 		la	a5,_ZN16MemoryAllocation9fmem_headE
 662      83B70700 
 663 0378 83B70700 		ld	a5,0(a5)
 664 037c 2330F700 		sd	a5,0(a4)
 665 0380 6FF0DFF5 		j	.L33
 666              	.L35:
 114:src/../h/MemoryAllocation.hpp ****                 }
 667              		.loc 2 114 21 is_stmt 1
 114:src/../h/MemoryAllocation.hpp ****                 }
 668              		.loc 2 114 31 is_stmt 0
 669 0384 97070000 		la	a5,_ZN16MemoryAllocation9fmem_headE
 669      83B70700 
 670 038c 23B0E700 		sd	a4,0(a5)
 671 0390 6FF01FF6 		j	.L36
 672              	.LVL54:
 673              	.L78:
 674              	.LBB92:
 675              	.LBB88:
  78:src/../h/MemoryAllocation.hpp ****             curr->next = curr->next->next;
 676              		.loc 2 78 13 is_stmt 1
  78:src/../h/MemoryAllocation.hpp ****             curr->next = curr->next->next;
 677              		.loc 2 78 39 is_stmt 0
 678 0394 03B50701 		ld	a0,16(a5)
  78:src/../h/MemoryAllocation.hpp ****             curr->next = curr->next->next;
 679              		.loc 2 78 24
 680 0398 B385A500 		add	a1,a1,a0
 681 039c 2338B700 		sd	a1,16(a4)
  79:src/../h/MemoryAllocation.hpp ****             if (curr->next) curr->next->prev = curr;
 682              		.loc 2 79 13 is_stmt 1
  79:src/../h/MemoryAllocation.hpp ****             if (curr->next) curr->next->prev = curr;
 683              		.loc 2 79 38 is_stmt 0
 684 03a0 83B70700 		ld	a5,0(a5)
  79:src/../h/MemoryAllocation.hpp ****             if (curr->next) curr->next->prev = curr;
 685              		.loc 2 79 24
 686 03a4 2330F700 		sd	a5,0(a4)
  80:src/../h/MemoryAllocation.hpp ****             return;
 687              		.loc 2 80 13 is_stmt 1
 688 03a8 E38007F6 		beqz	a5,.L37
  80:src/../h/MemoryAllocation.hpp ****             return;
 689              		.loc 2 80 29
  80:src/../h/MemoryAllocation.hpp ****             return;
 690              		.loc 2 80 46 is_stmt 0
 691 03ac 23B4E700 		sd	a4,8(a5)
 692 03b0 6FF09FF5 		j	.L37
 693              	.LVL55:
 694              	.L79:
 695              	.LBE88:
 696              	.LBE92:
 697              	.LBB93:
 698              	.LBB91:
  78:src/../h/MemoryAllocation.hpp ****             curr->next = curr->next->next;
 699              		.loc 2 78 13 is_stmt 1
GAS LISTING /tmp/cc1kFpjO.s 			page 20


  78:src/../h/MemoryAllocation.hpp ****             curr->next = curr->next->next;
 700              		.loc 2 78 39 is_stmt 0
 701 03b4 03B50701 		ld	a0,16(a5)
  78:src/../h/MemoryAllocation.hpp ****             curr->next = curr->next->next;
 702              		.loc 2 78 24
 703 03b8 B385A500 		add	a1,a1,a0
 704 03bc 23B8B600 		sd	a1,16(a3)
  79:src/../h/MemoryAllocation.hpp ****             if (curr->next) curr->next->prev = curr;
 705              		.loc 2 79 13 is_stmt 1
  79:src/../h/MemoryAllocation.hpp ****             if (curr->next) curr->next->prev = curr;
 706              		.loc 2 79 38 is_stmt 0
 707 03c0 83B70700 		ld	a5,0(a5)
  79:src/../h/MemoryAllocation.hpp ****             if (curr->next) curr->next->prev = curr;
 708              		.loc 2 79 24
 709 03c4 23B0F600 		sd	a5,0(a3)
  80:src/../h/MemoryAllocation.hpp ****             return;
 710              		.loc 2 80 13 is_stmt 1
 711 03c8 E38C07F4 		beqz	a5,.L38
  80:src/../h/MemoryAllocation.hpp ****             return;
 712              		.loc 2 80 29
  80:src/../h/MemoryAllocation.hpp ****             return;
 713              		.loc 2 80 46 is_stmt 0
 714 03cc 23B4D700 		sd	a3,8(a5)
 715 03d0 6FF01FF5 		j	.L38
 716              	.LVL56:
 717              	.L80:
 718              	.LBE91:
 719              	.LBE93:
 121:src/../h/MemoryAllocation.hpp ****             }else{return 0;}
 720              		.loc 2 121 25
 721 03d4 9307F0FF 		li	a5,-1
 722 03d8 6FF01FF5 		j	.L39
 723              	.LVL57:
 724              	.L81:
 725              	.LBE95:
 726              	.LBE97:
  49:src/main.cpp  ****             return;
 727              		.loc 1 49 13 is_stmt 1
  49:src/main.cpp  ****             return;
 728              		.loc 1 49 24 is_stmt 0
 729 03dc 17050000 		lla	a0,.LC3
 729      13050500 
 730 03e4 97000000 		call	_Z11printStringPKc
 730      E7800000 
 731              	.LVL58:
  50:src/main.cpp  ****         }
 732              		.loc 1 50 13 is_stmt 1
 733 03ec 6FF01FEA 		j	.L15
 734              	.LVL59:
 735              	.L29:
 736              	.LBE99:
 737              	.LBE100:
  53:src/main.cpp  ****     for(int i = 0 ; i<num;i+=2){
 738              		.loc 1 53 5
  53:src/main.cpp  ****     for(int i = 0 ; i<num;i+=2){
 739              		.loc 1 53 16 is_stmt 0
 740 03f0 17050000 		lla	a0,.LC4
GAS LISTING /tmp/cc1kFpjO.s 			page 21


 740      13050500 
 741 03f8 97000000 		call	_Z11printStringPKc
 741      E7800000 
 742              	.LVL60:
 743              	.LBB101:
  54:src/main.cpp  ****         addrs[i] = MemoryAllocation::mem_alloc(MemoryAllocation::bytesToBlocks(20));
 744              		.loc 1 54 13
 745 0400 93060000 		li	a3,0
 746 0404 6F008009 		j	.L53
 747              	.LVL61:
 748              	.L72:
 749              	.LBB102:
 750              	.LBB103:
 751              	.LBB104:
 154:src/../h/MemoryAllocation.hpp ****             cur->next=fmem_head->next;
 752              		.loc 2 154 59
 753 0408 93070600 		mv	a5,a2
 754              	.LVL62:
 755 040c 6F00400A 		j	.L44
 756              	.LVL63:
 757              	.L46:
 758              	.LBB105:
 759              	.LBB106:
 160:src/../h/MemoryAllocation.hpp ****                 if (cur->next) cur->next->prev = cur->prev;
 760              		.loc 2 160 22 is_stmt 1
 160:src/../h/MemoryAllocation.hpp ****                 if (cur->next) cur->next->prev = cur->prev;
 761              		.loc 2 160 32 is_stmt 0
 762 0410 17070000 		la	a4,_ZN16MemoryAllocation9fmem_headE
 762      03370700 
 763 0418 2330C700 		sd	a2,0(a4)
 764 041c 6F00800D 		j	.L47
 765              	.L45:
 766              	.LBB107:
 164:src/../h/MemoryAllocation.hpp ****                 newfrgm->prev=nullptr;
 767              		.loc 2 164 17 is_stmt 1
 164:src/../h/MemoryAllocation.hpp ****                 newfrgm->prev=nullptr;
 768              		.loc 2 164 26 is_stmt 0
 769 0420 13878704 		addi	a4,a5,72
 770              	.LVL64:
 165:src/../h/MemoryAllocation.hpp ****                 newfrgm->next=nullptr;
 771              		.loc 2 165 17 is_stmt 1
 165:src/../h/MemoryAllocation.hpp ****                 newfrgm->next=nullptr;
 772              		.loc 2 165 30 is_stmt 0
 773 0424 23340700 		sd	zero,8(a4)
 166:src/../h/MemoryAllocation.hpp ****                 if (cur->prev) cur->prev->next = newfrgm;
 774              		.loc 2 166 17 is_stmt 1
 166:src/../h/MemoryAllocation.hpp ****                 if (cur->prev) cur->prev->next = newfrgm;
 775              		.loc 2 166 30 is_stmt 0
 776 0428 23B40704 		sd	zero,72(a5)
 167:src/../h/MemoryAllocation.hpp ****                 else fmem_head = newfrgm+sizeof(fmem_head); // ovo sam dodao sizeof da bi mi radio 
 777              		.loc 2 167 17 is_stmt 1
 167:src/../h/MemoryAllocation.hpp ****                 else fmem_head = newfrgm+sizeof(fmem_head); // ovo sam dodao sizeof da bi mi radio 
 778              		.loc 2 167 26 is_stmt 0
 779 042c 03B68700 		ld	a2,8(a5)
 167:src/../h/MemoryAllocation.hpp ****                 else fmem_head = newfrgm+sizeof(fmem_head); // ovo sam dodao sizeof da bi mi radio 
 780              		.loc 2 167 17
 781 0430 630C060C 		beqz	a2,.L49
GAS LISTING /tmp/cc1kFpjO.s 			page 22


 167:src/../h/MemoryAllocation.hpp ****                 else fmem_head = newfrgm+sizeof(fmem_head); // ovo sam dodao sizeof da bi mi radio 
 782              		.loc 2 167 32 is_stmt 1
 167:src/../h/MemoryAllocation.hpp ****                 else fmem_head = newfrgm+sizeof(fmem_head); // ovo sam dodao sizeof da bi mi radio 
 783              		.loc 2 167 48 is_stmt 0
 784 0434 2330E600 		sd	a4,0(a2)
 785              	.L50:
 169:src/../h/MemoryAllocation.hpp ****                 newfrgm->prev = cur->prev;
 786              		.loc 2 169 17 is_stmt 1
 169:src/../h/MemoryAllocation.hpp ****                 newfrgm->prev = cur->prev;
 787              		.loc 2 169 26 is_stmt 0
 788 0438 03B60700 		ld	a2,0(a5)
 169:src/../h/MemoryAllocation.hpp ****                 newfrgm->prev = cur->prev;
 789              		.loc 2 169 17
 790 043c 63040600 		beqz	a2,.L51
 169:src/../h/MemoryAllocation.hpp ****                 newfrgm->prev = cur->prev;
 791              		.loc 2 169 32 is_stmt 1
 169:src/../h/MemoryAllocation.hpp ****                 newfrgm->prev = cur->prev;
 792              		.loc 2 169 48 is_stmt 0
 793 0440 2334E600 		sd	a4,8(a2)
 794              	.L51:
 170:src/../h/MemoryAllocation.hpp ****                 newfrgm->next = cur->next;
 795              		.loc 2 170 17 is_stmt 1
 170:src/../h/MemoryAllocation.hpp ****                 newfrgm->next = cur->next;
 796              		.loc 2 170 38 is_stmt 0
 797 0444 83B58700 		ld	a1,8(a5)
 170:src/../h/MemoryAllocation.hpp ****                 newfrgm->next = cur->next;
 798              		.loc 2 170 31
 799 0448 2334B700 		sd	a1,8(a4)
 171:src/../h/MemoryAllocation.hpp ****                 newfrgm->size = cur->size-size;
 800              		.loc 2 171 17 is_stmt 1
 171:src/../h/MemoryAllocation.hpp ****                 newfrgm->size = cur->size-size;
 801              		.loc 2 171 38 is_stmt 0
 802 044c 03B60700 		ld	a2,0(a5)
 171:src/../h/MemoryAllocation.hpp ****                 newfrgm->size = cur->size-size;
 803              		.loc 2 171 31
 804 0450 2330C700 		sd	a2,0(a4)
 172:src/../h/MemoryAllocation.hpp ****                 fmem_head = newfrgm+sizeof(fmem_head);
 805              		.loc 2 172 17 is_stmt 1
 172:src/../h/MemoryAllocation.hpp ****                 fmem_head = newfrgm+sizeof(fmem_head);
 806              		.loc 2 172 38 is_stmt 0
 807 0454 83B70701 		ld	a5,16(a5)
 808              	.LVL65:
 172:src/../h/MemoryAllocation.hpp ****                 fmem_head = newfrgm+sizeof(fmem_head);
 809              		.loc 2 172 42
 810 0458 938787FB 		addi	a5,a5,-72
 172:src/../h/MemoryAllocation.hpp ****                 fmem_head = newfrgm+sizeof(fmem_head);
 811              		.loc 2 172 31
 812 045c 2338F700 		sd	a5,16(a4)
 173:src/../h/MemoryAllocation.hpp ****                 fmem_head->next=newfrgm->next;
 813              		.loc 2 173 17 is_stmt 1
 173:src/../h/MemoryAllocation.hpp ****                 fmem_head->next=newfrgm->next;
 814              		.loc 2 173 36 is_stmt 0
 815 0460 1306070C 		addi	a2,a4,192
 173:src/../h/MemoryAllocation.hpp ****                 fmem_head->next=newfrgm->next;
 816              		.loc 2 173 27
 817 0464 17050000 		la	a0,_ZN16MemoryAllocation9fmem_headE
 817      03350500 
GAS LISTING /tmp/cc1kFpjO.s 			page 23


 818 046c 2330C500 		sd	a2,0(a0)
 174:src/../h/MemoryAllocation.hpp ****                 fmem_head->prev=newfrgm->prev;
 819              		.loc 2 174 17 is_stmt 1
 174:src/../h/MemoryAllocation.hpp ****                 fmem_head->prev=newfrgm->prev;
 820              		.loc 2 174 42 is_stmt 0
 821 0470 03350700 		ld	a0,0(a4)
 174:src/../h/MemoryAllocation.hpp ****                 fmem_head->prev=newfrgm->prev;
 822              		.loc 2 174 32
 823 0474 2330A70C 		sd	a0,192(a4)
 175:src/../h/MemoryAllocation.hpp ****                 fmem_head->size=newfrgm->size;
 824              		.loc 2 175 17 is_stmt 1
 175:src/../h/MemoryAllocation.hpp ****                 fmem_head->size=newfrgm->size;
 825              		.loc 2 175 32 is_stmt 0
 826 0478 2334B70C 		sd	a1,200(a4)
 176:src/../h/MemoryAllocation.hpp ****                 //fmem_head = (FreeMem*) (char*)newfrgm;
 827              		.loc 2 176 17 is_stmt 1
 176:src/../h/MemoryAllocation.hpp ****                 //fmem_head = (FreeMem*) (char*)newfrgm;
 828              		.loc 2 176 32 is_stmt 0
 829 047c 2338F70C 		sd	a5,208(a4)
 830              		.loc 2 178 17 is_stmt 1
 831              		.loc 2 178 24 is_stmt 0
 832 0480 93070700 		mv	a5,a4
 833              	.LVL66:
 834              	.L43:
 835              	.LBE107:
 836              	.LBE106:
 837              	.LBE105:
 838              	.LBE104:
 839              	.LBE103:
 840              	.LBE102:
  55:src/main.cpp  ****         if(addrs[i] == 0){
 841              		.loc 1 55 18
 842 0484 13973600 		slli	a4,a3,3
 843 0488 130604FF 		addi	a2,s0,-16
 844 048c 3307E600 		add	a4,a2,a4
 845 0490 2330F7CE 		sd	a5,-800(a4)
  56:src/main.cpp  ****             printString("not ok 3\n");;
 846              		.loc 1 56 9 is_stmt 1
 847 0494 63840708 		beqz	a5,.L82
  54:src/main.cpp  ****         addrs[i] = MemoryAllocation::mem_alloc(MemoryAllocation::bytesToBlocks(20));
 848              		.loc 1 54 5 discriminator 2
  54:src/main.cpp  ****         addrs[i] = MemoryAllocation::mem_alloc(MemoryAllocation::bytesToBlocks(20));
 849              		.loc 1 54 28 is_stmt 0 discriminator 2
 850 0498 9B862600 		addiw	a3,a3,2
 851              	.LVL67:
 852              	.L53:
  54:src/main.cpp  ****         addrs[i] = MemoryAllocation::mem_alloc(MemoryAllocation::bytesToBlocks(20));
 853              		.loc 1 54 22 is_stmt 1 discriminator 1
 854 049c 93073006 		li	a5,99
 855 04a0 63C8D708 		bgt	a3,a5,.L42
  55:src/main.cpp  ****         if(addrs[i] == 0){
 856              		.loc 1 55 9
 857              	.LVL68:
 858              	.LBE101:
  69:src/../h/MemoryAllocation.hpp ****     }
 859              		.loc 2 69 9
 860              	.LBB114:
GAS LISTING /tmp/cc1kFpjO.s 			page 24


 861              	.LBB113:
 862              	.LBB112:
 153:src/../h/MemoryAllocation.hpp ****         for (FreeMem* cur = fmem_head; cur != nullptr; cur=cur->next){ // U DRUGOJ ITERACIJI FMEM_H
 863              		.loc 2 153 9
 154:src/../h/MemoryAllocation.hpp ****             cur->next=fmem_head->next;
 864              		.loc 2 154 9
 865              	.LBB111:
 154:src/../h/MemoryAllocation.hpp ****             cur->next=fmem_head->next;
 866              		.loc 2 154 23 is_stmt 0
 867 04a4 97070000 		la	a5,_ZN16MemoryAllocation9fmem_headE
 867      83B70700 
 868 04ac 83B70700 		ld	a5,0(a5)
 869              	.LVL69:
 870              	.L44:
 154:src/../h/MemoryAllocation.hpp ****             cur->next=fmem_head->next;
 871              		.loc 2 154 44 is_stmt 1
 872 04b0 E38A07FC 		beqz	a5,.L43
 873              	.LBB110:
 155:src/../h/MemoryAllocation.hpp ****             cur->prev=fmem_head->prev;
 874              		.loc 2 155 13
 155:src/../h/MemoryAllocation.hpp ****             cur->prev=fmem_head->prev;
 875              		.loc 2 155 34 is_stmt 0
 876 04b4 17070000 		la	a4,_ZN16MemoryAllocation9fmem_headE
 876      03370700 
 877 04bc 03360700 		ld	a2,0(a4)
 878 04c0 03360600 		ld	a2,0(a2)
 155:src/../h/MemoryAllocation.hpp ****             cur->prev=fmem_head->prev;
 879              		.loc 2 155 22
 880 04c4 23B0C700 		sd	a2,0(a5)
 156:src/../h/MemoryAllocation.hpp ****             if (cur->size<size) continue;
 881              		.loc 2 156 13 is_stmt 1
 156:src/../h/MemoryAllocation.hpp ****             if (cur->size<size) continue;
 882              		.loc 2 156 34 is_stmt 0
 883 04c8 03370700 		ld	a4,0(a4)
 884 04cc 83358700 		ld	a1,8(a4)
 156:src/../h/MemoryAllocation.hpp ****             if (cur->size<size) continue;
 885              		.loc 2 156 22
 886 04d0 23B4B700 		sd	a1,8(a5)
 157:src/../h/MemoryAllocation.hpp ****             if (cur->size-size<=sizeof(FreeMem)){
 887              		.loc 2 157 13 is_stmt 1
 157:src/../h/MemoryAllocation.hpp ****             if (cur->size-size<=sizeof(FreeMem)){
 888              		.loc 2 157 22 is_stmt 0
 889 04d4 03B70701 		ld	a4,16(a5)
 157:src/../h/MemoryAllocation.hpp ****             if (cur->size-size<=sizeof(FreeMem)){
 890              		.loc 2 157 13
 891 04d8 13057004 		li	a0,71
 892 04dc E376E5F2 		bleu	a4,a0,.L72
 158:src/../h/MemoryAllocation.hpp ****                 if (cur->prev) cur->prev->next = cur->next;
 893              		.loc 2 158 13 is_stmt 1
 894              	.LBB109:
 158:src/../h/MemoryAllocation.hpp ****                 if (cur->prev) cur->prev->next = cur->next;
 895              		.loc 2 158 26 is_stmt 0
 896 04e0 130787FB 		addi	a4,a4,-72
 158:src/../h/MemoryAllocation.hpp ****                 if (cur->prev) cur->prev->next = cur->next;
 897              		.loc 2 158 13
 898 04e4 13058001 		li	a0,24
 899 04e8 E36CE5F2 		bgtu	a4,a0,.L45
GAS LISTING /tmp/cc1kFpjO.s 			page 25


 159:src/../h/MemoryAllocation.hpp ****                 else fmem_head = cur->next;
 900              		.loc 2 159 17 is_stmt 1
 901 04ec E38205F2 		beqz	a1,.L46
 159:src/../h/MemoryAllocation.hpp ****                 else fmem_head = cur->next;
 902              		.loc 2 159 32
 159:src/../h/MemoryAllocation.hpp ****                 else fmem_head = cur->next;
 903              		.loc 2 159 48 is_stmt 0
 904 04f0 23B0C500 		sd	a2,0(a1)
 905              	.L47:
 161:src/../h/MemoryAllocation.hpp ****                 return cur;
 906              		.loc 2 161 17 is_stmt 1
 161:src/../h/MemoryAllocation.hpp ****                 return cur;
 907              		.loc 2 161 26 is_stmt 0
 908 04f4 03B70700 		ld	a4,0(a5)
 161:src/../h/MemoryAllocation.hpp ****                 return cur;
 909              		.loc 2 161 17
 910 04f8 E30607F8 		beqz	a4,.L43
 161:src/../h/MemoryAllocation.hpp ****                 return cur;
 911              		.loc 2 161 32 is_stmt 1
 161:src/../h/MemoryAllocation.hpp ****                 return cur;
 912              		.loc 2 161 55 is_stmt 0
 913 04fc 03B68700 		ld	a2,8(a5)
 161:src/../h/MemoryAllocation.hpp ****                 return cur;
 914              		.loc 2 161 48
 915 0500 2334C700 		sd	a2,8(a4)
 162:src/../h/MemoryAllocation.hpp ****             }else {
 916              		.loc 2 162 17 is_stmt 1
 162:src/../h/MemoryAllocation.hpp ****             }else {
 917              		.loc 2 162 24 is_stmt 0
 918 0504 6FF01FF8 		j	.L43
 919              	.LVL70:
 920              	.L49:
 921              	.LBB108:
 168:src/../h/MemoryAllocation.hpp ****                 if (cur->next) cur->next->prev = newfrgm;
 922              		.loc 2 168 22 is_stmt 1
 168:src/../h/MemoryAllocation.hpp ****                 if (cur->next) cur->next->prev = newfrgm;
 923              		.loc 2 168 41 is_stmt 0
 924 0508 1306070C 		addi	a2,a4,192
 168:src/../h/MemoryAllocation.hpp ****                 if (cur->next) cur->next->prev = newfrgm;
 925              		.loc 2 168 32
 926 050c 97050000 		la	a1,_ZN16MemoryAllocation9fmem_headE
 926      83B50500 
 927 0514 23B0C500 		sd	a2,0(a1)
 928 0518 6FF01FF2 		j	.L50
 929              	.LVL71:
 930              	.L82:
 931              	.LBE108:
 932              	.LBE109:
 933              	.LBE110:
 934              	.LBE111:
 935              	.LBE112:
 936              	.LBE113:
  57:src/main.cpp  ****             return;
 937              		.loc 1 57 13 is_stmt 1
  57:src/main.cpp  ****             return;
 938              		.loc 1 57 24 is_stmt 0
 939 051c 17050000 		lla	a0,.LC5
GAS LISTING /tmp/cc1kFpjO.s 			page 26


 939      13050500 
 940 0524 97000000 		call	_Z11printStringPKc
 940      E7800000 
 941              	.LVL72:
  57:src/main.cpp  ****             return;
 942              		.loc 1 57 39 is_stmt 1
  58:src/main.cpp  ****         }
 943              		.loc 1 58 13
 944 052c 6FF01FD6 		j	.L15
 945              	.LVL73:
 946              	.L42:
 947              	.LBE114:
  61:src/main.cpp  ****     for(int i = 0; i<num;i++){
 948              		.loc 1 61 5
  61:src/main.cpp  ****     for(int i = 0; i<num;i++){
 949              		.loc 1 61 16 is_stmt 0
 950 0530 17050000 		lla	a0,.LC6
 950      13050500 
 951 0538 97000000 		call	_Z11printStringPKc
 951      E7800000 
 952              	.LVL74:
 953              	.LBB115:
  62:src/main.cpp  ****         int retval = MemoryAllocation::mem_free(addrs[i]);
 954              		.loc 1 62 13
 955 0540 13060000 		li	a2,0
 956 0544 6F000008 		j	.L66
 957              	.LVL75:
 958              	.L73:
 959              	.LBB116:
 960              	.LBB117:
 961              	.LBB118:
  91:src/../h/MemoryAllocation.hpp ****         }else {
 962              		.loc 2 91 16
 963 0548 93860700 		mv	a3,a5
 964 054c 6F008000 		j	.L55
 965              	.L74:
 966 0550 93060000 		li	a3,0
 967              	.LVL76:
 968              	.L55:
  95:src/../h/MemoryAllocation.hpp ****                 newSeg->next=nullptr;
 969              		.loc 2 95 17 is_stmt 1
  96:src/../h/MemoryAllocation.hpp ****                 newSeg->prev=nullptr;
 970              		.loc 2 96 17
  96:src/../h/MemoryAllocation.hpp ****                 newSeg->prev=nullptr;
 971              		.loc 2 96 29 is_stmt 0
 972 0554 23300700 		sd	zero,0(a4)
  97:src/../h/MemoryAllocation.hpp ****                 newSeg->size=bytesToBlocks(sizeof(ptr))*MEM_BLOCK_SIZE+sizeof(fmem_head);
 973              		.loc 2 97 17 is_stmt 1
  98:src/../h/MemoryAllocation.hpp ****                         //sizeof(ptr);
 974              		.loc 2 98 17
 975              	.LVL77:
 976              	.LBE118:
 977              	.LBE117:
 978              	.LBE116:
 979              	.LBE115:
  69:src/../h/MemoryAllocation.hpp ****     }
 980              		.loc 2 69 9
GAS LISTING /tmp/cc1kFpjO.s 			page 27


 981              	.LBB133:
 982              	.LBB131:
 983              	.LBB129:
 984              	.LBB127:
  98:src/../h/MemoryAllocation.hpp ****                         //sizeof(ptr);
 985              		.loc 2 98 29 is_stmt 0
 986 0558 93078004 		li	a5,72
 987 055c 2338F700 		sd	a5,16(a4)
 100:src/../h/MemoryAllocation.hpp ****                 if(cur) {
 988              		.loc 2 100 17 is_stmt 1
 100:src/../h/MemoryAllocation.hpp ****                 if(cur) {
 989              		.loc 2 100 29 is_stmt 0
 990 0560 2334D700 		sd	a3,8(a4)
 101:src/../h/MemoryAllocation.hpp ****                     newSeg->next = cur->next;
 991              		.loc 2 101 17 is_stmt 1
 992 0564 6380060A 		beqz	a3,.L57
 102:src/../h/MemoryAllocation.hpp ****                 }
 993              		.loc 2 102 21
 102:src/../h/MemoryAllocation.hpp ****                 }
 994              		.loc 2 102 41 is_stmt 0
 995 0568 83B70600 		ld	a5,0(a3)
 102:src/../h/MemoryAllocation.hpp ****                 }
 996              		.loc 2 102 34
 997 056c 2330F700 		sd	a5,0(a4)
 998              	.L58:
 107:src/../h/MemoryAllocation.hpp ****                     newSeg->next->prev=newSeg;
 999              		.loc 2 107 17 is_stmt 1
 107:src/../h/MemoryAllocation.hpp ****                     newSeg->next->prev=newSeg;
 1000              		.loc 2 107 28 is_stmt 0
 1001 0570 83370700 		ld	a5,0(a4)
 107:src/../h/MemoryAllocation.hpp ****                     newSeg->next->prev=newSeg;
 1002              		.loc 2 107 17
 1003 0574 63840700 		beqz	a5,.L59
 108:src/../h/MemoryAllocation.hpp ****                 }
 1004              		.loc 2 108 21 is_stmt 1
 108:src/../h/MemoryAllocation.hpp ****                 }
 1005              		.loc 2 108 39 is_stmt 0
 1006 0578 23B4E700 		sd	a4,8(a5)
 1007              	.L59:
 110:src/../h/MemoryAllocation.hpp ****                     cur->next = newSeg; //zasto ovde odjednom uzme vrednost x8000 umesto x8000f...?
 1008              		.loc 2 110 17 is_stmt 1
 1009 057c 638E0608 		beqz	a3,.L60
 111:src/../h/MemoryAllocation.hpp ****                 }
 1010              		.loc 2 111 21
 111:src/../h/MemoryAllocation.hpp ****                 }
 1011              		.loc 2 111 31 is_stmt 0
 1012 0580 23B0E600 		sd	a4,0(a3)
 1013              	.L61:
 117:src/../h/MemoryAllocation.hpp ****             tryToJoin(cur);
 1014              		.loc 2 117 13 is_stmt 1
 1015              	.LVL78:
 1016              	.LBB119:
 1017              	.LBB120:
  75:src/../h/MemoryAllocation.hpp ****         if (curr->next && (char*)curr+curr->size == (char*)(curr->next)) {
 1018              		.loc 2 75 9
 1019 0584 630C0700 		beqz	a4,.L62
  76:src/../h/MemoryAllocation.hpp ****         // Remove the cur->next segment:
GAS LISTING /tmp/cc1kFpjO.s 			page 28


 1020              		.loc 2 76 9
  76:src/../h/MemoryAllocation.hpp ****         // Remove the cur->next segment:
 1021              		.loc 2 76 19 is_stmt 0
 1022 0588 83370700 		ld	a5,0(a4)
  76:src/../h/MemoryAllocation.hpp ****         // Remove the cur->next segment:
 1023              		.loc 2 76 9
 1024 058c 63880700 		beqz	a5,.L62
  76:src/../h/MemoryAllocation.hpp ****         // Remove the cur->next segment:
 1025              		.loc 2 76 45
 1026 0590 83350701 		ld	a1,16(a4)
  76:src/../h/MemoryAllocation.hpp ****         // Remove the cur->next segment:
 1027              		.loc 2 76 38
 1028 0594 3305B700 		add	a0,a4,a1
  76:src/../h/MemoryAllocation.hpp ****         // Remove the cur->next segment:
 1029              		.loc 2 76 24
 1030 0598 6388A708 		beq	a5,a0,.L83
 1031              	.L62:
 1032              	.LVL79:
 1033              	.LBE120:
 1034              	.LBE119:
 118:src/../h/MemoryAllocation.hpp ****             //mozda da fmem_head nije jednako starom fmem_headu?
 1035              		.loc 2 118 13 is_stmt 1
 1036              	.LBB122:
 1037              	.LBB123:
  75:src/../h/MemoryAllocation.hpp ****         if (curr->next && (char*)curr+curr->size == (char*)(curr->next)) {
 1038              		.loc 2 75 9
 1039 059c 638C0600 		beqz	a3,.L63
  76:src/../h/MemoryAllocation.hpp ****         // Remove the cur->next segment:
 1040              		.loc 2 76 9
  76:src/../h/MemoryAllocation.hpp ****         // Remove the cur->next segment:
 1041              		.loc 2 76 19 is_stmt 0
 1042 05a0 83B70600 		ld	a5,0(a3)
  76:src/../h/MemoryAllocation.hpp ****         // Remove the cur->next segment:
 1043              		.loc 2 76 9
 1044 05a4 63880700 		beqz	a5,.L63
  76:src/../h/MemoryAllocation.hpp ****         // Remove the cur->next segment:
 1045              		.loc 2 76 45
 1046 05a8 83B50601 		ld	a1,16(a3)
  76:src/../h/MemoryAllocation.hpp ****         // Remove the cur->next segment:
 1047              		.loc 2 76 38
 1048 05ac 3385B600 		add	a0,a3,a1
  76:src/../h/MemoryAllocation.hpp ****         // Remove the cur->next segment:
 1049              		.loc 2 76 24
 1050 05b0 638CA708 		beq	a5,a0,.L84
 1051              	.L63:
 1052              	.LVL80:
 1053              	.LBE123:
 1054              	.LBE122:
 120:src/../h/MemoryAllocation.hpp ****                 return -1;
 1055              		.loc 2 120 13 is_stmt 1
 1056 05b4 630A070A 		beqz	a4,.L85
 122:src/../h/MemoryAllocation.hpp **** 
 1057              		.loc 2 122 26 is_stmt 0
 1058 05b8 93070000 		li	a5,0
 1059              	.L64:
 1060              	.LVL81:
 1061              	.LBE127:
GAS LISTING /tmp/cc1kFpjO.s 			page 29


 1062              	.LBE129:
  64:src/main.cpp  ****             printString("not ok 4\n");;
 1063              		.loc 1 64 9 is_stmt 1
 1064 05bc 639A070A 		bnez	a5,.L86
 1065              	.LBE131:
  62:src/main.cpp  ****         int retval = MemoryAllocation::mem_free(addrs[i]);
 1066              		.loc 1 62 5 discriminator 2
 1067 05c0 1B061600 		addiw	a2,a2,1
 1068              	.LVL82:
 1069              	.L66:
  62:src/main.cpp  ****         int retval = MemoryAllocation::mem_free(addrs[i]);
 1070              		.loc 1 62 21 discriminator 1
 1071 05c4 93073006 		li	a5,99
 1072 05c8 63CEC70A 		bgt	a2,a5,.L54
 1073              	.LBB132:
  63:src/main.cpp  ****         if(retval != 0){
 1074              		.loc 1 63 9
  63:src/main.cpp  ****         if(retval != 0){
 1075              		.loc 1 63 48 is_stmt 0
 1076 05cc 93173600 		slli	a5,a2,3
 1077 05d0 130704FF 		addi	a4,s0,-16
 1078 05d4 B307F700 		add	a5,a4,a5
 1079 05d8 03B707CE 		ld	a4,-800(a5)
 1080              	.LVL83:
 1081              	.LBB130:
 1082              	.LBB128:
  88:src/../h/MemoryAllocation.hpp ****         if(!fmem_head || ptr < (char*)fmem_head)
 1083              		.loc 2 88 9 is_stmt 1
  89:src/../h/MemoryAllocation.hpp ****         {
 1084              		.loc 2 89 9
  89:src/../h/MemoryAllocation.hpp ****         {
 1085              		.loc 2 89 12 is_stmt 0
 1086 05dc 97070000 		la	a5,_ZN16MemoryAllocation9fmem_headE
 1086      83B70700 
 1087 05e4 83B70700 		ld	a5,0(a5)
  89:src/../h/MemoryAllocation.hpp ****         {
 1088              		.loc 2 89 9
 1089 05e8 E38007F6 		beqz	a5,.L73
  89:src/../h/MemoryAllocation.hpp ****         {
 1090              		.loc 2 89 23
 1091 05ec E362F7F6 		bltu	a4,a5,.L74
 1092              	.LVL84:
 1093              	.L56:
  93:src/../h/MemoryAllocation.hpp ****             }
 1094              		.loc 2 93 52 is_stmt 1
 1095 05f0 93860700 		mv	a3,a5
  93:src/../h/MemoryAllocation.hpp ****             }
 1096              		.loc 2 93 42 is_stmt 0
 1097 05f4 83B70700 		ld	a5,0(a5)
 1098              	.LVL85:
  93:src/../h/MemoryAllocation.hpp ****             }
 1099              		.loc 2 93 52
 1100 05f8 E30EF7F4 		beq	a4,a5,.L55
 1101 05fc E3EAE7FE 		bgtu	a4,a5,.L56
 1102 0600 6FF05FF5 		j	.L55
 1103              	.LVL86:
 1104              	.L57:
GAS LISTING /tmp/cc1kFpjO.s 			page 30


 105:src/../h/MemoryAllocation.hpp ****                 }
 1105              		.loc 2 105 21 is_stmt 1
 105:src/../h/MemoryAllocation.hpp ****                 }
 1106              		.loc 2 105 34 is_stmt 0
 1107 0604 97070000 		la	a5,_ZN16MemoryAllocation9fmem_headE
 1107      83B70700 
 1108 060c 83B70700 		ld	a5,0(a5)
 1109 0610 2330F700 		sd	a5,0(a4)
 1110 0614 6FF0DFF5 		j	.L58
 1111              	.L60:
 114:src/../h/MemoryAllocation.hpp ****                 }
 1112              		.loc 2 114 21 is_stmt 1
 114:src/../h/MemoryAllocation.hpp ****                 }
 1113              		.loc 2 114 31 is_stmt 0
 1114 0618 97070000 		la	a5,_ZN16MemoryAllocation9fmem_headE
 1114      83B70700 
 1115 0620 23B0E700 		sd	a4,0(a5)
 1116 0624 6FF01FF6 		j	.L61
 1117              	.LVL87:
 1118              	.L83:
 1119              	.LBB125:
 1120              	.LBB121:
  78:src/../h/MemoryAllocation.hpp ****             curr->next = curr->next->next;
 1121              		.loc 2 78 13 is_stmt 1
  78:src/../h/MemoryAllocation.hpp ****             curr->next = curr->next->next;
 1122              		.loc 2 78 39 is_stmt 0
 1123 0628 03B50701 		ld	a0,16(a5)
  78:src/../h/MemoryAllocation.hpp ****             curr->next = curr->next->next;
 1124              		.loc 2 78 24
 1125 062c B385A500 		add	a1,a1,a0
 1126 0630 2338B700 		sd	a1,16(a4)
  79:src/../h/MemoryAllocation.hpp ****             if (curr->next) curr->next->prev = curr;
 1127              		.loc 2 79 13 is_stmt 1
  79:src/../h/MemoryAllocation.hpp ****             if (curr->next) curr->next->prev = curr;
 1128              		.loc 2 79 38 is_stmt 0
 1129 0634 83B70700 		ld	a5,0(a5)
  79:src/../h/MemoryAllocation.hpp ****             if (curr->next) curr->next->prev = curr;
 1130              		.loc 2 79 24
 1131 0638 2330F700 		sd	a5,0(a4)
  80:src/../h/MemoryAllocation.hpp ****             return;
 1132              		.loc 2 80 13 is_stmt 1
 1133 063c E38007F6 		beqz	a5,.L62
  80:src/../h/MemoryAllocation.hpp ****             return;
 1134              		.loc 2 80 29
  80:src/../h/MemoryAllocation.hpp ****             return;
 1135              		.loc 2 80 46 is_stmt 0
 1136 0640 23B4E700 		sd	a4,8(a5)
 1137 0644 6FF09FF5 		j	.L62
 1138              	.LVL88:
 1139              	.L84:
 1140              	.LBE121:
 1141              	.LBE125:
 1142              	.LBB126:
 1143              	.LBB124:
  78:src/../h/MemoryAllocation.hpp ****             curr->next = curr->next->next;
 1144              		.loc 2 78 13 is_stmt 1
  78:src/../h/MemoryAllocation.hpp ****             curr->next = curr->next->next;
GAS LISTING /tmp/cc1kFpjO.s 			page 31


 1145              		.loc 2 78 39 is_stmt 0
 1146 0648 03B50701 		ld	a0,16(a5)
  78:src/../h/MemoryAllocation.hpp ****             curr->next = curr->next->next;
 1147              		.loc 2 78 24
 1148 064c B385A500 		add	a1,a1,a0
 1149 0650 23B8B600 		sd	a1,16(a3)
  79:src/../h/MemoryAllocation.hpp ****             if (curr->next) curr->next->prev = curr;
 1150              		.loc 2 79 13 is_stmt 1
  79:src/../h/MemoryAllocation.hpp ****             if (curr->next) curr->next->prev = curr;
 1151              		.loc 2 79 38 is_stmt 0
 1152 0654 83B70700 		ld	a5,0(a5)
  79:src/../h/MemoryAllocation.hpp ****             if (curr->next) curr->next->prev = curr;
 1153              		.loc 2 79 24
 1154 0658 23B0F600 		sd	a5,0(a3)
  80:src/../h/MemoryAllocation.hpp ****             return;
 1155              		.loc 2 80 13 is_stmt 1
 1156 065c E38C07F4 		beqz	a5,.L63
  80:src/../h/MemoryAllocation.hpp ****             return;
 1157              		.loc 2 80 29
  80:src/../h/MemoryAllocation.hpp ****             return;
 1158              		.loc 2 80 46 is_stmt 0
 1159 0660 23B4D700 		sd	a3,8(a5)
 1160 0664 6FF01FF5 		j	.L63
 1161              	.LVL89:
 1162              	.L85:
 1163              	.LBE124:
 1164              	.LBE126:
 121:src/../h/MemoryAllocation.hpp ****             }else{return 0;}
 1165              		.loc 2 121 25
 1166 0668 9307F0FF 		li	a5,-1
 1167 066c 6FF01FF5 		j	.L64
 1168              	.LVL90:
 1169              	.L86:
 1170              	.LBE128:
 1171              	.LBE130:
  65:src/main.cpp  ****             return;
 1172              		.loc 1 65 13 is_stmt 1
  65:src/main.cpp  ****             return;
 1173              		.loc 1 65 24 is_stmt 0
 1174 0670 17050000 		lla	a0,.LC7
 1174      13050500 
 1175 0678 97000000 		call	_Z11printStringPKc
 1175      E7800000 
 1176              	.LVL91:
  65:src/main.cpp  ****             return;
 1177              		.loc 1 65 39 is_stmt 1
  66:src/main.cpp  ****         }
 1178              		.loc 1 66 13
 1179 0680 6FF0DFC0 		j	.L15
 1180              	.LVL92:
 1181              	.L54:
 1182              	.LBE132:
 1183              	.LBE133:
  70:src/main.cpp  **** }
 1184              		.loc 1 70 5
  70:src/main.cpp  **** }
 1185              		.loc 1 70 16 is_stmt 0
GAS LISTING /tmp/cc1kFpjO.s 			page 32


 1186 0684 17050000 		lla	a0,.LC8
 1186      13050500 
 1187 068c 97000000 		call	_Z11printStringPKc
 1187      E7800000 
 1188              	.LVL93:
  70:src/main.cpp  **** }
 1189              		.loc 1 70 25 is_stmt 1
 1190 0694 6FF09FBF 		j	.L15
 1191              		.cfi_endproc
 1192              	.LFE14:
 1194              		.section	.rodata.str1.8
 1195 006c 00000000 		.align	3
 1196              	.LC9:
 1197 0070 62696720 		.string	"big Malloc\n"
 1197      4D616C6C 
 1197      6F630A00 
 1198 007c 00000000 		.align	3
 1199              	.LC10:
 1200 0080 6E6F7420 		.string	"not ok\n"
 1200      6F6B0A00 
 1201              		.text
 1202              		.align	2
 1203              		.globl	_Z9bigMallocv
 1205              	_Z9bigMallocv:
 1206              	.LFB15:
  72:src/main.cpp  **** 
  73:src/main.cpp  **** 
  74:src/main.cpp  **** void bigMalloc(){
 1207              		.loc 1 74 17
 1208              		.cfi_startproc
 1209 0698 130101FF 		addi	sp,sp,-16
 1210              		.cfi_def_cfa_offset 16
 1211 069c 23341100 		sd	ra,8(sp)
 1212 06a0 23308100 		sd	s0,0(sp)
 1213              		.cfi_offset 1, -8
 1214              		.cfi_offset 8, -16
 1215 06a4 13040101 		addi	s0,sp,16
 1216              		.cfi_def_cfa 8, 0
  75:src/main.cpp  ****     printString("big Malloc\n");;
 1217              		.loc 1 75 5
 1218              		.loc 1 75 16 is_stmt 0
 1219 06a8 17050000 		lla	a0,.LC9
 1219      13050500 
 1220 06b0 97000000 		call	_Z11printStringPKc
 1220      E7800000 
 1221              	.LVL94:
 1222              		.loc 1 75 33 is_stmt 1
  76:src/main.cpp  ****     uint64 x = (uint64)HEAP_END_ADDR - (uint64)HEAP_START_ADDR + 100UL;
 1223              		.loc 1 76 5
 1224              		.loc 1 76 38 is_stmt 0
 1225 06b8 97070000 		la	a5,HEAP_END_ADDR
 1225      83B70700 
 1226 06c0 83B70700 		ld	a5,0(a5)
 1227 06c4 17070000 		la	a4,HEAP_START_ADDR
 1227      03370700 
 1228 06cc 03370700 		ld	a4,0(a4)
 1229 06d0 B387E740 		sub	a5,a5,a4
GAS LISTING /tmp/cc1kFpjO.s 			page 33


 1230              		.loc 1 76 12
 1231 06d4 93874706 		addi	a5,a5,100
 1232              	.LVL95:
  77:src/main.cpp  ****     void* p = MemoryAllocation::mem_alloc(x);
 1233              		.loc 1 77 5 is_stmt 1
 1234              	.LBB140:
 1235              	.LBB141:
 153:src/../h/MemoryAllocation.hpp ****         for (FreeMem* cur = fmem_head; cur != nullptr; cur=cur->next){ // U DRUGOJ ITERACIJI FMEM_H
 1236              		.loc 2 153 9
 153:src/../h/MemoryAllocation.hpp ****         for (FreeMem* cur = fmem_head; cur != nullptr; cur=cur->next){ // U DRUGOJ ITERACIJI FMEM_H
 1237              		.loc 2 153 18 is_stmt 0
 1238 06d8 93976700 		slli	a5,a5,6
 1239              	.LVL96:
 153:src/../h/MemoryAllocation.hpp ****         for (FreeMem* cur = fmem_head; cur != nullptr; cur=cur->next){ // U DRUGOJ ITERACIJI FMEM_H
 1240              		.loc 2 153 13
 1241 06dc 93878700 		addi	a5,a5,8
 1242              	.LVL97:
 154:src/../h/MemoryAllocation.hpp ****             cur->next=fmem_head->next;
 1243              		.loc 2 154 9 is_stmt 1
 1244              	.LBB142:
 154:src/../h/MemoryAllocation.hpp ****             cur->next=fmem_head->next;
 1245              		.loc 2 154 23 is_stmt 0
 1246 06e0 17070000 		la	a4,_ZN16MemoryAllocation9fmem_headE
 1246      03370700 
 1247              	.LVL98:
 1248 06e8 03370700 		ld	a4,0(a4)
 1249              	.LVL99:
 1250              	.L89:
 154:src/../h/MemoryAllocation.hpp ****             cur->next=fmem_head->next;
 1251              		.loc 2 154 44 is_stmt 1
 1252 06ec 6308070C 		beqz	a4,.L88
 1253              	.LBB143:
 155:src/../h/MemoryAllocation.hpp ****             cur->prev=fmem_head->prev;
 1254              		.loc 2 155 13
 155:src/../h/MemoryAllocation.hpp ****             cur->prev=fmem_head->prev;
 1255              		.loc 2 155 34 is_stmt 0
 1256 06f0 97060000 		la	a3,_ZN16MemoryAllocation9fmem_headE
 1256      83B60600 
 1257 06f8 03B60600 		ld	a2,0(a3)
 1258 06fc 03360600 		ld	a2,0(a2)
 155:src/../h/MemoryAllocation.hpp ****             cur->prev=fmem_head->prev;
 1259              		.loc 2 155 22
 1260 0700 2330C700 		sd	a2,0(a4)
 156:src/../h/MemoryAllocation.hpp ****             if (cur->size<size) continue;
 1261              		.loc 2 156 13 is_stmt 1
 156:src/../h/MemoryAllocation.hpp ****             if (cur->size<size) continue;
 1262              		.loc 2 156 34 is_stmt 0
 1263 0704 83B60600 		ld	a3,0(a3)
 1264 0708 83B58600 		ld	a1,8(a3)
 156:src/../h/MemoryAllocation.hpp ****             if (cur->size<size) continue;
 1265              		.loc 2 156 22
 1266 070c 2334B700 		sd	a1,8(a4)
 157:src/../h/MemoryAllocation.hpp ****             if (cur->size-size<=sizeof(FreeMem)){
 1267              		.loc 2 157 13 is_stmt 1
 157:src/../h/MemoryAllocation.hpp ****             if (cur->size-size<=sizeof(FreeMem)){
 1268              		.loc 2 157 22 is_stmt 0
 1269 0710 83360701 		ld	a3,16(a4)
GAS LISTING /tmp/cc1kFpjO.s 			page 34


 157:src/../h/MemoryAllocation.hpp ****             if (cur->size-size<=sizeof(FreeMem)){
 1270              		.loc 2 157 13
 1271 0714 63E6F602 		bgtu	a5,a3,.L99
 158:src/../h/MemoryAllocation.hpp ****                 if (cur->prev) cur->prev->next = cur->next;
 1272              		.loc 2 158 13 is_stmt 1
 1273              	.LBB144:
 158:src/../h/MemoryAllocation.hpp ****                 if (cur->prev) cur->prev->next = cur->next;
 1274              		.loc 2 158 26 is_stmt 0
 1275 0718 B386F640 		sub	a3,a3,a5
 158:src/../h/MemoryAllocation.hpp ****                 if (cur->prev) cur->prev->next = cur->next;
 1276              		.loc 2 158 13
 1277 071c 13058001 		li	a0,24
 1278 0720 636CD502 		bgtu	a3,a0,.L90
 159:src/../h/MemoryAllocation.hpp ****                 else fmem_head = cur->next;
 1279              		.loc 2 159 17 is_stmt 1
 1280 0724 63820502 		beqz	a1,.L91
 159:src/../h/MemoryAllocation.hpp ****                 else fmem_head = cur->next;
 1281              		.loc 2 159 32
 159:src/../h/MemoryAllocation.hpp ****                 else fmem_head = cur->next;
 1282              		.loc 2 159 48 is_stmt 0
 1283 0728 23B0C500 		sd	a2,0(a1)
 1284              	.LVL100:
 1285              	.L92:
 161:src/../h/MemoryAllocation.hpp ****                 return cur;
 1286              		.loc 2 161 17 is_stmt 1
 161:src/../h/MemoryAllocation.hpp ****                 return cur;
 1287              		.loc 2 161 26 is_stmt 0
 1288 072c 83370700 		ld	a5,0(a4)
 161:src/../h/MemoryAllocation.hpp ****                 return cur;
 1289              		.loc 2 161 17
 1290 0730 63860708 		beqz	a5,.L88
 161:src/../h/MemoryAllocation.hpp ****                 return cur;
 1291              		.loc 2 161 32 is_stmt 1
 161:src/../h/MemoryAllocation.hpp ****                 return cur;
 1292              		.loc 2 161 55 is_stmt 0
 1293 0734 83368700 		ld	a3,8(a4)
 161:src/../h/MemoryAllocation.hpp ****                 return cur;
 1294              		.loc 2 161 48
 1295 0738 23B4D700 		sd	a3,8(a5)
 162:src/../h/MemoryAllocation.hpp ****             }else {
 1296              		.loc 2 162 17 is_stmt 1
 162:src/../h/MemoryAllocation.hpp ****             }else {
 1297              		.loc 2 162 24 is_stmt 0
 1298 073c 6F000008 		j	.L88
 1299              	.LVL101:
 1300              	.L99:
 1301              	.LBE144:
 1302              	.LBE143:
 154:src/../h/MemoryAllocation.hpp ****             cur->next=fmem_head->next;
 1303              		.loc 2 154 59
 1304 0740 13070600 		mv	a4,a2
 1305              	.LVL102:
 1306 0744 6FF09FFA 		j	.L89
 1307              	.LVL103:
 1308              	.L91:
 1309              	.LBB149:
 1310              	.LBB147:
GAS LISTING /tmp/cc1kFpjO.s 			page 35


 160:src/../h/MemoryAllocation.hpp ****                 if (cur->next) cur->next->prev = cur->prev;
 1311              		.loc 2 160 22 is_stmt 1
 160:src/../h/MemoryAllocation.hpp ****                 if (cur->next) cur->next->prev = cur->prev;
 1312              		.loc 2 160 32 is_stmt 0
 1313 0748 97070000 		la	a5,_ZN16MemoryAllocation9fmem_headE
 1313      83B70700 
 1314              	.LVL104:
 1315 0750 23B0C700 		sd	a2,0(a5)
 1316 0754 6FF09FFD 		j	.L92
 1317              	.LVL105:
 1318              	.L90:
 1319              	.LBB145:
 164:src/../h/MemoryAllocation.hpp ****                 newfrgm->prev=nullptr;
 1320              		.loc 2 164 17 is_stmt 1
 164:src/../h/MemoryAllocation.hpp ****                 newfrgm->prev=nullptr;
 1321              		.loc 2 164 26 is_stmt 0
 1322 0758 B306F700 		add	a3,a4,a5
 1323              	.LVL106:
 165:src/../h/MemoryAllocation.hpp ****                 newfrgm->next=nullptr;
 1324              		.loc 2 165 17 is_stmt 1
 165:src/../h/MemoryAllocation.hpp ****                 newfrgm->next=nullptr;
 1325              		.loc 2 165 30 is_stmt 0
 1326 075c 23B40600 		sd	zero,8(a3)
 166:src/../h/MemoryAllocation.hpp ****                 if (cur->prev) cur->prev->next = newfrgm;
 1327              		.loc 2 166 17 is_stmt 1
 166:src/../h/MemoryAllocation.hpp ****                 if (cur->prev) cur->prev->next = newfrgm;
 1328              		.loc 2 166 30 is_stmt 0
 1329 0760 23B00600 		sd	zero,0(a3)
 167:src/../h/MemoryAllocation.hpp ****                 else fmem_head = newfrgm+sizeof(fmem_head); // ovo sam dodao sizeof da bi mi radio 
 1330              		.loc 2 167 17 is_stmt 1
 167:src/../h/MemoryAllocation.hpp ****                 else fmem_head = newfrgm+sizeof(fmem_head); // ovo sam dodao sizeof da bi mi radio 
 1331              		.loc 2 167 26 is_stmt 0
 1332 0764 03368700 		ld	a2,8(a4)
 167:src/../h/MemoryAllocation.hpp ****                 else fmem_head = newfrgm+sizeof(fmem_head); // ovo sam dodao sizeof da bi mi radio 
 1333              		.loc 2 167 17
 1334 0768 630C0606 		beqz	a2,.L94
 167:src/../h/MemoryAllocation.hpp ****                 else fmem_head = newfrgm+sizeof(fmem_head); // ovo sam dodao sizeof da bi mi radio 
 1335              		.loc 2 167 32 is_stmt 1
 167:src/../h/MemoryAllocation.hpp ****                 else fmem_head = newfrgm+sizeof(fmem_head); // ovo sam dodao sizeof da bi mi radio 
 1336              		.loc 2 167 48 is_stmt 0
 1337 076c 2330D600 		sd	a3,0(a2)
 1338              	.L95:
 169:src/../h/MemoryAllocation.hpp ****                 newfrgm->prev = cur->prev;
 1339              		.loc 2 169 17 is_stmt 1
 169:src/../h/MemoryAllocation.hpp ****                 newfrgm->prev = cur->prev;
 1340              		.loc 2 169 26 is_stmt 0
 1341 0770 03360700 		ld	a2,0(a4)
 169:src/../h/MemoryAllocation.hpp ****                 newfrgm->prev = cur->prev;
 1342              		.loc 2 169 17
 1343 0774 63040600 		beqz	a2,.L96
 169:src/../h/MemoryAllocation.hpp ****                 newfrgm->prev = cur->prev;
 1344              		.loc 2 169 32 is_stmt 1
 169:src/../h/MemoryAllocation.hpp ****                 newfrgm->prev = cur->prev;
 1345              		.loc 2 169 48 is_stmt 0
 1346 0778 2334D600 		sd	a3,8(a2)
 1347              	.L96:
 170:src/../h/MemoryAllocation.hpp ****                 newfrgm->next = cur->next;
GAS LISTING /tmp/cc1kFpjO.s 			page 36


 1348              		.loc 2 170 17 is_stmt 1
 170:src/../h/MemoryAllocation.hpp ****                 newfrgm->next = cur->next;
 1349              		.loc 2 170 38 is_stmt 0
 1350 077c 03368700 		ld	a2,8(a4)
 170:src/../h/MemoryAllocation.hpp ****                 newfrgm->next = cur->next;
 1351              		.loc 2 170 31
 1352 0780 23B4C600 		sd	a2,8(a3)
 171:src/../h/MemoryAllocation.hpp ****                 newfrgm->size = cur->size-size;
 1353              		.loc 2 171 17 is_stmt 1
 171:src/../h/MemoryAllocation.hpp ****                 newfrgm->size = cur->size-size;
 1354              		.loc 2 171 38 is_stmt 0
 1355 0784 83350700 		ld	a1,0(a4)
 171:src/../h/MemoryAllocation.hpp ****                 newfrgm->size = cur->size-size;
 1356              		.loc 2 171 31
 1357 0788 23B0B600 		sd	a1,0(a3)
 172:src/../h/MemoryAllocation.hpp ****                 fmem_head = newfrgm+sizeof(fmem_head);
 1358              		.loc 2 172 17 is_stmt 1
 172:src/../h/MemoryAllocation.hpp ****                 fmem_head = newfrgm+sizeof(fmem_head);
 1359              		.loc 2 172 38 is_stmt 0
 1360 078c 03370701 		ld	a4,16(a4)
 1361              	.LVL107:
 172:src/../h/MemoryAllocation.hpp ****                 fmem_head = newfrgm+sizeof(fmem_head);
 1362              		.loc 2 172 42
 1363 0790 B307F740 		sub	a5,a4,a5
 1364              	.LVL108:
 172:src/../h/MemoryAllocation.hpp ****                 fmem_head = newfrgm+sizeof(fmem_head);
 1365              		.loc 2 172 31
 1366 0794 23B8F600 		sd	a5,16(a3)
 173:src/../h/MemoryAllocation.hpp ****                 fmem_head->next=newfrgm->next;
 1367              		.loc 2 173 17 is_stmt 1
 173:src/../h/MemoryAllocation.hpp ****                 fmem_head->next=newfrgm->next;
 1368              		.loc 2 173 36 is_stmt 0
 1369 0798 1387060C 		addi	a4,a3,192
 173:src/../h/MemoryAllocation.hpp ****                 fmem_head->next=newfrgm->next;
 1370              		.loc 2 173 27
 1371 079c 97050000 		la	a1,_ZN16MemoryAllocation9fmem_headE
 1371      83B50500 
 1372 07a4 23B0E500 		sd	a4,0(a1)
 174:src/../h/MemoryAllocation.hpp ****                 fmem_head->prev=newfrgm->prev;
 1373              		.loc 2 174 17 is_stmt 1
 174:src/../h/MemoryAllocation.hpp ****                 fmem_head->prev=newfrgm->prev;
 1374              		.loc 2 174 42 is_stmt 0
 1375 07a8 83B50600 		ld	a1,0(a3)
 174:src/../h/MemoryAllocation.hpp ****                 fmem_head->prev=newfrgm->prev;
 1376              		.loc 2 174 32
 1377 07ac 23B0B60C 		sd	a1,192(a3)
 175:src/../h/MemoryAllocation.hpp ****                 fmem_head->size=newfrgm->size;
 1378              		.loc 2 175 17 is_stmt 1
 175:src/../h/MemoryAllocation.hpp ****                 fmem_head->size=newfrgm->size;
 1379              		.loc 2 175 32 is_stmt 0
 1380 07b0 23B4C60C 		sd	a2,200(a3)
 176:src/../h/MemoryAllocation.hpp ****                 //fmem_head = (FreeMem*) (char*)newfrgm;
 1381              		.loc 2 176 17 is_stmt 1
 176:src/../h/MemoryAllocation.hpp ****                 //fmem_head = (FreeMem*) (char*)newfrgm;
 1382              		.loc 2 176 32 is_stmt 0
 1383 07b4 23B8F60C 		sd	a5,208(a3)
 1384              		.loc 2 178 17 is_stmt 1
GAS LISTING /tmp/cc1kFpjO.s 			page 37


 1385              		.loc 2 178 24 is_stmt 0
 1386 07b8 13870600 		mv	a4,a3
 1387              	.LVL109:
 1388              	.L88:
 1389              	.LBE145:
 1390              	.LBE147:
 1391              	.LBE149:
 1392              	.LBE142:
 1393              	.LBE141:
 1394              	.LBE140:
  78:src/main.cpp  ****     if(p == 0) printString("ok\n");
 1395              		.loc 1 78 5 is_stmt 1
 1396 07bc 630C0702 		beqz	a4,.L101
  79:src/main.cpp  ****     else printString("not ok\n");
 1397              		.loc 1 79 10
 1398              		.loc 1 79 21 is_stmt 0
 1399 07c0 17050000 		lla	a0,.LC10
 1399      13050500 
 1400 07c8 97000000 		call	_Z11printStringPKc
 1400      E7800000 
 1401              	.LVL110:
 1402              	.L87:
  80:src/main.cpp  **** }
 1403              		.loc 1 80 1
 1404 07d0 83308100 		ld	ra,8(sp)
 1405              		.cfi_remember_state
 1406              		.cfi_restore 1
 1407 07d4 03340100 		ld	s0,0(sp)
 1408              		.cfi_restore 8
 1409              		.cfi_def_cfa 2, 16
 1410 07d8 13010101 		addi	sp,sp,16
 1411              		.cfi_def_cfa_offset 0
 1412 07dc 67800000 		jr	ra
 1413              	.LVL111:
 1414              	.L94:
 1415              		.cfi_restore_state
 1416              	.LBB153:
 1417              	.LBB152:
 1418              	.LBB151:
 1419              	.LBB150:
 1420              	.LBB148:
 1421              	.LBB146:
 168:src/../h/MemoryAllocation.hpp ****                 if (cur->next) cur->next->prev = newfrgm;
 1422              		.loc 2 168 22 is_stmt 1
 168:src/../h/MemoryAllocation.hpp ****                 if (cur->next) cur->next->prev = newfrgm;
 1423              		.loc 2 168 41 is_stmt 0
 1424 07e0 1386060C 		addi	a2,a3,192
 168:src/../h/MemoryAllocation.hpp ****                 if (cur->next) cur->next->prev = newfrgm;
 1425              		.loc 2 168 32
 1426 07e4 97050000 		la	a1,_ZN16MemoryAllocation9fmem_headE
 1426      83B50500 
 1427 07ec 23B0C500 		sd	a2,0(a1)
 1428 07f0 6FF01FF8 		j	.L95
 1429              	.LVL112:
 1430              	.L101:
 1431              	.LBE146:
 1432              	.LBE148:
GAS LISTING /tmp/cc1kFpjO.s 			page 38


 1433              	.LBE150:
 1434              	.LBE151:
 1435              	.LBE152:
 1436              	.LBE153:
  78:src/main.cpp  ****     else printString("not ok\n");
 1437              		.loc 1 78 16 is_stmt 1 discriminator 1
  78:src/main.cpp  ****     else printString("not ok\n");
 1438              		.loc 1 78 27 is_stmt 0 discriminator 1
 1439 07f4 17050000 		lla	a0,.LC8
 1439      13050500 
 1440 07fc 97000000 		call	_Z11printStringPKc
 1440      E7800000 
 1441              	.LVL113:
 1442 0804 6FF0DFFC 		j	.L87
 1443              		.cfi_endproc
 1444              	.LFE15:
 1446              		.section	.rodata.str1.8
 1447              		.align	3
 1448              	.LC11:
 1449 0088 6C6F744F 		.string	"lotOfSmallMallocs\n"
 1449      66536D61 
 1449      6C6C4D61 
 1449      6C6C6F63 
 1449      730A00
 1450 009b 00000000 		.align	3
 1450      00
 1451              	.LC12:
 1452 00a0 0A00     		.string	"\n"
 1453              		.text
 1454              		.align	2
 1455              		.globl	_Z17lotOfSmallMallocsv
 1457              	_Z17lotOfSmallMallocsv:
 1458              	.LFB16:
  81:src/main.cpp  **** 
  82:src/main.cpp  **** 
  83:src/main.cpp  **** 
  84:src/main.cpp  **** struct Test{
  85:src/main.cpp  **** public:
  86:src/main.cpp  ****     int a,b,c,d,e;
  87:src/main.cpp  **** };
  88:src/main.cpp  **** 
  89:src/main.cpp  **** 
  90:src/main.cpp  **** 
  91:src/main.cpp  **** void lotOfSmallMallocs(){
 1459              		.loc 1 91 25 is_stmt 1
 1460              		.cfi_startproc
 1461 0808 130101FE 		addi	sp,sp,-32
 1462              		.cfi_def_cfa_offset 32
 1463 080c 233C1100 		sd	ra,24(sp)
 1464 0810 23388100 		sd	s0,16(sp)
 1465 0814 23349100 		sd	s1,8(sp)
 1466 0818 23302101 		sd	s2,0(sp)
 1467              		.cfi_offset 1, -8
 1468              		.cfi_offset 8, -16
 1469              		.cfi_offset 9, -24
 1470              		.cfi_offset 18, -32
 1471 081c 13040102 		addi	s0,sp,32
GAS LISTING /tmp/cc1kFpjO.s 			page 39


 1472              		.cfi_def_cfa 8, 0
  92:src/main.cpp  ****     printString("lotOfSmallMallocs\n");;
 1473              		.loc 1 92 5
 1474              		.loc 1 92 16 is_stmt 0
 1475 0820 17050000 		lla	a0,.LC11
 1475      13050500 
 1476 0828 97000000 		call	_Z11printStringPKc
 1476      E7800000 
 1477              	.LVL114:
 1478              		.loc 1 92 40 is_stmt 1
  93:src/main.cpp  ****     int cnt = 0;
 1479              		.loc 1 93 5
  94:src/main.cpp  ****     int sum = 0;
 1480              		.loc 1 94 5
  95:src/main.cpp  ****     int N = 100000;
 1481              		.loc 1 95 5
  96:src/main.cpp  ****     int X = 10;
 1482              		.loc 1 96 5
  97:src/main.cpp  ****     for(int i = 0; i<N;i++) {
 1483              		.loc 1 97 5
 1484              	.LBB162:
 1485              		.loc 1 97 13 is_stmt 0
 1486 0830 93060000 		li	a3,0
 1487              	.LBE162:
  94:src/main.cpp  ****     int N = 100000;
 1488              		.loc 1 94 9
 1489 0834 13090000 		li	s2,0
  93:src/main.cpp  ****     int sum = 0;
 1490              		.loc 1 93 9
 1491 0838 93040000 		li	s1,0
 1492 083c 6F00800A 		j	.L113
 1493              	.LVL115:
 1494              	.L116:
 1495              	.LBB178:
 1496              	.LBB163:
 1497              	.LBB164:
 1498              	.LBB165:
 1499              	.LBB166:
 154:src/../h/MemoryAllocation.hpp ****             cur->next=fmem_head->next;
 1500              		.loc 2 154 59
 1501 0840 93070600 		mv	a5,a2
 1502              	.LVL116:
 1503 0844 6F00800B 		j	.L105
 1504              	.LVL117:
 1505              	.L107:
 1506              	.LBB167:
 1507              	.LBB168:
 160:src/../h/MemoryAllocation.hpp ****                 if (cur->next) cur->next->prev = cur->prev;
 1508              		.loc 2 160 22 is_stmt 1
 160:src/../h/MemoryAllocation.hpp ****                 if (cur->next) cur->next->prev = cur->prev;
 1509              		.loc 2 160 32 is_stmt 0
 1510 0848 17070000 		la	a4,_ZN16MemoryAllocation9fmem_headE
 1510      03370700 
 1511 0850 2330C700 		sd	a2,0(a4)
 1512 0854 6F00C00E 		j	.L108
 1513              	.L106:
 1514              	.LBB169:
GAS LISTING /tmp/cc1kFpjO.s 			page 40


 164:src/../h/MemoryAllocation.hpp ****                 newfrgm->prev=nullptr;
 1515              		.loc 2 164 17 is_stmt 1
 164:src/../h/MemoryAllocation.hpp ****                 newfrgm->prev=nullptr;
 1516              		.loc 2 164 26 is_stmt 0
 1517 0858 13878704 		addi	a4,a5,72
 1518              	.LVL118:
 165:src/../h/MemoryAllocation.hpp ****                 newfrgm->next=nullptr;
 1519              		.loc 2 165 17 is_stmt 1
 165:src/../h/MemoryAllocation.hpp ****                 newfrgm->next=nullptr;
 1520              		.loc 2 165 30 is_stmt 0
 1521 085c 23340700 		sd	zero,8(a4)
 166:src/../h/MemoryAllocation.hpp ****                 if (cur->prev) cur->prev->next = newfrgm;
 1522              		.loc 2 166 17 is_stmt 1
 166:src/../h/MemoryAllocation.hpp ****                 if (cur->prev) cur->prev->next = newfrgm;
 1523              		.loc 2 166 30 is_stmt 0
 1524 0860 23B40704 		sd	zero,72(a5)
 167:src/../h/MemoryAllocation.hpp ****                 else fmem_head = newfrgm+sizeof(fmem_head); // ovo sam dodao sizeof da bi mi radio 
 1525              		.loc 2 167 17 is_stmt 1
 167:src/../h/MemoryAllocation.hpp ****                 else fmem_head = newfrgm+sizeof(fmem_head); // ovo sam dodao sizeof da bi mi radio 
 1526              		.loc 2 167 26 is_stmt 0
 1527 0864 03B68700 		ld	a2,8(a5)
 167:src/../h/MemoryAllocation.hpp ****                 else fmem_head = newfrgm+sizeof(fmem_head); // ovo sam dodao sizeof da bi mi radio 
 1528              		.loc 2 167 17
 1529 0868 6306060E 		beqz	a2,.L110
 167:src/../h/MemoryAllocation.hpp ****                 else fmem_head = newfrgm+sizeof(fmem_head); // ovo sam dodao sizeof da bi mi radio 
 1530              		.loc 2 167 32 is_stmt 1
 167:src/../h/MemoryAllocation.hpp ****                 else fmem_head = newfrgm+sizeof(fmem_head); // ovo sam dodao sizeof da bi mi radio 
 1531              		.loc 2 167 48 is_stmt 0
 1532 086c 2330E600 		sd	a4,0(a2)
 1533              	.L111:
 169:src/../h/MemoryAllocation.hpp ****                 newfrgm->prev = cur->prev;
 1534              		.loc 2 169 17 is_stmt 1
 169:src/../h/MemoryAllocation.hpp ****                 newfrgm->prev = cur->prev;
 1535              		.loc 2 169 26 is_stmt 0
 1536 0870 03B60700 		ld	a2,0(a5)
 169:src/../h/MemoryAllocation.hpp ****                 newfrgm->prev = cur->prev;
 1537              		.loc 2 169 17
 1538 0874 63040600 		beqz	a2,.L112
 169:src/../h/MemoryAllocation.hpp ****                 newfrgm->prev = cur->prev;
 1539              		.loc 2 169 32 is_stmt 1
 169:src/../h/MemoryAllocation.hpp ****                 newfrgm->prev = cur->prev;
 1540              		.loc 2 169 48 is_stmt 0
 1541 0878 2334E600 		sd	a4,8(a2)
 1542              	.L112:
 170:src/../h/MemoryAllocation.hpp ****                 newfrgm->next = cur->next;
 1543              		.loc 2 170 17 is_stmt 1
 170:src/../h/MemoryAllocation.hpp ****                 newfrgm->next = cur->next;
 1544              		.loc 2 170 38 is_stmt 0
 1545 087c 83B58700 		ld	a1,8(a5)
 170:src/../h/MemoryAllocation.hpp ****                 newfrgm->next = cur->next;
 1546              		.loc 2 170 31
 1547 0880 2334B700 		sd	a1,8(a4)
 171:src/../h/MemoryAllocation.hpp ****                 newfrgm->size = cur->size-size;
 1548              		.loc 2 171 17 is_stmt 1
 171:src/../h/MemoryAllocation.hpp ****                 newfrgm->size = cur->size-size;
 1549              		.loc 2 171 38 is_stmt 0
 1550 0884 03B60700 		ld	a2,0(a5)
GAS LISTING /tmp/cc1kFpjO.s 			page 41


 171:src/../h/MemoryAllocation.hpp ****                 newfrgm->size = cur->size-size;
 1551              		.loc 2 171 31
 1552 0888 2330C700 		sd	a2,0(a4)
 172:src/../h/MemoryAllocation.hpp ****                 fmem_head = newfrgm+sizeof(fmem_head);
 1553              		.loc 2 172 17 is_stmt 1
 172:src/../h/MemoryAllocation.hpp ****                 fmem_head = newfrgm+sizeof(fmem_head);
 1554              		.loc 2 172 38 is_stmt 0
 1555 088c 83B70701 		ld	a5,16(a5)
 1556              	.LVL119:
 172:src/../h/MemoryAllocation.hpp ****                 fmem_head = newfrgm+sizeof(fmem_head);
 1557              		.loc 2 172 42
 1558 0890 938787FB 		addi	a5,a5,-72
 172:src/../h/MemoryAllocation.hpp ****                 fmem_head = newfrgm+sizeof(fmem_head);
 1559              		.loc 2 172 31
 1560 0894 2338F700 		sd	a5,16(a4)
 173:src/../h/MemoryAllocation.hpp ****                 fmem_head->next=newfrgm->next;
 1561              		.loc 2 173 17 is_stmt 1
 173:src/../h/MemoryAllocation.hpp ****                 fmem_head->next=newfrgm->next;
 1562              		.loc 2 173 36 is_stmt 0
 1563 0898 1306070C 		addi	a2,a4,192
 173:src/../h/MemoryAllocation.hpp ****                 fmem_head->next=newfrgm->next;
 1564              		.loc 2 173 27
 1565 089c 17050000 		la	a0,_ZN16MemoryAllocation9fmem_headE
 1565      03350500 
 1566 08a4 2330C500 		sd	a2,0(a0)
 174:src/../h/MemoryAllocation.hpp ****                 fmem_head->prev=newfrgm->prev;
 1567              		.loc 2 174 17 is_stmt 1
 174:src/../h/MemoryAllocation.hpp ****                 fmem_head->prev=newfrgm->prev;
 1568              		.loc 2 174 42 is_stmt 0
 1569 08a8 03350700 		ld	a0,0(a4)
 174:src/../h/MemoryAllocation.hpp ****                 fmem_head->prev=newfrgm->prev;
 1570              		.loc 2 174 32
 1571 08ac 2330A70C 		sd	a0,192(a4)
 175:src/../h/MemoryAllocation.hpp ****                 fmem_head->size=newfrgm->size;
 1572              		.loc 2 175 17 is_stmt 1
 175:src/../h/MemoryAllocation.hpp ****                 fmem_head->size=newfrgm->size;
 1573              		.loc 2 175 32 is_stmt 0
 1574 08b0 2334B70C 		sd	a1,200(a4)
 176:src/../h/MemoryAllocation.hpp ****                 //fmem_head = (FreeMem*) (char*)newfrgm;
 1575              		.loc 2 176 17 is_stmt 1
 176:src/../h/MemoryAllocation.hpp ****                 //fmem_head = (FreeMem*) (char*)newfrgm;
 1576              		.loc 2 176 32 is_stmt 0
 1577 08b4 2338F70C 		sd	a5,208(a4)
 1578              		.loc 2 178 17 is_stmt 1
 1579              		.loc 2 178 24 is_stmt 0
 1580 08b8 93070700 		mv	a5,a4
 1581              	.LVL120:
 1582              	.L104:
 1583              	.LBE169:
 1584              	.LBE168:
 1585              	.LBE167:
 1586              	.LBE166:
 1587              	.LBE165:
 1588              	.LBE164:
  98:src/main.cpp  ****         Test *t = (Test*)MemoryAllocation::mem_alloc(MemoryAllocation::bytesToBlocks(sizeof(Test)))
  99:src/main.cpp  ****         if(t == 0)break;
 1589              		.loc 1 99 9 is_stmt 1
GAS LISTING /tmp/cc1kFpjO.s 			page 42


 1590 08bc 6386070A 		beqz	a5,.L103
 100:src/main.cpp  ****         t->a = X;
 1591              		.loc 1 100 9 discriminator 2
 1592              		.loc 1 100 14 is_stmt 0 discriminator 2
 1593 08c0 1307A000 		li	a4,10
 1594 08c4 23A0E700 		sw	a4,0(a5)
 101:src/main.cpp  ****         t->b = X;
 1595              		.loc 1 101 9 is_stmt 1 discriminator 2
 1596              		.loc 1 101 14 is_stmt 0 discriminator 2
 1597 08c8 23A2E700 		sw	a4,4(a5)
 102:src/main.cpp  ****         t->c = X;
 1598              		.loc 1 102 9 is_stmt 1 discriminator 2
 1599              		.loc 1 102 14 is_stmt 0 discriminator 2
 1600 08cc 23A4E700 		sw	a4,8(a5)
 103:src/main.cpp  ****         t->d = X;
 1601              		.loc 1 103 9 is_stmt 1 discriminator 2
 1602              		.loc 1 103 14 is_stmt 0 discriminator 2
 1603 08d0 23A6E700 		sw	a4,12(a5)
 104:src/main.cpp  ****         t->e = X;
 1604              		.loc 1 104 9 is_stmt 1 discriminator 2
 1605              		.loc 1 104 14 is_stmt 0 discriminator 2
 1606 08d4 23A8E700 		sw	a4,16(a5)
 105:src/main.cpp  **** 
 106:src/main.cpp  ****         sum+=X;
 1607              		.loc 1 106 9 is_stmt 1 discriminator 2
 1608              		.loc 1 106 12 is_stmt 0 discriminator 2
 1609 08d8 1B09A900 		addiw	s2,s2,10
 1610              	.LVL121:
 107:src/main.cpp  ****         cnt++;
 1611              		.loc 1 107 9 is_stmt 1 discriminator 2
 1612              		.loc 1 107 12 is_stmt 0 discriminator 2
 1613 08dc 9B841400 		addiw	s1,s1,1
 1614              	.LVL122:
 1615              	.LBE163:
  97:src/main.cpp  ****         Test *t = (Test*)MemoryAllocation::mem_alloc(MemoryAllocation::bytesToBlocks(sizeof(Test)))
 1616              		.loc 1 97 5 is_stmt 1 discriminator 2
 1617 08e0 9B861600 		addiw	a3,a3,1
 1618              	.LVL123:
 1619              	.L113:
  97:src/main.cpp  ****         Test *t = (Test*)MemoryAllocation::mem_alloc(MemoryAllocation::bytesToBlocks(sizeof(Test)))
 1620              		.loc 1 97 21 discriminator 1
 1621 08e4 B7870100 		li	a5,98304
 1622 08e8 9387F769 		addi	a5,a5,1695
 1623 08ec 63CED706 		bgt	a3,a5,.L103
 1624              	.LBB176:
  98:src/main.cpp  ****         if(t == 0)break;
 1625              		.loc 1 98 9
 1626              	.LVL124:
 1627              	.LBE176:
 1628              	.LBE178:
  69:src/../h/MemoryAllocation.hpp ****     }
 1629              		.loc 2 69 9
 1630              	.LBB179:
 1631              	.LBB177:
 1632              	.LBB175:
 1633              	.LBB174:
 153:src/../h/MemoryAllocation.hpp ****         for (FreeMem* cur = fmem_head; cur != nullptr; cur=cur->next){ // U DRUGOJ ITERACIJI FMEM_H
GAS LISTING /tmp/cc1kFpjO.s 			page 43


 1634              		.loc 2 153 9
 154:src/../h/MemoryAllocation.hpp ****             cur->next=fmem_head->next;
 1635              		.loc 2 154 9
 1636              	.LBB173:
 154:src/../h/MemoryAllocation.hpp ****             cur->next=fmem_head->next;
 1637              		.loc 2 154 23 is_stmt 0
 1638 08f0 97070000 		la	a5,_ZN16MemoryAllocation9fmem_headE
 1638      83B70700 
 1639 08f8 83B70700 		ld	a5,0(a5)
 1640              	.LVL125:
 1641              	.L105:
 154:src/../h/MemoryAllocation.hpp ****             cur->next=fmem_head->next;
 1642              		.loc 2 154 44 is_stmt 1
 1643 08fc E38007FC 		beqz	a5,.L104
 1644              	.LBB172:
 155:src/../h/MemoryAllocation.hpp ****             cur->prev=fmem_head->prev;
 1645              		.loc 2 155 13
 155:src/../h/MemoryAllocation.hpp ****             cur->prev=fmem_head->prev;
 1646              		.loc 2 155 34 is_stmt 0
 1647 0900 17070000 		la	a4,_ZN16MemoryAllocation9fmem_headE
 1647      03370700 
 1648 0908 03360700 		ld	a2,0(a4)
 1649 090c 03360600 		ld	a2,0(a2)
 155:src/../h/MemoryAllocation.hpp ****             cur->prev=fmem_head->prev;
 1650              		.loc 2 155 22
 1651 0910 23B0C700 		sd	a2,0(a5)
 156:src/../h/MemoryAllocation.hpp ****             if (cur->size<size) continue;
 1652              		.loc 2 156 13 is_stmt 1
 156:src/../h/MemoryAllocation.hpp ****             if (cur->size<size) continue;
 1653              		.loc 2 156 34 is_stmt 0
 1654 0914 03370700 		ld	a4,0(a4)
 1655 0918 83358700 		ld	a1,8(a4)
 156:src/../h/MemoryAllocation.hpp ****             if (cur->size<size) continue;
 1656              		.loc 2 156 22
 1657 091c 23B4B700 		sd	a1,8(a5)
 157:src/../h/MemoryAllocation.hpp ****             if (cur->size-size<=sizeof(FreeMem)){
 1658              		.loc 2 157 13 is_stmt 1
 157:src/../h/MemoryAllocation.hpp ****             if (cur->size-size<=sizeof(FreeMem)){
 1659              		.loc 2 157 22 is_stmt 0
 1660 0920 03B70701 		ld	a4,16(a5)
 157:src/../h/MemoryAllocation.hpp ****             if (cur->size-size<=sizeof(FreeMem)){
 1661              		.loc 2 157 13
 1662 0924 13057004 		li	a0,71
 1663 0928 E37CE5F0 		bleu	a4,a0,.L116
 158:src/../h/MemoryAllocation.hpp ****                 if (cur->prev) cur->prev->next = cur->next;
 1664              		.loc 2 158 13 is_stmt 1
 1665              	.LBB171:
 158:src/../h/MemoryAllocation.hpp ****                 if (cur->prev) cur->prev->next = cur->next;
 1666              		.loc 2 158 26 is_stmt 0
 1667 092c 130787FB 		addi	a4,a4,-72
 158:src/../h/MemoryAllocation.hpp ****                 if (cur->prev) cur->prev->next = cur->next;
 1668              		.loc 2 158 13
 1669 0930 13058001 		li	a0,24
 1670 0934 E362E5F2 		bgtu	a4,a0,.L106
 159:src/../h/MemoryAllocation.hpp ****                 else fmem_head = cur->next;
 1671              		.loc 2 159 17 is_stmt 1
 1672 0938 E38805F0 		beqz	a1,.L107
GAS LISTING /tmp/cc1kFpjO.s 			page 44


 159:src/../h/MemoryAllocation.hpp ****                 else fmem_head = cur->next;
 1673              		.loc 2 159 32
 159:src/../h/MemoryAllocation.hpp ****                 else fmem_head = cur->next;
 1674              		.loc 2 159 48 is_stmt 0
 1675 093c 23B0C500 		sd	a2,0(a1)
 1676              	.L108:
 161:src/../h/MemoryAllocation.hpp ****                 return cur;
 1677              		.loc 2 161 17 is_stmt 1
 161:src/../h/MemoryAllocation.hpp ****                 return cur;
 1678              		.loc 2 161 26 is_stmt 0
 1679 0940 03B70700 		ld	a4,0(a5)
 161:src/../h/MemoryAllocation.hpp ****                 return cur;
 1680              		.loc 2 161 17
 1681 0944 E30C07F6 		beqz	a4,.L104
 161:src/../h/MemoryAllocation.hpp ****                 return cur;
 1682              		.loc 2 161 32 is_stmt 1
 161:src/../h/MemoryAllocation.hpp ****                 return cur;
 1683              		.loc 2 161 55 is_stmt 0
 1684 0948 03B68700 		ld	a2,8(a5)
 161:src/../h/MemoryAllocation.hpp ****                 return cur;
 1685              		.loc 2 161 48
 1686 094c 2334C700 		sd	a2,8(a4)
 162:src/../h/MemoryAllocation.hpp ****             }else {
 1687              		.loc 2 162 17 is_stmt 1
 162:src/../h/MemoryAllocation.hpp ****             }else {
 1688              		.loc 2 162 24 is_stmt 0
 1689 0950 6FF0DFF6 		j	.L104
 1690              	.LVL126:
 1691              	.L110:
 1692              	.LBB170:
 168:src/../h/MemoryAllocation.hpp ****                 if (cur->next) cur->next->prev = newfrgm;
 1693              		.loc 2 168 22 is_stmt 1
 168:src/../h/MemoryAllocation.hpp ****                 if (cur->next) cur->next->prev = newfrgm;
 1694              		.loc 2 168 41 is_stmt 0
 1695 0954 1306070C 		addi	a2,a4,192
 168:src/../h/MemoryAllocation.hpp ****                 if (cur->next) cur->next->prev = newfrgm;
 1696              		.loc 2 168 32
 1697 0958 97050000 		la	a1,_ZN16MemoryAllocation9fmem_headE
 1697      83B50500 
 1698 0960 23B0C500 		sd	a2,0(a1)
 1699 0964 6FF0DFF0 		j	.L111
 1700              	.LVL127:
 1701              	.L103:
 1702              	.LBE170:
 1703              	.LBE171:
 1704              	.LBE172:
 1705              	.LBE173:
 1706              	.LBE174:
 1707              	.LBE175:
 1708              	.LBE177:
 1709              	.LBE179:
 108:src/main.cpp  ****     }
 109:src/main.cpp  ****     printInteger(cnt);
 1710              		.loc 1 109 5 is_stmt 1
 1711              		.loc 1 109 17 is_stmt 0
 1712 0968 13850400 		mv	a0,s1
 1713 096c 97000000 		call	_Z12printIntegerm
GAS LISTING /tmp/cc1kFpjO.s 			page 45


 1713      E7800000 
 1714              	.LVL128:
 110:src/main.cpp  ****     printString("\n");
 1715              		.loc 1 110 5 is_stmt 1
 1716              		.loc 1 110 16 is_stmt 0
 1717 0974 17050000 		lla	a0,.LC12
 1717      13050500 
 1718 097c 97000000 		call	_Z11printStringPKc
 1718      E7800000 
 1719              	.LVL129:
 111:src/main.cpp  ****     if(sum == X*cnt) printString("ok\n");
 1720              		.loc 1 111 5 is_stmt 1
 1721              		.loc 1 111 16 is_stmt 0
 1722 0984 9B972400 		slliw	a5,s1,2
 1723 0988 BB849700 		addw	s1,a5,s1
 1724              	.LVL130:
 1725 098c 9B971400 		slliw	a5,s1,1
 1726 0990 9B870700 		sext.w	a5,a5
 1727              		.loc 1 111 5
 1728 0994 63862703 		beq	a5,s2,.L118
 112:src/main.cpp  ****     else printString("not ok\n");
 1729              		.loc 1 112 10 is_stmt 1
 1730              		.loc 1 112 21 is_stmt 0
 1731 0998 17050000 		lla	a0,.LC10
 1731      13050500 
 1732 09a0 97000000 		call	_Z11printStringPKc
 1732      E7800000 
 1733              	.LVL131:
 1734              	.L102:
 113:src/main.cpp  **** }
 1735              		.loc 1 113 1
 1736 09a8 83308101 		ld	ra,24(sp)
 1737              		.cfi_remember_state
 1738              		.cfi_restore 1
 1739 09ac 03340101 		ld	s0,16(sp)
 1740              		.cfi_restore 8
 1741              		.cfi_def_cfa 2, 32
 1742 09b0 83348100 		ld	s1,8(sp)
 1743              		.cfi_restore 9
 1744 09b4 03390100 		ld	s2,0(sp)
 1745              		.cfi_restore 18
 1746              	.LVL132:
 1747 09b8 13010102 		addi	sp,sp,32
 1748              		.cfi_def_cfa_offset 0
 1749 09bc 67800000 		jr	ra
 1750              	.LVL133:
 1751              	.L118:
 1752              		.cfi_restore_state
 111:src/main.cpp  ****     if(sum == X*cnt) printString("ok\n");
 1753              		.loc 1 111 22 is_stmt 1 discriminator 1
 111:src/main.cpp  ****     if(sum == X*cnt) printString("ok\n");
 1754              		.loc 1 111 33 is_stmt 0 discriminator 1
 1755 09c0 17050000 		lla	a0,.LC8
 1755      13050500 
 1756 09c8 97000000 		call	_Z11printStringPKc
 1756      E7800000 
 1757              	.LVL134:
GAS LISTING /tmp/cc1kFpjO.s 			page 46


 1758 09d0 6FF09FFD 		j	.L102
 1759              		.cfi_endproc
 1760              	.LFE16:
 1762              		.section	.rodata.str1.8
 1763 00a2 00000000 		.align	3
 1763      0000
 1764              	.LC13:
 1765 00a8 73747265 		.string	"stressTesting\n"
 1765      73735465 
 1765      7374696E 
 1765      670A00
 1766 00b7 00       		.align	3
 1767              	.LC14:
 1768 00b8 737A3A00 		.string	"sz:"
 1769 00bc 00000000 		.align	3
 1770              	.LC15:
 1771 00c0 693A00   		.string	"i:"
 1772 00c3 00000000 		.align	3
 1772      00
 1773              	.LC16:
 1774 00c8 66726565 		.string	"free\n"
 1774      0A00
 1775 00ce 0000     		.align	3
 1776              	.LC17:
 1777 00d0 616C6C6F 		.string	"alloc\n"
 1777      630A00
 1778              		.text
 1779              		.align	2
 1780              		.globl	_Z13stressTestingv
 1782              	_Z13stressTestingv:
 1783              	.LFB17:
 114:src/main.cpp  **** 
 115:src/main.cpp  **** void stressTesting(){
 1784              		.loc 1 115 21 is_stmt 1
 1785              		.cfi_startproc
 1786 09d4 13010181 		addi	sp,sp,-2032
 1787              		.cfi_def_cfa_offset 2032
 1788 09d8 2334117E 		sd	ra,2024(sp)
 1789 09dc 2330817E 		sd	s0,2016(sp)
 1790 09e0 233C917C 		sd	s1,2008(sp)
 1791 09e4 2338217D 		sd	s2,2000(sp)
 1792 09e8 2334317D 		sd	s3,1992(sp)
 1793              		.cfi_offset 1, -8
 1794              		.cfi_offset 8, -16
 1795              		.cfi_offset 9, -24
 1796              		.cfi_offset 18, -32
 1797              		.cfi_offset 19, -40
 1798 09ec 1304017F 		addi	s0,sp,2032
 1799              		.cfi_def_cfa 8, 0
 1800 09f0 13010193 		addi	sp,sp,-1744
 116:src/main.cpp  ****     printString("stressTesting\n");
 1801              		.loc 1 116 5
 1802              		.loc 1 116 16 is_stmt 0
 1803 09f4 17050000 		lla	a0,.LC13
 1803      13050500 
 1804 09fc 97000000 		call	_Z11printStringPKc
 1804      E7800000 
GAS LISTING /tmp/cc1kFpjO.s 			page 47


 1805              	.LVL135:
 1806              	.LBB220:
 117:src/main.cpp  ****     constexpr int num = 465;
 118:src/main.cpp  ****     void* addrs[num];
 119:src/main.cpp  ****     for(int i = 0; i<num;i++){
 1807              		.loc 1 119 13
 1808 0a04 13060000 		li	a2,0
 1809 0a08 6F00000A 		j	.L132
 1810              	.LVL136:
 1811              	.L181:
 1812              	.LBB221:
 1813              	.LBB222:
 1814              	.LBB223:
 154:src/../h/MemoryAllocation.hpp ****             cur->next=fmem_head->next;
 1815              		.loc 2 154 59
 1816 0a0c 93870600 		mv	a5,a3
 1817              	.LVL137:
 1818 0a10 6F00C00A 		j	.L122
 1819              	.LVL138:
 1820              	.L124:
 1821              	.LBB224:
 1822              	.LBB225:
 160:src/../h/MemoryAllocation.hpp ****                 if (cur->next) cur->next->prev = cur->prev;
 1823              		.loc 2 160 22 is_stmt 1
 160:src/../h/MemoryAllocation.hpp ****                 if (cur->next) cur->next->prev = cur->prev;
 1824              		.loc 2 160 32 is_stmt 0
 1825 0a14 17070000 		la	a4,_ZN16MemoryAllocation9fmem_headE
 1825      03370700 
 1826 0a1c 2330D700 		sd	a3,0(a4)
 1827 0a20 6F00000E 		j	.L125
 1828              	.L123:
 1829              	.LBB226:
 164:src/../h/MemoryAllocation.hpp ****                 newfrgm->prev=nullptr;
 1830              		.loc 2 164 17 is_stmt 1
 164:src/../h/MemoryAllocation.hpp ****                 newfrgm->prev=nullptr;
 1831              		.loc 2 164 26 is_stmt 0
 1832 0a24 13878704 		addi	a4,a5,72
 1833              	.LVL139:
 165:src/../h/MemoryAllocation.hpp ****                 newfrgm->next=nullptr;
 1834              		.loc 2 165 17 is_stmt 1
 165:src/../h/MemoryAllocation.hpp ****                 newfrgm->next=nullptr;
 1835              		.loc 2 165 30 is_stmt 0
 1836 0a28 23340700 		sd	zero,8(a4)
 166:src/../h/MemoryAllocation.hpp ****                 if (cur->prev) cur->prev->next = newfrgm;
 1837              		.loc 2 166 17 is_stmt 1
 166:src/../h/MemoryAllocation.hpp ****                 if (cur->prev) cur->prev->next = newfrgm;
 1838              		.loc 2 166 30 is_stmt 0
 1839 0a2c 23B40704 		sd	zero,72(a5)
 167:src/../h/MemoryAllocation.hpp ****                 else fmem_head = newfrgm+sizeof(fmem_head); // ovo sam dodao sizeof da bi mi radio 
 1840              		.loc 2 167 17 is_stmt 1
 167:src/../h/MemoryAllocation.hpp ****                 else fmem_head = newfrgm+sizeof(fmem_head); // ovo sam dodao sizeof da bi mi radio 
 1841              		.loc 2 167 26 is_stmt 0
 1842 0a30 83B68700 		ld	a3,8(a5)
 167:src/../h/MemoryAllocation.hpp ****                 else fmem_head = newfrgm+sizeof(fmem_head); // ovo sam dodao sizeof da bi mi radio 
 1843              		.loc 2 167 17
 1844 0a34 6380060E 		beqz	a3,.L127
 167:src/../h/MemoryAllocation.hpp ****                 else fmem_head = newfrgm+sizeof(fmem_head); // ovo sam dodao sizeof da bi mi radio 
GAS LISTING /tmp/cc1kFpjO.s 			page 48


 1845              		.loc 2 167 32 is_stmt 1
 167:src/../h/MemoryAllocation.hpp ****                 else fmem_head = newfrgm+sizeof(fmem_head); // ovo sam dodao sizeof da bi mi radio 
 1846              		.loc 2 167 48 is_stmt 0
 1847 0a38 23B0E600 		sd	a4,0(a3)
 1848              	.L128:
 169:src/../h/MemoryAllocation.hpp ****                 newfrgm->prev = cur->prev;
 1849              		.loc 2 169 17 is_stmt 1
 169:src/../h/MemoryAllocation.hpp ****                 newfrgm->prev = cur->prev;
 1850              		.loc 2 169 26 is_stmt 0
 1851 0a3c 83B60700 		ld	a3,0(a5)
 169:src/../h/MemoryAllocation.hpp ****                 newfrgm->prev = cur->prev;
 1852              		.loc 2 169 17
 1853 0a40 63840600 		beqz	a3,.L129
 169:src/../h/MemoryAllocation.hpp ****                 newfrgm->prev = cur->prev;
 1854              		.loc 2 169 32 is_stmt 1
 169:src/../h/MemoryAllocation.hpp ****                 newfrgm->prev = cur->prev;
 1855              		.loc 2 169 48 is_stmt 0
 1856 0a44 23B4E600 		sd	a4,8(a3)
 1857              	.L129:
 170:src/../h/MemoryAllocation.hpp ****                 newfrgm->next = cur->next;
 1858              		.loc 2 170 17 is_stmt 1
 170:src/../h/MemoryAllocation.hpp ****                 newfrgm->next = cur->next;
 1859              		.loc 2 170 38 is_stmt 0
 1860 0a48 83B58700 		ld	a1,8(a5)
 170:src/../h/MemoryAllocation.hpp ****                 newfrgm->next = cur->next;
 1861              		.loc 2 170 31
 1862 0a4c 2334B700 		sd	a1,8(a4)
 171:src/../h/MemoryAllocation.hpp ****                 newfrgm->size = cur->size-size;
 1863              		.loc 2 171 17 is_stmt 1
 171:src/../h/MemoryAllocation.hpp ****                 newfrgm->size = cur->size-size;
 1864              		.loc 2 171 38 is_stmt 0
 1865 0a50 83B60700 		ld	a3,0(a5)
 171:src/../h/MemoryAllocation.hpp ****                 newfrgm->size = cur->size-size;
 1866              		.loc 2 171 31
 1867 0a54 2330D700 		sd	a3,0(a4)
 172:src/../h/MemoryAllocation.hpp ****                 fmem_head = newfrgm+sizeof(fmem_head);
 1868              		.loc 2 172 17 is_stmt 1
 172:src/../h/MemoryAllocation.hpp ****                 fmem_head = newfrgm+sizeof(fmem_head);
 1869              		.loc 2 172 38 is_stmt 0
 1870 0a58 83B70701 		ld	a5,16(a5)
 1871              	.LVL140:
 172:src/../h/MemoryAllocation.hpp ****                 fmem_head = newfrgm+sizeof(fmem_head);
 1872              		.loc 2 172 42
 1873 0a5c 938787FB 		addi	a5,a5,-72
 172:src/../h/MemoryAllocation.hpp ****                 fmem_head = newfrgm+sizeof(fmem_head);
 1874              		.loc 2 172 31
 1875 0a60 2338F700 		sd	a5,16(a4)
 173:src/../h/MemoryAllocation.hpp ****                 fmem_head->next=newfrgm->next;
 1876              		.loc 2 173 17 is_stmt 1
 173:src/../h/MemoryAllocation.hpp ****                 fmem_head->next=newfrgm->next;
 1877              		.loc 2 173 36 is_stmt 0
 1878 0a64 9306070C 		addi	a3,a4,192
 173:src/../h/MemoryAllocation.hpp ****                 fmem_head->next=newfrgm->next;
 1879              		.loc 2 173 27
 1880 0a68 17050000 		la	a0,_ZN16MemoryAllocation9fmem_headE
 1880      03350500 
 1881 0a70 2330D500 		sd	a3,0(a0)
GAS LISTING /tmp/cc1kFpjO.s 			page 49


 174:src/../h/MemoryAllocation.hpp ****                 fmem_head->prev=newfrgm->prev;
 1882              		.loc 2 174 17 is_stmt 1
 174:src/../h/MemoryAllocation.hpp ****                 fmem_head->prev=newfrgm->prev;
 1883              		.loc 2 174 42 is_stmt 0
 1884 0a74 03350700 		ld	a0,0(a4)
 174:src/../h/MemoryAllocation.hpp ****                 fmem_head->prev=newfrgm->prev;
 1885              		.loc 2 174 32
 1886 0a78 2330A70C 		sd	a0,192(a4)
 175:src/../h/MemoryAllocation.hpp ****                 fmem_head->size=newfrgm->size;
 1887              		.loc 2 175 17 is_stmt 1
 175:src/../h/MemoryAllocation.hpp ****                 fmem_head->size=newfrgm->size;
 1888              		.loc 2 175 32 is_stmt 0
 1889 0a7c 2334B70C 		sd	a1,200(a4)
 176:src/../h/MemoryAllocation.hpp ****                 //fmem_head = (FreeMem*) (char*)newfrgm;
 1890              		.loc 2 176 17 is_stmt 1
 176:src/../h/MemoryAllocation.hpp ****                 //fmem_head = (FreeMem*) (char*)newfrgm;
 1891              		.loc 2 176 32 is_stmt 0
 1892 0a80 2338F70C 		sd	a5,208(a4)
 1893              		.loc 2 178 17 is_stmt 1
 1894              		.loc 2 178 24 is_stmt 0
 1895 0a84 93070700 		mv	a5,a4
 1896              	.LVL141:
 1897              	.L121:
 1898              	.LBE226:
 1899              	.LBE225:
 1900              	.LBE224:
 1901              	.LBE223:
 1902              	.LBE222:
 1903              	.LBE221:
 120:src/main.cpp  ****         addrs[i] = MemoryAllocation::mem_alloc(MemoryAllocation::bytesToBlocks(1));
 1904              		.loc 1 120 18
 1905 0a88 B7F6FFFF 		li	a3,-4096
 1906 0a8c 13173600 		slli	a4,a2,3
 1907 0a90 930504FD 		addi	a1,s0,-48
 1908 0a94 B386D500 		add	a3,a1,a3
 1909 0a98 3387E600 		add	a4,a3,a4
 1910 0a9c 233CF716 		sd	a5,376(a4)
 121:src/main.cpp  ****         if(addrs[i] == 0){
 1911              		.loc 1 121 9 is_stmt 1
 1912 0aa0 63840708 		beqz	a5,.L192
 119:src/main.cpp  ****         addrs[i] = MemoryAllocation::mem_alloc(MemoryAllocation::bytesToBlocks(1));
 1913              		.loc 1 119 5 discriminator 2
 1914 0aa4 1B061600 		addiw	a2,a2,1
 1915              	.LVL142:
 1916              	.L132:
 119:src/main.cpp  ****         addrs[i] = MemoryAllocation::mem_alloc(MemoryAllocation::bytesToBlocks(1));
 1917              		.loc 1 119 21 discriminator 1
 1918 0aa8 9307001D 		li	a5,464
 1919 0aac 63C6C70A 		bgt	a2,a5,.L180
 120:src/main.cpp  ****         addrs[i] = MemoryAllocation::mem_alloc(MemoryAllocation::bytesToBlocks(1));
 1920              		.loc 1 120 9
 1921              	.LVL143:
 1922              	.LBE220:
  69:src/../h/MemoryAllocation.hpp ****     }
 1923              		.loc 2 69 9
 1924              	.LBB233:
 1925              	.LBB232:
GAS LISTING /tmp/cc1kFpjO.s 			page 50


 1926              	.LBB231:
 153:src/../h/MemoryAllocation.hpp ****         for (FreeMem* cur = fmem_head; cur != nullptr; cur=cur->next){ // U DRUGOJ ITERACIJI FMEM_H
 1927              		.loc 2 153 9
 154:src/../h/MemoryAllocation.hpp ****             cur->next=fmem_head->next;
 1928              		.loc 2 154 9
 1929              	.LBB230:
 154:src/../h/MemoryAllocation.hpp ****             cur->next=fmem_head->next;
 1930              		.loc 2 154 23 is_stmt 0
 1931 0ab0 97070000 		la	a5,_ZN16MemoryAllocation9fmem_headE
 1931      83B70700 
 1932 0ab8 83B70700 		ld	a5,0(a5)
 1933              	.LVL144:
 1934              	.L122:
 154:src/../h/MemoryAllocation.hpp ****             cur->next=fmem_head->next;
 1935              		.loc 2 154 44 is_stmt 1
 1936 0abc E38607FC 		beqz	a5,.L121
 1937              	.LBB229:
 155:src/../h/MemoryAllocation.hpp ****             cur->prev=fmem_head->prev;
 1938              		.loc 2 155 13
 155:src/../h/MemoryAllocation.hpp ****             cur->prev=fmem_head->prev;
 1939              		.loc 2 155 34 is_stmt 0
 1940 0ac0 17070000 		la	a4,_ZN16MemoryAllocation9fmem_headE
 1940      03370700 
 1941 0ac8 83360700 		ld	a3,0(a4)
 1942 0acc 83B60600 		ld	a3,0(a3)
 155:src/../h/MemoryAllocation.hpp ****             cur->prev=fmem_head->prev;
 1943              		.loc 2 155 22
 1944 0ad0 23B0D700 		sd	a3,0(a5)
 156:src/../h/MemoryAllocation.hpp ****             if (cur->size<size) continue;
 1945              		.loc 2 156 13 is_stmt 1
 156:src/../h/MemoryAllocation.hpp ****             if (cur->size<size) continue;
 1946              		.loc 2 156 34 is_stmt 0
 1947 0ad4 03370700 		ld	a4,0(a4)
 1948 0ad8 83358700 		ld	a1,8(a4)
 156:src/../h/MemoryAllocation.hpp ****             if (cur->size<size) continue;
 1949              		.loc 2 156 22
 1950 0adc 23B4B700 		sd	a1,8(a5)
 157:src/../h/MemoryAllocation.hpp ****             if (cur->size-size<=sizeof(FreeMem)){
 1951              		.loc 2 157 13 is_stmt 1
 157:src/../h/MemoryAllocation.hpp ****             if (cur->size-size<=sizeof(FreeMem)){
 1952              		.loc 2 157 22 is_stmt 0
 1953 0ae0 03B70701 		ld	a4,16(a5)
 157:src/../h/MemoryAllocation.hpp ****             if (cur->size-size<=sizeof(FreeMem)){
 1954              		.loc 2 157 13
 1955 0ae4 13057004 		li	a0,71
 1956 0ae8 E372E5F2 		bleu	a4,a0,.L181
 158:src/../h/MemoryAllocation.hpp ****                 if (cur->prev) cur->prev->next = cur->next;
 1957              		.loc 2 158 13 is_stmt 1
 1958              	.LBB228:
 158:src/../h/MemoryAllocation.hpp ****                 if (cur->prev) cur->prev->next = cur->next;
 1959              		.loc 2 158 26 is_stmt 0
 1960 0aec 130787FB 		addi	a4,a4,-72
 158:src/../h/MemoryAllocation.hpp ****                 if (cur->prev) cur->prev->next = cur->next;
 1961              		.loc 2 158 13
 1962 0af0 13058001 		li	a0,24
 1963 0af4 E368E5F2 		bgtu	a4,a0,.L123
 159:src/../h/MemoryAllocation.hpp ****                 else fmem_head = cur->next;
GAS LISTING /tmp/cc1kFpjO.s 			page 51


 1964              		.loc 2 159 17 is_stmt 1
 1965 0af8 E38E05F0 		beqz	a1,.L124
 159:src/../h/MemoryAllocation.hpp ****                 else fmem_head = cur->next;
 1966              		.loc 2 159 32
 159:src/../h/MemoryAllocation.hpp ****                 else fmem_head = cur->next;
 1967              		.loc 2 159 48 is_stmt 0
 1968 0afc 23B0D500 		sd	a3,0(a1)
 1969              	.L125:
 161:src/../h/MemoryAllocation.hpp ****                 return cur;
 1970              		.loc 2 161 17 is_stmt 1
 161:src/../h/MemoryAllocation.hpp ****                 return cur;
 1971              		.loc 2 161 26 is_stmt 0
 1972 0b00 03B70700 		ld	a4,0(a5)
 161:src/../h/MemoryAllocation.hpp ****                 return cur;
 1973              		.loc 2 161 17
 1974 0b04 E30207F8 		beqz	a4,.L121
 161:src/../h/MemoryAllocation.hpp ****                 return cur;
 1975              		.loc 2 161 32 is_stmt 1
 161:src/../h/MemoryAllocation.hpp ****                 return cur;
 1976              		.loc 2 161 55 is_stmt 0
 1977 0b08 83B68700 		ld	a3,8(a5)
 161:src/../h/MemoryAllocation.hpp ****                 return cur;
 1978              		.loc 2 161 48
 1979 0b0c 2334D700 		sd	a3,8(a4)
 162:src/../h/MemoryAllocation.hpp ****             }else {
 1980              		.loc 2 162 17 is_stmt 1
 162:src/../h/MemoryAllocation.hpp ****             }else {
 1981              		.loc 2 162 24 is_stmt 0
 1982 0b10 6FF09FF7 		j	.L121
 1983              	.LVL145:
 1984              	.L127:
 1985              	.LBB227:
 168:src/../h/MemoryAllocation.hpp ****                 if (cur->next) cur->next->prev = newfrgm;
 1986              		.loc 2 168 22 is_stmt 1
 168:src/../h/MemoryAllocation.hpp ****                 if (cur->next) cur->next->prev = newfrgm;
 1987              		.loc 2 168 41 is_stmt 0
 1988 0b14 9306070C 		addi	a3,a4,192
 168:src/../h/MemoryAllocation.hpp ****                 if (cur->next) cur->next->prev = newfrgm;
 1989              		.loc 2 168 32
 1990 0b18 97050000 		la	a1,_ZN16MemoryAllocation9fmem_headE
 1990      83B50500 
 1991 0b20 23B0D500 		sd	a3,0(a1)
 1992 0b24 6FF09FF1 		j	.L128
 1993              	.LVL146:
 1994              	.L192:
 1995              	.LBE227:
 1996              	.LBE228:
 1997              	.LBE229:
 1998              	.LBE230:
 1999              	.LBE231:
 2000              	.LBE232:
 122:src/main.cpp  ****             printString("not ok\n");
 2001              		.loc 1 122 13 is_stmt 1
 2002              		.loc 1 122 24 is_stmt 0
 2003 0b28 17050000 		lla	a0,.LC10
 2003      13050500 
 2004 0b30 97000000 		call	_Z11printStringPKc
GAS LISTING /tmp/cc1kFpjO.s 			page 52


 2004      E7800000 
 2005              	.LVL147:
 123:src/main.cpp  ****             return;
 2006              		.loc 1 123 13 is_stmt 1
 2007              	.L119:
 2008              	.LBE233:
 124:src/main.cpp  ****         }
 125:src/main.cpp  ****     }
 126:src/main.cpp  ****     int sz = 5;
 127:src/main.cpp  ****     while(sz > 0){
 128:src/main.cpp  ****         printString("sz:");
 129:src/main.cpp  ****         printInteger(sz);
 130:src/main.cpp  ****         for(int i = 0 ; i<num;i+=2){
 131:src/main.cpp  ****             printString("i:");
 132:src/main.cpp  ****             printInteger(i);
 133:src/main.cpp  ****             printString("free\n");
 134:src/main.cpp  ****             int retval = MemoryAllocation::mem_free(addrs[i]);
 135:src/main.cpp  ****             if(retval != 0){
 136:src/main.cpp  ****                 printString("not ok\n");
 137:src/main.cpp  ****                 return;
 138:src/main.cpp  ****             }
 139:src/main.cpp  ****             printString("alloc\n");
 140:src/main.cpp  ****             addrs[i] = MemoryAllocation::mem_alloc(MemoryAllocation::bytesToBlocks(sz*2));
 141:src/main.cpp  ****             if(addrs[i] == 0){
 142:src/main.cpp  ****                 printString("not ok\n");;
 143:src/main.cpp  ****                 return;
 144:src/main.cpp  ****             }
 145:src/main.cpp  ****         }
 146:src/main.cpp  ****         for(int i = 1 ; i<num;i+=2){
 147:src/main.cpp  ****             printString("i:");
 148:src/main.cpp  ****             printInteger(i);
 149:src/main.cpp  ****             printString("free\n");
 150:src/main.cpp  ****             int retval = MemoryAllocation::mem_free(addrs[i]);
 151:src/main.cpp  ****             if(retval != 0){
 152:src/main.cpp  ****                 printString("not ok\n");
 153:src/main.cpp  ****                 return;
 154:src/main.cpp  ****             }
 155:src/main.cpp  ****             printString("alloc\n");
 156:src/main.cpp  ****             addrs[i] = MemoryAllocation::mem_alloc(MemoryAllocation::bytesToBlocks(sz));
 157:src/main.cpp  ****             if(addrs[i] == 0){
 158:src/main.cpp  ****                 printString("not ok\n");;
 159:src/main.cpp  ****                 return;
 160:src/main.cpp  ****             }
 161:src/main.cpp  ****         }
 162:src/main.cpp  ****         sz-=10;
 163:src/main.cpp  ****     }
 164:src/main.cpp  ****     printString("ok\n");;
 165:src/main.cpp  **** }
 2009              		.loc 1 165 1 is_stmt 0
 2010 0b38 1301016D 		addi	sp,sp,1744
 2011              		.cfi_remember_state
 2012              		.cfi_def_cfa 2, 2032
 2013 0b3c 8330817E 		ld	ra,2024(sp)
 2014              		.cfi_restore 1
 2015 0b40 0334017E 		ld	s0,2016(sp)
 2016              		.cfi_restore 8
 2017 0b44 8334817D 		ld	s1,2008(sp)
GAS LISTING /tmp/cc1kFpjO.s 			page 53


 2018              		.cfi_restore 9
 2019 0b48 0339017D 		ld	s2,2000(sp)
 2020              		.cfi_restore 18
 2021 0b4c 8339817C 		ld	s3,1992(sp)
 2022              		.cfi_restore 19
 2023 0b50 1301017F 		addi	sp,sp,2032
 2024              		.cfi_def_cfa_offset 0
 2025 0b54 67800000 		jr	ra
 2026              	.LVL148:
 2027              	.L180:
 2028              		.cfi_restore_state
 126:src/main.cpp  ****     while(sz > 0){
 2029              		.loc 1 126 9
 2030 0b58 13095000 		li	s2,5
 2031              	.LVL149:
 2032              	.L120:
 127:src/main.cpp  ****         printString("sz:");
 2033              		.loc 1 127 5 is_stmt 1
 127:src/main.cpp  ****         printString("sz:");
 2034              		.loc 1 127 14
 2035 0b5c 635C2059 		blez	s2,.L133
 2036              	.LBB234:
 128:src/main.cpp  ****         printInteger(sz);
 2037              		.loc 1 128 9
 128:src/main.cpp  ****         printInteger(sz);
 2038              		.loc 1 128 20 is_stmt 0
 2039 0b60 17050000 		lla	a0,.LC14
 2039      13050500 
 2040 0b68 97000000 		call	_Z11printStringPKc
 2040      E7800000 
 2041              	.LVL150:
 129:src/main.cpp  ****         for(int i = 0 ; i<num;i+=2){
 2042              		.loc 1 129 9 is_stmt 1
 129:src/main.cpp  ****         for(int i = 0 ; i<num;i+=2){
 2043              		.loc 1 129 21 is_stmt 0
 2044 0b70 93090900 		mv	s3,s2
 2045 0b74 13050900 		mv	a0,s2
 2046 0b78 97000000 		call	_Z12printIntegerm
 2046      E7800000 
 2047              	.LVL151:
 2048              	.LBB235:
 130:src/main.cpp  ****             printString("i:");
 2049              		.loc 1 130 17
 2050 0b80 93040000 		li	s1,0
 2051 0b84 6F008021 		j	.L156
 2052              	.LVL152:
 2053              	.L183:
 2054              	.LBB236:
 2055              	.LBB237:
 2056              	.LBB238:
  91:src/../h/MemoryAllocation.hpp ****         }else {
 2057              		.loc 2 91 16
 2058 0b88 93860700 		mv	a3,a5
 2059 0b8c 6F008000 		j	.L135
 2060              	.L184:
 2061 0b90 93060000 		li	a3,0
 2062              	.LVL153:
GAS LISTING /tmp/cc1kFpjO.s 			page 54


 2063              	.L135:
  95:src/../h/MemoryAllocation.hpp ****                 newSeg->next=nullptr;
 2064              		.loc 2 95 17 is_stmt 1
  96:src/../h/MemoryAllocation.hpp ****                 newSeg->prev=nullptr;
 2065              		.loc 2 96 17
  96:src/../h/MemoryAllocation.hpp ****                 newSeg->prev=nullptr;
 2066              		.loc 2 96 29 is_stmt 0
 2067 0b94 23300700 		sd	zero,0(a4)
  97:src/../h/MemoryAllocation.hpp ****                 newSeg->size=bytesToBlocks(sizeof(ptr))*MEM_BLOCK_SIZE+sizeof(fmem_head);
 2068              		.loc 2 97 17 is_stmt 1
  98:src/../h/MemoryAllocation.hpp ****                         //sizeof(ptr);
 2069              		.loc 2 98 17
 2070              	.LVL154:
 2071              	.LBE238:
 2072              	.LBE237:
 2073              	.LBE236:
 2074              	.LBE235:
 2075              	.LBE234:
  69:src/../h/MemoryAllocation.hpp ****     }
 2076              		.loc 2 69 9
 2077              	.LBB315:
 2078              	.LBB274:
 2079              	.LBB272:
 2080              	.LBB250:
 2081              	.LBB247:
  98:src/../h/MemoryAllocation.hpp ****                         //sizeof(ptr);
 2082              		.loc 2 98 29 is_stmt 0
 2083 0b98 93078004 		li	a5,72
 2084 0b9c 2338F700 		sd	a5,16(a4)
 100:src/../h/MemoryAllocation.hpp ****                 if(cur) {
 2085              		.loc 2 100 17 is_stmt 1
 100:src/../h/MemoryAllocation.hpp ****                 if(cur) {
 2086              		.loc 2 100 29 is_stmt 0
 2087 0ba0 2334D700 		sd	a3,8(a4)
 101:src/../h/MemoryAllocation.hpp ****                     newSeg->next = cur->next;
 2088              		.loc 2 101 17 is_stmt 1
 2089 0ba4 638E060C 		beqz	a3,.L137
 102:src/../h/MemoryAllocation.hpp ****                 }
 2090              		.loc 2 102 21
 102:src/../h/MemoryAllocation.hpp ****                 }
 2091              		.loc 2 102 41 is_stmt 0
 2092 0ba8 83B70600 		ld	a5,0(a3)
 102:src/../h/MemoryAllocation.hpp ****                 }
 2093              		.loc 2 102 34
 2094 0bac 2330F700 		sd	a5,0(a4)
 2095              	.L138:
 107:src/../h/MemoryAllocation.hpp ****                     newSeg->next->prev=newSeg;
 2096              		.loc 2 107 17 is_stmt 1
 107:src/../h/MemoryAllocation.hpp ****                     newSeg->next->prev=newSeg;
 2097              		.loc 2 107 28 is_stmt 0
 2098 0bb0 83370700 		ld	a5,0(a4)
 107:src/../h/MemoryAllocation.hpp ****                     newSeg->next->prev=newSeg;
 2099              		.loc 2 107 17
 2100 0bb4 63840700 		beqz	a5,.L139
 108:src/../h/MemoryAllocation.hpp ****                 }
 2101              		.loc 2 108 21 is_stmt 1
 108:src/../h/MemoryAllocation.hpp ****                 }
GAS LISTING /tmp/cc1kFpjO.s 			page 55


 2102              		.loc 2 108 39 is_stmt 0
 2103 0bb8 23B4E700 		sd	a4,8(a5)
 2104              	.L139:
 110:src/../h/MemoryAllocation.hpp ****                     cur->next = newSeg; //zasto ovde odjednom uzme vrednost x8000 umesto x8000f...?
 2105              		.loc 2 110 17 is_stmt 1
 2106 0bbc 638C060C 		beqz	a3,.L140
 111:src/../h/MemoryAllocation.hpp ****                 }
 2107              		.loc 2 111 21
 111:src/../h/MemoryAllocation.hpp ****                 }
 2108              		.loc 2 111 31 is_stmt 0
 2109 0bc0 23B0E600 		sd	a4,0(a3)
 2110              	.L141:
 117:src/../h/MemoryAllocation.hpp ****             tryToJoin(cur);
 2111              		.loc 2 117 13 is_stmt 1
 2112              	.LVL155:
 2113              	.LBB239:
 2114              	.LBB240:
  75:src/../h/MemoryAllocation.hpp ****         if (curr->next && (char*)curr+curr->size == (char*)(curr->next)) {
 2115              		.loc 2 75 9
 2116 0bc4 630C0700 		beqz	a4,.L142
  76:src/../h/MemoryAllocation.hpp ****         // Remove the cur->next segment:
 2117              		.loc 2 76 9
  76:src/../h/MemoryAllocation.hpp ****         // Remove the cur->next segment:
 2118              		.loc 2 76 19 is_stmt 0
 2119 0bc8 83370700 		ld	a5,0(a4)
  76:src/../h/MemoryAllocation.hpp ****         // Remove the cur->next segment:
 2120              		.loc 2 76 9
 2121 0bcc 63880700 		beqz	a5,.L142
  76:src/../h/MemoryAllocation.hpp ****         // Remove the cur->next segment:
 2122              		.loc 2 76 45
 2123 0bd0 03360701 		ld	a2,16(a4)
  76:src/../h/MemoryAllocation.hpp ****         // Remove the cur->next segment:
 2124              		.loc 2 76 38
 2125 0bd4 B305C700 		add	a1,a4,a2
  76:src/../h/MemoryAllocation.hpp ****         // Remove the cur->next segment:
 2126              		.loc 2 76 24
 2127 0bd8 6386B70C 		beq	a5,a1,.L193
 2128              	.L142:
 2129              	.LVL156:
 2130              	.LBE240:
 2131              	.LBE239:
 118:src/../h/MemoryAllocation.hpp ****             //mozda da fmem_head nije jednako starom fmem_headu?
 2132              		.loc 2 118 13 is_stmt 1
 2133              	.LBB242:
 2134              	.LBB243:
  75:src/../h/MemoryAllocation.hpp ****         if (curr->next && (char*)curr+curr->size == (char*)(curr->next)) {
 2135              		.loc 2 75 9
 2136 0bdc 638C0600 		beqz	a3,.L143
  76:src/../h/MemoryAllocation.hpp ****         // Remove the cur->next segment:
 2137              		.loc 2 76 9
  76:src/../h/MemoryAllocation.hpp ****         // Remove the cur->next segment:
 2138              		.loc 2 76 19 is_stmt 0
 2139 0be0 83B70600 		ld	a5,0(a3)
  76:src/../h/MemoryAllocation.hpp ****         // Remove the cur->next segment:
 2140              		.loc 2 76 9
 2141 0be4 63880700 		beqz	a5,.L143
  76:src/../h/MemoryAllocation.hpp ****         // Remove the cur->next segment:
GAS LISTING /tmp/cc1kFpjO.s 			page 56


 2142              		.loc 2 76 45
 2143 0be8 03B60601 		ld	a2,16(a3)
  76:src/../h/MemoryAllocation.hpp ****         // Remove the cur->next segment:
 2144              		.loc 2 76 38
 2145 0bec B385C600 		add	a1,a3,a2
  76:src/../h/MemoryAllocation.hpp ****         // Remove the cur->next segment:
 2146              		.loc 2 76 24
 2147 0bf0 638AB70C 		beq	a5,a1,.L194
 2148              	.L143:
 2149              	.LVL157:
 2150              	.LBE243:
 2151              	.LBE242:
 120:src/../h/MemoryAllocation.hpp ****                 return -1;
 2152              		.loc 2 120 13 is_stmt 1
 2153 0bf4 6308070E 		beqz	a4,.L195
 122:src/../h/MemoryAllocation.hpp **** 
 2154              		.loc 2 122 26 is_stmt 0
 2155 0bf8 93070000 		li	a5,0
 2156              	.L144:
 2157              	.LVL158:
 2158              	.LBE247:
 2159              	.LBE250:
 135:src/main.cpp  ****                 printString("not ok\n");
 2160              		.loc 1 135 13 is_stmt 1
 2161 0bfc 6398070E 		bnez	a5,.L196
 139:src/main.cpp  ****             addrs[i] = MemoryAllocation::mem_alloc(MemoryAllocation::bytesToBlocks(sz*2));
 2162              		.loc 1 139 13
 139:src/main.cpp  ****             addrs[i] = MemoryAllocation::mem_alloc(MemoryAllocation::bytesToBlocks(sz*2));
 2163              		.loc 1 139 24 is_stmt 0
 2164 0c00 17050000 		lla	a0,.LC17
 2164      13050500 
 2165 0c08 97000000 		call	_Z11printStringPKc
 2165      E7800000 
 2166              	.LVL159:
 140:src/main.cpp  ****             if(addrs[i] == 0){
 2167              		.loc 1 140 13 is_stmt 1
 140:src/main.cpp  ****             if(addrs[i] == 0){
 2168              		.loc 1 140 86 is_stmt 0
 2169 0c10 1B171900 		slliw	a4,s2,1
 2170              	.LVL160:
 2171              	.LBB251:
 2172              	.LBB252:
  69:src/../h/MemoryAllocation.hpp ****     }
 2173              		.loc 2 69 9 is_stmt 1
  69:src/../h/MemoryAllocation.hpp ****     }
 2174              		.loc 2 69 36 is_stmt 0
 2175 0c14 1307F703 		addi	a4,a4,63
 2176              	.LVL161:
 2177              	.LBE252:
 2178              	.LBE251:
 2179              	.LBB253:
 2180              	.LBB254:
 153:src/../h/MemoryAllocation.hpp ****         for (FreeMem* cur = fmem_head; cur != nullptr; cur=cur->next){ // U DRUGOJ ITERACIJI FMEM_H
 2181              		.loc 2 153 9 is_stmt 1
 153:src/../h/MemoryAllocation.hpp ****         for (FreeMem* cur = fmem_head; cur != nullptr; cur=cur->next){ // U DRUGOJ ITERACIJI FMEM_H
 2182              		.loc 2 153 18 is_stmt 0
 2183 0c18 137707FC 		andi	a4,a4,-64
GAS LISTING /tmp/cc1kFpjO.s 			page 57


 2184              	.LVL162:
 153:src/../h/MemoryAllocation.hpp ****         for (FreeMem* cur = fmem_head; cur != nullptr; cur=cur->next){ // U DRUGOJ ITERACIJI FMEM_H
 2185              		.loc 2 153 13
 2186 0c1c 13078700 		addi	a4,a4,8
 2187              	.LVL163:
 154:src/../h/MemoryAllocation.hpp ****             cur->next=fmem_head->next;
 2188              		.loc 2 154 9 is_stmt 1
 2189              	.LBB255:
 154:src/../h/MemoryAllocation.hpp ****             cur->next=fmem_head->next;
 2190              		.loc 2 154 23 is_stmt 0
 2191 0c20 97070000 		la	a5,_ZN16MemoryAllocation9fmem_headE
 2191      83B70700 
 2192 0c28 83B70700 		ld	a5,0(a5)
 2193              	.LVL164:
 2194              	.L147:
 154:src/../h/MemoryAllocation.hpp ****             cur->next=fmem_head->next;
 2195              		.loc 2 154 44 is_stmt 1
 2196 0c2c 63880714 		beqz	a5,.L146
 2197              	.LBB256:
 155:src/../h/MemoryAllocation.hpp ****             cur->prev=fmem_head->prev;
 2198              		.loc 2 155 13
 155:src/../h/MemoryAllocation.hpp ****             cur->prev=fmem_head->prev;
 2199              		.loc 2 155 34 is_stmt 0
 2200 0c30 97060000 		la	a3,_ZN16MemoryAllocation9fmem_headE
 2200      83B60600 
 2201 0c38 03B60600 		ld	a2,0(a3)
 2202 0c3c 03360600 		ld	a2,0(a2)
 155:src/../h/MemoryAllocation.hpp ****             cur->prev=fmem_head->prev;
 2203              		.loc 2 155 22
 2204 0c40 23B0C700 		sd	a2,0(a5)
 156:src/../h/MemoryAllocation.hpp ****             if (cur->size<size) continue;
 2205              		.loc 2 156 13 is_stmt 1
 156:src/../h/MemoryAllocation.hpp ****             if (cur->size<size) continue;
 2206              		.loc 2 156 34 is_stmt 0
 2207 0c44 83B60600 		ld	a3,0(a3)
 2208 0c48 83B58600 		ld	a1,8(a3)
 156:src/../h/MemoryAllocation.hpp ****             if (cur->size<size) continue;
 2209              		.loc 2 156 22
 2210 0c4c 23B4B700 		sd	a1,8(a5)
 157:src/../h/MemoryAllocation.hpp ****             if (cur->size-size<=sizeof(FreeMem)){
 2211              		.loc 2 157 13 is_stmt 1
 157:src/../h/MemoryAllocation.hpp ****             if (cur->size-size<=sizeof(FreeMem)){
 2212              		.loc 2 157 22 is_stmt 0
 2213 0c50 83B60701 		ld	a3,16(a5)
 157:src/../h/MemoryAllocation.hpp ****             if (cur->size-size<=sizeof(FreeMem)){
 2214              		.loc 2 157 13
 2215 0c54 63E6E60A 		bgtu	a4,a3,.L186
 158:src/../h/MemoryAllocation.hpp ****                 if (cur->prev) cur->prev->next = cur->next;
 2216              		.loc 2 158 13 is_stmt 1
 2217              	.LBB257:
 158:src/../h/MemoryAllocation.hpp ****                 if (cur->prev) cur->prev->next = cur->next;
 2218              		.loc 2 158 26 is_stmt 0
 2219 0c58 B386E640 		sub	a3,a3,a4
 158:src/../h/MemoryAllocation.hpp ****                 if (cur->prev) cur->prev->next = cur->next;
 2220              		.loc 2 158 13
 2221 0c5c 13058001 		li	a0,24
 2222 0c60 636CD50A 		bgtu	a3,a0,.L148
GAS LISTING /tmp/cc1kFpjO.s 			page 58


 159:src/../h/MemoryAllocation.hpp ****                 else fmem_head = cur->next;
 2223              		.loc 2 159 17 is_stmt 1
 2224 0c64 6382050A 		beqz	a1,.L149
 159:src/../h/MemoryAllocation.hpp ****                 else fmem_head = cur->next;
 2225              		.loc 2 159 32
 159:src/../h/MemoryAllocation.hpp ****                 else fmem_head = cur->next;
 2226              		.loc 2 159 48 is_stmt 0
 2227 0c68 23B0C500 		sd	a2,0(a1)
 2228              	.LVL165:
 2229              	.L150:
 161:src/../h/MemoryAllocation.hpp ****                 return cur;
 2230              		.loc 2 161 17 is_stmt 1
 161:src/../h/MemoryAllocation.hpp ****                 return cur;
 2231              		.loc 2 161 26 is_stmt 0
 2232 0c6c 03B70700 		ld	a4,0(a5)
 161:src/../h/MemoryAllocation.hpp ****                 return cur;
 2233              		.loc 2 161 17
 2234 0c70 63060710 		beqz	a4,.L146
 161:src/../h/MemoryAllocation.hpp ****                 return cur;
 2235              		.loc 2 161 32 is_stmt 1
 161:src/../h/MemoryAllocation.hpp ****                 return cur;
 2236              		.loc 2 161 55 is_stmt 0
 2237 0c74 83B68700 		ld	a3,8(a5)
 161:src/../h/MemoryAllocation.hpp ****                 return cur;
 2238              		.loc 2 161 48
 2239 0c78 2334D700 		sd	a3,8(a4)
 162:src/../h/MemoryAllocation.hpp ****             }else {
 2240              		.loc 2 162 17 is_stmt 1
 162:src/../h/MemoryAllocation.hpp ****             }else {
 2241              		.loc 2 162 24 is_stmt 0
 2242 0c7c 6F000010 		j	.L146
 2243              	.LVL166:
 2244              	.L137:
 2245              	.LBE257:
 2246              	.LBE256:
 2247              	.LBE255:
 2248              	.LBE254:
 2249              	.LBE253:
 2250              	.LBB268:
 2251              	.LBB248:
 105:src/../h/MemoryAllocation.hpp ****                 }
 2252              		.loc 2 105 21 is_stmt 1
 105:src/../h/MemoryAllocation.hpp ****                 }
 2253              		.loc 2 105 34 is_stmt 0
 2254 0c80 97070000 		la	a5,_ZN16MemoryAllocation9fmem_headE
 2254      83B70700 
 2255 0c88 83B70700 		ld	a5,0(a5)
 2256 0c8c 2330F700 		sd	a5,0(a4)
 2257 0c90 6FF01FF2 		j	.L138
 2258              	.L140:
 114:src/../h/MemoryAllocation.hpp ****                 }
 2259              		.loc 2 114 21 is_stmt 1
 114:src/../h/MemoryAllocation.hpp ****                 }
 2260              		.loc 2 114 31 is_stmt 0
 2261 0c94 97070000 		la	a5,_ZN16MemoryAllocation9fmem_headE
 2261      83B70700 
 2262 0c9c 23B0E700 		sd	a4,0(a5)
GAS LISTING /tmp/cc1kFpjO.s 			page 59


 2263 0ca0 6FF05FF2 		j	.L141
 2264              	.LVL167:
 2265              	.L193:
 2266              	.LBB245:
 2267              	.LBB241:
  78:src/../h/MemoryAllocation.hpp ****             curr->next = curr->next->next;
 2268              		.loc 2 78 13 is_stmt 1
  78:src/../h/MemoryAllocation.hpp ****             curr->next = curr->next->next;
 2269              		.loc 2 78 39 is_stmt 0
 2270 0ca4 83B50701 		ld	a1,16(a5)
  78:src/../h/MemoryAllocation.hpp ****             curr->next = curr->next->next;
 2271              		.loc 2 78 24
 2272 0ca8 3306B600 		add	a2,a2,a1
 2273 0cac 2338C700 		sd	a2,16(a4)
  79:src/../h/MemoryAllocation.hpp ****             if (curr->next) curr->next->prev = curr;
 2274              		.loc 2 79 13 is_stmt 1
  79:src/../h/MemoryAllocation.hpp ****             if (curr->next) curr->next->prev = curr;
 2275              		.loc 2 79 38 is_stmt 0
 2276 0cb0 83B70700 		ld	a5,0(a5)
  79:src/../h/MemoryAllocation.hpp ****             if (curr->next) curr->next->prev = curr;
 2277              		.loc 2 79 24
 2278 0cb4 2330F700 		sd	a5,0(a4)
  80:src/../h/MemoryAllocation.hpp ****             return;
 2279              		.loc 2 80 13 is_stmt 1
 2280 0cb8 E38207F2 		beqz	a5,.L142
  80:src/../h/MemoryAllocation.hpp ****             return;
 2281              		.loc 2 80 29
  80:src/../h/MemoryAllocation.hpp ****             return;
 2282              		.loc 2 80 46 is_stmt 0
 2283 0cbc 23B4E700 		sd	a4,8(a5)
 2284 0cc0 6FF0DFF1 		j	.L142
 2285              	.LVL168:
 2286              	.L194:
 2287              	.LBE241:
 2288              	.LBE245:
 2289              	.LBB246:
 2290              	.LBB244:
  78:src/../h/MemoryAllocation.hpp ****             curr->next = curr->next->next;
 2291              		.loc 2 78 13 is_stmt 1
  78:src/../h/MemoryAllocation.hpp ****             curr->next = curr->next->next;
 2292              		.loc 2 78 39 is_stmt 0
 2293 0cc4 83B50701 		ld	a1,16(a5)
  78:src/../h/MemoryAllocation.hpp ****             curr->next = curr->next->next;
 2294              		.loc 2 78 24
 2295 0cc8 3306B600 		add	a2,a2,a1
 2296 0ccc 23B8C600 		sd	a2,16(a3)
  79:src/../h/MemoryAllocation.hpp ****             if (curr->next) curr->next->prev = curr;
 2297              		.loc 2 79 13 is_stmt 1
  79:src/../h/MemoryAllocation.hpp ****             if (curr->next) curr->next->prev = curr;
 2298              		.loc 2 79 38 is_stmt 0
 2299 0cd0 83B70700 		ld	a5,0(a5)
  79:src/../h/MemoryAllocation.hpp ****             if (curr->next) curr->next->prev = curr;
 2300              		.loc 2 79 24
 2301 0cd4 23B0F600 		sd	a5,0(a3)
  80:src/../h/MemoryAllocation.hpp ****             return;
 2302              		.loc 2 80 13 is_stmt 1
 2303 0cd8 E38E07F0 		beqz	a5,.L143
GAS LISTING /tmp/cc1kFpjO.s 			page 60


  80:src/../h/MemoryAllocation.hpp ****             return;
 2304              		.loc 2 80 29
  80:src/../h/MemoryAllocation.hpp ****             return;
 2305              		.loc 2 80 46 is_stmt 0
 2306 0cdc 23B4D700 		sd	a3,8(a5)
 2307 0ce0 6FF05FF1 		j	.L143
 2308              	.LVL169:
 2309              	.L195:
 2310              	.LBE244:
 2311              	.LBE246:
 121:src/../h/MemoryAllocation.hpp ****             }else{return 0;}
 2312              		.loc 2 121 25
 2313 0ce4 9307F0FF 		li	a5,-1
 2314 0ce8 6FF05FF1 		j	.L144
 2315              	.LVL170:
 2316              	.L196:
 2317              	.LBE248:
 2318              	.LBE268:
 136:src/main.cpp  ****                 return;
 2319              		.loc 1 136 17 is_stmt 1
 136:src/main.cpp  ****                 return;
 2320              		.loc 1 136 28 is_stmt 0
 2321 0cec 17050000 		lla	a0,.LC10
 2321      13050500 
 2322 0cf4 97000000 		call	_Z11printStringPKc
 2322      E7800000 
 2323              	.LVL171:
 137:src/main.cpp  ****             }
 2324              		.loc 1 137 17 is_stmt 1
 2325 0cfc 6FF0DFE3 		j	.L119
 2326              	.LVL172:
 2327              	.L186:
 2328              	.LBB269:
 2329              	.LBB266:
 2330              	.LBB264:
 154:src/../h/MemoryAllocation.hpp ****             cur->next=fmem_head->next;
 2331              		.loc 2 154 59 is_stmt 0
 2332 0d00 93070600 		mv	a5,a2
 2333              	.LVL173:
 2334 0d04 6FF09FF2 		j	.L147
 2335              	.LVL174:
 2336              	.L149:
 2337              	.LBB262:
 2338              	.LBB260:
 160:src/../h/MemoryAllocation.hpp ****                 if (cur->next) cur->next->prev = cur->prev;
 2339              		.loc 2 160 22 is_stmt 1
 160:src/../h/MemoryAllocation.hpp ****                 if (cur->next) cur->next->prev = cur->prev;
 2340              		.loc 2 160 32 is_stmt 0
 2341 0d08 17070000 		la	a4,_ZN16MemoryAllocation9fmem_headE
 2341      03370700 
 2342              	.LVL175:
 2343 0d10 2330C700 		sd	a2,0(a4)
 2344 0d14 6FF09FF5 		j	.L150
 2345              	.LVL176:
 2346              	.L148:
 2347              	.LBB258:
 164:src/../h/MemoryAllocation.hpp ****                 newfrgm->prev=nullptr;
GAS LISTING /tmp/cc1kFpjO.s 			page 61


 2348              		.loc 2 164 17 is_stmt 1
 164:src/../h/MemoryAllocation.hpp ****                 newfrgm->prev=nullptr;
 2349              		.loc 2 164 26 is_stmt 0
 2350 0d18 B386E700 		add	a3,a5,a4
 2351              	.LVL177:
 165:src/../h/MemoryAllocation.hpp ****                 newfrgm->next=nullptr;
 2352              		.loc 2 165 17 is_stmt 1
 165:src/../h/MemoryAllocation.hpp ****                 newfrgm->next=nullptr;
 2353              		.loc 2 165 30 is_stmt 0
 2354 0d1c 23B40600 		sd	zero,8(a3)
 166:src/../h/MemoryAllocation.hpp ****                 if (cur->prev) cur->prev->next = newfrgm;
 2355              		.loc 2 166 17 is_stmt 1
 166:src/../h/MemoryAllocation.hpp ****                 if (cur->prev) cur->prev->next = newfrgm;
 2356              		.loc 2 166 30 is_stmt 0
 2357 0d20 23B00600 		sd	zero,0(a3)
 167:src/../h/MemoryAllocation.hpp ****                 else fmem_head = newfrgm+sizeof(fmem_head); // ovo sam dodao sizeof da bi mi radio 
 2358              		.loc 2 167 17 is_stmt 1
 167:src/../h/MemoryAllocation.hpp ****                 else fmem_head = newfrgm+sizeof(fmem_head); // ovo sam dodao sizeof da bi mi radio 
 2359              		.loc 2 167 26 is_stmt 0
 2360 0d24 03B68700 		ld	a2,8(a5)
 167:src/../h/MemoryAllocation.hpp ****                 else fmem_head = newfrgm+sizeof(fmem_head); // ovo sam dodao sizeof da bi mi radio 
 2361              		.loc 2 167 17
 2362 0d28 6304060E 		beqz	a2,.L152
 167:src/../h/MemoryAllocation.hpp ****                 else fmem_head = newfrgm+sizeof(fmem_head); // ovo sam dodao sizeof da bi mi radio 
 2363              		.loc 2 167 32 is_stmt 1
 167:src/../h/MemoryAllocation.hpp ****                 else fmem_head = newfrgm+sizeof(fmem_head); // ovo sam dodao sizeof da bi mi radio 
 2364              		.loc 2 167 48 is_stmt 0
 2365 0d2c 2330D600 		sd	a3,0(a2)
 2366              	.L153:
 169:src/../h/MemoryAllocation.hpp ****                 newfrgm->prev = cur->prev;
 2367              		.loc 2 169 17 is_stmt 1
 169:src/../h/MemoryAllocation.hpp ****                 newfrgm->prev = cur->prev;
 2368              		.loc 2 169 26 is_stmt 0
 2369 0d30 03B60700 		ld	a2,0(a5)
 169:src/../h/MemoryAllocation.hpp ****                 newfrgm->prev = cur->prev;
 2370              		.loc 2 169 17
 2371 0d34 63040600 		beqz	a2,.L154
 169:src/../h/MemoryAllocation.hpp ****                 newfrgm->prev = cur->prev;
 2372              		.loc 2 169 32 is_stmt 1
 169:src/../h/MemoryAllocation.hpp ****                 newfrgm->prev = cur->prev;
 2373              		.loc 2 169 48 is_stmt 0
 2374 0d38 2334D600 		sd	a3,8(a2)
 2375              	.L154:
 170:src/../h/MemoryAllocation.hpp ****                 newfrgm->next = cur->next;
 2376              		.loc 2 170 17 is_stmt 1
 170:src/../h/MemoryAllocation.hpp ****                 newfrgm->next = cur->next;
 2377              		.loc 2 170 38 is_stmt 0
 2378 0d3c 03B68700 		ld	a2,8(a5)
 170:src/../h/MemoryAllocation.hpp ****                 newfrgm->next = cur->next;
 2379              		.loc 2 170 31
 2380 0d40 23B4C600 		sd	a2,8(a3)
 171:src/../h/MemoryAllocation.hpp ****                 newfrgm->size = cur->size-size;
 2381              		.loc 2 171 17 is_stmt 1
 171:src/../h/MemoryAllocation.hpp ****                 newfrgm->size = cur->size-size;
 2382              		.loc 2 171 38 is_stmt 0
 2383 0d44 83B50700 		ld	a1,0(a5)
 171:src/../h/MemoryAllocation.hpp ****                 newfrgm->size = cur->size-size;
GAS LISTING /tmp/cc1kFpjO.s 			page 62


 2384              		.loc 2 171 31
 2385 0d48 23B0B600 		sd	a1,0(a3)
 172:src/../h/MemoryAllocation.hpp ****                 fmem_head = newfrgm+sizeof(fmem_head);
 2386              		.loc 2 172 17 is_stmt 1
 172:src/../h/MemoryAllocation.hpp ****                 fmem_head = newfrgm+sizeof(fmem_head);
 2387              		.loc 2 172 38 is_stmt 0
 2388 0d4c 83B70701 		ld	a5,16(a5)
 2389              	.LVL178:
 172:src/../h/MemoryAllocation.hpp ****                 fmem_head = newfrgm+sizeof(fmem_head);
 2390              		.loc 2 172 42
 2391 0d50 3387E740 		sub	a4,a5,a4
 2392              	.LVL179:
 172:src/../h/MemoryAllocation.hpp ****                 fmem_head = newfrgm+sizeof(fmem_head);
 2393              		.loc 2 172 31
 2394 0d54 23B8E600 		sd	a4,16(a3)
 173:src/../h/MemoryAllocation.hpp ****                 fmem_head->next=newfrgm->next;
 2395              		.loc 2 173 17 is_stmt 1
 173:src/../h/MemoryAllocation.hpp ****                 fmem_head->next=newfrgm->next;
 2396              		.loc 2 173 36 is_stmt 0
 2397 0d58 9387060C 		addi	a5,a3,192
 173:src/../h/MemoryAllocation.hpp ****                 fmem_head->next=newfrgm->next;
 2398              		.loc 2 173 27
 2399 0d5c 97050000 		la	a1,_ZN16MemoryAllocation9fmem_headE
 2399      83B50500 
 2400 0d64 23B0F500 		sd	a5,0(a1)
 174:src/../h/MemoryAllocation.hpp ****                 fmem_head->prev=newfrgm->prev;
 2401              		.loc 2 174 17 is_stmt 1
 174:src/../h/MemoryAllocation.hpp ****                 fmem_head->prev=newfrgm->prev;
 2402              		.loc 2 174 42 is_stmt 0
 2403 0d68 83B50600 		ld	a1,0(a3)
 174:src/../h/MemoryAllocation.hpp ****                 fmem_head->prev=newfrgm->prev;
 2404              		.loc 2 174 32
 2405 0d6c 23B0B60C 		sd	a1,192(a3)
 175:src/../h/MemoryAllocation.hpp ****                 fmem_head->size=newfrgm->size;
 2406              		.loc 2 175 17 is_stmt 1
 175:src/../h/MemoryAllocation.hpp ****                 fmem_head->size=newfrgm->size;
 2407              		.loc 2 175 32 is_stmt 0
 2408 0d70 23B4C60C 		sd	a2,200(a3)
 176:src/../h/MemoryAllocation.hpp ****                 //fmem_head = (FreeMem*) (char*)newfrgm;
 2409              		.loc 2 176 17 is_stmt 1
 176:src/../h/MemoryAllocation.hpp ****                 //fmem_head = (FreeMem*) (char*)newfrgm;
 2410              		.loc 2 176 32 is_stmt 0
 2411 0d74 23B8E60C 		sd	a4,208(a3)
 2412              		.loc 2 178 17 is_stmt 1
 2413              		.loc 2 178 24 is_stmt 0
 2414 0d78 93870600 		mv	a5,a3
 2415              	.LVL180:
 2416              	.L146:
 2417              	.LBE258:
 2418              	.LBE260:
 2419              	.LBE262:
 2420              	.LBE264:
 2421              	.LBE266:
 2422              	.LBE269:
 140:src/main.cpp  ****             if(addrs[i] == 0){
 2423              		.loc 1 140 22
 2424 0d7c B7F6FFFF 		li	a3,-4096
GAS LISTING /tmp/cc1kFpjO.s 			page 63


 2425              	.LVL181:
 2426 0d80 13973400 		slli	a4,s1,3
 2427 0d84 130604FD 		addi	a2,s0,-48
 2428              	.LVL182:
 2429 0d88 B306D600 		add	a3,a2,a3
 2430              	.LVL183:
 2431 0d8c 3387E600 		add	a4,a3,a4
 2432 0d90 233CF716 		sd	a5,376(a4)
 2433              	.LVL184:
 141:src/main.cpp  ****                 printString("not ok\n");;
 2434              		.loc 1 141 13 is_stmt 1
 2435 0d94 63880708 		beqz	a5,.L197
 2436              	.LBE272:
 130:src/main.cpp  ****             printString("i:");
 2437              		.loc 1 130 9 discriminator 2
 130:src/main.cpp  ****             printString("i:");
 2438              		.loc 1 130 32 is_stmt 0 discriminator 2
 2439 0d98 9B842400 		addiw	s1,s1,2
 2440              	.LVL185:
 2441              	.L156:
 130:src/main.cpp  ****             printString("i:");
 2442              		.loc 1 130 26 is_stmt 1 discriminator 1
 2443 0d9c 9307001D 		li	a5,464
 2444 0da0 63CC9708 		bgt	s1,a5,.L182
 2445              	.LBB273:
 131:src/main.cpp  ****             printInteger(i);
 2446              		.loc 1 131 13
 131:src/main.cpp  ****             printInteger(i);
 2447              		.loc 1 131 24 is_stmt 0
 2448 0da4 17050000 		lla	a0,.LC15
 2448      13050500 
 2449 0dac 97000000 		call	_Z11printStringPKc
 2449      E7800000 
 2450              	.LVL186:
 132:src/main.cpp  ****             printString("free\n");
 2451              		.loc 1 132 13 is_stmt 1
 132:src/main.cpp  ****             printString("free\n");
 2452              		.loc 1 132 25 is_stmt 0
 2453 0db4 13850400 		mv	a0,s1
 2454 0db8 97000000 		call	_Z12printIntegerm
 2454      E7800000 
 2455              	.LVL187:
 133:src/main.cpp  ****             int retval = MemoryAllocation::mem_free(addrs[i]);
 2456              		.loc 1 133 13 is_stmt 1
 133:src/main.cpp  ****             int retval = MemoryAllocation::mem_free(addrs[i]);
 2457              		.loc 1 133 24 is_stmt 0
 2458 0dc0 17050000 		lla	a0,.LC16
 2458      13050500 
 2459 0dc8 97000000 		call	_Z11printStringPKc
 2459      E7800000 
 2460              	.LVL188:
 134:src/main.cpp  ****             if(retval != 0){
 2461              		.loc 1 134 13 is_stmt 1
 134:src/main.cpp  ****             if(retval != 0){
 2462              		.loc 1 134 52 is_stmt 0
 2463 0dd0 37F7FFFF 		li	a4,-4096
 2464 0dd4 93973400 		slli	a5,s1,3
GAS LISTING /tmp/cc1kFpjO.s 			page 64


 2465 0dd8 930604FD 		addi	a3,s0,-48
 2466 0ddc 3387E600 		add	a4,a3,a4
 2467 0de0 B307F700 		add	a5,a4,a5
 2468 0de4 03B78717 		ld	a4,376(a5)
 2469              	.LVL189:
 2470              	.LBB270:
 2471              	.LBB249:
  88:src/../h/MemoryAllocation.hpp ****         if(!fmem_head || ptr < (char*)fmem_head)
 2472              		.loc 2 88 9 is_stmt 1
  89:src/../h/MemoryAllocation.hpp ****         {
 2473              		.loc 2 89 9
  89:src/../h/MemoryAllocation.hpp ****         {
 2474              		.loc 2 89 12 is_stmt 0
 2475 0de8 97070000 		la	a5,_ZN16MemoryAllocation9fmem_headE
 2475      83B70700 
 2476 0df0 83B70700 		ld	a5,0(a5)
  89:src/../h/MemoryAllocation.hpp ****         {
 2477              		.loc 2 89 9
 2478 0df4 E38A07D8 		beqz	a5,.L183
  89:src/../h/MemoryAllocation.hpp ****         {
 2479              		.loc 2 89 23
 2480 0df8 E36CF7D8 		bltu	a4,a5,.L184
 2481              	.LVL190:
 2482              	.L136:
  93:src/../h/MemoryAllocation.hpp ****             }
 2483              		.loc 2 93 52 is_stmt 1
 2484 0dfc 93860700 		mv	a3,a5
  93:src/../h/MemoryAllocation.hpp ****             }
 2485              		.loc 2 93 42 is_stmt 0
 2486 0e00 83B70700 		ld	a5,0(a5)
 2487              	.LVL191:
  93:src/../h/MemoryAllocation.hpp ****             }
 2488              		.loc 2 93 52
 2489 0e04 E308F7D8 		beq	a4,a5,.L135
 2490 0e08 E3EAE7FE 		bgtu	a4,a5,.L136
 2491 0e0c 6FF09FD8 		j	.L135
 2492              	.LVL192:
 2493              	.L152:
 2494              	.LBE249:
 2495              	.LBE270:
 2496              	.LBB271:
 2497              	.LBB267:
 2498              	.LBB265:
 2499              	.LBB263:
 2500              	.LBB261:
 2501              	.LBB259:
 168:src/../h/MemoryAllocation.hpp ****                 if (cur->next) cur->next->prev = newfrgm;
 2502              		.loc 2 168 22 is_stmt 1
 168:src/../h/MemoryAllocation.hpp ****                 if (cur->next) cur->next->prev = newfrgm;
 2503              		.loc 2 168 41 is_stmt 0
 2504 0e10 1386060C 		addi	a2,a3,192
 168:src/../h/MemoryAllocation.hpp ****                 if (cur->next) cur->next->prev = newfrgm;
 2505              		.loc 2 168 32
 2506 0e14 97050000 		la	a1,_ZN16MemoryAllocation9fmem_headE
 2506      83B50500 
 2507 0e1c 23B0C500 		sd	a2,0(a1)
 2508 0e20 6FF01FF1 		j	.L153
GAS LISTING /tmp/cc1kFpjO.s 			page 65


 2509              	.LVL193:
 2510              	.L197:
 2511              	.LBE259:
 2512              	.LBE261:
 2513              	.LBE263:
 2514              	.LBE265:
 2515              	.LBE267:
 2516              	.LBE271:
 142:src/main.cpp  ****                 return;
 2517              		.loc 1 142 17 is_stmt 1
 142:src/main.cpp  ****                 return;
 2518              		.loc 1 142 28 is_stmt 0
 2519 0e24 17050000 		lla	a0,.LC10
 2519      13050500 
 2520 0e2c 97000000 		call	_Z11printStringPKc
 2520      E7800000 
 2521              	.LVL194:
 142:src/main.cpp  ****                 return;
 2522              		.loc 1 142 41 is_stmt 1
 143:src/main.cpp  ****             }
 2523              		.loc 1 143 17
 2524 0e34 6FF05FD0 		j	.L119
 2525              	.L182:
 2526              	.LBE273:
 2527              	.LBE274:
 2528              	.LBB275:
 146:src/main.cpp  ****             printString("i:");
 2529              		.loc 1 146 17 is_stmt 0
 2530 0e38 93041000 		li	s1,1
 2531              	.LVL195:
 2532 0e3c 6F004021 		j	.L134
 2533              	.LVL196:
 2534              	.L187:
 2535              	.LBB276:
 2536              	.LBB277:
 2537              	.LBB278:
  91:src/../h/MemoryAllocation.hpp ****         }else {
 2538              		.loc 2 91 16
 2539 0e40 93860700 		mv	a3,a5
 2540 0e44 6F008000 		j	.L158
 2541              	.L188:
 2542 0e48 93060000 		li	a3,0
 2543              	.LVL197:
 2544              	.L158:
  95:src/../h/MemoryAllocation.hpp ****                 newSeg->next=nullptr;
 2545              		.loc 2 95 17 is_stmt 1
  96:src/../h/MemoryAllocation.hpp ****                 newSeg->prev=nullptr;
 2546              		.loc 2 96 17
  96:src/../h/MemoryAllocation.hpp ****                 newSeg->prev=nullptr;
 2547              		.loc 2 96 29 is_stmt 0
 2548 0e4c 23300700 		sd	zero,0(a4)
  97:src/../h/MemoryAllocation.hpp ****                 newSeg->size=bytesToBlocks(sizeof(ptr))*MEM_BLOCK_SIZE+sizeof(fmem_head);
 2549              		.loc 2 97 17 is_stmt 1
  98:src/../h/MemoryAllocation.hpp ****                         //sizeof(ptr);
 2550              		.loc 2 98 17
 2551              	.LVL198:
 2552              	.LBE278:
GAS LISTING /tmp/cc1kFpjO.s 			page 66


 2553              	.LBE277:
 2554              	.LBE276:
 2555              	.LBE275:
 2556              	.LBE315:
  69:src/../h/MemoryAllocation.hpp ****     }
 2557              		.loc 2 69 9
 2558              	.LBB316:
 2559              	.LBB314:
 2560              	.LBB312:
 2561              	.LBB290:
 2562              	.LBB287:
  98:src/../h/MemoryAllocation.hpp ****                         //sizeof(ptr);
 2563              		.loc 2 98 29 is_stmt 0
 2564 0e50 93078004 		li	a5,72
 2565 0e54 2338F700 		sd	a5,16(a4)
 100:src/../h/MemoryAllocation.hpp ****                 if(cur) {
 2566              		.loc 2 100 17 is_stmt 1
 100:src/../h/MemoryAllocation.hpp ****                 if(cur) {
 2567              		.loc 2 100 29 is_stmt 0
 2568 0e58 2334D700 		sd	a3,8(a4)
 101:src/../h/MemoryAllocation.hpp ****                     newSeg->next = cur->next;
 2569              		.loc 2 101 17 is_stmt 1
 2570 0e5c 638C060C 		beqz	a3,.L160
 102:src/../h/MemoryAllocation.hpp ****                 }
 2571              		.loc 2 102 21
 102:src/../h/MemoryAllocation.hpp ****                 }
 2572              		.loc 2 102 41 is_stmt 0
 2573 0e60 83B70600 		ld	a5,0(a3)
 102:src/../h/MemoryAllocation.hpp ****                 }
 2574              		.loc 2 102 34
 2575 0e64 2330F700 		sd	a5,0(a4)
 2576              	.L161:
 107:src/../h/MemoryAllocation.hpp ****                     newSeg->next->prev=newSeg;
 2577              		.loc 2 107 17 is_stmt 1
 107:src/../h/MemoryAllocation.hpp ****                     newSeg->next->prev=newSeg;
 2578              		.loc 2 107 28 is_stmt 0
 2579 0e68 83370700 		ld	a5,0(a4)
 107:src/../h/MemoryAllocation.hpp ****                     newSeg->next->prev=newSeg;
 2580              		.loc 2 107 17
 2581 0e6c 63840700 		beqz	a5,.L162
 108:src/../h/MemoryAllocation.hpp ****                 }
 2582              		.loc 2 108 21 is_stmt 1
 108:src/../h/MemoryAllocation.hpp ****                 }
 2583              		.loc 2 108 39 is_stmt 0
 2584 0e70 23B4E700 		sd	a4,8(a5)
 2585              	.L162:
 110:src/../h/MemoryAllocation.hpp ****                     cur->next = newSeg; //zasto ovde odjednom uzme vrednost x8000 umesto x8000f...?
 2586              		.loc 2 110 17 is_stmt 1
 2587 0e74 638A060C 		beqz	a3,.L163
 111:src/../h/MemoryAllocation.hpp ****                 }
 2588              		.loc 2 111 21
 111:src/../h/MemoryAllocation.hpp ****                 }
 2589              		.loc 2 111 31 is_stmt 0
 2590 0e78 23B0E600 		sd	a4,0(a3)
 2591              	.L164:
 117:src/../h/MemoryAllocation.hpp ****             tryToJoin(cur);
 2592              		.loc 2 117 13 is_stmt 1
GAS LISTING /tmp/cc1kFpjO.s 			page 67


 2593              	.LVL199:
 2594              	.LBB279:
 2595              	.LBB280:
  75:src/../h/MemoryAllocation.hpp ****         if (curr->next && (char*)curr+curr->size == (char*)(curr->next)) {
 2596              		.loc 2 75 9
 2597 0e7c 630C0700 		beqz	a4,.L165
  76:src/../h/MemoryAllocation.hpp ****         // Remove the cur->next segment:
 2598              		.loc 2 76 9
  76:src/../h/MemoryAllocation.hpp ****         // Remove the cur->next segment:
 2599              		.loc 2 76 19 is_stmt 0
 2600 0e80 83370700 		ld	a5,0(a4)
  76:src/../h/MemoryAllocation.hpp ****         // Remove the cur->next segment:
 2601              		.loc 2 76 9
 2602 0e84 63880700 		beqz	a5,.L165
  76:src/../h/MemoryAllocation.hpp ****         // Remove the cur->next segment:
 2603              		.loc 2 76 45
 2604 0e88 03360701 		ld	a2,16(a4)
  76:src/../h/MemoryAllocation.hpp ****         // Remove the cur->next segment:
 2605              		.loc 2 76 38
 2606 0e8c B305C700 		add	a1,a4,a2
  76:src/../h/MemoryAllocation.hpp ****         // Remove the cur->next segment:
 2607              		.loc 2 76 24
 2608 0e90 6384B70C 		beq	a5,a1,.L198
 2609              	.L165:
 2610              	.LVL200:
 2611              	.LBE280:
 2612              	.LBE279:
 118:src/../h/MemoryAllocation.hpp ****             //mozda da fmem_head nije jednako starom fmem_headu?
 2613              		.loc 2 118 13 is_stmt 1
 2614              	.LBB282:
 2615              	.LBB283:
  75:src/../h/MemoryAllocation.hpp ****         if (curr->next && (char*)curr+curr->size == (char*)(curr->next)) {
 2616              		.loc 2 75 9
 2617 0e94 638C0600 		beqz	a3,.L166
  76:src/../h/MemoryAllocation.hpp ****         // Remove the cur->next segment:
 2618              		.loc 2 76 9
  76:src/../h/MemoryAllocation.hpp ****         // Remove the cur->next segment:
 2619              		.loc 2 76 19 is_stmt 0
 2620 0e98 83B70600 		ld	a5,0(a3)
  76:src/../h/MemoryAllocation.hpp ****         // Remove the cur->next segment:
 2621              		.loc 2 76 9
 2622 0e9c 63880700 		beqz	a5,.L166
  76:src/../h/MemoryAllocation.hpp ****         // Remove the cur->next segment:
 2623              		.loc 2 76 45
 2624 0ea0 03B60601 		ld	a2,16(a3)
  76:src/../h/MemoryAllocation.hpp ****         // Remove the cur->next segment:
 2625              		.loc 2 76 38
 2626 0ea4 B385C600 		add	a1,a3,a2
  76:src/../h/MemoryAllocation.hpp ****         // Remove the cur->next segment:
 2627              		.loc 2 76 24
 2628 0ea8 6388B70C 		beq	a5,a1,.L199
 2629              	.L166:
 2630              	.LVL201:
 2631              	.LBE283:
 2632              	.LBE282:
 120:src/../h/MemoryAllocation.hpp ****                 return -1;
 2633              		.loc 2 120 13 is_stmt 1
GAS LISTING /tmp/cc1kFpjO.s 			page 68


 2634 0eac 6306070E 		beqz	a4,.L200
 122:src/../h/MemoryAllocation.hpp **** 
 2635              		.loc 2 122 26 is_stmt 0
 2636 0eb0 93070000 		li	a5,0
 2637              	.L167:
 2638              	.LVL202:
 2639              	.LBE287:
 2640              	.LBE290:
 151:src/main.cpp  ****                 printString("not ok\n");
 2641              		.loc 1 151 13 is_stmt 1
 2642 0eb4 6396070E 		bnez	a5,.L201
 155:src/main.cpp  ****             addrs[i] = MemoryAllocation::mem_alloc(MemoryAllocation::bytesToBlocks(sz));
 2643              		.loc 1 155 13
 155:src/main.cpp  ****             addrs[i] = MemoryAllocation::mem_alloc(MemoryAllocation::bytesToBlocks(sz));
 2644              		.loc 1 155 24 is_stmt 0
 2645 0eb8 17050000 		lla	a0,.LC17
 2645      13050500 
 2646 0ec0 97000000 		call	_Z11printStringPKc
 2646      E7800000 
 2647              	.LVL203:
 156:src/main.cpp  ****             if(addrs[i] == 0){
 2648              		.loc 1 156 13 is_stmt 1
 2649              	.LBB291:
 2650              	.LBB292:
  69:src/../h/MemoryAllocation.hpp ****     }
 2651              		.loc 2 69 9
  69:src/../h/MemoryAllocation.hpp ****     }
 2652              		.loc 2 69 36 is_stmt 0
 2653 0ec8 1387F903 		addi	a4,s3,63
 2654              	.LVL204:
 2655              	.LBE292:
 2656              	.LBE291:
 2657              	.LBB293:
 2658              	.LBB294:
 153:src/../h/MemoryAllocation.hpp ****         for (FreeMem* cur = fmem_head; cur != nullptr; cur=cur->next){ // U DRUGOJ ITERACIJI FMEM_H
 2659              		.loc 2 153 9 is_stmt 1
 153:src/../h/MemoryAllocation.hpp ****         for (FreeMem* cur = fmem_head; cur != nullptr; cur=cur->next){ // U DRUGOJ ITERACIJI FMEM_H
 2660              		.loc 2 153 18 is_stmt 0
 2661 0ecc 137707FC 		andi	a4,a4,-64
 2662              	.LVL205:
 153:src/../h/MemoryAllocation.hpp ****         for (FreeMem* cur = fmem_head; cur != nullptr; cur=cur->next){ // U DRUGOJ ITERACIJI FMEM_H
 2663              		.loc 2 153 13
 2664 0ed0 13078700 		addi	a4,a4,8
 2665              	.LVL206:
 154:src/../h/MemoryAllocation.hpp ****             cur->next=fmem_head->next;
 2666              		.loc 2 154 9 is_stmt 1
 2667              	.LBB295:
 154:src/../h/MemoryAllocation.hpp ****             cur->next=fmem_head->next;
 2668              		.loc 2 154 23 is_stmt 0
 2669 0ed4 97070000 		la	a5,_ZN16MemoryAllocation9fmem_headE
 2669      83B70700 
 2670 0edc 83B70700 		ld	a5,0(a5)
 2671              	.LVL207:
 2672              	.L170:
 154:src/../h/MemoryAllocation.hpp ****             cur->next=fmem_head->next;
 2673              		.loc 2 154 44 is_stmt 1
 2674 0ee0 63880714 		beqz	a5,.L169
GAS LISTING /tmp/cc1kFpjO.s 			page 69


 2675              	.LBB296:
 155:src/../h/MemoryAllocation.hpp ****             cur->prev=fmem_head->prev;
 2676              		.loc 2 155 13
 155:src/../h/MemoryAllocation.hpp ****             cur->prev=fmem_head->prev;
 2677              		.loc 2 155 34 is_stmt 0
 2678 0ee4 97060000 		la	a3,_ZN16MemoryAllocation9fmem_headE
 2678      83B60600 
 2679 0eec 03B60600 		ld	a2,0(a3)
 2680 0ef0 03360600 		ld	a2,0(a2)
 155:src/../h/MemoryAllocation.hpp ****             cur->prev=fmem_head->prev;
 2681              		.loc 2 155 22
 2682 0ef4 23B0C700 		sd	a2,0(a5)
 156:src/../h/MemoryAllocation.hpp ****             if (cur->size<size) continue;
 2683              		.loc 2 156 13 is_stmt 1
 156:src/../h/MemoryAllocation.hpp ****             if (cur->size<size) continue;
 2684              		.loc 2 156 34 is_stmt 0
 2685 0ef8 83B60600 		ld	a3,0(a3)
 2686 0efc 83B58600 		ld	a1,8(a3)
 156:src/../h/MemoryAllocation.hpp ****             if (cur->size<size) continue;
 2687              		.loc 2 156 22
 2688 0f00 23B4B700 		sd	a1,8(a5)
 157:src/../h/MemoryAllocation.hpp ****             if (cur->size-size<=sizeof(FreeMem)){
 2689              		.loc 2 157 13 is_stmt 1
 157:src/../h/MemoryAllocation.hpp ****             if (cur->size-size<=sizeof(FreeMem)){
 2690              		.loc 2 157 22 is_stmt 0
 2691 0f04 83B60701 		ld	a3,16(a5)
 157:src/../h/MemoryAllocation.hpp ****             if (cur->size-size<=sizeof(FreeMem)){
 2692              		.loc 2 157 13
 2693 0f08 63E6E60A 		bgtu	a4,a3,.L190
 158:src/../h/MemoryAllocation.hpp ****                 if (cur->prev) cur->prev->next = cur->next;
 2694              		.loc 2 158 13 is_stmt 1
 2695              	.LBB297:
 158:src/../h/MemoryAllocation.hpp ****                 if (cur->prev) cur->prev->next = cur->next;
 2696              		.loc 2 158 26 is_stmt 0
 2697 0f0c B386E640 		sub	a3,a3,a4
 158:src/../h/MemoryAllocation.hpp ****                 if (cur->prev) cur->prev->next = cur->next;
 2698              		.loc 2 158 13
 2699 0f10 13058001 		li	a0,24
 2700 0f14 636CD50A 		bgtu	a3,a0,.L171
 159:src/../h/MemoryAllocation.hpp ****                 else fmem_head = cur->next;
 2701              		.loc 2 159 17 is_stmt 1
 2702 0f18 6382050A 		beqz	a1,.L172
 159:src/../h/MemoryAllocation.hpp ****                 else fmem_head = cur->next;
 2703              		.loc 2 159 32
 159:src/../h/MemoryAllocation.hpp ****                 else fmem_head = cur->next;
 2704              		.loc 2 159 48 is_stmt 0
 2705 0f1c 23B0C500 		sd	a2,0(a1)
 2706              	.LVL208:
 2707              	.L173:
 161:src/../h/MemoryAllocation.hpp ****                 return cur;
 2708              		.loc 2 161 17 is_stmt 1
 161:src/../h/MemoryAllocation.hpp ****                 return cur;
 2709              		.loc 2 161 26 is_stmt 0
 2710 0f20 03B70700 		ld	a4,0(a5)
 161:src/../h/MemoryAllocation.hpp ****                 return cur;
 2711              		.loc 2 161 17
 2712 0f24 63060710 		beqz	a4,.L169
GAS LISTING /tmp/cc1kFpjO.s 			page 70


 161:src/../h/MemoryAllocation.hpp ****                 return cur;
 2713              		.loc 2 161 32 is_stmt 1
 161:src/../h/MemoryAllocation.hpp ****                 return cur;
 2714              		.loc 2 161 55 is_stmt 0
 2715 0f28 83B68700 		ld	a3,8(a5)
 161:src/../h/MemoryAllocation.hpp ****                 return cur;
 2716              		.loc 2 161 48
 2717 0f2c 2334D700 		sd	a3,8(a4)
 162:src/../h/MemoryAllocation.hpp ****             }else {
 2718              		.loc 2 162 17 is_stmt 1
 162:src/../h/MemoryAllocation.hpp ****             }else {
 2719              		.loc 2 162 24 is_stmt 0
 2720 0f30 6F000010 		j	.L169
 2721              	.LVL209:
 2722              	.L160:
 2723              	.LBE297:
 2724              	.LBE296:
 2725              	.LBE295:
 2726              	.LBE294:
 2727              	.LBE293:
 2728              	.LBB308:
 2729              	.LBB288:
 105:src/../h/MemoryAllocation.hpp ****                 }
 2730              		.loc 2 105 21 is_stmt 1
 105:src/../h/MemoryAllocation.hpp ****                 }
 2731              		.loc 2 105 34 is_stmt 0
 2732 0f34 97070000 		la	a5,_ZN16MemoryAllocation9fmem_headE
 2732      83B70700 
 2733 0f3c 83B70700 		ld	a5,0(a5)
 2734 0f40 2330F700 		sd	a5,0(a4)
 2735 0f44 6FF05FF2 		j	.L161
 2736              	.L163:
 114:src/../h/MemoryAllocation.hpp ****                 }
 2737              		.loc 2 114 21 is_stmt 1
 114:src/../h/MemoryAllocation.hpp ****                 }
 2738              		.loc 2 114 31 is_stmt 0
 2739 0f48 97070000 		la	a5,_ZN16MemoryAllocation9fmem_headE
 2739      83B70700 
 2740 0f50 23B0E700 		sd	a4,0(a5)
 2741 0f54 6FF09FF2 		j	.L164
 2742              	.LVL210:
 2743              	.L198:
 2744              	.LBB285:
 2745              	.LBB281:
  78:src/../h/MemoryAllocation.hpp ****             curr->next = curr->next->next;
 2746              		.loc 2 78 13 is_stmt 1
  78:src/../h/MemoryAllocation.hpp ****             curr->next = curr->next->next;
 2747              		.loc 2 78 39 is_stmt 0
 2748 0f58 83B50701 		ld	a1,16(a5)
  78:src/../h/MemoryAllocation.hpp ****             curr->next = curr->next->next;
 2749              		.loc 2 78 24
 2750 0f5c 3306B600 		add	a2,a2,a1
 2751 0f60 2338C700 		sd	a2,16(a4)
  79:src/../h/MemoryAllocation.hpp ****             if (curr->next) curr->next->prev = curr;
 2752              		.loc 2 79 13 is_stmt 1
  79:src/../h/MemoryAllocation.hpp ****             if (curr->next) curr->next->prev = curr;
 2753              		.loc 2 79 38 is_stmt 0
GAS LISTING /tmp/cc1kFpjO.s 			page 71


 2754 0f64 83B70700 		ld	a5,0(a5)
  79:src/../h/MemoryAllocation.hpp ****             if (curr->next) curr->next->prev = curr;
 2755              		.loc 2 79 24
 2756 0f68 2330F700 		sd	a5,0(a4)
  80:src/../h/MemoryAllocation.hpp ****             return;
 2757              		.loc 2 80 13 is_stmt 1
 2758 0f6c E38407F2 		beqz	a5,.L165
  80:src/../h/MemoryAllocation.hpp ****             return;
 2759              		.loc 2 80 29
  80:src/../h/MemoryAllocation.hpp ****             return;
 2760              		.loc 2 80 46 is_stmt 0
 2761 0f70 23B4E700 		sd	a4,8(a5)
 2762 0f74 6FF01FF2 		j	.L165
 2763              	.LVL211:
 2764              	.L199:
 2765              	.LBE281:
 2766              	.LBE285:
 2767              	.LBB286:
 2768              	.LBB284:
  78:src/../h/MemoryAllocation.hpp ****             curr->next = curr->next->next;
 2769              		.loc 2 78 13 is_stmt 1
  78:src/../h/MemoryAllocation.hpp ****             curr->next = curr->next->next;
 2770              		.loc 2 78 39 is_stmt 0
 2771 0f78 83B50701 		ld	a1,16(a5)
  78:src/../h/MemoryAllocation.hpp ****             curr->next = curr->next->next;
 2772              		.loc 2 78 24
 2773 0f7c 3306B600 		add	a2,a2,a1
 2774 0f80 23B8C600 		sd	a2,16(a3)
  79:src/../h/MemoryAllocation.hpp ****             if (curr->next) curr->next->prev = curr;
 2775              		.loc 2 79 13 is_stmt 1
  79:src/../h/MemoryAllocation.hpp ****             if (curr->next) curr->next->prev = curr;
 2776              		.loc 2 79 38 is_stmt 0
 2777 0f84 83B70700 		ld	a5,0(a5)
  79:src/../h/MemoryAllocation.hpp ****             if (curr->next) curr->next->prev = curr;
 2778              		.loc 2 79 24
 2779 0f88 23B0F600 		sd	a5,0(a3)
  80:src/../h/MemoryAllocation.hpp ****             return;
 2780              		.loc 2 80 13 is_stmt 1
 2781 0f8c E38007F2 		beqz	a5,.L166
  80:src/../h/MemoryAllocation.hpp ****             return;
 2782              		.loc 2 80 29
  80:src/../h/MemoryAllocation.hpp ****             return;
 2783              		.loc 2 80 46 is_stmt 0
 2784 0f90 23B4D700 		sd	a3,8(a5)
 2785 0f94 6FF09FF1 		j	.L166
 2786              	.LVL212:
 2787              	.L200:
 2788              	.LBE284:
 2789              	.LBE286:
 121:src/../h/MemoryAllocation.hpp ****             }else{return 0;}
 2790              		.loc 2 121 25
 2791 0f98 9307F0FF 		li	a5,-1
 2792 0f9c 6FF09FF1 		j	.L167
 2793              	.LVL213:
 2794              	.L201:
 2795              	.LBE288:
 2796              	.LBE308:
GAS LISTING /tmp/cc1kFpjO.s 			page 72


 152:src/main.cpp  ****                 return;
 2797              		.loc 1 152 17 is_stmt 1
 152:src/main.cpp  ****                 return;
 2798              		.loc 1 152 28 is_stmt 0
 2799 0fa0 17050000 		lla	a0,.LC10
 2799      13050500 
 2800 0fa8 97000000 		call	_Z11printStringPKc
 2800      E7800000 
 2801              	.LVL214:
 153:src/main.cpp  ****             }
 2802              		.loc 1 153 17 is_stmt 1
 2803 0fb0 6FF09FB8 		j	.L119
 2804              	.LVL215:
 2805              	.L190:
 2806              	.LBB309:
 2807              	.LBB306:
 2808              	.LBB304:
 154:src/../h/MemoryAllocation.hpp ****             cur->next=fmem_head->next;
 2809              		.loc 2 154 59 is_stmt 0
 2810 0fb4 93070600 		mv	a5,a2
 2811              	.LVL216:
 2812 0fb8 6FF09FF2 		j	.L170
 2813              	.LVL217:
 2814              	.L172:
 2815              	.LBB302:
 2816              	.LBB300:
 160:src/../h/MemoryAllocation.hpp ****                 if (cur->next) cur->next->prev = cur->prev;
 2817              		.loc 2 160 22 is_stmt 1
 160:src/../h/MemoryAllocation.hpp ****                 if (cur->next) cur->next->prev = cur->prev;
 2818              		.loc 2 160 32 is_stmt 0
 2819 0fbc 17070000 		la	a4,_ZN16MemoryAllocation9fmem_headE
 2819      03370700 
 2820              	.LVL218:
 2821 0fc4 2330C700 		sd	a2,0(a4)
 2822 0fc8 6FF09FF5 		j	.L173
 2823              	.LVL219:
 2824              	.L171:
 2825              	.LBB298:
 164:src/../h/MemoryAllocation.hpp ****                 newfrgm->prev=nullptr;
 2826              		.loc 2 164 17 is_stmt 1
 164:src/../h/MemoryAllocation.hpp ****                 newfrgm->prev=nullptr;
 2827              		.loc 2 164 26 is_stmt 0
 2828 0fcc B386E700 		add	a3,a5,a4
 2829              	.LVL220:
 165:src/../h/MemoryAllocation.hpp ****                 newfrgm->next=nullptr;
 2830              		.loc 2 165 17 is_stmt 1
 165:src/../h/MemoryAllocation.hpp ****                 newfrgm->next=nullptr;
 2831              		.loc 2 165 30 is_stmt 0
 2832 0fd0 23B40600 		sd	zero,8(a3)
 166:src/../h/MemoryAllocation.hpp ****                 if (cur->prev) cur->prev->next = newfrgm;
 2833              		.loc 2 166 17 is_stmt 1
 166:src/../h/MemoryAllocation.hpp ****                 if (cur->prev) cur->prev->next = newfrgm;
 2834              		.loc 2 166 30 is_stmt 0
 2835 0fd4 23B00600 		sd	zero,0(a3)
 167:src/../h/MemoryAllocation.hpp ****                 else fmem_head = newfrgm+sizeof(fmem_head); // ovo sam dodao sizeof da bi mi radio 
 2836              		.loc 2 167 17 is_stmt 1
 167:src/../h/MemoryAllocation.hpp ****                 else fmem_head = newfrgm+sizeof(fmem_head); // ovo sam dodao sizeof da bi mi radio 
GAS LISTING /tmp/cc1kFpjO.s 			page 73


 2837              		.loc 2 167 26 is_stmt 0
 2838 0fd8 03B68700 		ld	a2,8(a5)
 167:src/../h/MemoryAllocation.hpp ****                 else fmem_head = newfrgm+sizeof(fmem_head); // ovo sam dodao sizeof da bi mi radio 
 2839              		.loc 2 167 17
 2840 0fdc 6304060E 		beqz	a2,.L175
 167:src/../h/MemoryAllocation.hpp ****                 else fmem_head = newfrgm+sizeof(fmem_head); // ovo sam dodao sizeof da bi mi radio 
 2841              		.loc 2 167 32 is_stmt 1
 167:src/../h/MemoryAllocation.hpp ****                 else fmem_head = newfrgm+sizeof(fmem_head); // ovo sam dodao sizeof da bi mi radio 
 2842              		.loc 2 167 48 is_stmt 0
 2843 0fe0 2330D600 		sd	a3,0(a2)
 2844              	.L176:
 169:src/../h/MemoryAllocation.hpp ****                 newfrgm->prev = cur->prev;
 2845              		.loc 2 169 17 is_stmt 1
 169:src/../h/MemoryAllocation.hpp ****                 newfrgm->prev = cur->prev;
 2846              		.loc 2 169 26 is_stmt 0
 2847 0fe4 03B60700 		ld	a2,0(a5)
 169:src/../h/MemoryAllocation.hpp ****                 newfrgm->prev = cur->prev;
 2848              		.loc 2 169 17
 2849 0fe8 63040600 		beqz	a2,.L177
 169:src/../h/MemoryAllocation.hpp ****                 newfrgm->prev = cur->prev;
 2850              		.loc 2 169 32 is_stmt 1
 169:src/../h/MemoryAllocation.hpp ****                 newfrgm->prev = cur->prev;
 2851              		.loc 2 169 48 is_stmt 0
 2852 0fec 2334D600 		sd	a3,8(a2)
 2853              	.L177:
 170:src/../h/MemoryAllocation.hpp ****                 newfrgm->next = cur->next;
 2854              		.loc 2 170 17 is_stmt 1
 170:src/../h/MemoryAllocation.hpp ****                 newfrgm->next = cur->next;
 2855              		.loc 2 170 38 is_stmt 0
 2856 0ff0 03B68700 		ld	a2,8(a5)
 170:src/../h/MemoryAllocation.hpp ****                 newfrgm->next = cur->next;
 2857              		.loc 2 170 31
 2858 0ff4 23B4C600 		sd	a2,8(a3)
 171:src/../h/MemoryAllocation.hpp ****                 newfrgm->size = cur->size-size;
 2859              		.loc 2 171 17 is_stmt 1
 171:src/../h/MemoryAllocation.hpp ****                 newfrgm->size = cur->size-size;
 2860              		.loc 2 171 38 is_stmt 0
 2861 0ff8 83B50700 		ld	a1,0(a5)
 171:src/../h/MemoryAllocation.hpp ****                 newfrgm->size = cur->size-size;
 2862              		.loc 2 171 31
 2863 0ffc 23B0B600 		sd	a1,0(a3)
 172:src/../h/MemoryAllocation.hpp ****                 fmem_head = newfrgm+sizeof(fmem_head);
 2864              		.loc 2 172 17 is_stmt 1
 172:src/../h/MemoryAllocation.hpp ****                 fmem_head = newfrgm+sizeof(fmem_head);
 2865              		.loc 2 172 38 is_stmt 0
 2866 1000 83B70701 		ld	a5,16(a5)
 2867              	.LVL221:
 172:src/../h/MemoryAllocation.hpp ****                 fmem_head = newfrgm+sizeof(fmem_head);
 2868              		.loc 2 172 42
 2869 1004 3387E740 		sub	a4,a5,a4
 2870              	.LVL222:
 172:src/../h/MemoryAllocation.hpp ****                 fmem_head = newfrgm+sizeof(fmem_head);
 2871              		.loc 2 172 31
 2872 1008 23B8E600 		sd	a4,16(a3)
 173:src/../h/MemoryAllocation.hpp ****                 fmem_head->next=newfrgm->next;
 2873              		.loc 2 173 17 is_stmt 1
 173:src/../h/MemoryAllocation.hpp ****                 fmem_head->next=newfrgm->next;
GAS LISTING /tmp/cc1kFpjO.s 			page 74


 2874              		.loc 2 173 36 is_stmt 0
 2875 100c 9387060C 		addi	a5,a3,192
 173:src/../h/MemoryAllocation.hpp ****                 fmem_head->next=newfrgm->next;
 2876              		.loc 2 173 27
 2877 1010 97050000 		la	a1,_ZN16MemoryAllocation9fmem_headE
 2877      83B50500 
 2878 1018 23B0F500 		sd	a5,0(a1)
 174:src/../h/MemoryAllocation.hpp ****                 fmem_head->prev=newfrgm->prev;
 2879              		.loc 2 174 17 is_stmt 1
 174:src/../h/MemoryAllocation.hpp ****                 fmem_head->prev=newfrgm->prev;
 2880              		.loc 2 174 42 is_stmt 0
 2881 101c 83B50600 		ld	a1,0(a3)
 174:src/../h/MemoryAllocation.hpp ****                 fmem_head->prev=newfrgm->prev;
 2882              		.loc 2 174 32
 2883 1020 23B0B60C 		sd	a1,192(a3)
 175:src/../h/MemoryAllocation.hpp ****                 fmem_head->size=newfrgm->size;
 2884              		.loc 2 175 17 is_stmt 1
 175:src/../h/MemoryAllocation.hpp ****                 fmem_head->size=newfrgm->size;
 2885              		.loc 2 175 32 is_stmt 0
 2886 1024 23B4C60C 		sd	a2,200(a3)
 176:src/../h/MemoryAllocation.hpp ****                 //fmem_head = (FreeMem*) (char*)newfrgm;
 2887              		.loc 2 176 17 is_stmt 1
 176:src/../h/MemoryAllocation.hpp ****                 //fmem_head = (FreeMem*) (char*)newfrgm;
 2888              		.loc 2 176 32 is_stmt 0
 2889 1028 23B8E60C 		sd	a4,208(a3)
 2890              		.loc 2 178 17 is_stmt 1
 2891              		.loc 2 178 24 is_stmt 0
 2892 102c 93870600 		mv	a5,a3
 2893              	.LVL223:
 2894              	.L169:
 2895              	.LBE298:
 2896              	.LBE300:
 2897              	.LBE302:
 2898              	.LBE304:
 2899              	.LBE306:
 2900              	.LBE309:
 156:src/main.cpp  ****             if(addrs[i] == 0){
 2901              		.loc 1 156 22
 2902 1030 B7F6FFFF 		li	a3,-4096
 2903              	.LVL224:
 2904 1034 13973400 		slli	a4,s1,3
 2905 1038 130604FD 		addi	a2,s0,-48
 2906              	.LVL225:
 2907 103c B306D600 		add	a3,a2,a3
 2908              	.LVL226:
 2909 1040 3387E600 		add	a4,a3,a4
 2910 1044 233CF716 		sd	a5,376(a4)
 2911              	.LVL227:
 157:src/main.cpp  ****                 printString("not ok\n");;
 2912              		.loc 1 157 13 is_stmt 1
 2913 1048 63880708 		beqz	a5,.L202
 2914              	.LBE312:
 146:src/main.cpp  ****             printString("i:");
 2915              		.loc 1 146 9 discriminator 2
 146:src/main.cpp  ****             printString("i:");
 2916              		.loc 1 146 32 is_stmt 0 discriminator 2
 2917 104c 9B842400 		addiw	s1,s1,2
GAS LISTING /tmp/cc1kFpjO.s 			page 75


 2918              	.LVL228:
 2919              	.L134:
 146:src/main.cpp  ****             printString("i:");
 2920              		.loc 1 146 26 is_stmt 1 discriminator 1
 2921 1050 9307001D 		li	a5,464
 2922 1054 63CC9708 		bgt	s1,a5,.L157
 2923              	.LBB313:
 147:src/main.cpp  ****             printInteger(i);
 2924              		.loc 1 147 13
 147:src/main.cpp  ****             printInteger(i);
 2925              		.loc 1 147 24 is_stmt 0
 2926 1058 17050000 		lla	a0,.LC15
 2926      13050500 
 2927 1060 97000000 		call	_Z11printStringPKc
 2927      E7800000 
 2928              	.LVL229:
 148:src/main.cpp  ****             printString("free\n");
 2929              		.loc 1 148 13 is_stmt 1
 148:src/main.cpp  ****             printString("free\n");
 2930              		.loc 1 148 25 is_stmt 0
 2931 1068 13850400 		mv	a0,s1
 2932 106c 97000000 		call	_Z12printIntegerm
 2932      E7800000 
 2933              	.LVL230:
 149:src/main.cpp  ****             int retval = MemoryAllocation::mem_free(addrs[i]);
 2934              		.loc 1 149 13 is_stmt 1
 149:src/main.cpp  ****             int retval = MemoryAllocation::mem_free(addrs[i]);
 2935              		.loc 1 149 24 is_stmt 0
 2936 1074 17050000 		lla	a0,.LC16
 2936      13050500 
 2937 107c 97000000 		call	_Z11printStringPKc
 2937      E7800000 
 2938              	.LVL231:
 150:src/main.cpp  ****             if(retval != 0){
 2939              		.loc 1 150 13 is_stmt 1
 150:src/main.cpp  ****             if(retval != 0){
 2940              		.loc 1 150 52 is_stmt 0
 2941 1084 37F7FFFF 		li	a4,-4096
 2942 1088 93973400 		slli	a5,s1,3
 2943 108c 930604FD 		addi	a3,s0,-48
 2944 1090 3387E600 		add	a4,a3,a4
 2945 1094 B307F700 		add	a5,a4,a5
 2946 1098 03B78717 		ld	a4,376(a5)
 2947              	.LVL232:
 2948              	.LBB310:
 2949              	.LBB289:
  88:src/../h/MemoryAllocation.hpp ****         if(!fmem_head || ptr < (char*)fmem_head)
 2950              		.loc 2 88 9 is_stmt 1
  89:src/../h/MemoryAllocation.hpp ****         {
 2951              		.loc 2 89 9
  89:src/../h/MemoryAllocation.hpp ****         {
 2952              		.loc 2 89 12 is_stmt 0
 2953 109c 97070000 		la	a5,_ZN16MemoryAllocation9fmem_headE
 2953      83B70700 
 2954 10a4 83B70700 		ld	a5,0(a5)
  89:src/../h/MemoryAllocation.hpp ****         {
 2955              		.loc 2 89 9
GAS LISTING /tmp/cc1kFpjO.s 			page 76


 2956 10a8 E38C07D8 		beqz	a5,.L187
  89:src/../h/MemoryAllocation.hpp ****         {
 2957              		.loc 2 89 23
 2958 10ac E36EF7D8 		bltu	a4,a5,.L188
 2959              	.LVL233:
 2960              	.L159:
  93:src/../h/MemoryAllocation.hpp ****             }
 2961              		.loc 2 93 52 is_stmt 1
 2962 10b0 93860700 		mv	a3,a5
  93:src/../h/MemoryAllocation.hpp ****             }
 2963              		.loc 2 93 42 is_stmt 0
 2964 10b4 83B70700 		ld	a5,0(a5)
 2965              	.LVL234:
  93:src/../h/MemoryAllocation.hpp ****             }
 2966              		.loc 2 93 52
 2967 10b8 E30AF7D8 		beq	a4,a5,.L158
 2968 10bc E3EAE7FE 		bgtu	a4,a5,.L159
 2969 10c0 6FF0DFD8 		j	.L158
 2970              	.LVL235:
 2971              	.L175:
 2972              	.LBE289:
 2973              	.LBE310:
 2974              	.LBB311:
 2975              	.LBB307:
 2976              	.LBB305:
 2977              	.LBB303:
 2978              	.LBB301:
 2979              	.LBB299:
 168:src/../h/MemoryAllocation.hpp ****                 if (cur->next) cur->next->prev = newfrgm;
 2980              		.loc 2 168 22 is_stmt 1
 168:src/../h/MemoryAllocation.hpp ****                 if (cur->next) cur->next->prev = newfrgm;
 2981              		.loc 2 168 41 is_stmt 0
 2982 10c4 1386060C 		addi	a2,a3,192
 168:src/../h/MemoryAllocation.hpp ****                 if (cur->next) cur->next->prev = newfrgm;
 2983              		.loc 2 168 32
 2984 10c8 97050000 		la	a1,_ZN16MemoryAllocation9fmem_headE
 2984      83B50500 
 2985 10d0 23B0C500 		sd	a2,0(a1)
 2986 10d4 6FF01FF1 		j	.L176
 2987              	.LVL236:
 2988              	.L202:
 2989              	.LBE299:
 2990              	.LBE301:
 2991              	.LBE303:
 2992              	.LBE305:
 2993              	.LBE307:
 2994              	.LBE311:
 158:src/main.cpp  ****                 return;
 2995              		.loc 1 158 17 is_stmt 1
 158:src/main.cpp  ****                 return;
 2996              		.loc 1 158 28 is_stmt 0
 2997 10d8 17050000 		lla	a0,.LC10
 2997      13050500 
 2998 10e0 97000000 		call	_Z11printStringPKc
 2998      E7800000 
 2999              	.LVL237:
 158:src/main.cpp  ****                 return;
GAS LISTING /tmp/cc1kFpjO.s 			page 77


 3000              		.loc 1 158 41 is_stmt 1
 159:src/main.cpp  ****             }
 3001              		.loc 1 159 17
 3002 10e8 6FF01FA5 		j	.L119
 3003              	.L157:
 3004              	.LBE313:
 3005              	.LBE314:
 162:src/main.cpp  ****     }
 3006              		.loc 1 162 9
 162:src/main.cpp  ****     }
 3007              		.loc 1 162 11 is_stmt 0
 3008 10ec 1B0969FF 		addiw	s2,s2,-10
 3009              	.LVL238:
 3010              	.LBE316:
 127:src/main.cpp  ****         printString("sz:");
 3011              		.loc 1 127 5
 3012 10f0 6FF0DFA6 		j	.L120
 3013              	.LVL239:
 3014              	.L133:
 164:src/main.cpp  **** }
 3015              		.loc 1 164 5 is_stmt 1
 164:src/main.cpp  **** }
 3016              		.loc 1 164 16 is_stmt 0
 3017 10f4 17050000 		lla	a0,.LC8
 3017      13050500 
 3018 10fc 97000000 		call	_Z11printStringPKc
 3018      E7800000 
 3019              	.LVL240:
 164:src/main.cpp  **** }
 3020              		.loc 1 164 25 is_stmt 1
 3021 1104 6FF05FA3 		j	.L119
 3022              		.cfi_endproc
 3023              	.LFE17:
 3025              		.align	2
 3026              		.globl	main
 3028              	main:
 3029              	.LFB18:
 166:src/main.cpp  **** 
 167:src/main.cpp  **** 
 168:src/main.cpp  **** int main(){
 3030              		.loc 1 168 11
 3031              		.cfi_startproc
 3032 1108 130101FF 		addi	sp,sp,-16
 3033              		.cfi_def_cfa_offset 16
 3034 110c 23341100 		sd	ra,8(sp)
 3035 1110 23308100 		sd	s0,0(sp)
 3036              		.cfi_offset 1, -8
 3037              		.cfi_offset 8, -16
 3038 1114 13040101 		addi	s0,sp,16
 3039              		.cfi_def_cfa 8, 0
 169:src/main.cpp  ****     MemoryAllocation* mem_obj;
 3040              		.loc 1 169 5
 170:src/main.cpp  ****     mem_obj = mem_obj->getInstance();
 3041              		.loc 1 170 5
  44:src/../h/MemoryAllocation.hpp ****             fmem_head =  (FreeMem*) HEAP_START_ADDR;
 3042              		.loc 2 44 9
 3043              	.LBB317:
GAS LISTING /tmp/cc1kFpjO.s 			page 78


 3044              	.LBB318:
  44:src/../h/MemoryAllocation.hpp ****             fmem_head =  (FreeMem*) HEAP_START_ADDR;
 3045              		.loc 2 44 13 is_stmt 0
 3046 1118 97070000 		la	a5,_ZN16MemoryAllocation8instanceE
 3046      83B70700 
 3047 1120 83B70700 		ld	a5,0(a5)
  44:src/../h/MemoryAllocation.hpp ****             fmem_head =  (FreeMem*) HEAP_START_ADDR;
 3048              		.loc 2 44 9
 3049 1124 63800704 		beqz	a5,.L206
 3050              	.L204:
 3051              	.LBE318:
 3052              	.LBE317:
 171:src/main.cpp  ****     //printInt(MemoryAllocation::availableMemory());
 172:src/main.cpp  ****     printString("\n");
 3053              		.loc 1 172 5 is_stmt 1
 3054              		.loc 1 172 16 is_stmt 0
 3055 1128 17050000 		lla	a0,.LC12
 3055      13050500 
 3056 1130 97000000 		call	_Z11printStringPKc
 3056      E7800000 
 3057              	.LVL241:
 173:src/main.cpp  ****     //bigMalloc();
 174:src/main.cpp  **** 
 175:src/main.cpp  ****     //lotOfSmallMallocs();
 176:src/main.cpp  ****     mallocFree();
 3058              		.loc 1 176 5 is_stmt 1
 3059              		.loc 1 176 15 is_stmt 0
 3060 1138 97000000 		call	_Z10mallocFreev
 3060      E7800000 
 3061              	.LVL242:
 177:src/main.cpp  ****     //stressTesting();
 178:src/main.cpp  ****     //printInt(MemoryAllocation::availableMemory());
 179:src/main.cpp  ****     printString("\n");
 3062              		.loc 1 179 5 is_stmt 1
 3063              		.loc 1 179 16 is_stmt 0
 3064 1140 17050000 		lla	a0,.LC12
 3064      13050500 
 3065 1148 97000000 		call	_Z11printStringPKc
 3065      E7800000 
 3066              	.LVL243:
 180:src/main.cpp  ****     return 0;
 3067              		.loc 1 180 5 is_stmt 1
 181:src/main.cpp  **** }...
 3068              		.loc 1 181 1 is_stmt 0
 3069 1150 13050000 		li	a0,0
 3070 1154 83308100 		ld	ra,8(sp)
 3071              		.cfi_remember_state
 3072              		.cfi_restore 1
 3073 1158 03340100 		ld	s0,0(sp)
 3074              		.cfi_restore 8
 3075              		.cfi_def_cfa 2, 16
 3076 115c 13010101 		addi	sp,sp,16
 3077              		.cfi_def_cfa_offset 0
 3078 1160 67800000 		jr	ra
 3079              	.L206:
 3080              		.cfi_restore_state
 3081              	.LBB321:
GAS LISTING /tmp/cc1kFpjO.s 			page 79


 3082              	.LBB320:
 3083              	.LBB319:
  45:src/../h/MemoryAllocation.hpp ****             fmem_head->size = (size_t) ((char *) HEAP_END_ADDR -
 3084              		.loc 2 45 13 is_stmt 1
  45:src/../h/MemoryAllocation.hpp ****             fmem_head->size = (size_t) ((char *) HEAP_END_ADDR -
 3085              		.loc 2 45 23 is_stmt 0
 3086 1164 97070000 		la	a5,HEAP_START_ADDR
 3086      83B70700 
 3087 116c 83B70700 		ld	a5,0(a5)
 3088 1170 97060000 		la	a3,_ZN16MemoryAllocation9fmem_headE
 3088      83B60600 
 3089 1178 23B0F600 		sd	a5,0(a3)
  46:src/../h/MemoryAllocation.hpp ****                                         (char *) HEAP_START_ADDR); //da li smem ovo da castujem u s
 3090              		.loc 2 46 13 is_stmt 1
  46:src/../h/MemoryAllocation.hpp ****                                         (char *) HEAP_START_ADDR); //da li smem ovo da castujem u s
 3091              		.loc 2 46 41 is_stmt 0
 3092 117c 17070000 		la	a4,HEAP_END_ADDR
 3092      03370700 
 3093 1184 03370700 		ld	a4,0(a4)
  46:src/../h/MemoryAllocation.hpp ****                                         (char *) HEAP_START_ADDR); //da li smem ovo da castujem u s
 3094              		.loc 2 46 64
 3095 1188 3307F740 		sub	a4,a4,a5
  46:src/../h/MemoryAllocation.hpp ****                                         (char *) HEAP_START_ADDR); //da li smem ovo da castujem u s
 3096              		.loc 2 46 29
 3097 118c 23B8E700 		sd	a4,16(a5)
  48:src/../h/MemoryAllocation.hpp ****             fmem_head->prev = nullptr;
 3098              		.loc 2 48 13 is_stmt 1
  48:src/../h/MemoryAllocation.hpp ****             fmem_head->prev = nullptr;
 3099              		.loc 2 48 29 is_stmt 0
 3100 1190 23B00700 		sd	zero,0(a5)
  49:src/../h/MemoryAllocation.hpp ****             static MemoryAllocation* instance;
 3101              		.loc 2 49 13 is_stmt 1
  49:src/../h/MemoryAllocation.hpp ****             static MemoryAllocation* instance;
 3102              		.loc 2 49 24 is_stmt 0
 3103 1194 83B70600 		ld	a5,0(a3)
  49:src/../h/MemoryAllocation.hpp ****             static MemoryAllocation* instance;
 3104              		.loc 2 49 29
 3105 1198 23B40700 		sd	zero,8(a5)
  50:src/../h/MemoryAllocation.hpp ****             return instance;
 3106              		.loc 2 50 13 is_stmt 1
  51:src/../h/MemoryAllocation.hpp ****         }
 3107              		.loc 2 51 13
  51:src/../h/MemoryAllocation.hpp ****         }
 3108              		.loc 2 51 20 is_stmt 0
 3109 119c 6FF0DFF8 		j	.L204
 3110              	.LBE319:
 3111              	.LBE320:
 3112              	.LBE321:
 3113              		.cfi_endproc
 3114              	.LFE18:
 3116              	.Letext0:
 3117              		.file 3 "src/../h/../lib/hw.h"
 3118              		.file 4 "src/../lib/console.h"
GAS LISTING /tmp/cc1kFpjO.s 			page 80


DEFINED SYMBOLS
                            *ABS*:0000000000000000 main.cpp
     /tmp/cc1kFpjO.s:9      .text:0000000000000000 _Z11printStringPKc
     /tmp/cc1kFpjO.s:13     .text:0000000000000000 .L0 
     /tmp/cc1kFpjO.s:15     .text:0000000000000000 .L0 
     /tmp/cc1kFpjO.s:16     .text:0000000000000004 .L0 
     /tmp/cc1kFpjO.s:21     .text:0000000000000014 .L0 
     /tmp/cc1kFpjO.s:22     .text:0000000000000014 .L0 
     /tmp/cc1kFpjO.s:23     .text:0000000000000014 .L0 
     /tmp/cc1kFpjO.s:24     .text:0000000000000014 .L0 
     /tmp/cc1kFpjO.s:26     .text:0000000000000018 .L0 
     /tmp/cc1kFpjO.s:29     .text:000000000000001c .L0 
     /tmp/cc1kFpjO.s:31     .text:000000000000001c .L0 
     /tmp/cc1kFpjO.s:32     .text:000000000000001c .L0 
     /tmp/cc1kFpjO.s:36     .text:0000000000000020 .L0 
     /tmp/cc1kFpjO.s:37     .text:0000000000000020 .L0 
     /tmp/cc1kFpjO.s:38     .text:0000000000000020 .L0 
     /tmp/cc1kFpjO.s:41     .text:0000000000000024 .L0 
     /tmp/cc1kFpjO.s:44     .text:0000000000000028 .L0 
     /tmp/cc1kFpjO.s:47     .text:000000000000002c .L0 
     /tmp/cc1kFpjO.s:49     .text:0000000000000030 .L0 
     /tmp/cc1kFpjO.s:50     .text:0000000000000030 .L0 
     /tmp/cc1kFpjO.s:53     .text:0000000000000038 .L0 
     /tmp/cc1kFpjO.s:55     .text:000000000000003c .L0 
     /tmp/cc1kFpjO.s:59     .text:0000000000000040 .L0 
     /tmp/cc1kFpjO.s:60     .text:0000000000000044 .L0 
     /tmp/cc1kFpjO.s:62     .text:0000000000000048 .L0 
     /tmp/cc1kFpjO.s:63     .text:0000000000000048 .L0 
     /tmp/cc1kFpjO.s:65     .text:000000000000004c .L0 
     /tmp/cc1kFpjO.s:67     .text:0000000000000050 .L0 
     /tmp/cc1kFpjO.s:70     .text:0000000000000054 .L0 
     /tmp/cc1kFpjO.s:72     .text:0000000000000058 .L0 
     /tmp/cc1kFpjO.s:78     .text:0000000000000058 _Z10readStringPc
     /tmp/cc1kFpjO.s:81     .text:0000000000000058 .L0 
     /tmp/cc1kFpjO.s:83     .text:0000000000000058 .L0 
     /tmp/cc1kFpjO.s:84     .text:000000000000005c .L0 
     /tmp/cc1kFpjO.s:89     .text:000000000000006c .L0 
     /tmp/cc1kFpjO.s:90     .text:000000000000006c .L0 
     /tmp/cc1kFpjO.s:91     .text:000000000000006c .L0 
     /tmp/cc1kFpjO.s:92     .text:000000000000006c .L0 
     /tmp/cc1kFpjO.s:94     .text:0000000000000070 .L0 
     /tmp/cc1kFpjO.s:97     .text:0000000000000074 .L0 
     /tmp/cc1kFpjO.s:99     .text:0000000000000074 .L0 
     /tmp/cc1kFpjO.s:100    .text:0000000000000074 .L0 
     /tmp/cc1kFpjO.s:104    .text:0000000000000078 .L0 
     /tmp/cc1kFpjO.s:105    .text:0000000000000078 .L0 
     /tmp/cc1kFpjO.s:106    .text:0000000000000078 .L0 
     /tmp/cc1kFpjO.s:109    .text:0000000000000080 .L0 
     /tmp/cc1kFpjO.s:113    .text:0000000000000088 .L0 
     /tmp/cc1kFpjO.s:114    .text:0000000000000088 .L0 
     /tmp/cc1kFpjO.s:116    .text:000000000000008c .L0 
     /tmp/cc1kFpjO.s:118    .text:0000000000000090 .L0 
     /tmp/cc1kFpjO.s:121    .text:0000000000000094 .L0 
     /tmp/cc1kFpjO.s:125    .text:0000000000000098 .L0 
     /tmp/cc1kFpjO.s:126    .text:000000000000009c .L0 
     /tmp/cc1kFpjO.s:128    .text:00000000000000a0 .L0 
     /tmp/cc1kFpjO.s:129    .text:00000000000000a0 .L0 
GAS LISTING /tmp/cc1kFpjO.s 			page 81


     /tmp/cc1kFpjO.s:131    .text:00000000000000a4 .L0 
     /tmp/cc1kFpjO.s:134    .text:00000000000000a8 .L0 
     /tmp/cc1kFpjO.s:137    .text:00000000000000ac .L0 
     /tmp/cc1kFpjO.s:139    .text:00000000000000b0 .L0 
     /tmp/cc1kFpjO.s:145    .text:00000000000000b0 _Z8printIntm
     /tmp/cc1kFpjO.s:148    .text:00000000000000b0 .L0 
     /tmp/cc1kFpjO.s:150    .text:00000000000000b0 .L0 
     /tmp/cc1kFpjO.s:151    .text:00000000000000b4 .L0 
     /tmp/cc1kFpjO.s:155    .text:00000000000000c0 .L0 
     /tmp/cc1kFpjO.s:156    .text:00000000000000c0 .L0 
     /tmp/cc1kFpjO.s:157    .text:00000000000000c0 .L0 
     /tmp/cc1kFpjO.s:159    .text:00000000000000c4 .L0 
     /tmp/cc1kFpjO.s:162    .text:00000000000000c8 .L0 
     /tmp/cc1kFpjO.s:163    .text:00000000000000c8 .L0 
     /tmp/cc1kFpjO.s:168    .text:00000000000000d0 .L0 
     /tmp/cc1kFpjO.s:169    .text:00000000000000d0 .L0 
     /tmp/cc1kFpjO.s:172    .text:00000000000000d8 .L0 
     /tmp/cc1kFpjO.s:176    .text:00000000000000e4 .L0 
     /tmp/cc1kFpjO.s:177    .text:00000000000000e8 .L0 
     /tmp/cc1kFpjO.s:178    .text:00000000000000e8 .L0 
     /tmp/cc1kFpjO.s:180    .text:00000000000000ec .L0 
     /tmp/cc1kFpjO.s:181    .text:00000000000000ec .L0 
     /tmp/cc1kFpjO.s:183    .text:00000000000000f0 .L0 
     /tmp/cc1kFpjO.s:186    .text:00000000000000f4 .L0 
     /tmp/cc1kFpjO.s:190    .text:00000000000000f8 .L0 
     /tmp/cc1kFpjO.s:192    .text:00000000000000f8 .L0 
     /tmp/cc1kFpjO.s:193    .text:00000000000000f8 .L0 
     /tmp/cc1kFpjO.s:198    .text:000000000000010c .L0 
     /tmp/cc1kFpjO.s:204    .text:000000000000010c _Z12printIntegerm
     /tmp/cc1kFpjO.s:207    .text:000000000000010c .L0 
     /tmp/cc1kFpjO.s:209    .text:000000000000010c .L0 
     /tmp/cc1kFpjO.s:210    .text:0000000000000110 .L0 
     /tmp/cc1kFpjO.s:213    .text:0000000000000118 .L0 
     /tmp/cc1kFpjO.s:214    .text:0000000000000118 .L0 
     /tmp/cc1kFpjO.s:216    .text:000000000000011c .L0 
     /tmp/cc1kFpjO.s:218    .text:000000000000011c .L0 
     /tmp/cc1kFpjO.s:219    .text:000000000000011c .L0 
     /tmp/cc1kFpjO.s:222    .text:0000000000000124 .L0 
     /tmp/cc1kFpjO.s:223    .text:0000000000000124 .L0 
     /tmp/cc1kFpjO.s:227    .text:0000000000000130 .L0 
     /tmp/cc1kFpjO.s:228    .text:0000000000000134 .L0 
     /tmp/cc1kFpjO.s:230    .text:0000000000000138 .L0 
     /tmp/cc1kFpjO.s:231    .text:0000000000000138 .L0 
     /tmp/cc1kFpjO.s:233    .text:000000000000013c .L0 
     /tmp/cc1kFpjO.s:235    .text:0000000000000140 .L0 
     /tmp/cc1kFpjO.s:270    .text:0000000000000140 _Z10mallocFreev
     /tmp/cc1kFpjO.s:273    .text:0000000000000140 .L0 
     /tmp/cc1kFpjO.s:274    .text:0000000000000140 .L0 
     /tmp/cc1kFpjO.s:275    .text:0000000000000144 .L0 
     /tmp/cc1kFpjO.s:278    .text:000000000000014c .L0 
     /tmp/cc1kFpjO.s:279    .text:000000000000014c .L0 
     /tmp/cc1kFpjO.s:281    .text:0000000000000150 .L0 
     /tmp/cc1kFpjO.s:283    .text:0000000000000150 .L0 
     /tmp/cc1kFpjO.s:284    .text:0000000000000150 .L0 
     /tmp/cc1kFpjO.s:289    .text:0000000000000160 .L0 
     /tmp/cc1kFpjO.s:298    .text:0000000000000168 .L0 
     /tmp/cc1kFpjO.s:306    .text:0000000000000170 .L0 
GAS LISTING /tmp/cc1kFpjO.s 			page 82


     /tmp/cc1kFpjO.s:307    .text:0000000000000170 .L0 
     /tmp/cc1kFpjO.s:313    .text:0000000000000180 .L0 
     /tmp/cc1kFpjO.s:314    .text:0000000000000180 .L0 
     /tmp/cc1kFpjO.s:317    .text:0000000000000184 .L0 
     /tmp/cc1kFpjO.s:318    .text:0000000000000184 .L0 
     /tmp/cc1kFpjO.s:320    .text:0000000000000188 .L0 
     /tmp/cc1kFpjO.s:321    .text:0000000000000188 .L0 
     /tmp/cc1kFpjO.s:323    .text:000000000000018c .L0 
     /tmp/cc1kFpjO.s:324    .text:000000000000018c .L0 
     /tmp/cc1kFpjO.s:326    .text:0000000000000190 .L0 
     /tmp/cc1kFpjO.s:328    .text:0000000000000194 .L0 
     /tmp/cc1kFpjO.s:329    .text:0000000000000194 .L0 
     /tmp/cc1kFpjO.s:332    .text:0000000000000198 .L0 
     /tmp/cc1kFpjO.s:333    .text:0000000000000198 .L0 
     /tmp/cc1kFpjO.s:335    .text:000000000000019c .L0 
     /tmp/cc1kFpjO.s:337    .text:00000000000001a0 .L0 
     /tmp/cc1kFpjO.s:338    .text:00000000000001a0 .L0 
     /tmp/cc1kFpjO.s:341    .text:00000000000001a4 .L0 
     /tmp/cc1kFpjO.s:342    .text:00000000000001a4 .L0 
     /tmp/cc1kFpjO.s:344    .text:00000000000001a8 .L0 
     /tmp/cc1kFpjO.s:346    .text:00000000000001ac .L0 
     /tmp/cc1kFpjO.s:347    .text:00000000000001ac .L0 
     /tmp/cc1kFpjO.s:349    .text:00000000000001b0 .L0 
     /tmp/cc1kFpjO.s:351    .text:00000000000001b4 .L0 
     /tmp/cc1kFpjO.s:352    .text:00000000000001b4 .L0 
     /tmp/cc1kFpjO.s:355    .text:00000000000001b8 .L0 
     /tmp/cc1kFpjO.s:357    .text:00000000000001bc .L0 
     /tmp/cc1kFpjO.s:359    .text:00000000000001c0 .L0 
     /tmp/cc1kFpjO.s:360    .text:00000000000001c0 .L0 
     /tmp/cc1kFpjO.s:362    .text:00000000000001c4 .L0 
     /tmp/cc1kFpjO.s:365    .text:00000000000001d0 .L0 
     /tmp/cc1kFpjO.s:366    .text:00000000000001d0 .L0 
     /tmp/cc1kFpjO.s:368    .text:00000000000001d4 .L0 
     /tmp/cc1kFpjO.s:370    .text:00000000000001d8 .L0 
     /tmp/cc1kFpjO.s:371    .text:00000000000001d8 .L0 
     /tmp/cc1kFpjO.s:373    .text:00000000000001dc .L0 
     /tmp/cc1kFpjO.s:374    .text:00000000000001dc .L0 
     /tmp/cc1kFpjO.s:376    .text:00000000000001e0 .L0 
     /tmp/cc1kFpjO.s:377    .text:00000000000001e0 .L0 
     /tmp/cc1kFpjO.s:387    .text:00000000000001e4 .L0 
     /tmp/cc1kFpjO.s:392    .text:00000000000001f4 .L0 
     /tmp/cc1kFpjO.s:394    .text:00000000000001f8 .L0 
     /tmp/cc1kFpjO.s:398    .text:00000000000001fc .L0 
     /tmp/cc1kFpjO.s:403    .text:0000000000000204 .L0 
     /tmp/cc1kFpjO.s:407    .text:0000000000000204 .L0 
     /tmp/cc1kFpjO.s:408    .text:0000000000000204 .L0 
     /tmp/cc1kFpjO.s:410    .text:0000000000000204 .L0 
     /tmp/cc1kFpjO.s:411    .text:0000000000000204 .L0 
     /tmp/cc1kFpjO.s:416    .text:0000000000000210 .L0 
     /tmp/cc1kFpjO.s:419    .text:0000000000000214 .L0 
     /tmp/cc1kFpjO.s:420    .text:0000000000000214 .L0 
     /tmp/cc1kFpjO.s:424    .text:0000000000000224 .L0 
     /tmp/cc1kFpjO.s:426    .text:0000000000000228 .L0 
     /tmp/cc1kFpjO.s:427    .text:0000000000000228 .L0 
     /tmp/cc1kFpjO.s:430    .text:0000000000000230 .L0 
     /tmp/cc1kFpjO.s:432    .text:0000000000000234 .L0 
     /tmp/cc1kFpjO.s:433    .text:0000000000000234 .L0 
GAS LISTING /tmp/cc1kFpjO.s 			page 83


     /tmp/cc1kFpjO.s:435    .text:0000000000000238 .L0 
     /tmp/cc1kFpjO.s:439    .text:0000000000000240 .L0 
     /tmp/cc1kFpjO.s:440    .text:0000000000000240 .L0 
     /tmp/cc1kFpjO.s:442    .text:0000000000000244 .L0 
     /tmp/cc1kFpjO.s:445    .text:000000000000024c .L0 
     /tmp/cc1kFpjO.s:447    .text:0000000000000250 .L0 
     /tmp/cc1kFpjO.s:448    .text:0000000000000250 .L0 
     /tmp/cc1kFpjO.s:451    .text:0000000000000254 .L0 
     /tmp/cc1kFpjO.s:452    .text:0000000000000254 .L0 
     /tmp/cc1kFpjO.s:454    .text:0000000000000258 .L0 
     /tmp/cc1kFpjO.s:456    .text:000000000000025c .L0 
     /tmp/cc1kFpjO.s:457    .text:000000000000025c .L0 
     /tmp/cc1kFpjO.s:459    .text:0000000000000260 .L0 
     /tmp/cc1kFpjO.s:461    .text:0000000000000264 .L0 
     /tmp/cc1kFpjO.s:462    .text:0000000000000264 .L0 
     /tmp/cc1kFpjO.s:467    .text:0000000000000268 .L0 
     /tmp/cc1kFpjO.s:468    .text:0000000000000268 .L0 
     /tmp/cc1kFpjO.s:470    .text:000000000000026c .L0 
     /tmp/cc1kFpjO.s:482    .text:000000000000027c .L0 
     /tmp/cc1kFpjO.s:483    .text:000000000000027c .L0 
     /tmp/cc1kFpjO.s:489    .text:000000000000028c .L0 
     /tmp/cc1kFpjO.s:490    .text:000000000000028c .L0 
     /tmp/cc1kFpjO.s:491    .text:0000000000000290 .L0 
     /tmp/cc1kFpjO.s:492    .text:0000000000000290 .L0 
     /tmp/cc1kFpjO.s:494    .text:0000000000000294 .L0 
     /tmp/cc1kFpjO.s:495    .text:0000000000000294 .L0 
     /tmp/cc1kFpjO.s:497    .text:0000000000000298 .L0 
     /tmp/cc1kFpjO.s:501    .text:000000000000029c .L0 
     /tmp/cc1kFpjO.s:503    .text:000000000000029c .L0 
     /tmp/cc1kFpjO.s:504    .text:000000000000029c .L0 
     /tmp/cc1kFpjO.s:509    .text:00000000000002ac .L0 
     /tmp/cc1kFpjO.s:517    .text:00000000000002b4 .L0 
     /tmp/cc1kFpjO.s:524    .text:00000000000002c0 .L0 
     /tmp/cc1kFpjO.s:525    .text:00000000000002c0 .L0 
     /tmp/cc1kFpjO.s:526    .text:00000000000002c0 .L0 
     /tmp/cc1kFpjO.s:528    .text:00000000000002c4 .L0 
     /tmp/cc1kFpjO.s:534    .text:00000000000002c4 .L0 
     /tmp/cc1kFpjO.s:539    .text:00000000000002c4 .L0 
     /tmp/cc1kFpjO.s:540    .text:00000000000002c4 .L0 
     /tmp/cc1kFpjO.s:543    .text:00000000000002cc .L0 
     /tmp/cc1kFpjO.s:544    .text:00000000000002cc .L0 
     /tmp/cc1kFpjO.s:546    .text:00000000000002d0 .L0 
     /tmp/cc1kFpjO.s:548    .text:00000000000002d4 .L0 
     /tmp/cc1kFpjO.s:549    .text:00000000000002d4 .L0 
     /tmp/cc1kFpjO.s:551    .text:00000000000002d8 .L0 
     /tmp/cc1kFpjO.s:554    .text:00000000000002dc .L0 
     /tmp/cc1kFpjO.s:555    .text:00000000000002dc .L0 
     /tmp/cc1kFpjO.s:557    .text:00000000000002e0 .L0 
     /tmp/cc1kFpjO.s:559    .text:00000000000002e4 .L0 
     /tmp/cc1kFpjO.s:560    .text:00000000000002e4 .L0 
     /tmp/cc1kFpjO.s:563    .text:00000000000002e8 .L0 
     /tmp/cc1kFpjO.s:565    .text:00000000000002ec .L0 
     /tmp/cc1kFpjO.s:566    .text:00000000000002ec .L0 
     /tmp/cc1kFpjO.s:572    .text:00000000000002f0 .L0 
     /tmp/cc1kFpjO.s:573    .text:00000000000002f0 .L0 
     /tmp/cc1kFpjO.s:575    .text:00000000000002f4 .L0 
     /tmp/cc1kFpjO.s:576    .text:00000000000002f4 .L0 
GAS LISTING /tmp/cc1kFpjO.s 			page 84


     /tmp/cc1kFpjO.s:578    .text:00000000000002f8 .L0 
     /tmp/cc1kFpjO.s:580    .text:00000000000002fc .L0 
     /tmp/cc1kFpjO.s:582    .text:0000000000000300 .L0 
     /tmp/cc1kFpjO.s:584    .text:0000000000000304 .L0 
     /tmp/cc1kFpjO.s:592    .text:0000000000000308 .L0 
     /tmp/cc1kFpjO.s:593    .text:0000000000000308 .L0 
     /tmp/cc1kFpjO.s:595    .text:000000000000030c .L0 
     /tmp/cc1kFpjO.s:596    .text:000000000000030c .L0 
     /tmp/cc1kFpjO.s:598    .text:0000000000000310 .L0 
     /tmp/cc1kFpjO.s:600    .text:0000000000000314 .L0 
     /tmp/cc1kFpjO.s:602    .text:0000000000000318 .L0 
     /tmp/cc1kFpjO.s:604    .text:000000000000031c .L0 
     /tmp/cc1kFpjO.s:610    .text:0000000000000320 .L0 
     /tmp/cc1kFpjO.s:612    .text:0000000000000324 .L0 
     /tmp/cc1kFpjO.s:618    .text:0000000000000328 .L0 
     /tmp/cc1kFpjO.s:621    .text:000000000000032c .L0 
     /tmp/cc1kFpjO.s:622    .text:000000000000032c .L0 
     /tmp/cc1kFpjO.s:626    .text:0000000000000330 .L0 
     /tmp/cc1kFpjO.s:630    .text:0000000000000338 .L0 
     /tmp/cc1kFpjO.s:631    .text:0000000000000338 .L0 
     /tmp/cc1kFpjO.s:639    .text:0000000000000348 .L0 
     /tmp/cc1kFpjO.s:640    .text:0000000000000348 .L0 
     /tmp/cc1kFpjO.s:641    .text:0000000000000348 .L0 
     /tmp/cc1kFpjO.s:644    .text:0000000000000354 .L0 
     /tmp/cc1kFpjO.s:646    .text:0000000000000358 .L0 
     /tmp/cc1kFpjO.s:650    .text:000000000000035c .L0 
     /tmp/cc1kFpjO.s:652    .text:0000000000000360 .L0 
     /tmp/cc1kFpjO.s:655    .text:0000000000000364 .L0 
     /tmp/cc1kFpjO.s:661    .text:0000000000000370 .L0 
     /tmp/cc1kFpjO.s:662    .text:0000000000000370 .L0 
     /tmp/cc1kFpjO.s:668    .text:0000000000000384 .L0 
     /tmp/cc1kFpjO.s:669    .text:0000000000000384 .L0 
     /tmp/cc1kFpjO.s:677    .text:0000000000000394 .L0 
     /tmp/cc1kFpjO.s:678    .text:0000000000000394 .L0 
     /tmp/cc1kFpjO.s:680    .text:0000000000000398 .L0 
     /tmp/cc1kFpjO.s:683    .text:00000000000003a0 .L0 
     /tmp/cc1kFpjO.s:684    .text:00000000000003a0 .L0 
     /tmp/cc1kFpjO.s:686    .text:00000000000003a4 .L0 
     /tmp/cc1kFpjO.s:688    .text:00000000000003a8 .L0 
     /tmp/cc1kFpjO.s:690    .text:00000000000003ac .L0 
     /tmp/cc1kFpjO.s:691    .text:00000000000003ac .L0 
     /tmp/cc1kFpjO.s:700    .text:00000000000003b4 .L0 
     /tmp/cc1kFpjO.s:701    .text:00000000000003b4 .L0 
     /tmp/cc1kFpjO.s:703    .text:00000000000003b8 .L0 
     /tmp/cc1kFpjO.s:706    .text:00000000000003c0 .L0 
     /tmp/cc1kFpjO.s:707    .text:00000000000003c0 .L0 
     /tmp/cc1kFpjO.s:709    .text:00000000000003c4 .L0 
     /tmp/cc1kFpjO.s:711    .text:00000000000003c8 .L0 
     /tmp/cc1kFpjO.s:713    .text:00000000000003cc .L0 
     /tmp/cc1kFpjO.s:714    .text:00000000000003cc .L0 
     /tmp/cc1kFpjO.s:721    .text:00000000000003d4 .L0 
     /tmp/cc1kFpjO.s:728    .text:00000000000003dc .L0 
     /tmp/cc1kFpjO.s:729    .text:00000000000003dc .L0 
     /tmp/cc1kFpjO.s:733    .text:00000000000003ec .L0 
     /tmp/cc1kFpjO.s:739    .text:00000000000003f0 .L0 
     /tmp/cc1kFpjO.s:740    .text:00000000000003f0 .L0 
     /tmp/cc1kFpjO.s:745    .text:0000000000000400 .L0 
GAS LISTING /tmp/cc1kFpjO.s 			page 85


     /tmp/cc1kFpjO.s:753    .text:0000000000000408 .L0 
     /tmp/cc1kFpjO.s:761    .text:0000000000000410 .L0 
     /tmp/cc1kFpjO.s:762    .text:0000000000000410 .L0 
     /tmp/cc1kFpjO.s:768    .text:0000000000000420 .L0 
     /tmp/cc1kFpjO.s:769    .text:0000000000000420 .L0 
     /tmp/cc1kFpjO.s:772    .text:0000000000000424 .L0 
     /tmp/cc1kFpjO.s:773    .text:0000000000000424 .L0 
     /tmp/cc1kFpjO.s:775    .text:0000000000000428 .L0 
     /tmp/cc1kFpjO.s:776    .text:0000000000000428 .L0 
     /tmp/cc1kFpjO.s:778    .text:000000000000042c .L0 
     /tmp/cc1kFpjO.s:779    .text:000000000000042c .L0 
     /tmp/cc1kFpjO.s:781    .text:0000000000000430 .L0 
     /tmp/cc1kFpjO.s:783    .text:0000000000000434 .L0 
     /tmp/cc1kFpjO.s:784    .text:0000000000000434 .L0 
     /tmp/cc1kFpjO.s:787    .text:0000000000000438 .L0 
     /tmp/cc1kFpjO.s:788    .text:0000000000000438 .L0 
     /tmp/cc1kFpjO.s:790    .text:000000000000043c .L0 
     /tmp/cc1kFpjO.s:792    .text:0000000000000440 .L0 
     /tmp/cc1kFpjO.s:793    .text:0000000000000440 .L0 
     /tmp/cc1kFpjO.s:796    .text:0000000000000444 .L0 
     /tmp/cc1kFpjO.s:797    .text:0000000000000444 .L0 
     /tmp/cc1kFpjO.s:799    .text:0000000000000448 .L0 
     /tmp/cc1kFpjO.s:801    .text:000000000000044c .L0 
     /tmp/cc1kFpjO.s:802    .text:000000000000044c .L0 
     /tmp/cc1kFpjO.s:804    .text:0000000000000450 .L0 
     /tmp/cc1kFpjO.s:806    .text:0000000000000454 .L0 
     /tmp/cc1kFpjO.s:807    .text:0000000000000454 .L0 
     /tmp/cc1kFpjO.s:810    .text:0000000000000458 .L0 
     /tmp/cc1kFpjO.s:812    .text:000000000000045c .L0 
     /tmp/cc1kFpjO.s:814    .text:0000000000000460 .L0 
     /tmp/cc1kFpjO.s:815    .text:0000000000000460 .L0 
     /tmp/cc1kFpjO.s:817    .text:0000000000000464 .L0 
     /tmp/cc1kFpjO.s:820    .text:0000000000000470 .L0 
     /tmp/cc1kFpjO.s:821    .text:0000000000000470 .L0 
     /tmp/cc1kFpjO.s:823    .text:0000000000000474 .L0 
     /tmp/cc1kFpjO.s:825    .text:0000000000000478 .L0 
     /tmp/cc1kFpjO.s:826    .text:0000000000000478 .L0 
     /tmp/cc1kFpjO.s:828    .text:000000000000047c .L0 
     /tmp/cc1kFpjO.s:829    .text:000000000000047c .L0 
     /tmp/cc1kFpjO.s:831    .text:0000000000000480 .L0 
     /tmp/cc1kFpjO.s:832    .text:0000000000000480 .L0 
     /tmp/cc1kFpjO.s:842    .text:0000000000000484 .L0 
     /tmp/cc1kFpjO.s:847    .text:0000000000000494 .L0 
     /tmp/cc1kFpjO.s:849    .text:0000000000000498 .L0 
     /tmp/cc1kFpjO.s:850    .text:0000000000000498 .L0 
     /tmp/cc1kFpjO.s:854    .text:000000000000049c .L0 
     /tmp/cc1kFpjO.s:859    .text:00000000000004a4 .L0 
     /tmp/cc1kFpjO.s:863    .text:00000000000004a4 .L0 
     /tmp/cc1kFpjO.s:864    .text:00000000000004a4 .L0 
     /tmp/cc1kFpjO.s:866    .text:00000000000004a4 .L0 
     /tmp/cc1kFpjO.s:867    .text:00000000000004a4 .L0 
     /tmp/cc1kFpjO.s:872    .text:00000000000004b0 .L0 
     /tmp/cc1kFpjO.s:875    .text:00000000000004b4 .L0 
     /tmp/cc1kFpjO.s:876    .text:00000000000004b4 .L0 
     /tmp/cc1kFpjO.s:880    .text:00000000000004c4 .L0 
     /tmp/cc1kFpjO.s:882    .text:00000000000004c8 .L0 
     /tmp/cc1kFpjO.s:883    .text:00000000000004c8 .L0 
GAS LISTING /tmp/cc1kFpjO.s 			page 86


     /tmp/cc1kFpjO.s:886    .text:00000000000004d0 .L0 
     /tmp/cc1kFpjO.s:888    .text:00000000000004d4 .L0 
     /tmp/cc1kFpjO.s:889    .text:00000000000004d4 .L0 
     /tmp/cc1kFpjO.s:891    .text:00000000000004d8 .L0 
     /tmp/cc1kFpjO.s:895    .text:00000000000004e0 .L0 
     /tmp/cc1kFpjO.s:896    .text:00000000000004e0 .L0 
     /tmp/cc1kFpjO.s:898    .text:00000000000004e4 .L0 
     /tmp/cc1kFpjO.s:901    .text:00000000000004ec .L0 
     /tmp/cc1kFpjO.s:903    .text:00000000000004f0 .L0 
     /tmp/cc1kFpjO.s:904    .text:00000000000004f0 .L0 
     /tmp/cc1kFpjO.s:907    .text:00000000000004f4 .L0 
     /tmp/cc1kFpjO.s:908    .text:00000000000004f4 .L0 
     /tmp/cc1kFpjO.s:910    .text:00000000000004f8 .L0 
     /tmp/cc1kFpjO.s:912    .text:00000000000004fc .L0 
     /tmp/cc1kFpjO.s:913    .text:00000000000004fc .L0 
     /tmp/cc1kFpjO.s:915    .text:0000000000000500 .L0 
     /tmp/cc1kFpjO.s:917    .text:0000000000000504 .L0 
     /tmp/cc1kFpjO.s:918    .text:0000000000000504 .L0 
     /tmp/cc1kFpjO.s:923    .text:0000000000000508 .L0 
     /tmp/cc1kFpjO.s:924    .text:0000000000000508 .L0 
     /tmp/cc1kFpjO.s:926    .text:000000000000050c .L0 
     /tmp/cc1kFpjO.s:938    .text:000000000000051c .L0 
     /tmp/cc1kFpjO.s:939    .text:000000000000051c .L0 
     /tmp/cc1kFpjO.s:943    .text:000000000000052c .L0 
     /tmp/cc1kFpjO.s:944    .text:000000000000052c .L0 
     /tmp/cc1kFpjO.s:949    .text:0000000000000530 .L0 
     /tmp/cc1kFpjO.s:950    .text:0000000000000530 .L0 
     /tmp/cc1kFpjO.s:955    .text:0000000000000540 .L0 
     /tmp/cc1kFpjO.s:963    .text:0000000000000548 .L0 
     /tmp/cc1kFpjO.s:970    .text:0000000000000554 .L0 
     /tmp/cc1kFpjO.s:971    .text:0000000000000554 .L0 
     /tmp/cc1kFpjO.s:972    .text:0000000000000554 .L0 
     /tmp/cc1kFpjO.s:974    .text:0000000000000558 .L0 
     /tmp/cc1kFpjO.s:980    .text:0000000000000558 .L0 
     /tmp/cc1kFpjO.s:985    .text:0000000000000558 .L0 
     /tmp/cc1kFpjO.s:986    .text:0000000000000558 .L0 
     /tmp/cc1kFpjO.s:989    .text:0000000000000560 .L0 
     /tmp/cc1kFpjO.s:990    .text:0000000000000560 .L0 
     /tmp/cc1kFpjO.s:992    .text:0000000000000564 .L0 
     /tmp/cc1kFpjO.s:994    .text:0000000000000568 .L0 
     /tmp/cc1kFpjO.s:995    .text:0000000000000568 .L0 
     /tmp/cc1kFpjO.s:997    .text:000000000000056c .L0 
     /tmp/cc1kFpjO.s:1000   .text:0000000000000570 .L0 
     /tmp/cc1kFpjO.s:1001   .text:0000000000000570 .L0 
     /tmp/cc1kFpjO.s:1003   .text:0000000000000574 .L0 
     /tmp/cc1kFpjO.s:1005   .text:0000000000000578 .L0 
     /tmp/cc1kFpjO.s:1006   .text:0000000000000578 .L0 
     /tmp/cc1kFpjO.s:1009   .text:000000000000057c .L0 
     /tmp/cc1kFpjO.s:1011   .text:0000000000000580 .L0 
     /tmp/cc1kFpjO.s:1012   .text:0000000000000580 .L0 
     /tmp/cc1kFpjO.s:1018   .text:0000000000000584 .L0 
     /tmp/cc1kFpjO.s:1019   .text:0000000000000584 .L0 
     /tmp/cc1kFpjO.s:1021   .text:0000000000000588 .L0 
     /tmp/cc1kFpjO.s:1022   .text:0000000000000588 .L0 
     /tmp/cc1kFpjO.s:1024   .text:000000000000058c .L0 
     /tmp/cc1kFpjO.s:1026   .text:0000000000000590 .L0 
     /tmp/cc1kFpjO.s:1028   .text:0000000000000594 .L0 
GAS LISTING /tmp/cc1kFpjO.s 			page 87


     /tmp/cc1kFpjO.s:1030   .text:0000000000000598 .L0 
     /tmp/cc1kFpjO.s:1038   .text:000000000000059c .L0 
     /tmp/cc1kFpjO.s:1039   .text:000000000000059c .L0 
     /tmp/cc1kFpjO.s:1041   .text:00000000000005a0 .L0 
     /tmp/cc1kFpjO.s:1042   .text:00000000000005a0 .L0 
     /tmp/cc1kFpjO.s:1044   .text:00000000000005a4 .L0 
     /tmp/cc1kFpjO.s:1046   .text:00000000000005a8 .L0 
     /tmp/cc1kFpjO.s:1048   .text:00000000000005ac .L0 
     /tmp/cc1kFpjO.s:1050   .text:00000000000005b0 .L0 
     /tmp/cc1kFpjO.s:1056   .text:00000000000005b4 .L0 
     /tmp/cc1kFpjO.s:1058   .text:00000000000005b8 .L0 
     /tmp/cc1kFpjO.s:1064   .text:00000000000005bc .L0 
     /tmp/cc1kFpjO.s:1067   .text:00000000000005c0 .L0 
     /tmp/cc1kFpjO.s:1071   .text:00000000000005c4 .L0 
     /tmp/cc1kFpjO.s:1075   .text:00000000000005cc .L0 
     /tmp/cc1kFpjO.s:1076   .text:00000000000005cc .L0 
     /tmp/cc1kFpjO.s:1084   .text:00000000000005dc .L0 
     /tmp/cc1kFpjO.s:1085   .text:00000000000005dc .L0 
     /tmp/cc1kFpjO.s:1086   .text:00000000000005dc .L0 
     /tmp/cc1kFpjO.s:1089   .text:00000000000005e8 .L0 
     /tmp/cc1kFpjO.s:1091   .text:00000000000005ec .L0 
     /tmp/cc1kFpjO.s:1095   .text:00000000000005f0 .L0 
     /tmp/cc1kFpjO.s:1097   .text:00000000000005f4 .L0 
     /tmp/cc1kFpjO.s:1100   .text:00000000000005f8 .L0 
     /tmp/cc1kFpjO.s:1106   .text:0000000000000604 .L0 
     /tmp/cc1kFpjO.s:1107   .text:0000000000000604 .L0 
     /tmp/cc1kFpjO.s:1113   .text:0000000000000618 .L0 
     /tmp/cc1kFpjO.s:1114   .text:0000000000000618 .L0 
     /tmp/cc1kFpjO.s:1122   .text:0000000000000628 .L0 
     /tmp/cc1kFpjO.s:1123   .text:0000000000000628 .L0 
     /tmp/cc1kFpjO.s:1125   .text:000000000000062c .L0 
     /tmp/cc1kFpjO.s:1128   .text:0000000000000634 .L0 
     /tmp/cc1kFpjO.s:1129   .text:0000000000000634 .L0 
     /tmp/cc1kFpjO.s:1131   .text:0000000000000638 .L0 
     /tmp/cc1kFpjO.s:1133   .text:000000000000063c .L0 
     /tmp/cc1kFpjO.s:1135   .text:0000000000000640 .L0 
     /tmp/cc1kFpjO.s:1136   .text:0000000000000640 .L0 
     /tmp/cc1kFpjO.s:1145   .text:0000000000000648 .L0 
     /tmp/cc1kFpjO.s:1146   .text:0000000000000648 .L0 
     /tmp/cc1kFpjO.s:1148   .text:000000000000064c .L0 
     /tmp/cc1kFpjO.s:1151   .text:0000000000000654 .L0 
     /tmp/cc1kFpjO.s:1152   .text:0000000000000654 .L0 
     /tmp/cc1kFpjO.s:1154   .text:0000000000000658 .L0 
     /tmp/cc1kFpjO.s:1156   .text:000000000000065c .L0 
     /tmp/cc1kFpjO.s:1158   .text:0000000000000660 .L0 
     /tmp/cc1kFpjO.s:1159   .text:0000000000000660 .L0 
     /tmp/cc1kFpjO.s:1166   .text:0000000000000668 .L0 
     /tmp/cc1kFpjO.s:1173   .text:0000000000000670 .L0 
     /tmp/cc1kFpjO.s:1174   .text:0000000000000670 .L0 
     /tmp/cc1kFpjO.s:1178   .text:0000000000000680 .L0 
     /tmp/cc1kFpjO.s:1179   .text:0000000000000680 .L0 
     /tmp/cc1kFpjO.s:1185   .text:0000000000000684 .L0 
     /tmp/cc1kFpjO.s:1186   .text:0000000000000684 .L0 
     /tmp/cc1kFpjO.s:1190   .text:0000000000000694 .L0 
     /tmp/cc1kFpjO.s:1191   .text:0000000000000698 .L0 
     /tmp/cc1kFpjO.s:1205   .text:0000000000000698 _Z9bigMallocv
     /tmp/cc1kFpjO.s:1208   .text:0000000000000698 .L0 
GAS LISTING /tmp/cc1kFpjO.s 			page 88


     /tmp/cc1kFpjO.s:1209   .text:0000000000000698 .L0 
     /tmp/cc1kFpjO.s:1210   .text:000000000000069c .L0 
     /tmp/cc1kFpjO.s:1213   .text:00000000000006a4 .L0 
     /tmp/cc1kFpjO.s:1214   .text:00000000000006a4 .L0 
     /tmp/cc1kFpjO.s:1216   .text:00000000000006a8 .L0 
     /tmp/cc1kFpjO.s:1218   .text:00000000000006a8 .L0 
     /tmp/cc1kFpjO.s:1219   .text:00000000000006a8 .L0 
     /tmp/cc1kFpjO.s:1223   .text:00000000000006b8 .L0 
     /tmp/cc1kFpjO.s:1224   .text:00000000000006b8 .L0 
     /tmp/cc1kFpjO.s:1225   .text:00000000000006b8 .L0 
     /tmp/cc1kFpjO.s:1231   .text:00000000000006d4 .L0 
     /tmp/cc1kFpjO.s:1236   .text:00000000000006d8 .L0 
     /tmp/cc1kFpjO.s:1237   .text:00000000000006d8 .L0 
     /tmp/cc1kFpjO.s:1238   .text:00000000000006d8 .L0 
     /tmp/cc1kFpjO.s:1241   .text:00000000000006dc .L0 
     /tmp/cc1kFpjO.s:1245   .text:00000000000006e0 .L0 
     /tmp/cc1kFpjO.s:1246   .text:00000000000006e0 .L0 
     /tmp/cc1kFpjO.s:1252   .text:00000000000006ec .L0 
     /tmp/cc1kFpjO.s:1255   .text:00000000000006f0 .L0 
     /tmp/cc1kFpjO.s:1256   .text:00000000000006f0 .L0 
     /tmp/cc1kFpjO.s:1260   .text:0000000000000700 .L0 
     /tmp/cc1kFpjO.s:1262   .text:0000000000000704 .L0 
     /tmp/cc1kFpjO.s:1263   .text:0000000000000704 .L0 
     /tmp/cc1kFpjO.s:1266   .text:000000000000070c .L0 
     /tmp/cc1kFpjO.s:1268   .text:0000000000000710 .L0 
     /tmp/cc1kFpjO.s:1269   .text:0000000000000710 .L0 
     /tmp/cc1kFpjO.s:1271   .text:0000000000000714 .L0 
     /tmp/cc1kFpjO.s:1274   .text:0000000000000718 .L0 
     /tmp/cc1kFpjO.s:1275   .text:0000000000000718 .L0 
     /tmp/cc1kFpjO.s:1277   .text:000000000000071c .L0 
     /tmp/cc1kFpjO.s:1280   .text:0000000000000724 .L0 
     /tmp/cc1kFpjO.s:1282   .text:0000000000000728 .L0 
     /tmp/cc1kFpjO.s:1283   .text:0000000000000728 .L0 
     /tmp/cc1kFpjO.s:1287   .text:000000000000072c .L0 
     /tmp/cc1kFpjO.s:1288   .text:000000000000072c .L0 
     /tmp/cc1kFpjO.s:1290   .text:0000000000000730 .L0 
     /tmp/cc1kFpjO.s:1292   .text:0000000000000734 .L0 
     /tmp/cc1kFpjO.s:1293   .text:0000000000000734 .L0 
     /tmp/cc1kFpjO.s:1295   .text:0000000000000738 .L0 
     /tmp/cc1kFpjO.s:1297   .text:000000000000073c .L0 
     /tmp/cc1kFpjO.s:1298   .text:000000000000073c .L0 
     /tmp/cc1kFpjO.s:1304   .text:0000000000000740 .L0 
     /tmp/cc1kFpjO.s:1312   .text:0000000000000748 .L0 
     /tmp/cc1kFpjO.s:1313   .text:0000000000000748 .L0 
     /tmp/cc1kFpjO.s:1321   .text:0000000000000758 .L0 
     /tmp/cc1kFpjO.s:1322   .text:0000000000000758 .L0 
     /tmp/cc1kFpjO.s:1325   .text:000000000000075c .L0 
     /tmp/cc1kFpjO.s:1326   .text:000000000000075c .L0 
     /tmp/cc1kFpjO.s:1328   .text:0000000000000760 .L0 
     /tmp/cc1kFpjO.s:1329   .text:0000000000000760 .L0 
     /tmp/cc1kFpjO.s:1331   .text:0000000000000764 .L0 
     /tmp/cc1kFpjO.s:1332   .text:0000000000000764 .L0 
     /tmp/cc1kFpjO.s:1334   .text:0000000000000768 .L0 
     /tmp/cc1kFpjO.s:1336   .text:000000000000076c .L0 
     /tmp/cc1kFpjO.s:1337   .text:000000000000076c .L0 
     /tmp/cc1kFpjO.s:1340   .text:0000000000000770 .L0 
     /tmp/cc1kFpjO.s:1341   .text:0000000000000770 .L0 
GAS LISTING /tmp/cc1kFpjO.s 			page 89


     /tmp/cc1kFpjO.s:1343   .text:0000000000000774 .L0 
     /tmp/cc1kFpjO.s:1345   .text:0000000000000778 .L0 
     /tmp/cc1kFpjO.s:1346   .text:0000000000000778 .L0 
     /tmp/cc1kFpjO.s:1349   .text:000000000000077c .L0 
     /tmp/cc1kFpjO.s:1350   .text:000000000000077c .L0 
     /tmp/cc1kFpjO.s:1352   .text:0000000000000780 .L0 
     /tmp/cc1kFpjO.s:1354   .text:0000000000000784 .L0 
     /tmp/cc1kFpjO.s:1355   .text:0000000000000784 .L0 
     /tmp/cc1kFpjO.s:1357   .text:0000000000000788 .L0 
     /tmp/cc1kFpjO.s:1359   .text:000000000000078c .L0 
     /tmp/cc1kFpjO.s:1360   .text:000000000000078c .L0 
     /tmp/cc1kFpjO.s:1363   .text:0000000000000790 .L0 
     /tmp/cc1kFpjO.s:1366   .text:0000000000000794 .L0 
     /tmp/cc1kFpjO.s:1368   .text:0000000000000798 .L0 
     /tmp/cc1kFpjO.s:1369   .text:0000000000000798 .L0 
     /tmp/cc1kFpjO.s:1371   .text:000000000000079c .L0 
     /tmp/cc1kFpjO.s:1374   .text:00000000000007a8 .L0 
     /tmp/cc1kFpjO.s:1375   .text:00000000000007a8 .L0 
     /tmp/cc1kFpjO.s:1377   .text:00000000000007ac .L0 
     /tmp/cc1kFpjO.s:1379   .text:00000000000007b0 .L0 
     /tmp/cc1kFpjO.s:1380   .text:00000000000007b0 .L0 
     /tmp/cc1kFpjO.s:1382   .text:00000000000007b4 .L0 
     /tmp/cc1kFpjO.s:1383   .text:00000000000007b4 .L0 
     /tmp/cc1kFpjO.s:1385   .text:00000000000007b8 .L0 
     /tmp/cc1kFpjO.s:1386   .text:00000000000007b8 .L0 
     /tmp/cc1kFpjO.s:1396   .text:00000000000007bc .L0 
     /tmp/cc1kFpjO.s:1398   .text:00000000000007c0 .L0 
     /tmp/cc1kFpjO.s:1399   .text:00000000000007c0 .L0 
     /tmp/cc1kFpjO.s:1404   .text:00000000000007d0 .L0 
     /tmp/cc1kFpjO.s:1405   .text:00000000000007d4 .L0 
     /tmp/cc1kFpjO.s:1406   .text:00000000000007d4 .L0 
     /tmp/cc1kFpjO.s:1408   .text:00000000000007d8 .L0 
     /tmp/cc1kFpjO.s:1409   .text:00000000000007d8 .L0 
     /tmp/cc1kFpjO.s:1411   .text:00000000000007dc .L0 
     /tmp/cc1kFpjO.s:1415   .text:00000000000007e0 .L0 
     /tmp/cc1kFpjO.s:1423   .text:00000000000007e0 .L0 
     /tmp/cc1kFpjO.s:1424   .text:00000000000007e0 .L0 
     /tmp/cc1kFpjO.s:1426   .text:00000000000007e4 .L0 
     /tmp/cc1kFpjO.s:1438   .text:00000000000007f4 .L0 
     /tmp/cc1kFpjO.s:1439   .text:00000000000007f4 .L0 
     /tmp/cc1kFpjO.s:1443   .text:0000000000000808 .L0 
     /tmp/cc1kFpjO.s:1457   .text:0000000000000808 _Z17lotOfSmallMallocsv
     /tmp/cc1kFpjO.s:1460   .text:0000000000000808 .L0 
     /tmp/cc1kFpjO.s:1461   .text:0000000000000808 .L0 
     /tmp/cc1kFpjO.s:1462   .text:000000000000080c .L0 
     /tmp/cc1kFpjO.s:1467   .text:000000000000081c .L0 
     /tmp/cc1kFpjO.s:1468   .text:000000000000081c .L0 
     /tmp/cc1kFpjO.s:1469   .text:000000000000081c .L0 
     /tmp/cc1kFpjO.s:1470   .text:000000000000081c .L0 
     /tmp/cc1kFpjO.s:1472   .text:0000000000000820 .L0 
     /tmp/cc1kFpjO.s:1474   .text:0000000000000820 .L0 
     /tmp/cc1kFpjO.s:1475   .text:0000000000000820 .L0 
     /tmp/cc1kFpjO.s:1479   .text:0000000000000830 .L0 
     /tmp/cc1kFpjO.s:1480   .text:0000000000000830 .L0 
     /tmp/cc1kFpjO.s:1481   .text:0000000000000830 .L0 
     /tmp/cc1kFpjO.s:1482   .text:0000000000000830 .L0 
     /tmp/cc1kFpjO.s:1483   .text:0000000000000830 .L0 
GAS LISTING /tmp/cc1kFpjO.s 			page 90


     /tmp/cc1kFpjO.s:1485   .text:0000000000000830 .L0 
     /tmp/cc1kFpjO.s:1486   .text:0000000000000830 .L0 
     /tmp/cc1kFpjO.s:1489   .text:0000000000000834 .L0 
     /tmp/cc1kFpjO.s:1491   .text:0000000000000838 .L0 
     /tmp/cc1kFpjO.s:1501   .text:0000000000000840 .L0 
     /tmp/cc1kFpjO.s:1509   .text:0000000000000848 .L0 
     /tmp/cc1kFpjO.s:1510   .text:0000000000000848 .L0 
     /tmp/cc1kFpjO.s:1516   .text:0000000000000858 .L0 
     /tmp/cc1kFpjO.s:1517   .text:0000000000000858 .L0 
     /tmp/cc1kFpjO.s:1520   .text:000000000000085c .L0 
     /tmp/cc1kFpjO.s:1521   .text:000000000000085c .L0 
     /tmp/cc1kFpjO.s:1523   .text:0000000000000860 .L0 
     /tmp/cc1kFpjO.s:1524   .text:0000000000000860 .L0 
     /tmp/cc1kFpjO.s:1526   .text:0000000000000864 .L0 
     /tmp/cc1kFpjO.s:1527   .text:0000000000000864 .L0 
     /tmp/cc1kFpjO.s:1529   .text:0000000000000868 .L0 
     /tmp/cc1kFpjO.s:1531   .text:000000000000086c .L0 
     /tmp/cc1kFpjO.s:1532   .text:000000000000086c .L0 
     /tmp/cc1kFpjO.s:1535   .text:0000000000000870 .L0 
     /tmp/cc1kFpjO.s:1536   .text:0000000000000870 .L0 
     /tmp/cc1kFpjO.s:1538   .text:0000000000000874 .L0 
     /tmp/cc1kFpjO.s:1540   .text:0000000000000878 .L0 
     /tmp/cc1kFpjO.s:1541   .text:0000000000000878 .L0 
     /tmp/cc1kFpjO.s:1544   .text:000000000000087c .L0 
     /tmp/cc1kFpjO.s:1545   .text:000000000000087c .L0 
     /tmp/cc1kFpjO.s:1547   .text:0000000000000880 .L0 
     /tmp/cc1kFpjO.s:1549   .text:0000000000000884 .L0 
     /tmp/cc1kFpjO.s:1550   .text:0000000000000884 .L0 
     /tmp/cc1kFpjO.s:1552   .text:0000000000000888 .L0 
     /tmp/cc1kFpjO.s:1554   .text:000000000000088c .L0 
     /tmp/cc1kFpjO.s:1555   .text:000000000000088c .L0 
     /tmp/cc1kFpjO.s:1558   .text:0000000000000890 .L0 
     /tmp/cc1kFpjO.s:1560   .text:0000000000000894 .L0 
     /tmp/cc1kFpjO.s:1562   .text:0000000000000898 .L0 
     /tmp/cc1kFpjO.s:1563   .text:0000000000000898 .L0 
     /tmp/cc1kFpjO.s:1565   .text:000000000000089c .L0 
     /tmp/cc1kFpjO.s:1568   .text:00000000000008a8 .L0 
     /tmp/cc1kFpjO.s:1569   .text:00000000000008a8 .L0 
     /tmp/cc1kFpjO.s:1571   .text:00000000000008ac .L0 
     /tmp/cc1kFpjO.s:1573   .text:00000000000008b0 .L0 
     /tmp/cc1kFpjO.s:1574   .text:00000000000008b0 .L0 
     /tmp/cc1kFpjO.s:1576   .text:00000000000008b4 .L0 
     /tmp/cc1kFpjO.s:1577   .text:00000000000008b4 .L0 
     /tmp/cc1kFpjO.s:1579   .text:00000000000008b8 .L0 
     /tmp/cc1kFpjO.s:1580   .text:00000000000008b8 .L0 
     /tmp/cc1kFpjO.s:1590   .text:00000000000008bc .L0 
     /tmp/cc1kFpjO.s:1592   .text:00000000000008c0 .L0 
     /tmp/cc1kFpjO.s:1593   .text:00000000000008c0 .L0 
     /tmp/cc1kFpjO.s:1596   .text:00000000000008c8 .L0 
     /tmp/cc1kFpjO.s:1597   .text:00000000000008c8 .L0 
     /tmp/cc1kFpjO.s:1599   .text:00000000000008cc .L0 
     /tmp/cc1kFpjO.s:1600   .text:00000000000008cc .L0 
     /tmp/cc1kFpjO.s:1602   .text:00000000000008d0 .L0 
     /tmp/cc1kFpjO.s:1603   .text:00000000000008d0 .L0 
     /tmp/cc1kFpjO.s:1605   .text:00000000000008d4 .L0 
     /tmp/cc1kFpjO.s:1606   .text:00000000000008d4 .L0 
     /tmp/cc1kFpjO.s:1608   .text:00000000000008d8 .L0 
GAS LISTING /tmp/cc1kFpjO.s 			page 91


     /tmp/cc1kFpjO.s:1609   .text:00000000000008d8 .L0 
     /tmp/cc1kFpjO.s:1612   .text:00000000000008dc .L0 
     /tmp/cc1kFpjO.s:1613   .text:00000000000008dc .L0 
     /tmp/cc1kFpjO.s:1617   .text:00000000000008e0 .L0 
     /tmp/cc1kFpjO.s:1621   .text:00000000000008e4 .L0 
     /tmp/cc1kFpjO.s:1629   .text:00000000000008f0 .L0 
     /tmp/cc1kFpjO.s:1634   .text:00000000000008f0 .L0 
     /tmp/cc1kFpjO.s:1635   .text:00000000000008f0 .L0 
     /tmp/cc1kFpjO.s:1637   .text:00000000000008f0 .L0 
     /tmp/cc1kFpjO.s:1638   .text:00000000000008f0 .L0 
     /tmp/cc1kFpjO.s:1643   .text:00000000000008fc .L0 
     /tmp/cc1kFpjO.s:1646   .text:0000000000000900 .L0 
     /tmp/cc1kFpjO.s:1647   .text:0000000000000900 .L0 
     /tmp/cc1kFpjO.s:1651   .text:0000000000000910 .L0 
     /tmp/cc1kFpjO.s:1653   .text:0000000000000914 .L0 
     /tmp/cc1kFpjO.s:1654   .text:0000000000000914 .L0 
     /tmp/cc1kFpjO.s:1657   .text:000000000000091c .L0 
     /tmp/cc1kFpjO.s:1659   .text:0000000000000920 .L0 
     /tmp/cc1kFpjO.s:1660   .text:0000000000000920 .L0 
     /tmp/cc1kFpjO.s:1662   .text:0000000000000924 .L0 
     /tmp/cc1kFpjO.s:1666   .text:000000000000092c .L0 
     /tmp/cc1kFpjO.s:1667   .text:000000000000092c .L0 
     /tmp/cc1kFpjO.s:1669   .text:0000000000000930 .L0 
     /tmp/cc1kFpjO.s:1672   .text:0000000000000938 .L0 
     /tmp/cc1kFpjO.s:1674   .text:000000000000093c .L0 
     /tmp/cc1kFpjO.s:1675   .text:000000000000093c .L0 
     /tmp/cc1kFpjO.s:1678   .text:0000000000000940 .L0 
     /tmp/cc1kFpjO.s:1679   .text:0000000000000940 .L0 
     /tmp/cc1kFpjO.s:1681   .text:0000000000000944 .L0 
     /tmp/cc1kFpjO.s:1683   .text:0000000000000948 .L0 
     /tmp/cc1kFpjO.s:1684   .text:0000000000000948 .L0 
     /tmp/cc1kFpjO.s:1686   .text:000000000000094c .L0 
     /tmp/cc1kFpjO.s:1688   .text:0000000000000950 .L0 
     /tmp/cc1kFpjO.s:1689   .text:0000000000000950 .L0 
     /tmp/cc1kFpjO.s:1694   .text:0000000000000954 .L0 
     /tmp/cc1kFpjO.s:1695   .text:0000000000000954 .L0 
     /tmp/cc1kFpjO.s:1697   .text:0000000000000958 .L0 
     /tmp/cc1kFpjO.s:1711   .text:0000000000000968 .L0 
     /tmp/cc1kFpjO.s:1712   .text:0000000000000968 .L0 
     /tmp/cc1kFpjO.s:1716   .text:0000000000000974 .L0 
     /tmp/cc1kFpjO.s:1717   .text:0000000000000974 .L0 
     /tmp/cc1kFpjO.s:1721   .text:0000000000000984 .L0 
     /tmp/cc1kFpjO.s:1722   .text:0000000000000984 .L0 
     /tmp/cc1kFpjO.s:1728   .text:0000000000000994 .L0 
     /tmp/cc1kFpjO.s:1730   .text:0000000000000998 .L0 
     /tmp/cc1kFpjO.s:1731   .text:0000000000000998 .L0 
     /tmp/cc1kFpjO.s:1736   .text:00000000000009a8 .L0 
     /tmp/cc1kFpjO.s:1737   .text:00000000000009ac .L0 
     /tmp/cc1kFpjO.s:1738   .text:00000000000009ac .L0 
     /tmp/cc1kFpjO.s:1740   .text:00000000000009b0 .L0 
     /tmp/cc1kFpjO.s:1741   .text:00000000000009b0 .L0 
     /tmp/cc1kFpjO.s:1743   .text:00000000000009b4 .L0 
     /tmp/cc1kFpjO.s:1745   .text:00000000000009b8 .L0 
     /tmp/cc1kFpjO.s:1748   .text:00000000000009bc .L0 
     /tmp/cc1kFpjO.s:1752   .text:00000000000009c0 .L0 
     /tmp/cc1kFpjO.s:1754   .text:00000000000009c0 .L0 
     /tmp/cc1kFpjO.s:1755   .text:00000000000009c0 .L0 
GAS LISTING /tmp/cc1kFpjO.s 			page 92


     /tmp/cc1kFpjO.s:1759   .text:00000000000009d4 .L0 
     /tmp/cc1kFpjO.s:1782   .text:00000000000009d4 _Z13stressTestingv
     /tmp/cc1kFpjO.s:1785   .text:00000000000009d4 .L0 
     /tmp/cc1kFpjO.s:1786   .text:00000000000009d4 .L0 
     /tmp/cc1kFpjO.s:1787   .text:00000000000009d8 .L0 
     /tmp/cc1kFpjO.s:1793   .text:00000000000009ec .L0 
     /tmp/cc1kFpjO.s:1794   .text:00000000000009ec .L0 
     /tmp/cc1kFpjO.s:1795   .text:00000000000009ec .L0 
     /tmp/cc1kFpjO.s:1796   .text:00000000000009ec .L0 
     /tmp/cc1kFpjO.s:1797   .text:00000000000009ec .L0 
     /tmp/cc1kFpjO.s:1799   .text:00000000000009f0 .L0 
     /tmp/cc1kFpjO.s:1802   .text:00000000000009f4 .L0 
     /tmp/cc1kFpjO.s:1803   .text:00000000000009f4 .L0 
     /tmp/cc1kFpjO.s:1808   .text:0000000000000a04 .L0 
     /tmp/cc1kFpjO.s:1816   .text:0000000000000a0c .L0 
     /tmp/cc1kFpjO.s:1824   .text:0000000000000a14 .L0 
     /tmp/cc1kFpjO.s:1825   .text:0000000000000a14 .L0 
     /tmp/cc1kFpjO.s:1831   .text:0000000000000a24 .L0 
     /tmp/cc1kFpjO.s:1832   .text:0000000000000a24 .L0 
     /tmp/cc1kFpjO.s:1835   .text:0000000000000a28 .L0 
     /tmp/cc1kFpjO.s:1836   .text:0000000000000a28 .L0 
     /tmp/cc1kFpjO.s:1838   .text:0000000000000a2c .L0 
     /tmp/cc1kFpjO.s:1839   .text:0000000000000a2c .L0 
     /tmp/cc1kFpjO.s:1841   .text:0000000000000a30 .L0 
     /tmp/cc1kFpjO.s:1842   .text:0000000000000a30 .L0 
     /tmp/cc1kFpjO.s:1844   .text:0000000000000a34 .L0 
     /tmp/cc1kFpjO.s:1846   .text:0000000000000a38 .L0 
     /tmp/cc1kFpjO.s:1847   .text:0000000000000a38 .L0 
     /tmp/cc1kFpjO.s:1850   .text:0000000000000a3c .L0 
     /tmp/cc1kFpjO.s:1851   .text:0000000000000a3c .L0 
     /tmp/cc1kFpjO.s:1853   .text:0000000000000a40 .L0 
     /tmp/cc1kFpjO.s:1855   .text:0000000000000a44 .L0 
     /tmp/cc1kFpjO.s:1856   .text:0000000000000a44 .L0 
     /tmp/cc1kFpjO.s:1859   .text:0000000000000a48 .L0 
     /tmp/cc1kFpjO.s:1860   .text:0000000000000a48 .L0 
     /tmp/cc1kFpjO.s:1862   .text:0000000000000a4c .L0 
     /tmp/cc1kFpjO.s:1864   .text:0000000000000a50 .L0 
     /tmp/cc1kFpjO.s:1865   .text:0000000000000a50 .L0 
     /tmp/cc1kFpjO.s:1867   .text:0000000000000a54 .L0 
     /tmp/cc1kFpjO.s:1869   .text:0000000000000a58 .L0 
     /tmp/cc1kFpjO.s:1870   .text:0000000000000a58 .L0 
     /tmp/cc1kFpjO.s:1873   .text:0000000000000a5c .L0 
     /tmp/cc1kFpjO.s:1875   .text:0000000000000a60 .L0 
     /tmp/cc1kFpjO.s:1877   .text:0000000000000a64 .L0 
     /tmp/cc1kFpjO.s:1878   .text:0000000000000a64 .L0 
     /tmp/cc1kFpjO.s:1880   .text:0000000000000a68 .L0 
     /tmp/cc1kFpjO.s:1883   .text:0000000000000a74 .L0 
     /tmp/cc1kFpjO.s:1884   .text:0000000000000a74 .L0 
     /tmp/cc1kFpjO.s:1886   .text:0000000000000a78 .L0 
     /tmp/cc1kFpjO.s:1888   .text:0000000000000a7c .L0 
     /tmp/cc1kFpjO.s:1889   .text:0000000000000a7c .L0 
     /tmp/cc1kFpjO.s:1891   .text:0000000000000a80 .L0 
     /tmp/cc1kFpjO.s:1892   .text:0000000000000a80 .L0 
     /tmp/cc1kFpjO.s:1894   .text:0000000000000a84 .L0 
     /tmp/cc1kFpjO.s:1895   .text:0000000000000a84 .L0 
     /tmp/cc1kFpjO.s:1905   .text:0000000000000a88 .L0 
     /tmp/cc1kFpjO.s:1912   .text:0000000000000aa0 .L0 
GAS LISTING /tmp/cc1kFpjO.s 			page 93


     /tmp/cc1kFpjO.s:1914   .text:0000000000000aa4 .L0 
     /tmp/cc1kFpjO.s:1918   .text:0000000000000aa8 .L0 
     /tmp/cc1kFpjO.s:1923   .text:0000000000000ab0 .L0 
     /tmp/cc1kFpjO.s:1927   .text:0000000000000ab0 .L0 
     /tmp/cc1kFpjO.s:1928   .text:0000000000000ab0 .L0 
     /tmp/cc1kFpjO.s:1930   .text:0000000000000ab0 .L0 
     /tmp/cc1kFpjO.s:1931   .text:0000000000000ab0 .L0 
     /tmp/cc1kFpjO.s:1936   .text:0000000000000abc .L0 
     /tmp/cc1kFpjO.s:1939   .text:0000000000000ac0 .L0 
     /tmp/cc1kFpjO.s:1940   .text:0000000000000ac0 .L0 
     /tmp/cc1kFpjO.s:1944   .text:0000000000000ad0 .L0 
     /tmp/cc1kFpjO.s:1946   .text:0000000000000ad4 .L0 
     /tmp/cc1kFpjO.s:1947   .text:0000000000000ad4 .L0 
     /tmp/cc1kFpjO.s:1950   .text:0000000000000adc .L0 
     /tmp/cc1kFpjO.s:1952   .text:0000000000000ae0 .L0 
     /tmp/cc1kFpjO.s:1953   .text:0000000000000ae0 .L0 
     /tmp/cc1kFpjO.s:1955   .text:0000000000000ae4 .L0 
     /tmp/cc1kFpjO.s:1959   .text:0000000000000aec .L0 
     /tmp/cc1kFpjO.s:1960   .text:0000000000000aec .L0 
     /tmp/cc1kFpjO.s:1962   .text:0000000000000af0 .L0 
     /tmp/cc1kFpjO.s:1965   .text:0000000000000af8 .L0 
     /tmp/cc1kFpjO.s:1967   .text:0000000000000afc .L0 
     /tmp/cc1kFpjO.s:1968   .text:0000000000000afc .L0 
     /tmp/cc1kFpjO.s:1971   .text:0000000000000b00 .L0 
     /tmp/cc1kFpjO.s:1972   .text:0000000000000b00 .L0 
     /tmp/cc1kFpjO.s:1974   .text:0000000000000b04 .L0 
     /tmp/cc1kFpjO.s:1976   .text:0000000000000b08 .L0 
     /tmp/cc1kFpjO.s:1977   .text:0000000000000b08 .L0 
     /tmp/cc1kFpjO.s:1979   .text:0000000000000b0c .L0 
     /tmp/cc1kFpjO.s:1981   .text:0000000000000b10 .L0 
     /tmp/cc1kFpjO.s:1982   .text:0000000000000b10 .L0 
     /tmp/cc1kFpjO.s:1987   .text:0000000000000b14 .L0 
     /tmp/cc1kFpjO.s:1988   .text:0000000000000b14 .L0 
     /tmp/cc1kFpjO.s:1990   .text:0000000000000b18 .L0 
     /tmp/cc1kFpjO.s:2002   .text:0000000000000b28 .L0 
     /tmp/cc1kFpjO.s:2003   .text:0000000000000b28 .L0 
     /tmp/cc1kFpjO.s:2009   .text:0000000000000b38 .L0 
     /tmp/cc1kFpjO.s:2010   .text:0000000000000b38 .L0 
     /tmp/cc1kFpjO.s:2011   .text:0000000000000b3c .L0 
     /tmp/cc1kFpjO.s:2012   .text:0000000000000b3c .L0 
     /tmp/cc1kFpjO.s:2014   .text:0000000000000b40 .L0 
     /tmp/cc1kFpjO.s:2016   .text:0000000000000b44 .L0 
     /tmp/cc1kFpjO.s:2018   .text:0000000000000b48 .L0 
     /tmp/cc1kFpjO.s:2020   .text:0000000000000b4c .L0 
     /tmp/cc1kFpjO.s:2022   .text:0000000000000b50 .L0 
     /tmp/cc1kFpjO.s:2024   .text:0000000000000b54 .L0 
     /tmp/cc1kFpjO.s:2028   .text:0000000000000b58 .L0 
     /tmp/cc1kFpjO.s:2030   .text:0000000000000b58 .L0 
     /tmp/cc1kFpjO.s:2034   .text:0000000000000b5c .L0 
     /tmp/cc1kFpjO.s:2035   .text:0000000000000b5c .L0 
     /tmp/cc1kFpjO.s:2038   .text:0000000000000b60 .L0 
     /tmp/cc1kFpjO.s:2039   .text:0000000000000b60 .L0 
     /tmp/cc1kFpjO.s:2043   .text:0000000000000b70 .L0 
     /tmp/cc1kFpjO.s:2044   .text:0000000000000b70 .L0 
     /tmp/cc1kFpjO.s:2050   .text:0000000000000b80 .L0 
     /tmp/cc1kFpjO.s:2058   .text:0000000000000b88 .L0 
     /tmp/cc1kFpjO.s:2065   .text:0000000000000b94 .L0 
GAS LISTING /tmp/cc1kFpjO.s 			page 94


     /tmp/cc1kFpjO.s:2066   .text:0000000000000b94 .L0 
     /tmp/cc1kFpjO.s:2067   .text:0000000000000b94 .L0 
     /tmp/cc1kFpjO.s:2069   .text:0000000000000b98 .L0 
     /tmp/cc1kFpjO.s:2076   .text:0000000000000b98 .L0 
     /tmp/cc1kFpjO.s:2082   .text:0000000000000b98 .L0 
     /tmp/cc1kFpjO.s:2083   .text:0000000000000b98 .L0 
     /tmp/cc1kFpjO.s:2086   .text:0000000000000ba0 .L0 
     /tmp/cc1kFpjO.s:2087   .text:0000000000000ba0 .L0 
     /tmp/cc1kFpjO.s:2089   .text:0000000000000ba4 .L0 
     /tmp/cc1kFpjO.s:2091   .text:0000000000000ba8 .L0 
     /tmp/cc1kFpjO.s:2092   .text:0000000000000ba8 .L0 
     /tmp/cc1kFpjO.s:2094   .text:0000000000000bac .L0 
     /tmp/cc1kFpjO.s:2097   .text:0000000000000bb0 .L0 
     /tmp/cc1kFpjO.s:2098   .text:0000000000000bb0 .L0 
     /tmp/cc1kFpjO.s:2100   .text:0000000000000bb4 .L0 
     /tmp/cc1kFpjO.s:2102   .text:0000000000000bb8 .L0 
     /tmp/cc1kFpjO.s:2103   .text:0000000000000bb8 .L0 
     /tmp/cc1kFpjO.s:2106   .text:0000000000000bbc .L0 
     /tmp/cc1kFpjO.s:2108   .text:0000000000000bc0 .L0 
     /tmp/cc1kFpjO.s:2109   .text:0000000000000bc0 .L0 
     /tmp/cc1kFpjO.s:2115   .text:0000000000000bc4 .L0 
     /tmp/cc1kFpjO.s:2116   .text:0000000000000bc4 .L0 
     /tmp/cc1kFpjO.s:2118   .text:0000000000000bc8 .L0 
     /tmp/cc1kFpjO.s:2119   .text:0000000000000bc8 .L0 
     /tmp/cc1kFpjO.s:2121   .text:0000000000000bcc .L0 
     /tmp/cc1kFpjO.s:2123   .text:0000000000000bd0 .L0 
     /tmp/cc1kFpjO.s:2125   .text:0000000000000bd4 .L0 
     /tmp/cc1kFpjO.s:2127   .text:0000000000000bd8 .L0 
     /tmp/cc1kFpjO.s:2135   .text:0000000000000bdc .L0 
     /tmp/cc1kFpjO.s:2136   .text:0000000000000bdc .L0 
     /tmp/cc1kFpjO.s:2138   .text:0000000000000be0 .L0 
     /tmp/cc1kFpjO.s:2139   .text:0000000000000be0 .L0 
     /tmp/cc1kFpjO.s:2141   .text:0000000000000be4 .L0 
     /tmp/cc1kFpjO.s:2143   .text:0000000000000be8 .L0 
     /tmp/cc1kFpjO.s:2145   .text:0000000000000bec .L0 
     /tmp/cc1kFpjO.s:2147   .text:0000000000000bf0 .L0 
     /tmp/cc1kFpjO.s:2153   .text:0000000000000bf4 .L0 
     /tmp/cc1kFpjO.s:2155   .text:0000000000000bf8 .L0 
     /tmp/cc1kFpjO.s:2161   .text:0000000000000bfc .L0 
     /tmp/cc1kFpjO.s:2163   .text:0000000000000c00 .L0 
     /tmp/cc1kFpjO.s:2164   .text:0000000000000c00 .L0 
     /tmp/cc1kFpjO.s:2168   .text:0000000000000c10 .L0 
     /tmp/cc1kFpjO.s:2169   .text:0000000000000c10 .L0 
     /tmp/cc1kFpjO.s:2174   .text:0000000000000c14 .L0 
     /tmp/cc1kFpjO.s:2175   .text:0000000000000c14 .L0 
     /tmp/cc1kFpjO.s:2182   .text:0000000000000c18 .L0 
     /tmp/cc1kFpjO.s:2183   .text:0000000000000c18 .L0 
     /tmp/cc1kFpjO.s:2186   .text:0000000000000c1c .L0 
     /tmp/cc1kFpjO.s:2190   .text:0000000000000c20 .L0 
     /tmp/cc1kFpjO.s:2191   .text:0000000000000c20 .L0 
     /tmp/cc1kFpjO.s:2196   .text:0000000000000c2c .L0 
     /tmp/cc1kFpjO.s:2199   .text:0000000000000c30 .L0 
     /tmp/cc1kFpjO.s:2200   .text:0000000000000c30 .L0 
     /tmp/cc1kFpjO.s:2204   .text:0000000000000c40 .L0 
     /tmp/cc1kFpjO.s:2206   .text:0000000000000c44 .L0 
     /tmp/cc1kFpjO.s:2207   .text:0000000000000c44 .L0 
     /tmp/cc1kFpjO.s:2210   .text:0000000000000c4c .L0 
GAS LISTING /tmp/cc1kFpjO.s 			page 95


     /tmp/cc1kFpjO.s:2212   .text:0000000000000c50 .L0 
     /tmp/cc1kFpjO.s:2213   .text:0000000000000c50 .L0 
     /tmp/cc1kFpjO.s:2215   .text:0000000000000c54 .L0 
     /tmp/cc1kFpjO.s:2218   .text:0000000000000c58 .L0 
     /tmp/cc1kFpjO.s:2219   .text:0000000000000c58 .L0 
     /tmp/cc1kFpjO.s:2221   .text:0000000000000c5c .L0 
     /tmp/cc1kFpjO.s:2224   .text:0000000000000c64 .L0 
     /tmp/cc1kFpjO.s:2226   .text:0000000000000c68 .L0 
     /tmp/cc1kFpjO.s:2227   .text:0000000000000c68 .L0 
     /tmp/cc1kFpjO.s:2231   .text:0000000000000c6c .L0 
     /tmp/cc1kFpjO.s:2232   .text:0000000000000c6c .L0 
     /tmp/cc1kFpjO.s:2234   .text:0000000000000c70 .L0 
     /tmp/cc1kFpjO.s:2236   .text:0000000000000c74 .L0 
     /tmp/cc1kFpjO.s:2237   .text:0000000000000c74 .L0 
     /tmp/cc1kFpjO.s:2239   .text:0000000000000c78 .L0 
     /tmp/cc1kFpjO.s:2241   .text:0000000000000c7c .L0 
     /tmp/cc1kFpjO.s:2242   .text:0000000000000c7c .L0 
     /tmp/cc1kFpjO.s:2253   .text:0000000000000c80 .L0 
     /tmp/cc1kFpjO.s:2254   .text:0000000000000c80 .L0 
     /tmp/cc1kFpjO.s:2260   .text:0000000000000c94 .L0 
     /tmp/cc1kFpjO.s:2261   .text:0000000000000c94 .L0 
     /tmp/cc1kFpjO.s:2269   .text:0000000000000ca4 .L0 
     /tmp/cc1kFpjO.s:2270   .text:0000000000000ca4 .L0 
     /tmp/cc1kFpjO.s:2272   .text:0000000000000ca8 .L0 
     /tmp/cc1kFpjO.s:2275   .text:0000000000000cb0 .L0 
     /tmp/cc1kFpjO.s:2276   .text:0000000000000cb0 .L0 
     /tmp/cc1kFpjO.s:2278   .text:0000000000000cb4 .L0 
     /tmp/cc1kFpjO.s:2280   .text:0000000000000cb8 .L0 
     /tmp/cc1kFpjO.s:2282   .text:0000000000000cbc .L0 
     /tmp/cc1kFpjO.s:2283   .text:0000000000000cbc .L0 
     /tmp/cc1kFpjO.s:2292   .text:0000000000000cc4 .L0 
     /tmp/cc1kFpjO.s:2293   .text:0000000000000cc4 .L0 
     /tmp/cc1kFpjO.s:2295   .text:0000000000000cc8 .L0 
     /tmp/cc1kFpjO.s:2298   .text:0000000000000cd0 .L0 
     /tmp/cc1kFpjO.s:2299   .text:0000000000000cd0 .L0 
     /tmp/cc1kFpjO.s:2301   .text:0000000000000cd4 .L0 
     /tmp/cc1kFpjO.s:2303   .text:0000000000000cd8 .L0 
     /tmp/cc1kFpjO.s:2305   .text:0000000000000cdc .L0 
     /tmp/cc1kFpjO.s:2306   .text:0000000000000cdc .L0 
     /tmp/cc1kFpjO.s:2313   .text:0000000000000ce4 .L0 
     /tmp/cc1kFpjO.s:2320   .text:0000000000000cec .L0 
     /tmp/cc1kFpjO.s:2321   .text:0000000000000cec .L0 
     /tmp/cc1kFpjO.s:2325   .text:0000000000000cfc .L0 
     /tmp/cc1kFpjO.s:2332   .text:0000000000000d00 .L0 
     /tmp/cc1kFpjO.s:2340   .text:0000000000000d08 .L0 
     /tmp/cc1kFpjO.s:2341   .text:0000000000000d08 .L0 
     /tmp/cc1kFpjO.s:2349   .text:0000000000000d18 .L0 
     /tmp/cc1kFpjO.s:2350   .text:0000000000000d18 .L0 
     /tmp/cc1kFpjO.s:2353   .text:0000000000000d1c .L0 
     /tmp/cc1kFpjO.s:2354   .text:0000000000000d1c .L0 
     /tmp/cc1kFpjO.s:2356   .text:0000000000000d20 .L0 
     /tmp/cc1kFpjO.s:2357   .text:0000000000000d20 .L0 
     /tmp/cc1kFpjO.s:2359   .text:0000000000000d24 .L0 
     /tmp/cc1kFpjO.s:2360   .text:0000000000000d24 .L0 
     /tmp/cc1kFpjO.s:2362   .text:0000000000000d28 .L0 
     /tmp/cc1kFpjO.s:2364   .text:0000000000000d2c .L0 
     /tmp/cc1kFpjO.s:2365   .text:0000000000000d2c .L0 
GAS LISTING /tmp/cc1kFpjO.s 			page 96


     /tmp/cc1kFpjO.s:2368   .text:0000000000000d30 .L0 
     /tmp/cc1kFpjO.s:2369   .text:0000000000000d30 .L0 
     /tmp/cc1kFpjO.s:2371   .text:0000000000000d34 .L0 
     /tmp/cc1kFpjO.s:2373   .text:0000000000000d38 .L0 
     /tmp/cc1kFpjO.s:2374   .text:0000000000000d38 .L0 
     /tmp/cc1kFpjO.s:2377   .text:0000000000000d3c .L0 
     /tmp/cc1kFpjO.s:2378   .text:0000000000000d3c .L0 
     /tmp/cc1kFpjO.s:2380   .text:0000000000000d40 .L0 
     /tmp/cc1kFpjO.s:2382   .text:0000000000000d44 .L0 
     /tmp/cc1kFpjO.s:2383   .text:0000000000000d44 .L0 
     /tmp/cc1kFpjO.s:2385   .text:0000000000000d48 .L0 
     /tmp/cc1kFpjO.s:2387   .text:0000000000000d4c .L0 
     /tmp/cc1kFpjO.s:2388   .text:0000000000000d4c .L0 
     /tmp/cc1kFpjO.s:2391   .text:0000000000000d50 .L0 
     /tmp/cc1kFpjO.s:2394   .text:0000000000000d54 .L0 
     /tmp/cc1kFpjO.s:2396   .text:0000000000000d58 .L0 
     /tmp/cc1kFpjO.s:2397   .text:0000000000000d58 .L0 
     /tmp/cc1kFpjO.s:2399   .text:0000000000000d5c .L0 
     /tmp/cc1kFpjO.s:2402   .text:0000000000000d68 .L0 
     /tmp/cc1kFpjO.s:2403   .text:0000000000000d68 .L0 
     /tmp/cc1kFpjO.s:2405   .text:0000000000000d6c .L0 
     /tmp/cc1kFpjO.s:2407   .text:0000000000000d70 .L0 
     /tmp/cc1kFpjO.s:2408   .text:0000000000000d70 .L0 
     /tmp/cc1kFpjO.s:2410   .text:0000000000000d74 .L0 
     /tmp/cc1kFpjO.s:2411   .text:0000000000000d74 .L0 
     /tmp/cc1kFpjO.s:2413   .text:0000000000000d78 .L0 
     /tmp/cc1kFpjO.s:2414   .text:0000000000000d78 .L0 
     /tmp/cc1kFpjO.s:2424   .text:0000000000000d7c .L0 
     /tmp/cc1kFpjO.s:2435   .text:0000000000000d94 .L0 
     /tmp/cc1kFpjO.s:2438   .text:0000000000000d98 .L0 
     /tmp/cc1kFpjO.s:2439   .text:0000000000000d98 .L0 
     /tmp/cc1kFpjO.s:2443   .text:0000000000000d9c .L0 
     /tmp/cc1kFpjO.s:2447   .text:0000000000000da4 .L0 
     /tmp/cc1kFpjO.s:2448   .text:0000000000000da4 .L0 
     /tmp/cc1kFpjO.s:2452   .text:0000000000000db4 .L0 
     /tmp/cc1kFpjO.s:2453   .text:0000000000000db4 .L0 
     /tmp/cc1kFpjO.s:2457   .text:0000000000000dc0 .L0 
     /tmp/cc1kFpjO.s:2458   .text:0000000000000dc0 .L0 
     /tmp/cc1kFpjO.s:2462   .text:0000000000000dd0 .L0 
     /tmp/cc1kFpjO.s:2463   .text:0000000000000dd0 .L0 
     /tmp/cc1kFpjO.s:2473   .text:0000000000000de8 .L0 
     /tmp/cc1kFpjO.s:2474   .text:0000000000000de8 .L0 
     /tmp/cc1kFpjO.s:2475   .text:0000000000000de8 .L0 
     /tmp/cc1kFpjO.s:2478   .text:0000000000000df4 .L0 
     /tmp/cc1kFpjO.s:2480   .text:0000000000000df8 .L0 
     /tmp/cc1kFpjO.s:2484   .text:0000000000000dfc .L0 
     /tmp/cc1kFpjO.s:2486   .text:0000000000000e00 .L0 
     /tmp/cc1kFpjO.s:2489   .text:0000000000000e04 .L0 
     /tmp/cc1kFpjO.s:2503   .text:0000000000000e10 .L0 
     /tmp/cc1kFpjO.s:2504   .text:0000000000000e10 .L0 
     /tmp/cc1kFpjO.s:2506   .text:0000000000000e14 .L0 
     /tmp/cc1kFpjO.s:2518   .text:0000000000000e24 .L0 
     /tmp/cc1kFpjO.s:2519   .text:0000000000000e24 .L0 
     /tmp/cc1kFpjO.s:2523   .text:0000000000000e34 .L0 
     /tmp/cc1kFpjO.s:2524   .text:0000000000000e34 .L0 
     /tmp/cc1kFpjO.s:2530   .text:0000000000000e38 .L0 
     /tmp/cc1kFpjO.s:2539   .text:0000000000000e40 .L0 
GAS LISTING /tmp/cc1kFpjO.s 			page 97


     /tmp/cc1kFpjO.s:2546   .text:0000000000000e4c .L0 
     /tmp/cc1kFpjO.s:2547   .text:0000000000000e4c .L0 
     /tmp/cc1kFpjO.s:2548   .text:0000000000000e4c .L0 
     /tmp/cc1kFpjO.s:2550   .text:0000000000000e50 .L0 
     /tmp/cc1kFpjO.s:2557   .text:0000000000000e50 .L0 
     /tmp/cc1kFpjO.s:2563   .text:0000000000000e50 .L0 
     /tmp/cc1kFpjO.s:2564   .text:0000000000000e50 .L0 
     /tmp/cc1kFpjO.s:2567   .text:0000000000000e58 .L0 
     /tmp/cc1kFpjO.s:2568   .text:0000000000000e58 .L0 
     /tmp/cc1kFpjO.s:2570   .text:0000000000000e5c .L0 
     /tmp/cc1kFpjO.s:2572   .text:0000000000000e60 .L0 
     /tmp/cc1kFpjO.s:2573   .text:0000000000000e60 .L0 
     /tmp/cc1kFpjO.s:2575   .text:0000000000000e64 .L0 
     /tmp/cc1kFpjO.s:2578   .text:0000000000000e68 .L0 
     /tmp/cc1kFpjO.s:2579   .text:0000000000000e68 .L0 
     /tmp/cc1kFpjO.s:2581   .text:0000000000000e6c .L0 
     /tmp/cc1kFpjO.s:2583   .text:0000000000000e70 .L0 
     /tmp/cc1kFpjO.s:2584   .text:0000000000000e70 .L0 
     /tmp/cc1kFpjO.s:2587   .text:0000000000000e74 .L0 
     /tmp/cc1kFpjO.s:2589   .text:0000000000000e78 .L0 
     /tmp/cc1kFpjO.s:2590   .text:0000000000000e78 .L0 
     /tmp/cc1kFpjO.s:2596   .text:0000000000000e7c .L0 
     /tmp/cc1kFpjO.s:2597   .text:0000000000000e7c .L0 
     /tmp/cc1kFpjO.s:2599   .text:0000000000000e80 .L0 
     /tmp/cc1kFpjO.s:2600   .text:0000000000000e80 .L0 
     /tmp/cc1kFpjO.s:2602   .text:0000000000000e84 .L0 
     /tmp/cc1kFpjO.s:2604   .text:0000000000000e88 .L0 
     /tmp/cc1kFpjO.s:2606   .text:0000000000000e8c .L0 
     /tmp/cc1kFpjO.s:2608   .text:0000000000000e90 .L0 
     /tmp/cc1kFpjO.s:2616   .text:0000000000000e94 .L0 
     /tmp/cc1kFpjO.s:2617   .text:0000000000000e94 .L0 
     /tmp/cc1kFpjO.s:2619   .text:0000000000000e98 .L0 
     /tmp/cc1kFpjO.s:2620   .text:0000000000000e98 .L0 
     /tmp/cc1kFpjO.s:2622   .text:0000000000000e9c .L0 
     /tmp/cc1kFpjO.s:2624   .text:0000000000000ea0 .L0 
     /tmp/cc1kFpjO.s:2626   .text:0000000000000ea4 .L0 
     /tmp/cc1kFpjO.s:2628   .text:0000000000000ea8 .L0 
     /tmp/cc1kFpjO.s:2634   .text:0000000000000eac .L0 
     /tmp/cc1kFpjO.s:2636   .text:0000000000000eb0 .L0 
     /tmp/cc1kFpjO.s:2642   .text:0000000000000eb4 .L0 
     /tmp/cc1kFpjO.s:2644   .text:0000000000000eb8 .L0 
     /tmp/cc1kFpjO.s:2645   .text:0000000000000eb8 .L0 
     /tmp/cc1kFpjO.s:2651   .text:0000000000000ec8 .L0 
     /tmp/cc1kFpjO.s:2652   .text:0000000000000ec8 .L0 
     /tmp/cc1kFpjO.s:2653   .text:0000000000000ec8 .L0 
     /tmp/cc1kFpjO.s:2660   .text:0000000000000ecc .L0 
     /tmp/cc1kFpjO.s:2661   .text:0000000000000ecc .L0 
     /tmp/cc1kFpjO.s:2664   .text:0000000000000ed0 .L0 
     /tmp/cc1kFpjO.s:2668   .text:0000000000000ed4 .L0 
     /tmp/cc1kFpjO.s:2669   .text:0000000000000ed4 .L0 
     /tmp/cc1kFpjO.s:2674   .text:0000000000000ee0 .L0 
     /tmp/cc1kFpjO.s:2677   .text:0000000000000ee4 .L0 
     /tmp/cc1kFpjO.s:2678   .text:0000000000000ee4 .L0 
     /tmp/cc1kFpjO.s:2682   .text:0000000000000ef4 .L0 
     /tmp/cc1kFpjO.s:2684   .text:0000000000000ef8 .L0 
     /tmp/cc1kFpjO.s:2685   .text:0000000000000ef8 .L0 
     /tmp/cc1kFpjO.s:2688   .text:0000000000000f00 .L0 
GAS LISTING /tmp/cc1kFpjO.s 			page 98


     /tmp/cc1kFpjO.s:2690   .text:0000000000000f04 .L0 
     /tmp/cc1kFpjO.s:2691   .text:0000000000000f04 .L0 
     /tmp/cc1kFpjO.s:2693   .text:0000000000000f08 .L0 
     /tmp/cc1kFpjO.s:2696   .text:0000000000000f0c .L0 
     /tmp/cc1kFpjO.s:2697   .text:0000000000000f0c .L0 
     /tmp/cc1kFpjO.s:2699   .text:0000000000000f10 .L0 
     /tmp/cc1kFpjO.s:2702   .text:0000000000000f18 .L0 
     /tmp/cc1kFpjO.s:2704   .text:0000000000000f1c .L0 
     /tmp/cc1kFpjO.s:2705   .text:0000000000000f1c .L0 
     /tmp/cc1kFpjO.s:2709   .text:0000000000000f20 .L0 
     /tmp/cc1kFpjO.s:2710   .text:0000000000000f20 .L0 
     /tmp/cc1kFpjO.s:2712   .text:0000000000000f24 .L0 
     /tmp/cc1kFpjO.s:2714   .text:0000000000000f28 .L0 
     /tmp/cc1kFpjO.s:2715   .text:0000000000000f28 .L0 
     /tmp/cc1kFpjO.s:2717   .text:0000000000000f2c .L0 
     /tmp/cc1kFpjO.s:2719   .text:0000000000000f30 .L0 
     /tmp/cc1kFpjO.s:2720   .text:0000000000000f30 .L0 
     /tmp/cc1kFpjO.s:2731   .text:0000000000000f34 .L0 
     /tmp/cc1kFpjO.s:2732   .text:0000000000000f34 .L0 
     /tmp/cc1kFpjO.s:2738   .text:0000000000000f48 .L0 
     /tmp/cc1kFpjO.s:2739   .text:0000000000000f48 .L0 
     /tmp/cc1kFpjO.s:2747   .text:0000000000000f58 .L0 
     /tmp/cc1kFpjO.s:2748   .text:0000000000000f58 .L0 
     /tmp/cc1kFpjO.s:2750   .text:0000000000000f5c .L0 
     /tmp/cc1kFpjO.s:2753   .text:0000000000000f64 .L0 
     /tmp/cc1kFpjO.s:2754   .text:0000000000000f64 .L0 
     /tmp/cc1kFpjO.s:2756   .text:0000000000000f68 .L0 
     /tmp/cc1kFpjO.s:2758   .text:0000000000000f6c .L0 
     /tmp/cc1kFpjO.s:2760   .text:0000000000000f70 .L0 
     /tmp/cc1kFpjO.s:2761   .text:0000000000000f70 .L0 
     /tmp/cc1kFpjO.s:2770   .text:0000000000000f78 .L0 
     /tmp/cc1kFpjO.s:2771   .text:0000000000000f78 .L0 
     /tmp/cc1kFpjO.s:2773   .text:0000000000000f7c .L0 
     /tmp/cc1kFpjO.s:2776   .text:0000000000000f84 .L0 
     /tmp/cc1kFpjO.s:2777   .text:0000000000000f84 .L0 
     /tmp/cc1kFpjO.s:2779   .text:0000000000000f88 .L0 
     /tmp/cc1kFpjO.s:2781   .text:0000000000000f8c .L0 
     /tmp/cc1kFpjO.s:2783   .text:0000000000000f90 .L0 
     /tmp/cc1kFpjO.s:2784   .text:0000000000000f90 .L0 
     /tmp/cc1kFpjO.s:2791   .text:0000000000000f98 .L0 
     /tmp/cc1kFpjO.s:2798   .text:0000000000000fa0 .L0 
     /tmp/cc1kFpjO.s:2799   .text:0000000000000fa0 .L0 
     /tmp/cc1kFpjO.s:2803   .text:0000000000000fb0 .L0 
     /tmp/cc1kFpjO.s:2810   .text:0000000000000fb4 .L0 
     /tmp/cc1kFpjO.s:2818   .text:0000000000000fbc .L0 
     /tmp/cc1kFpjO.s:2819   .text:0000000000000fbc .L0 
     /tmp/cc1kFpjO.s:2827   .text:0000000000000fcc .L0 
     /tmp/cc1kFpjO.s:2828   .text:0000000000000fcc .L0 
     /tmp/cc1kFpjO.s:2831   .text:0000000000000fd0 .L0 
     /tmp/cc1kFpjO.s:2832   .text:0000000000000fd0 .L0 
     /tmp/cc1kFpjO.s:2834   .text:0000000000000fd4 .L0 
     /tmp/cc1kFpjO.s:2835   .text:0000000000000fd4 .L0 
     /tmp/cc1kFpjO.s:2837   .text:0000000000000fd8 .L0 
     /tmp/cc1kFpjO.s:2838   .text:0000000000000fd8 .L0 
     /tmp/cc1kFpjO.s:2840   .text:0000000000000fdc .L0 
     /tmp/cc1kFpjO.s:2842   .text:0000000000000fe0 .L0 
     /tmp/cc1kFpjO.s:2843   .text:0000000000000fe0 .L0 
GAS LISTING /tmp/cc1kFpjO.s 			page 99


     /tmp/cc1kFpjO.s:2846   .text:0000000000000fe4 .L0 
     /tmp/cc1kFpjO.s:2847   .text:0000000000000fe4 .L0 
     /tmp/cc1kFpjO.s:2849   .text:0000000000000fe8 .L0 
     /tmp/cc1kFpjO.s:2851   .text:0000000000000fec .L0 
     /tmp/cc1kFpjO.s:2852   .text:0000000000000fec .L0 
     /tmp/cc1kFpjO.s:2855   .text:0000000000000ff0 .L0 
     /tmp/cc1kFpjO.s:2856   .text:0000000000000ff0 .L0 
     /tmp/cc1kFpjO.s:2858   .text:0000000000000ff4 .L0 
     /tmp/cc1kFpjO.s:2860   .text:0000000000000ff8 .L0 
     /tmp/cc1kFpjO.s:2861   .text:0000000000000ff8 .L0 
     /tmp/cc1kFpjO.s:2863   .text:0000000000000ffc .L0 
     /tmp/cc1kFpjO.s:2865   .text:0000000000001000 .L0 
     /tmp/cc1kFpjO.s:2866   .text:0000000000001000 .L0 
     /tmp/cc1kFpjO.s:2869   .text:0000000000001004 .L0 
     /tmp/cc1kFpjO.s:2872   .text:0000000000001008 .L0 
     /tmp/cc1kFpjO.s:2874   .text:000000000000100c .L0 
     /tmp/cc1kFpjO.s:2875   .text:000000000000100c .L0 
     /tmp/cc1kFpjO.s:2877   .text:0000000000001010 .L0 
     /tmp/cc1kFpjO.s:2880   .text:000000000000101c .L0 
     /tmp/cc1kFpjO.s:2881   .text:000000000000101c .L0 
     /tmp/cc1kFpjO.s:2883   .text:0000000000001020 .L0 
     /tmp/cc1kFpjO.s:2885   .text:0000000000001024 .L0 
     /tmp/cc1kFpjO.s:2886   .text:0000000000001024 .L0 
     /tmp/cc1kFpjO.s:2888   .text:0000000000001028 .L0 
     /tmp/cc1kFpjO.s:2889   .text:0000000000001028 .L0 
     /tmp/cc1kFpjO.s:2891   .text:000000000000102c .L0 
     /tmp/cc1kFpjO.s:2892   .text:000000000000102c .L0 
     /tmp/cc1kFpjO.s:2902   .text:0000000000001030 .L0 
     /tmp/cc1kFpjO.s:2913   .text:0000000000001048 .L0 
     /tmp/cc1kFpjO.s:2916   .text:000000000000104c .L0 
     /tmp/cc1kFpjO.s:2917   .text:000000000000104c .L0 
     /tmp/cc1kFpjO.s:2921   .text:0000000000001050 .L0 
     /tmp/cc1kFpjO.s:2925   .text:0000000000001058 .L0 
     /tmp/cc1kFpjO.s:2926   .text:0000000000001058 .L0 
     /tmp/cc1kFpjO.s:2930   .text:0000000000001068 .L0 
     /tmp/cc1kFpjO.s:2931   .text:0000000000001068 .L0 
     /tmp/cc1kFpjO.s:2935   .text:0000000000001074 .L0 
     /tmp/cc1kFpjO.s:2936   .text:0000000000001074 .L0 
     /tmp/cc1kFpjO.s:2940   .text:0000000000001084 .L0 
     /tmp/cc1kFpjO.s:2941   .text:0000000000001084 .L0 
     /tmp/cc1kFpjO.s:2951   .text:000000000000109c .L0 
     /tmp/cc1kFpjO.s:2952   .text:000000000000109c .L0 
     /tmp/cc1kFpjO.s:2953   .text:000000000000109c .L0 
     /tmp/cc1kFpjO.s:2956   .text:00000000000010a8 .L0 
     /tmp/cc1kFpjO.s:2958   .text:00000000000010ac .L0 
     /tmp/cc1kFpjO.s:2962   .text:00000000000010b0 .L0 
     /tmp/cc1kFpjO.s:2964   .text:00000000000010b4 .L0 
     /tmp/cc1kFpjO.s:2967   .text:00000000000010b8 .L0 
     /tmp/cc1kFpjO.s:2981   .text:00000000000010c4 .L0 
     /tmp/cc1kFpjO.s:2982   .text:00000000000010c4 .L0 
     /tmp/cc1kFpjO.s:2984   .text:00000000000010c8 .L0 
     /tmp/cc1kFpjO.s:2996   .text:00000000000010d8 .L0 
     /tmp/cc1kFpjO.s:2997   .text:00000000000010d8 .L0 
     /tmp/cc1kFpjO.s:3001   .text:00000000000010e8 .L0 
     /tmp/cc1kFpjO.s:3002   .text:00000000000010e8 .L0 
     /tmp/cc1kFpjO.s:3007   .text:00000000000010ec .L0 
     /tmp/cc1kFpjO.s:3008   .text:00000000000010ec .L0 
GAS LISTING /tmp/cc1kFpjO.s 			page 100


     /tmp/cc1kFpjO.s:3012   .text:00000000000010f0 .L0 
     /tmp/cc1kFpjO.s:3016   .text:00000000000010f4 .L0 
     /tmp/cc1kFpjO.s:3017   .text:00000000000010f4 .L0 
     /tmp/cc1kFpjO.s:3021   .text:0000000000001104 .L0 
     /tmp/cc1kFpjO.s:3022   .text:0000000000001108 .L0 
     /tmp/cc1kFpjO.s:3028   .text:0000000000001108 main
     /tmp/cc1kFpjO.s:3031   .text:0000000000001108 .L0 
     /tmp/cc1kFpjO.s:3032   .text:0000000000001108 .L0 
     /tmp/cc1kFpjO.s:3033   .text:000000000000110c .L0 
     /tmp/cc1kFpjO.s:3036   .text:0000000000001114 .L0 
     /tmp/cc1kFpjO.s:3037   .text:0000000000001114 .L0 
     /tmp/cc1kFpjO.s:3039   .text:0000000000001118 .L0 
     /tmp/cc1kFpjO.s:3041   .text:0000000000001118 .L0 
     /tmp/cc1kFpjO.s:3042   .text:0000000000001118 .L0 
     /tmp/cc1kFpjO.s:3045   .text:0000000000001118 .L0 
     /tmp/cc1kFpjO.s:3046   .text:0000000000001118 .L0 
     /tmp/cc1kFpjO.s:3049   .text:0000000000001124 .L0 
     /tmp/cc1kFpjO.s:3054   .text:0000000000001128 .L0 
     /tmp/cc1kFpjO.s:3055   .text:0000000000001128 .L0 
     /tmp/cc1kFpjO.s:3059   .text:0000000000001138 .L0 
     /tmp/cc1kFpjO.s:3060   .text:0000000000001138 .L0 
     /tmp/cc1kFpjO.s:3063   .text:0000000000001140 .L0 
     /tmp/cc1kFpjO.s:3064   .text:0000000000001140 .L0 
     /tmp/cc1kFpjO.s:3068   .text:0000000000001150 .L0 
     /tmp/cc1kFpjO.s:3069   .text:0000000000001150 .L0 
     /tmp/cc1kFpjO.s:3071   .text:0000000000001158 .L0 
     /tmp/cc1kFpjO.s:3072   .text:0000000000001158 .L0 
     /tmp/cc1kFpjO.s:3074   .text:000000000000115c .L0 
     /tmp/cc1kFpjO.s:3075   .text:000000000000115c .L0 
     /tmp/cc1kFpjO.s:3077   .text:0000000000001160 .L0 
     /tmp/cc1kFpjO.s:3080   .text:0000000000001164 .L0 
     /tmp/cc1kFpjO.s:3085   .text:0000000000001164 .L0 
     /tmp/cc1kFpjO.s:3086   .text:0000000000001164 .L0 
     /tmp/cc1kFpjO.s:3091   .text:000000000000117c .L0 
     /tmp/cc1kFpjO.s:3092   .text:000000000000117c .L0 
     /tmp/cc1kFpjO.s:3095   .text:0000000000001188 .L0 
     /tmp/cc1kFpjO.s:3097   .text:000000000000118c .L0 
     /tmp/cc1kFpjO.s:3099   .text:0000000000001190 .L0 
     /tmp/cc1kFpjO.s:3100   .text:0000000000001190 .L0 
     /tmp/cc1kFpjO.s:3102   .text:0000000000001194 .L0 
     /tmp/cc1kFpjO.s:3103   .text:0000000000001194 .L0 
     /tmp/cc1kFpjO.s:3105   .text:0000000000001198 .L0 
     /tmp/cc1kFpjO.s:3107   .text:000000000000119c .L0 
     /tmp/cc1kFpjO.s:3108   .text:000000000000119c .L0 
     /tmp/cc1kFpjO.s:3109   .text:000000000000119c .L0 
     /tmp/cc1kFpjO.s:3113   .text:00000000000011a0 .L0 
     /tmp/cc1kFpjO.s:3119   .text:00000000000011a0 .L0 
     /tmp/cc1kFpjO.s:240    .rodata.str1.8:0000000000000000 .LC0
     /tmp/cc1kFpjO.s:284    .text:0000000000000150 .L0 
     /tmp/cc1kFpjO.s:307    .text:0000000000000170 .L0 
     /tmp/cc1kFpjO.s:362    .text:00000000000001c4 .L0 
     /tmp/cc1kFpjO.s:411    .text:0000000000000204 .L0 
     /tmp/cc1kFpjO.s:420    .text:0000000000000214 .L0 
     /tmp/cc1kFpjO.s:470    .text:000000000000026c .L0 
     /tmp/cc1kFpjO.s:243    .rodata.str1.8:0000000000000010 .LC1
     /tmp/cc1kFpjO.s:483    .text:000000000000027c .L0 
     /tmp/cc1kFpjO.s:246    .rodata.str1.8:0000000000000020 .LC2
GAS LISTING /tmp/cc1kFpjO.s 			page 101


     /tmp/cc1kFpjO.s:504    .text:000000000000029c .L0 
     /tmp/cc1kFpjO.s:641    .text:0000000000000348 .L0 
     /tmp/cc1kFpjO.s:662    .text:0000000000000370 .L0 
     /tmp/cc1kFpjO.s:669    .text:0000000000000384 .L0 
     /tmp/cc1kFpjO.s:249    .rodata.str1.8:0000000000000028 .LC3
     /tmp/cc1kFpjO.s:729    .text:00000000000003dc .L0 
     /tmp/cc1kFpjO.s:252    .rodata.str1.8:0000000000000038 .LC4
     /tmp/cc1kFpjO.s:740    .text:00000000000003f0 .L0 
     /tmp/cc1kFpjO.s:762    .text:0000000000000410 .L0 
     /tmp/cc1kFpjO.s:817    .text:0000000000000464 .L0 
     /tmp/cc1kFpjO.s:867    .text:00000000000004a4 .L0 
     /tmp/cc1kFpjO.s:876    .text:00000000000004b4 .L0 
     /tmp/cc1kFpjO.s:926    .text:000000000000050c .L0 
     /tmp/cc1kFpjO.s:255    .rodata.str1.8:0000000000000040 .LC5
     /tmp/cc1kFpjO.s:939    .text:000000000000051c .L0 
     /tmp/cc1kFpjO.s:258    .rodata.str1.8:0000000000000050 .LC6
     /tmp/cc1kFpjO.s:950    .text:0000000000000530 .L0 
     /tmp/cc1kFpjO.s:1086   .text:00000000000005dc .L0 
     /tmp/cc1kFpjO.s:1107   .text:0000000000000604 .L0 
     /tmp/cc1kFpjO.s:1114   .text:0000000000000618 .L0 
     /tmp/cc1kFpjO.s:261    .rodata.str1.8:0000000000000058 .LC7
     /tmp/cc1kFpjO.s:1174   .text:0000000000000670 .L0 
     /tmp/cc1kFpjO.s:264    .rodata.str1.8:0000000000000068 .LC8
     /tmp/cc1kFpjO.s:1186   .text:0000000000000684 .L0 
     /tmp/cc1kFpjO.s:1196   .rodata.str1.8:0000000000000070 .LC9
     /tmp/cc1kFpjO.s:1219   .text:00000000000006a8 .L0 
     /tmp/cc1kFpjO.s:1225   .text:00000000000006b8 .L0 
     /tmp/cc1kFpjO.s:1227   .text:00000000000006c4 .L0 
     /tmp/cc1kFpjO.s:1246   .text:00000000000006e0 .L0 
     /tmp/cc1kFpjO.s:1256   .text:00000000000006f0 .L0 
     /tmp/cc1kFpjO.s:1313   .text:0000000000000748 .L0 
     /tmp/cc1kFpjO.s:1371   .text:000000000000079c .L0 
     /tmp/cc1kFpjO.s:1199   .rodata.str1.8:0000000000000080 .LC10
     /tmp/cc1kFpjO.s:1399   .text:00000000000007c0 .L0 
     /tmp/cc1kFpjO.s:1426   .text:00000000000007e4 .L0 
     /tmp/cc1kFpjO.s:1439   .text:00000000000007f4 .L0 
     /tmp/cc1kFpjO.s:1448   .rodata.str1.8:0000000000000088 .LC11
     /tmp/cc1kFpjO.s:1475   .text:0000000000000820 .L0 
     /tmp/cc1kFpjO.s:1510   .text:0000000000000848 .L0 
     /tmp/cc1kFpjO.s:1565   .text:000000000000089c .L0 
     /tmp/cc1kFpjO.s:1638   .text:00000000000008f0 .L0 
     /tmp/cc1kFpjO.s:1647   .text:0000000000000900 .L0 
     /tmp/cc1kFpjO.s:1697   .text:0000000000000958 .L0 
     /tmp/cc1kFpjO.s:1451   .rodata.str1.8:00000000000000a0 .LC12
     /tmp/cc1kFpjO.s:1717   .text:0000000000000974 .L0 
     /tmp/cc1kFpjO.s:1731   .text:0000000000000998 .L0 
     /tmp/cc1kFpjO.s:1755   .text:00000000000009c0 .L0 
     /tmp/cc1kFpjO.s:1764   .rodata.str1.8:00000000000000a8 .LC13
     /tmp/cc1kFpjO.s:1803   .text:00000000000009f4 .L0 
     /tmp/cc1kFpjO.s:1825   .text:0000000000000a14 .L0 
     /tmp/cc1kFpjO.s:1880   .text:0000000000000a68 .L0 
     /tmp/cc1kFpjO.s:1931   .text:0000000000000ab0 .L0 
     /tmp/cc1kFpjO.s:1940   .text:0000000000000ac0 .L0 
     /tmp/cc1kFpjO.s:1990   .text:0000000000000b18 .L0 
     /tmp/cc1kFpjO.s:2003   .text:0000000000000b28 .L0 
     /tmp/cc1kFpjO.s:1767   .rodata.str1.8:00000000000000b8 .LC14
     /tmp/cc1kFpjO.s:2039   .text:0000000000000b60 .L0 
GAS LISTING /tmp/cc1kFpjO.s 			page 102


     /tmp/cc1kFpjO.s:1776   .rodata.str1.8:00000000000000d0 .LC17
     /tmp/cc1kFpjO.s:2164   .text:0000000000000c00 .L0 
     /tmp/cc1kFpjO.s:2191   .text:0000000000000c20 .L0 
     /tmp/cc1kFpjO.s:2200   .text:0000000000000c30 .L0 
     /tmp/cc1kFpjO.s:2254   .text:0000000000000c80 .L0 
     /tmp/cc1kFpjO.s:2261   .text:0000000000000c94 .L0 
     /tmp/cc1kFpjO.s:2321   .text:0000000000000cec .L0 
     /tmp/cc1kFpjO.s:2341   .text:0000000000000d08 .L0 
     /tmp/cc1kFpjO.s:2399   .text:0000000000000d5c .L0 
     /tmp/cc1kFpjO.s:1770   .rodata.str1.8:00000000000000c0 .LC15
     /tmp/cc1kFpjO.s:2448   .text:0000000000000da4 .L0 
     /tmp/cc1kFpjO.s:1773   .rodata.str1.8:00000000000000c8 .LC16
     /tmp/cc1kFpjO.s:2458   .text:0000000000000dc0 .L0 
     /tmp/cc1kFpjO.s:2475   .text:0000000000000de8 .L0 
     /tmp/cc1kFpjO.s:2506   .text:0000000000000e14 .L0 
     /tmp/cc1kFpjO.s:2519   .text:0000000000000e24 .L0 
     /tmp/cc1kFpjO.s:2645   .text:0000000000000eb8 .L0 
     /tmp/cc1kFpjO.s:2669   .text:0000000000000ed4 .L0 
     /tmp/cc1kFpjO.s:2678   .text:0000000000000ee4 .L0 
     /tmp/cc1kFpjO.s:2732   .text:0000000000000f34 .L0 
     /tmp/cc1kFpjO.s:2739   .text:0000000000000f48 .L0 
     /tmp/cc1kFpjO.s:2799   .text:0000000000000fa0 .L0 
     /tmp/cc1kFpjO.s:2819   .text:0000000000000fbc .L0 
     /tmp/cc1kFpjO.s:2877   .text:0000000000001010 .L0 
     /tmp/cc1kFpjO.s:2926   .text:0000000000001058 .L0 
     /tmp/cc1kFpjO.s:2936   .text:0000000000001074 .L0 
     /tmp/cc1kFpjO.s:2953   .text:000000000000109c .L0 
     /tmp/cc1kFpjO.s:2984   .text:00000000000010c8 .L0 
     /tmp/cc1kFpjO.s:2997   .text:00000000000010d8 .L0 
     /tmp/cc1kFpjO.s:3017   .text:00000000000010f4 .L0 
     /tmp/cc1kFpjO.s:3046   .text:0000000000001118 .L0 
     /tmp/cc1kFpjO.s:3055   .text:0000000000001128 .L0 
     /tmp/cc1kFpjO.s:3064   .text:0000000000001140 .L0 
     /tmp/cc1kFpjO.s:3086   .text:0000000000001164 .L0 
     /tmp/cc1kFpjO.s:3088   .text:0000000000001170 .L0 
     /tmp/cc1kFpjO.s:3092   .text:000000000000117c .L0 
     /tmp/cc1kFpjO.s:57     .text:0000000000000040 .L1
     /tmp/cc1kFpjO.s:34     .text:0000000000000020 .L3
     /tmp/cc1kFpjO.s:123    .text:0000000000000098 .L5
     /tmp/cc1kFpjO.s:102    .text:0000000000000078 .L7
     /tmp/cc1kFpjO.s:189    .text:00000000000000f8 .L12
     /tmp/cc1kFpjO.s:166    .text:00000000000000d0 .L10
     /tmp/cc1kFpjO.s:396    .text:00000000000001fc .L28
     /tmp/cc1kFpjO.s:414    .text:0000000000000210 .L18
     /tmp/cc1kFpjO.s:449    .text:0000000000000254 .L21
     /tmp/cc1kFpjO.s:464    .text:0000000000000268 .L23
     /tmp/cc1kFpjO.s:339    .text:00000000000001a4 .L25
     /tmp/cc1kFpjO.s:474    .text:000000000000027c .L77
     /tmp/cc1kFpjO.s:500    .text:000000000000029c .L16
     /tmp/cc1kFpjO.s:379    .text:00000000000001e4 .L17
     /tmp/cc1kFpjO.s:292    .text:0000000000000168 .L68
     /tmp/cc1kFpjO.s:310    .text:0000000000000180 .L19
     /tmp/cc1kFpjO.s:302    .text:0000000000000170 .L20
     /tmp/cc1kFpjO.s:330    .text:0000000000000198 .L24
     /tmp/cc1kFpjO.s:624    .text:0000000000000330 .L41
     /tmp/cc1kFpjO.s:522    .text:00000000000002c0 .L30
     /tmp/cc1kFpjO.s:659    .text:0000000000000370 .L32
GAS LISTING /tmp/cc1kFpjO.s 			page 103


     /tmp/cc1kFpjO.s:561    .text:00000000000002e8 .L34
     /tmp/cc1kFpjO.s:666    .text:0000000000000384 .L35
     /tmp/cc1kFpjO.s:585    .text:0000000000000308 .L37
     /tmp/cc1kFpjO.s:673    .text:0000000000000394 .L78
     /tmp/cc1kFpjO.s:605    .text:0000000000000320 .L38
     /tmp/cc1kFpjO.s:694    .text:00000000000003b4 .L79
     /tmp/cc1kFpjO.s:717    .text:00000000000003d4 .L80
     /tmp/cc1kFpjO.s:724    .text:00000000000003dc .L81
     /tmp/cc1kFpjO.s:735    .text:00000000000003f0 .L29
     /tmp/cc1kFpjO.s:512    .text:00000000000002b4 .L69
     /tmp/cc1kFpjO.s:519    .text:00000000000002bc .L70
     /tmp/cc1kFpjO.s:648    .text:000000000000035c .L31
     /tmp/cc1kFpjO.s:552    .text:00000000000002dc .L33
     /tmp/cc1kFpjO.s:567    .text:00000000000002f0 .L36
     /tmp/cc1kFpjO.s:613    .text:0000000000000328 .L39
     /tmp/cc1kFpjO.s:487    .text:000000000000028c .L15
     /tmp/cc1kFpjO.s:852    .text:000000000000049c .L53
     /tmp/cc1kFpjO.s:870    .text:00000000000004b0 .L44
     /tmp/cc1kFpjO.s:905    .text:00000000000004f4 .L47
     /tmp/cc1kFpjO.s:920    .text:0000000000000508 .L49
     /tmp/cc1kFpjO.s:794    .text:0000000000000444 .L51
     /tmp/cc1kFpjO.s:930    .text:000000000000051c .L82
     /tmp/cc1kFpjO.s:946    .text:0000000000000530 .L42
     /tmp/cc1kFpjO.s:834    .text:0000000000000484 .L43
     /tmp/cc1kFpjO.s:748    .text:0000000000000408 .L72
     /tmp/cc1kFpjO.s:765    .text:0000000000000420 .L45
     /tmp/cc1kFpjO.s:757    .text:0000000000000410 .L46
     /tmp/cc1kFpjO.s:785    .text:0000000000000438 .L50
     /tmp/cc1kFpjO.s:1069   .text:00000000000005c4 .L66
     /tmp/cc1kFpjO.s:968    .text:0000000000000554 .L55
     /tmp/cc1kFpjO.s:1104   .text:0000000000000604 .L57
     /tmp/cc1kFpjO.s:1007   .text:000000000000057c .L59
     /tmp/cc1kFpjO.s:1111   .text:0000000000000618 .L60
     /tmp/cc1kFpjO.s:1031   .text:000000000000059c .L62
     /tmp/cc1kFpjO.s:1118   .text:0000000000000628 .L83
     /tmp/cc1kFpjO.s:1051   .text:00000000000005b4 .L63
     /tmp/cc1kFpjO.s:1139   .text:0000000000000648 .L84
     /tmp/cc1kFpjO.s:1162   .text:0000000000000668 .L85
     /tmp/cc1kFpjO.s:1169   .text:0000000000000670 .L86
     /tmp/cc1kFpjO.s:1181   .text:0000000000000684 .L54
     /tmp/cc1kFpjO.s:958    .text:0000000000000548 .L73
     /tmp/cc1kFpjO.s:965    .text:0000000000000550 .L74
     /tmp/cc1kFpjO.s:1093   .text:00000000000005f0 .L56
     /tmp/cc1kFpjO.s:998    .text:0000000000000570 .L58
     /tmp/cc1kFpjO.s:1013   .text:0000000000000584 .L61
     /tmp/cc1kFpjO.s:1059   .text:00000000000005bc .L64
     /tmp/cc1kFpjO.s:1388   .text:00000000000007bc .L88
     /tmp/cc1kFpjO.s:1300   .text:0000000000000740 .L99
     /tmp/cc1kFpjO.s:1318   .text:0000000000000758 .L90
     /tmp/cc1kFpjO.s:1308   .text:0000000000000748 .L91
     /tmp/cc1kFpjO.s:1250   .text:00000000000006ec .L89
     /tmp/cc1kFpjO.s:1285   .text:000000000000072c .L92
     /tmp/cc1kFpjO.s:1414   .text:00000000000007e0 .L94
     /tmp/cc1kFpjO.s:1347   .text:000000000000077c .L96
     /tmp/cc1kFpjO.s:1430   .text:00000000000007f4 .L101
     /tmp/cc1kFpjO.s:1338   .text:0000000000000770 .L95
     /tmp/cc1kFpjO.s:1402   .text:00000000000007d0 .L87
GAS LISTING /tmp/cc1kFpjO.s 			page 104


     /tmp/cc1kFpjO.s:1619   .text:00000000000008e4 .L113
     /tmp/cc1kFpjO.s:1641   .text:00000000000008fc .L105
     /tmp/cc1kFpjO.s:1676   .text:0000000000000940 .L108
     /tmp/cc1kFpjO.s:1691   .text:0000000000000954 .L110
     /tmp/cc1kFpjO.s:1542   .text:000000000000087c .L112
     /tmp/cc1kFpjO.s:1701   .text:0000000000000968 .L103
     /tmp/cc1kFpjO.s:1582   .text:00000000000008bc .L104
     /tmp/cc1kFpjO.s:1494   .text:0000000000000840 .L116
     /tmp/cc1kFpjO.s:1513   .text:0000000000000858 .L106
     /tmp/cc1kFpjO.s:1505   .text:0000000000000848 .L107
     /tmp/cc1kFpjO.s:1533   .text:0000000000000870 .L111
     /tmp/cc1kFpjO.s:1751   .text:00000000000009c0 .L118
     /tmp/cc1kFpjO.s:1734   .text:00000000000009a8 .L102
     /tmp/cc1kFpjO.s:1916   .text:0000000000000aa8 .L132
     /tmp/cc1kFpjO.s:1934   .text:0000000000000abc .L122
     /tmp/cc1kFpjO.s:1969   .text:0000000000000b00 .L125
     /tmp/cc1kFpjO.s:1984   .text:0000000000000b14 .L127
     /tmp/cc1kFpjO.s:1857   .text:0000000000000a48 .L129
     /tmp/cc1kFpjO.s:1994   .text:0000000000000b28 .L192
     /tmp/cc1kFpjO.s:2027   .text:0000000000000b58 .L180
     /tmp/cc1kFpjO.s:1897   .text:0000000000000a88 .L121
     /tmp/cc1kFpjO.s:1811   .text:0000000000000a0c .L181
     /tmp/cc1kFpjO.s:1828   .text:0000000000000a24 .L123
     /tmp/cc1kFpjO.s:1820   .text:0000000000000a14 .L124
     /tmp/cc1kFpjO.s:1848   .text:0000000000000a3c .L128
     /tmp/cc1kFpjO.s:3014   .text:00000000000010f4 .L133
     /tmp/cc1kFpjO.s:2441   .text:0000000000000d9c .L156
     /tmp/cc1kFpjO.s:2063   .text:0000000000000b94 .L135
     /tmp/cc1kFpjO.s:2244   .text:0000000000000c80 .L137
     /tmp/cc1kFpjO.s:2104   .text:0000000000000bbc .L139
     /tmp/cc1kFpjO.s:2258   .text:0000000000000c94 .L140
     /tmp/cc1kFpjO.s:2128   .text:0000000000000bdc .L142
     /tmp/cc1kFpjO.s:2265   .text:0000000000000ca4 .L193
     /tmp/cc1kFpjO.s:2148   .text:0000000000000bf4 .L143
     /tmp/cc1kFpjO.s:2286   .text:0000000000000cc4 .L194
     /tmp/cc1kFpjO.s:2309   .text:0000000000000ce4 .L195
     /tmp/cc1kFpjO.s:2316   .text:0000000000000cec .L196
     /tmp/cc1kFpjO.s:2416   .text:0000000000000d7c .L146
     /tmp/cc1kFpjO.s:2327   .text:0000000000000d00 .L186
     /tmp/cc1kFpjO.s:2346   .text:0000000000000d18 .L148
     /tmp/cc1kFpjO.s:2336   .text:0000000000000d08 .L149
     /tmp/cc1kFpjO.s:2095   .text:0000000000000bb0 .L138
     /tmp/cc1kFpjO.s:2110   .text:0000000000000bc4 .L141
     /tmp/cc1kFpjO.s:2156   .text:0000000000000bfc .L144
     /tmp/cc1kFpjO.s:2007   .text:0000000000000b38 .L119
     /tmp/cc1kFpjO.s:2194   .text:0000000000000c2c .L147
     /tmp/cc1kFpjO.s:2229   .text:0000000000000c6c .L150
     /tmp/cc1kFpjO.s:2493   .text:0000000000000e10 .L152
     /tmp/cc1kFpjO.s:2375   .text:0000000000000d3c .L154
     /tmp/cc1kFpjO.s:2510   .text:0000000000000e24 .L197
     /tmp/cc1kFpjO.s:2525   .text:0000000000000e38 .L182
     /tmp/cc1kFpjO.s:2053   .text:0000000000000b88 .L183
     /tmp/cc1kFpjO.s:2060   .text:0000000000000b90 .L184
     /tmp/cc1kFpjO.s:2482   .text:0000000000000dfc .L136
     /tmp/cc1kFpjO.s:2366   .text:0000000000000d30 .L153
     /tmp/cc1kFpjO.s:2919   .text:0000000000001050 .L134
     /tmp/cc1kFpjO.s:2544   .text:0000000000000e4c .L158
GAS LISTING /tmp/cc1kFpjO.s 			page 105


     /tmp/cc1kFpjO.s:2722   .text:0000000000000f34 .L160
     /tmp/cc1kFpjO.s:2585   .text:0000000000000e74 .L162
     /tmp/cc1kFpjO.s:2736   .text:0000000000000f48 .L163
     /tmp/cc1kFpjO.s:2609   .text:0000000000000e94 .L165
     /tmp/cc1kFpjO.s:2743   .text:0000000000000f58 .L198
     /tmp/cc1kFpjO.s:2629   .text:0000000000000eac .L166
     /tmp/cc1kFpjO.s:2764   .text:0000000000000f78 .L199
     /tmp/cc1kFpjO.s:2787   .text:0000000000000f98 .L200
     /tmp/cc1kFpjO.s:2794   .text:0000000000000fa0 .L201
     /tmp/cc1kFpjO.s:2894   .text:0000000000001030 .L169
     /tmp/cc1kFpjO.s:2805   .text:0000000000000fb4 .L190
     /tmp/cc1kFpjO.s:2824   .text:0000000000000fcc .L171
     /tmp/cc1kFpjO.s:2814   .text:0000000000000fbc .L172
     /tmp/cc1kFpjO.s:2576   .text:0000000000000e68 .L161
     /tmp/cc1kFpjO.s:2591   .text:0000000000000e7c .L164
     /tmp/cc1kFpjO.s:2637   .text:0000000000000eb4 .L167
     /tmp/cc1kFpjO.s:2672   .text:0000000000000ee0 .L170
     /tmp/cc1kFpjO.s:2707   .text:0000000000000f20 .L173
     /tmp/cc1kFpjO.s:2971   .text:00000000000010c4 .L175
     /tmp/cc1kFpjO.s:2853   .text:0000000000000ff0 .L177
     /tmp/cc1kFpjO.s:2988   .text:00000000000010d8 .L202
     /tmp/cc1kFpjO.s:3003   .text:00000000000010ec .L157
     /tmp/cc1kFpjO.s:2534   .text:0000000000000e40 .L187
     /tmp/cc1kFpjO.s:2541   .text:0000000000000e48 .L188
     /tmp/cc1kFpjO.s:2960   .text:00000000000010b0 .L159
     /tmp/cc1kFpjO.s:2844   .text:0000000000000fe4 .L176
     /tmp/cc1kFpjO.s:2032   .text:0000000000000b5c .L120
     /tmp/cc1kFpjO.s:3079   .text:0000000000001164 .L206
     /tmp/cc1kFpjO.s:3050   .text:0000000000001128 .L204
     /tmp/cc1kFpjO.s:4836   .debug_abbrev:0000000000000000 .Ldebug_abbrev0
     /tmp/cc1kFpjO.s:7476   .debug_str:0000000000000360 .LASF69
     /tmp/cc1kFpjO.s:7420   .debug_str:00000000000001f5 .LASF70
     /tmp/cc1kFpjO.s:7394   .debug_str:00000000000000f7 .LASF71
     /tmp/cc1kFpjO.s:5      .text:0000000000000000 .Ltext0
     /tmp/cc1kFpjO.s:3116   .text:00000000000011a0 .Letext0
     /tmp/cc1kFpjO.s:7358   .debug_line:0000000000000000 .Ldebug_line0
     /tmp/cc1kFpjO.s:7466   .debug_str:0000000000000314 .LASF0
     /tmp/cc1kFpjO.s:7432   .debug_str:0000000000000240 .LASF1
     /tmp/cc1kFpjO.s:7440   .debug_str:0000000000000270 .LASF2
     /tmp/cc1kFpjO.s:7422   .debug_str:0000000000000202 .LASF3
     /tmp/cc1kFpjO.s:7410   .debug_str:00000000000001a7 .LASF4
     /tmp/cc1kFpjO.s:7364   .debug_str:000000000000001d .LASF5
     /tmp/cc1kFpjO.s:7442   .debug_str:0000000000000283 .LASF6
     /tmp/cc1kFpjO.s:7430   .debug_str:000000000000022d .LASF7
     /tmp/cc1kFpjO.s:7486   .debug_str:0000000000000473 .LASF8
     /tmp/cc1kFpjO.s:7400   .debug_str:000000000000012b .LASF9
     /tmp/cc1kFpjO.s:7452   .debug_str:00000000000002c7 .LASF10
     /tmp/cc1kFpjO.s:7480   .debug_str:0000000000000430 .LASF11
     /tmp/cc1kFpjO.s:7366   .debug_str:0000000000000024 .LASF12
     /tmp/cc1kFpjO.s:7360   .debug_str:0000000000000000 .LASF13
     /tmp/cc1kFpjO.s:7376   .debug_str:0000000000000054 .LASF14
     /tmp/cc1kFpjO.s:7462   .debug_str:00000000000002f0 .LASF15
     /tmp/cc1kFpjO.s:7382   .debug_str:0000000000000078 .LASF16
     /tmp/cc1kFpjO.s:7472   .debug_str:000000000000034a .LASF23
     /tmp/cc1kFpjO.s:7392   .debug_str:00000000000000ef .LASF38
     /tmp/cc1kFpjO.s:7506   .debug_str:0000000000000534 .LASF17
     /tmp/cc1kFpjO.s:7494   .debug_str:000000000000049d .LASF18
GAS LISTING /tmp/cc1kFpjO.s 			page 106


     /tmp/cc1kFpjO.s:7474   .debug_str:000000000000035b .LASF19
     /tmp/cc1kFpjO.s:7450   .debug_str:00000000000002bd .LASF20
     /tmp/cc1kFpjO.s:7436   .debug_str:0000000000000260 .LASF21
     /tmp/cc1kFpjO.s:7458   .debug_str:00000000000002e4 .LASF22
     /tmp/cc1kFpjO.s:7470   .debug_str:0000000000000330 .LASF24
     /tmp/cc1kFpjO.s:7446   .debug_str:000000000000029b .LASF25
     /tmp/cc1kFpjO.s:7426   .debug_str:000000000000021b .LASF26
     /tmp/cc1kFpjO.s:7384   .debug_str:000000000000008e .LASF27
     /tmp/cc1kFpjO.s:7478   .debug_str:0000000000000424 .LASF72
     /tmp/cc1kFpjO.s:7418   .debug_str:00000000000001d0 .LASF73
     /tmp/cc1kFpjO.s:7372   .debug_str:0000000000000044 .LASF40
     /tmp/cc1kFpjO.s:7500   .debug_str:00000000000004c4 .LASF43
     /tmp/cc1kFpjO.s:7374   .debug_str:000000000000004c .LASF28
     /tmp/cc1kFpjO.s:7402   .debug_str:0000000000000139 .LASF30
     /tmp/cc1kFpjO.s:7464   .debug_str:0000000000000306 .LASF29
     /tmp/cc1kFpjO.s:7388   .debug_str:00000000000000be .LASF31
     /tmp/cc1kFpjO.s:7390   .debug_str:00000000000000e5 .LASF32
     /tmp/cc1kFpjO.s:7502   .debug_str:00000000000004e4 .LASF33
     /tmp/cc1kFpjO.s:7456   .debug_str:00000000000002db .LASF34
     /tmp/cc1kFpjO.s:7504   .debug_str:0000000000000512 .LASF35
     /tmp/cc1kFpjO.s:7468   .debug_str:0000000000000326 .LASF36
     /tmp/cc1kFpjO.s:7482   .debug_str:000000000000043f .LASF37
     /tmp/cc1kFpjO.s:7490   .debug_str:0000000000000491 .LASF39
     /tmp/cc1kFpjO.s:7448   .debug_str:00000000000002b8 .LASF41
     /tmp/cc1kFpjO.s:3029   .text:0000000000001108 .LFB18
     /tmp/cc1kFpjO.s:3114   .text:00000000000011a0 .LFE18
     /tmp/cc1kFpjO.s:7428   .debug_str:0000000000000225 .LASF63
     /tmp/cc1kFpjO.s:3043   .text:0000000000001118 .LBB317
     /tmp/cc1kFpjO.s:7042   .debug_ranges:0000000000000000 .Ldebug_ranges0
     /tmp/cc1kFpjO.s:3083   .text:0000000000001164 .LBB319
     /tmp/cc1kFpjO.s:3110   .text:00000000000011a0 .LBE319
     /tmp/cc1kFpjO.s:3057   .text:0000000000001138 .LVL241
     /tmp/cc1kFpjO.s:3061   .text:0000000000001140 .LVL242
     /tmp/cc1kFpjO.s:3066   .text:0000000000001150 .LVL243
     /tmp/cc1kFpjO.s:7412   .debug_str:00000000000001ae .LASF42
     /tmp/cc1kFpjO.s:7434   .debug_str:000000000000024d .LASF44
     /tmp/cc1kFpjO.s:1783   .text:00000000000009d4 .LFB17
     /tmp/cc1kFpjO.s:3023   .text:0000000000001108 .LFE17
     /tmp/cc1kFpjO.s:7370   .debug_str:000000000000003e .LASF45
     /tmp/cc1kFpjO.s:5766   .debug_loc:0000000000000000 .LLST41
     /tmp/cc1kFpjO.s:5777   .debug_loc:0000000000000036 .LLST42
     /tmp/cc1kFpjO.s:1812   .text:0000000000000a0c .LBB221
     /tmp/cc1kFpjO.s:5788   .debug_loc:000000000000006c .LLST43
     /tmp/cc1kFpjO.s:5803   .debug_loc:00000000000000a6 .LLST44
     /tmp/cc1kFpjO.s:5824   .debug_loc:0000000000000105 .LLST45
     /tmp/cc1kFpjO.s:2005   .text:0000000000000b38 .LVL147
     /tmp/cc1kFpjO.s:5835   .debug_loc:000000000000013b .LLST46
     /tmp/cc1kFpjO.s:7380   .debug_str:0000000000000071 .LASF46
     /tmp/cc1kFpjO.s:5842   .debug_loc:000000000000015e .LLST47
     /tmp/cc1kFpjO.s:2055   .text:0000000000000b88 .LBB237
     /tmp/cc1kFpjO.s:5853   .debug_loc:0000000000000194 .LLST48
     /tmp/cc1kFpjO.s:5868   .debug_loc:00000000000001dd .LLST49
     /tmp/cc1kFpjO.s:5897   .debug_loc:0000000000000261 .LLST50
     /tmp/cc1kFpjO.s:2113   .text:0000000000000bc4 .LBB239
     /tmp/cc1kFpjO.s:5990   .debug_loc:0000000000000349 .LLST51
     /tmp/cc1kFpjO.s:2133   .text:0000000000000bdc .LBB242
     /tmp/cc1kFpjO.s:6001   .debug_loc:000000000000037f .LLST52
GAS LISTING /tmp/cc1kFpjO.s 			page 107


     /tmp/cc1kFpjO.s:2171   .text:0000000000000c14 .LBB251
     /tmp/cc1kFpjO.s:2178   .text:0000000000000c18 .LBE251
     /tmp/cc1kFpjO.s:6012   .debug_loc:00000000000003b5 .LLST53
     /tmp/cc1kFpjO.s:2179   .text:0000000000000c18 .LBB253
     /tmp/cc1kFpjO.s:6019   .debug_loc:00000000000003d8 .LLST54
     /tmp/cc1kFpjO.s:6127   .debug_loc:00000000000004d8 .LLST55
     /tmp/cc1kFpjO.s:6146   .debug_loc:0000000000000534 .LLST56
     /tmp/cc1kFpjO.s:2166   .text:0000000000000c10 .LVL159
     /tmp/cc1kFpjO.s:2323   .text:0000000000000cfc .LVL171
     /tmp/cc1kFpjO.s:2450   .text:0000000000000db4 .LVL186
     /tmp/cc1kFpjO.s:2455   .text:0000000000000dc0 .LVL187
     /tmp/cc1kFpjO.s:2460   .text:0000000000000dd0 .LVL188
     /tmp/cc1kFpjO.s:2521   .text:0000000000000e34 .LVL194
     /tmp/cc1kFpjO.s:6157   .debug_loc:000000000000056a .LLST57
     /tmp/cc1kFpjO.s:6164   .debug_loc:000000000000058d .LLST58
     /tmp/cc1kFpjO.s:2536   .text:0000000000000e40 .LBB277
     /tmp/cc1kFpjO.s:6175   .debug_loc:00000000000005c3 .LLST59
     /tmp/cc1kFpjO.s:6190   .debug_loc:000000000000060c .LLST60
     /tmp/cc1kFpjO.s:6219   .debug_loc:0000000000000690 .LLST61
     /tmp/cc1kFpjO.s:2594   .text:0000000000000e7c .LBB279
     /tmp/cc1kFpjO.s:6312   .debug_loc:0000000000000778 .LLST62
     /tmp/cc1kFpjO.s:2614   .text:0000000000000e94 .LBB282
     /tmp/cc1kFpjO.s:6323   .debug_loc:00000000000007ae .LLST63
     /tmp/cc1kFpjO.s:2649   .text:0000000000000ec8 .LBB291
     /tmp/cc1kFpjO.s:2656   .text:0000000000000ecc .LBE291
     /tmp/cc1kFpjO.s:6334   .debug_loc:00000000000007e4 .LLST64
     /tmp/cc1kFpjO.s:2657   .text:0000000000000ecc .LBB293
     /tmp/cc1kFpjO.s:6341   .debug_loc:0000000000000807 .LLST65
     /tmp/cc1kFpjO.s:6409   .debug_loc:00000000000008df .LLST66
     /tmp/cc1kFpjO.s:6428   .debug_loc:000000000000093b .LLST67
     /tmp/cc1kFpjO.s:2647   .text:0000000000000ec8 .LVL203
     /tmp/cc1kFpjO.s:2801   .text:0000000000000fb0 .LVL214
     /tmp/cc1kFpjO.s:2928   .text:0000000000001068 .LVL229
     /tmp/cc1kFpjO.s:2933   .text:0000000000001074 .LVL230
     /tmp/cc1kFpjO.s:2938   .text:0000000000001084 .LVL231
     /tmp/cc1kFpjO.s:2999   .text:00000000000010e8 .LVL237
     /tmp/cc1kFpjO.s:1805   .text:0000000000000a04 .LVL135
     /tmp/cc1kFpjO.s:2041   .text:0000000000000b70 .LVL150
     /tmp/cc1kFpjO.s:2047   .text:0000000000000b80 .LVL151
     /tmp/cc1kFpjO.s:3019   .text:0000000000001104 .LVL240
     /tmp/cc1kFpjO.s:7498   .debug_str:00000000000004b2 .LASF47
     /tmp/cc1kFpjO.s:7406   .debug_str:0000000000000189 .LASF48
     /tmp/cc1kFpjO.s:1458   .text:0000000000000808 .LFB16
     /tmp/cc1kFpjO.s:1760   .text:00000000000009d4 .LFE16
     /tmp/cc1kFpjO.s:6439   .debug_loc:0000000000000971 .LLST34
     /tmp/cc1kFpjO.s:6455   .debug_loc:00000000000009bb .LLST35
     /tmp/cc1kFpjO.s:6475   .debug_loc:0000000000000a18 .LLST36
     /tmp/cc1kFpjO.s:6487   .debug_loc:0000000000000a4f .LLST37
     /tmp/cc1kFpjO.s:1497   .text:0000000000000840 .LBB164
     /tmp/cc1kFpjO.s:6494   .debug_loc:0000000000000a72 .LLST38
     /tmp/cc1kFpjO.s:6509   .debug_loc:0000000000000aac .LLST39
     /tmp/cc1kFpjO.s:6530   .debug_loc:0000000000000b0b .LLST40
     /tmp/cc1kFpjO.s:1477   .text:0000000000000830 .LVL114
     /tmp/cc1kFpjO.s:1714   .text:0000000000000974 .LVL128
     /tmp/cc1kFpjO.s:1719   .text:0000000000000984 .LVL129
     /tmp/cc1kFpjO.s:1733   .text:00000000000009a8 .LVL131
     /tmp/cc1kFpjO.s:1757   .text:00000000000009d0 .LVL134
GAS LISTING /tmp/cc1kFpjO.s 			page 108


     /tmp/cc1kFpjO.s:7368   .debug_str:0000000000000034 .LASF49
     /tmp/cc1kFpjO.s:7488   .debug_str:0000000000000483 .LASF50
     /tmp/cc1kFpjO.s:1206   .text:0000000000000698 .LFB15
     /tmp/cc1kFpjO.s:1444   .text:0000000000000808 .LFE15
     /tmp/cc1kFpjO.s:6541   .debug_loc:0000000000000b41 .LLST29
     /tmp/cc1kFpjO.s:6548   .debug_loc:0000000000000b64 .LLST30
     /tmp/cc1kFpjO.s:1234   .text:00000000000006d8 .LBB140
     /tmp/cc1kFpjO.s:6559   .debug_loc:0000000000000b9a .LLST31
     /tmp/cc1kFpjO.s:6582   .debug_loc:0000000000000c09 .LLST32
     /tmp/cc1kFpjO.s:6597   .debug_loc:0000000000000c52 .LLST33
     /tmp/cc1kFpjO.s:1221   .text:00000000000006b8 .LVL94
     /tmp/cc1kFpjO.s:1401   .text:00000000000007d0 .LVL110
     /tmp/cc1kFpjO.s:1441   .text:0000000000000804 .LVL113
     /tmp/cc1kFpjO.s:7508   .debug_str:0000000000000539 .LASF51
     /tmp/cc1kFpjO.s:7496   .debug_str:00000000000004a2 .LASF52
     /tmp/cc1kFpjO.s:271    .text:0000000000000140 .LFB14
     /tmp/cc1kFpjO.s:1192   .text:0000000000000698 .LFE14
     /tmp/cc1kFpjO.s:6608   .debug_loc:0000000000000c88 .LLST7
     /tmp/cc1kFpjO.s:293    .text:0000000000000168 .LBB69
     /tmp/cc1kFpjO.s:6619   .debug_loc:0000000000000cbe .LLST8
     /tmp/cc1kFpjO.s:6634   .debug_loc:0000000000000cf8 .LLST9
     /tmp/cc1kFpjO.s:6655   .debug_loc:0000000000000d57 .LLST10
     /tmp/cc1kFpjO.s:485    .text:000000000000028c .LVL39
     /tmp/cc1kFpjO.s:6666   .debug_loc:0000000000000d8d .LLST11
     /tmp/cc1kFpjO.s:6677   .debug_loc:0000000000000dc3 .LLST12
     /tmp/cc1kFpjO.s:514    .text:00000000000002b4 .LBB84
     /tmp/cc1kFpjO.s:6688   .debug_loc:0000000000000df9 .LLST13
     /tmp/cc1kFpjO.s:6699   .debug_loc:0000000000000e2f .LLST14
     /tmp/cc1kFpjO.s:6724   .debug_loc:0000000000000ea0 .LLST15
     /tmp/cc1kFpjO.s:570    .text:00000000000002f0 .LBB86
     /tmp/cc1kFpjO.s:6735   .debug_loc:0000000000000ed6 .LLST16
     /tmp/cc1kFpjO.s:590    .text:0000000000000308 .LBB89
     /tmp/cc1kFpjO.s:6746   .debug_loc:0000000000000f0c .LLST17
     /tmp/cc1kFpjO.s:731    .text:00000000000003ec .LVL58
     /tmp/cc1kFpjO.s:6757   .debug_loc:0000000000000f42 .LLST18
     /tmp/cc1kFpjO.s:749    .text:0000000000000408 .LBB102
     /tmp/cc1kFpjO.s:6768   .debug_loc:0000000000000f78 .LLST19
     /tmp/cc1kFpjO.s:6783   .debug_loc:0000000000000fb2 .LLST20
     /tmp/cc1kFpjO.s:6804   .debug_loc:0000000000001011 .LLST21
     /tmp/cc1kFpjO.s:941    .text:000000000000052c .LVL72
     /tmp/cc1kFpjO.s:6815   .debug_loc:0000000000001047 .LLST22
     /tmp/cc1kFpjO.s:6826   .debug_loc:000000000000107d .LLST23
     /tmp/cc1kFpjO.s:960    .text:0000000000000548 .LBB117
     /tmp/cc1kFpjO.s:6837   .debug_loc:00000000000010b3 .LLST24
     /tmp/cc1kFpjO.s:6848   .debug_loc:00000000000010e9 .LLST25
     /tmp/cc1kFpjO.s:6873   .debug_loc:000000000000115a .LLST26
     /tmp/cc1kFpjO.s:1016   .text:0000000000000584 .LBB119
     /tmp/cc1kFpjO.s:6884   .debug_loc:0000000000001190 .LLST27
     /tmp/cc1kFpjO.s:1036   .text:000000000000059c .LBB122
     /tmp/cc1kFpjO.s:6895   .debug_loc:00000000000011c6 .LLST28
     /tmp/cc1kFpjO.s:1176   .text:0000000000000680 .LVL91
     /tmp/cc1kFpjO.s:286    .text:0000000000000160 .LVL27
     /tmp/cc1kFpjO.s:506    .text:00000000000002ac .LVL41
     /tmp/cc1kFpjO.s:742    .text:0000000000000400 .LVL60
     /tmp/cc1kFpjO.s:952    .text:0000000000000540 .LVL74
     /tmp/cc1kFpjO.s:1188   .text:0000000000000694 .LVL93
     /tmp/cc1kFpjO.s:7396   .debug_str:0000000000000115 .LASF53
GAS LISTING /tmp/cc1kFpjO.s 			page 109


     /tmp/cc1kFpjO.s:7484   .debug_str:0000000000000461 .LASF54
     /tmp/cc1kFpjO.s:205    .text:000000000000010c .LFB13
     /tmp/cc1kFpjO.s:236    .text:0000000000000140 .LFE13
     /tmp/cc1kFpjO.s:6906   .debug_loc:00000000000011fc .LLST6
     /tmp/cc1kFpjO.s:220    .text:0000000000000124 .LVL25
     /tmp/cc1kFpjO.s:225    .text:0000000000000130 .LVL26
     /tmp/cc1kFpjO.s:7398   .debug_str:0000000000000122 .LASF55
     /tmp/cc1kFpjO.s:7362   .debug_str:0000000000000010 .LASF56
     /tmp/cc1kFpjO.s:146    .text:00000000000000b0 .LFB12
     /tmp/cc1kFpjO.s:199    .text:000000000000010c .LFE12
     /tmp/cc1kFpjO.s:6920   .debug_loc:0000000000001235 .LLST5
     /tmp/cc1kFpjO.s:174    .text:00000000000000e4 .LVL20
     /tmp/cc1kFpjO.s:196    .text:0000000000000108 .LVL23
     /tmp/cc1kFpjO.s:7424   .debug_str:0000000000000210 .LASF57
     /tmp/cc1kFpjO.s:7378   .debug_str:0000000000000060 .LASF58
     /tmp/cc1kFpjO.s:79     .text:0000000000000058 .LFB11
     /tmp/cc1kFpjO.s:140    .text:00000000000000b0 .LFE11
     /tmp/cc1kFpjO.s:6942   .debug_loc:0000000000001294 .LLST3
     /tmp/cc1kFpjO.s:6960   .debug_loc:00000000000012e0 .LLST4
     /tmp/cc1kFpjO.s:107    .text:0000000000000080 .LVL12
     /tmp/cc1kFpjO.s:7444   .debug_str:0000000000000296 .LASF59
     /tmp/cc1kFpjO.s:7416   .debug_str:00000000000001c4 .LASF60
     /tmp/cc1kFpjO.s:7386   .debug_str:00000000000000ab .LASF61
     /tmp/cc1kFpjO.s:10     .text:0000000000000000 .LFB10
     /tmp/cc1kFpjO.s:73     .text:0000000000000058 .LFE10
     /tmp/cc1kFpjO.s:7408   .debug_str:00000000000001a0 .LASF62
     /tmp/cc1kFpjO.s:6982   .debug_loc:000000000000133f .LLST0
     /tmp/cc1kFpjO.s:7000   .debug_loc:000000000000138b .LLST1
     /tmp/cc1kFpjO.s:7011   .debug_loc:00000000000013c1 .LLST2
     /tmp/cc1kFpjO.s:51     .text:0000000000000038 .LVL6
     /tmp/cc1kFpjO.s:7414   .debug_str:00000000000001bc .LASF64
     /tmp/cc1kFpjO.s:7438   .debug_str:0000000000000269 .LASF65
     /tmp/cc1kFpjO.s:7454   .debug_str:00000000000002d6 .LASF66
     /tmp/cc1kFpjO.s:7404   .debug_str:0000000000000159 .LASF74
     /tmp/cc1kFpjO.s:7460   .debug_str:00000000000002e9 .LASF67
     /tmp/cc1kFpjO.s:7492   .debug_str:0000000000000496 .LASF68
     /tmp/cc1kFpjO.s:2031   .text:0000000000000b5c .LVL149
     /tmp/cc1kFpjO.s:3009   .text:00000000000010f0 .LVL238
     /tmp/cc1kFpjO.s:3013   .text:00000000000010f4 .LVL239
     /tmp/cc1kFpjO.s:1810   .text:0000000000000a0c .LVL136
     /tmp/cc1kFpjO.s:2026   .text:0000000000000b58 .LVL148
     /tmp/cc1kFpjO.s:1896   .text:0000000000000a88 .LVL141
     /tmp/cc1kFpjO.s:1921   .text:0000000000000ab0 .LVL143
     /tmp/cc1kFpjO.s:1993   .text:0000000000000b28 .LVL146
     /tmp/cc1kFpjO.s:1817   .text:0000000000000a10 .LVL137
     /tmp/cc1kFpjO.s:1819   .text:0000000000000a14 .LVL138
     /tmp/cc1kFpjO.s:1871   .text:0000000000000a5c .LVL140
     /tmp/cc1kFpjO.s:1933   .text:0000000000000abc .LVL144
     /tmp/cc1kFpjO.s:1833   .text:0000000000000a28 .LVL139
     /tmp/cc1kFpjO.s:1983   .text:0000000000000b14 .LVL145
     /tmp/cc1kFpjO.s:2052   .text:0000000000000b88 .LVL152
     /tmp/cc1kFpjO.s:2531   .text:0000000000000e3c .LVL195
     /tmp/cc1kFpjO.s:2157   .text:0000000000000bfc .LVL158
     /tmp/cc1kFpjO.s:2315   .text:0000000000000cec .LVL170
     /tmp/cc1kFpjO.s:2243   .text:0000000000000c80 .LVL166
     /tmp/cc1kFpjO.s:2469   .text:0000000000000de8 .LVL189
     /tmp/cc1kFpjO.s:2492   .text:0000000000000e10 .LVL192
GAS LISTING /tmp/cc1kFpjO.s 			page 110


     /tmp/cc1kFpjO.s:2062   .text:0000000000000b94 .LVL153
     /tmp/cc1kFpjO.s:2481   .text:0000000000000dfc .LVL190
     /tmp/cc1kFpjO.s:2487   .text:0000000000000e04 .LVL191
     /tmp/cc1kFpjO.s:2425   .text:0000000000000d80 .LVL181
     /tmp/cc1kFpjO.s:2428   .text:0000000000000d88 .LVL182
     /tmp/cc1kFpjO.s:2430   .text:0000000000000d8c .LVL183
     /tmp/cc1kFpjO.s:2433   .text:0000000000000d94 .LVL184
     /tmp/cc1kFpjO.s:2509   .text:0000000000000e24 .LVL193
     /tmp/cc1kFpjO.s:2112   .text:0000000000000bc4 .LVL155
     /tmp/cc1kFpjO.s:2129   .text:0000000000000bdc .LVL156
     /tmp/cc1kFpjO.s:2264   .text:0000000000000ca4 .LVL167
     /tmp/cc1kFpjO.s:2285   .text:0000000000000cc4 .LVL168
     /tmp/cc1kFpjO.s:2149   .text:0000000000000bf4 .LVL157
     /tmp/cc1kFpjO.s:2308   .text:0000000000000ce4 .LVL169
     /tmp/cc1kFpjO.s:2170   .text:0000000000000c14 .LVL160
     /tmp/cc1kFpjO.s:2176   .text:0000000000000c18 .LVL161
     /tmp/cc1kFpjO.s:2184   .text:0000000000000c1c .LVL162
     /tmp/cc1kFpjO.s:2187   .text:0000000000000c20 .LVL163
     /tmp/cc1kFpjO.s:2228   .text:0000000000000c6c .LVL165
     /tmp/cc1kFpjO.s:2326   .text:0000000000000d00 .LVL172
     /tmp/cc1kFpjO.s:2342   .text:0000000000000d10 .LVL175
     /tmp/cc1kFpjO.s:2345   .text:0000000000000d18 .LVL176
     /tmp/cc1kFpjO.s:2392   .text:0000000000000d54 .LVL179
     /tmp/cc1kFpjO.s:2415   .text:0000000000000d7c .LVL180
     /tmp/cc1kFpjO.s:2193   .text:0000000000000c2c .LVL164
     /tmp/cc1kFpjO.s:2333   .text:0000000000000d04 .LVL173
     /tmp/cc1kFpjO.s:2335   .text:0000000000000d08 .LVL174
     /tmp/cc1kFpjO.s:2389   .text:0000000000000d50 .LVL178
     /tmp/cc1kFpjO.s:2351   .text:0000000000000d1c .LVL177
     /tmp/cc1kFpjO.s:2533   .text:0000000000000e40 .LVL196
     /tmp/cc1kFpjO.s:2638   .text:0000000000000eb4 .LVL202
     /tmp/cc1kFpjO.s:2793   .text:0000000000000fa0 .LVL213
     /tmp/cc1kFpjO.s:2721   .text:0000000000000f34 .LVL209
     /tmp/cc1kFpjO.s:2947   .text:000000000000109c .LVL232
     /tmp/cc1kFpjO.s:2970   .text:00000000000010c4 .LVL235
     /tmp/cc1kFpjO.s:2543   .text:0000000000000e4c .LVL197
     /tmp/cc1kFpjO.s:2959   .text:00000000000010b0 .LVL233
     /tmp/cc1kFpjO.s:2965   .text:00000000000010b8 .LVL234
     /tmp/cc1kFpjO.s:2903   .text:0000000000001034 .LVL224
     /tmp/cc1kFpjO.s:2906   .text:000000000000103c .LVL225
     /tmp/cc1kFpjO.s:2908   .text:0000000000001040 .LVL226
     /tmp/cc1kFpjO.s:2911   .text:0000000000001048 .LVL227
     /tmp/cc1kFpjO.s:2987   .text:00000000000010d8 .LVL236
     /tmp/cc1kFpjO.s:2593   .text:0000000000000e7c .LVL199
     /tmp/cc1kFpjO.s:2610   .text:0000000000000e94 .LVL200
     /tmp/cc1kFpjO.s:2742   .text:0000000000000f58 .LVL210
     /tmp/cc1kFpjO.s:2763   .text:0000000000000f78 .LVL211
     /tmp/cc1kFpjO.s:2630   .text:0000000000000eac .LVL201
     /tmp/cc1kFpjO.s:2786   .text:0000000000000f98 .LVL212
     /tmp/cc1kFpjO.s:2654   .text:0000000000000ecc .LVL204
     /tmp/cc1kFpjO.s:2662   .text:0000000000000ed0 .LVL205
     /tmp/cc1kFpjO.s:2665   .text:0000000000000ed4 .LVL206
     /tmp/cc1kFpjO.s:2706   .text:0000000000000f20 .LVL208
     /tmp/cc1kFpjO.s:2804   .text:0000000000000fb4 .LVL215
     /tmp/cc1kFpjO.s:2820   .text:0000000000000fc4 .LVL218
     /tmp/cc1kFpjO.s:2823   .text:0000000000000fcc .LVL219
     /tmp/cc1kFpjO.s:2870   .text:0000000000001008 .LVL222
GAS LISTING /tmp/cc1kFpjO.s 			page 111


     /tmp/cc1kFpjO.s:2893   .text:0000000000001030 .LVL223
     /tmp/cc1kFpjO.s:2671   .text:0000000000000ee0 .LVL207
     /tmp/cc1kFpjO.s:2811   .text:0000000000000fb8 .LVL216
     /tmp/cc1kFpjO.s:2813   .text:0000000000000fbc .LVL217
     /tmp/cc1kFpjO.s:2867   .text:0000000000001004 .LVL221
     /tmp/cc1kFpjO.s:2829   .text:0000000000000fd0 .LVL220
     /tmp/cc1kFpjO.s:1493   .text:0000000000000840 .LVL115
     /tmp/cc1kFpjO.s:1614   .text:00000000000008e0 .LVL122
     /tmp/cc1kFpjO.s:1618   .text:00000000000008e4 .LVL123
     /tmp/cc1kFpjO.s:1724   .text:000000000000098c .LVL130
     /tmp/cc1kFpjO.s:1610   .text:00000000000008dc .LVL121
     /tmp/cc1kFpjO.s:1746   .text:00000000000009b8 .LVL132
     /tmp/cc1kFpjO.s:1750   .text:00000000000009c0 .LVL133
     /tmp/cc1kFpjO.s:1581   .text:00000000000008bc .LVL120
     /tmp/cc1kFpjO.s:1626   .text:00000000000008f0 .LVL124
     /tmp/cc1kFpjO.s:1700   .text:0000000000000968 .LVL127
     /tmp/cc1kFpjO.s:1502   .text:0000000000000844 .LVL116
     /tmp/cc1kFpjO.s:1504   .text:0000000000000848 .LVL117
     /tmp/cc1kFpjO.s:1556   .text:0000000000000890 .LVL119
     /tmp/cc1kFpjO.s:1640   .text:00000000000008fc .LVL125
     /tmp/cc1kFpjO.s:1518   .text:000000000000085c .LVL118
     /tmp/cc1kFpjO.s:1690   .text:0000000000000954 .LVL126
     /tmp/cc1kFpjO.s:1232   .text:00000000000006d8 .LVL95
     /tmp/cc1kFpjO.s:1239   .text:00000000000006dc .LVL96
     /tmp/cc1kFpjO.s:1387   .text:00000000000007bc .LVL109
     /tmp/cc1kFpjO.s:1429   .text:00000000000007f4 .LVL112
     /tmp/cc1kFpjO.s:1242   .text:00000000000006e0 .LVL97
     /tmp/cc1kFpjO.s:1284   .text:000000000000072c .LVL100
     /tmp/cc1kFpjO.s:1299   .text:0000000000000740 .LVL101
     /tmp/cc1kFpjO.s:1314   .text:0000000000000750 .LVL104
     /tmp/cc1kFpjO.s:1317   .text:0000000000000758 .LVL105
     /tmp/cc1kFpjO.s:1364   .text:0000000000000794 .LVL108
     /tmp/cc1kFpjO.s:1413   .text:00000000000007e0 .LVL111
     /tmp/cc1kFpjO.s:1249   .text:00000000000006ec .LVL99
     /tmp/cc1kFpjO.s:1305   .text:0000000000000744 .LVL102
     /tmp/cc1kFpjO.s:1307   .text:0000000000000748 .LVL103
     /tmp/cc1kFpjO.s:1361   .text:0000000000000790 .LVL107
     /tmp/cc1kFpjO.s:1323   .text:000000000000075c .LVL106
     /tmp/cc1kFpjO.s:291    .text:0000000000000168 .LVL28
     /tmp/cc1kFpjO.s:499    .text:000000000000029c .LVL40
     /tmp/cc1kFpjO.s:378    .text:00000000000001e4 .LVL33
     /tmp/cc1kFpjO.s:401    .text:0000000000000204 .LVL35
     /tmp/cc1kFpjO.s:473    .text:000000000000027c .LVL38
     /tmp/cc1kFpjO.s:299    .text:000000000000016c .LVL29
     /tmp/cc1kFpjO.s:301    .text:0000000000000170 .LVL30
     /tmp/cc1kFpjO.s:353    .text:00000000000001b8 .LVL32
     /tmp/cc1kFpjO.s:413    .text:0000000000000210 .LVL36
     /tmp/cc1kFpjO.s:315    .text:0000000000000184 .LVL31
     /tmp/cc1kFpjO.s:463    .text:0000000000000268 .LVL37
     /tmp/cc1kFpjO.s:511    .text:00000000000002b4 .LVL42
     /tmp/cc1kFpjO.s:734    .text:00000000000003f0 .LVL59
     /tmp/cc1kFpjO.s:614    .text:0000000000000328 .LVL48
     /tmp/cc1kFpjO.s:623    .text:0000000000000330 .LVL49
     /tmp/cc1kFpjO.s:723    .text:00000000000003dc .LVL57
     /tmp/cc1kFpjO.s:635    .text:0000000000000348 .LVL50
     /tmp/cc1kFpjO.s:521    .text:00000000000002c0 .LVL43
     /tmp/cc1kFpjO.s:647    .text:000000000000035c .LVL51
GAS LISTING /tmp/cc1kFpjO.s 			page 112


     /tmp/cc1kFpjO.s:653    .text:0000000000000364 .LVL52
     /tmp/cc1kFpjO.s:658    .text:0000000000000370 .LVL53
     /tmp/cc1kFpjO.s:569    .text:00000000000002f0 .LVL45
     /tmp/cc1kFpjO.s:586    .text:0000000000000308 .LVL46
     /tmp/cc1kFpjO.s:672    .text:0000000000000394 .LVL54
     /tmp/cc1kFpjO.s:693    .text:00000000000003b4 .LVL55
     /tmp/cc1kFpjO.s:606    .text:0000000000000320 .LVL47
     /tmp/cc1kFpjO.s:716    .text:00000000000003d4 .LVL56
     /tmp/cc1kFpjO.s:747    .text:0000000000000408 .LVL61
     /tmp/cc1kFpjO.s:945    .text:0000000000000530 .LVL73
     /tmp/cc1kFpjO.s:833    .text:0000000000000484 .LVL66
     /tmp/cc1kFpjO.s:857    .text:00000000000004a4 .LVL68
     /tmp/cc1kFpjO.s:929    .text:000000000000051c .LVL71
     /tmp/cc1kFpjO.s:754    .text:000000000000040c .LVL62
     /tmp/cc1kFpjO.s:756    .text:0000000000000410 .LVL63
     /tmp/cc1kFpjO.s:808    .text:0000000000000458 .LVL65
     /tmp/cc1kFpjO.s:869    .text:00000000000004b0 .LVL69
     /tmp/cc1kFpjO.s:770    .text:0000000000000424 .LVL64
     /tmp/cc1kFpjO.s:919    .text:0000000000000508 .LVL70
     /tmp/cc1kFpjO.s:957    .text:0000000000000548 .LVL75
     /tmp/cc1kFpjO.s:1180   .text:0000000000000684 .LVL92
     /tmp/cc1kFpjO.s:1060   .text:00000000000005bc .LVL81
     /tmp/cc1kFpjO.s:1068   .text:00000000000005c4 .LVL82
     /tmp/cc1kFpjO.s:1168   .text:0000000000000670 .LVL90
     /tmp/cc1kFpjO.s:1080   .text:00000000000005dc .LVL83
     /tmp/cc1kFpjO.s:967    .text:0000000000000554 .LVL76
     /tmp/cc1kFpjO.s:1092   .text:00000000000005f0 .LVL84
     /tmp/cc1kFpjO.s:1098   .text:00000000000005f8 .LVL85
     /tmp/cc1kFpjO.s:1103   .text:0000000000000604 .LVL86
     /tmp/cc1kFpjO.s:1015   .text:0000000000000584 .LVL78
     /tmp/cc1kFpjO.s:1032   .text:000000000000059c .LVL79
     /tmp/cc1kFpjO.s:1117   .text:0000000000000628 .LVL87
     /tmp/cc1kFpjO.s:1138   .text:0000000000000648 .LVL88
     /tmp/cc1kFpjO.s:1052   .text:00000000000005b4 .LVL80
     /tmp/cc1kFpjO.s:1161   .text:0000000000000668 .LVL89
     /tmp/cc1kFpjO.s:208    .text:000000000000010c .LVL24
     /tmp/cc1kFpjO.s:149    .text:00000000000000b0 .LVL18
     /tmp/cc1kFpjO.s:165    .text:00000000000000d0 .LVL19
     /tmp/cc1kFpjO.s:184    .text:00000000000000f0 .LVL21
     /tmp/cc1kFpjO.s:188    .text:00000000000000f8 .LVL22
     /tmp/cc1kFpjO.s:82     .text:0000000000000058 .LVL9
     /tmp/cc1kFpjO.s:101    .text:0000000000000078 .LVL11
     /tmp/cc1kFpjO.s:135    .text:00000000000000a8 .LVL17
     /tmp/cc1kFpjO.s:98     .text:0000000000000074 .LVL10
     /tmp/cc1kFpjO.s:112    .text:0000000000000088 .LVL13
     /tmp/cc1kFpjO.s:119    .text:0000000000000094 .LVL14
     /tmp/cc1kFpjO.s:122    .text:0000000000000098 .LVL15
     /tmp/cc1kFpjO.s:132    .text:00000000000000a4 .LVL16
     /tmp/cc1kFpjO.s:14     .text:0000000000000000 .LVL0
     /tmp/cc1kFpjO.s:33     .text:0000000000000020 .LVL2
     /tmp/cc1kFpjO.s:68     .text:0000000000000050 .LVL8
     /tmp/cc1kFpjO.s:45     .text:000000000000002c .LVL5
     /tmp/cc1kFpjO.s:56     .text:0000000000000040 .LVL7
     /tmp/cc1kFpjO.s:30     .text:000000000000001c .LVL1
     /tmp/cc1kFpjO.s:39     .text:0000000000000024 .LVL3
     /tmp/cc1kFpjO.s:42     .text:0000000000000028 .LVL4
     /tmp/cc1kFpjO.s:3120   .debug_info:0000000000000000 .Ldebug_info0
GAS LISTING /tmp/cc1kFpjO.s 			page 113


     /tmp/cc1kFpjO.s:287    .text:0000000000000160 .LBB68
     /tmp/cc1kFpjO.s:402    .text:0000000000000204 .LBE68
     /tmp/cc1kFpjO.s:404    .text:0000000000000204 .LBB81
     /tmp/cc1kFpjO.s:488    .text:000000000000028c .LBE81
     /tmp/cc1kFpjO.s:385    .text:00000000000001e4 .LBE69
     /tmp/cc1kFpjO.s:405    .text:0000000000000204 .LBB80
     /tmp/cc1kFpjO.s:480    .text:000000000000027c .LBE80
     /tmp/cc1kFpjO.s:295    .text:0000000000000168 .LBB71
     /tmp/cc1kFpjO.s:383    .text:00000000000001e4 .LBE71
     /tmp/cc1kFpjO.s:409    .text:0000000000000204 .LBB78
     /tmp/cc1kFpjO.s:478    .text:000000000000027c .LBE78
     /tmp/cc1kFpjO.s:311    .text:0000000000000180 .LBB74
     /tmp/cc1kFpjO.s:380    .text:00000000000001e4 .LBE74
     /tmp/cc1kFpjO.s:465    .text:0000000000000268 .LBB75
     /tmp/cc1kFpjO.s:475    .text:000000000000027c .LBE75
     /tmp/cc1kFpjO.s:507    .text:00000000000002ac .LBB82
     /tmp/cc1kFpjO.s:533    .text:00000000000002c4 .LBE82
     /tmp/cc1kFpjO.s:535    .text:00000000000002c4 .LBB100
     /tmp/cc1kFpjO.s:737    .text:00000000000003f0 .LBE100
     /tmp/cc1kFpjO.s:513    .text:00000000000002b4 .LBB83
     /tmp/cc1kFpjO.s:532    .text:00000000000002c4 .LBE83
     /tmp/cc1kFpjO.s:536    .text:00000000000002c4 .LBB98
     /tmp/cc1kFpjO.s:619    .text:000000000000032c .LBE98
     /tmp/cc1kFpjO.s:628    .text:0000000000000338 .LBB99
     /tmp/cc1kFpjO.s:736    .text:00000000000003f0 .LBE99
     /tmp/cc1kFpjO.s:531    .text:00000000000002c4 .LBE84
     /tmp/cc1kFpjO.s:537    .text:00000000000002c4 .LBB96
     /tmp/cc1kFpjO.s:616    .text:0000000000000328 .LBE96
     /tmp/cc1kFpjO.s:636    .text:0000000000000348 .LBB97
     /tmp/cc1kFpjO.s:726    .text:00000000000003dc .LBE97
     /tmp/cc1kFpjO.s:588    .text:0000000000000308 .LBE86
     /tmp/cc1kFpjO.s:674    .text:0000000000000394 .LBB92
     /tmp/cc1kFpjO.s:696    .text:00000000000003b4 .LBE92
     /tmp/cc1kFpjO.s:608    .text:0000000000000320 .LBE89
     /tmp/cc1kFpjO.s:697    .text:00000000000003b4 .LBB93
     /tmp/cc1kFpjO.s:719    .text:00000000000003d4 .LBE93
     /tmp/cc1kFpjO.s:743    .text:0000000000000400 .LBB101
     /tmp/cc1kFpjO.s:858    .text:00000000000004a4 .LBE101
     /tmp/cc1kFpjO.s:860    .text:00000000000004a4 .LBB114
     /tmp/cc1kFpjO.s:947    .text:0000000000000530 .LBE114
     /tmp/cc1kFpjO.s:840    .text:0000000000000484 .LBE102
     /tmp/cc1kFpjO.s:861    .text:00000000000004a4 .LBB113
     /tmp/cc1kFpjO.s:936    .text:000000000000051c .LBE113
     /tmp/cc1kFpjO.s:751    .text:0000000000000408 .LBB104
     /tmp/cc1kFpjO.s:838    .text:0000000000000484 .LBE104
     /tmp/cc1kFpjO.s:865    .text:00000000000004a4 .LBB111
     /tmp/cc1kFpjO.s:934    .text:000000000000051c .LBE111
     /tmp/cc1kFpjO.s:766    .text:0000000000000420 .LBB107
     /tmp/cc1kFpjO.s:835    .text:0000000000000484 .LBE107
     /tmp/cc1kFpjO.s:921    .text:0000000000000508 .LBB108
     /tmp/cc1kFpjO.s:931    .text:000000000000051c .LBE108
     /tmp/cc1kFpjO.s:953    .text:0000000000000540 .LBB115
     /tmp/cc1kFpjO.s:979    .text:0000000000000558 .LBE115
     /tmp/cc1kFpjO.s:981    .text:0000000000000558 .LBB133
     /tmp/cc1kFpjO.s:1183   .text:0000000000000684 .LBE133
     /tmp/cc1kFpjO.s:959    .text:0000000000000548 .LBB116
     /tmp/cc1kFpjO.s:978    .text:0000000000000558 .LBE116
GAS LISTING /tmp/cc1kFpjO.s 			page 114


     /tmp/cc1kFpjO.s:982    .text:0000000000000558 .LBB131
     /tmp/cc1kFpjO.s:1065   .text:00000000000005c0 .LBE131
     /tmp/cc1kFpjO.s:1073   .text:00000000000005cc .LBB132
     /tmp/cc1kFpjO.s:1182   .text:0000000000000684 .LBE132
     /tmp/cc1kFpjO.s:977    .text:0000000000000558 .LBE117
     /tmp/cc1kFpjO.s:983    .text:0000000000000558 .LBB129
     /tmp/cc1kFpjO.s:1062   .text:00000000000005bc .LBE129
     /tmp/cc1kFpjO.s:1081   .text:00000000000005dc .LBB130
     /tmp/cc1kFpjO.s:1171   .text:0000000000000670 .LBE130
     /tmp/cc1kFpjO.s:1034   .text:000000000000059c .LBE119
     /tmp/cc1kFpjO.s:1119   .text:0000000000000628 .LBB125
     /tmp/cc1kFpjO.s:1141   .text:0000000000000648 .LBE125
     /tmp/cc1kFpjO.s:1054   .text:00000000000005b4 .LBE122
     /tmp/cc1kFpjO.s:1142   .text:0000000000000648 .LBB126
     /tmp/cc1kFpjO.s:1164   .text:0000000000000668 .LBE126
     /tmp/cc1kFpjO.s:1394   .text:00000000000007bc .LBE140
     /tmp/cc1kFpjO.s:1416   .text:00000000000007e0 .LBB153
     /tmp/cc1kFpjO.s:1436   .text:00000000000007f4 .LBE153
     /tmp/cc1kFpjO.s:1244   .text:00000000000006e0 .LBB142
     /tmp/cc1kFpjO.s:1392   .text:00000000000007bc .LBE142
     /tmp/cc1kFpjO.s:1418   .text:00000000000007e0 .LBB151
     /tmp/cc1kFpjO.s:1434   .text:00000000000007f4 .LBE151
     /tmp/cc1kFpjO.s:1319   .text:0000000000000758 .LBB145
     /tmp/cc1kFpjO.s:1389   .text:00000000000007bc .LBE145
     /tmp/cc1kFpjO.s:1421   .text:00000000000007e0 .LBB146
     /tmp/cc1kFpjO.s:1431   .text:00000000000007f4 .LBE146
     /tmp/cc1kFpjO.s:1484   .text:0000000000000830 .LBB162
     /tmp/cc1kFpjO.s:1487   .text:0000000000000834 .LBE162
     /tmp/cc1kFpjO.s:1495   .text:0000000000000840 .LBB178
     /tmp/cc1kFpjO.s:1628   .text:00000000000008f0 .LBE178
     /tmp/cc1kFpjO.s:1630   .text:00000000000008f0 .LBB179
     /tmp/cc1kFpjO.s:1709   .text:0000000000000968 .LBE179
     /tmp/cc1kFpjO.s:1496   .text:0000000000000840 .LBB163
     /tmp/cc1kFpjO.s:1615   .text:00000000000008e0 .LBE163
     /tmp/cc1kFpjO.s:1624   .text:00000000000008f0 .LBB176
     /tmp/cc1kFpjO.s:1627   .text:00000000000008f0 .LBE176
     /tmp/cc1kFpjO.s:1631   .text:00000000000008f0 .LBB177
     /tmp/cc1kFpjO.s:1708   .text:0000000000000968 .LBE177
     /tmp/cc1kFpjO.s:1588   .text:00000000000008bc .LBE164
     /tmp/cc1kFpjO.s:1632   .text:00000000000008f0 .LBB175
     /tmp/cc1kFpjO.s:1707   .text:0000000000000968 .LBE175
     /tmp/cc1kFpjO.s:1499   .text:0000000000000840 .LBB166
     /tmp/cc1kFpjO.s:1586   .text:00000000000008bc .LBE166
     /tmp/cc1kFpjO.s:1636   .text:00000000000008f0 .LBB173
     /tmp/cc1kFpjO.s:1705   .text:0000000000000968 .LBE173
     /tmp/cc1kFpjO.s:1514   .text:0000000000000858 .LBB169
     /tmp/cc1kFpjO.s:1583   .text:00000000000008bc .LBE169
     /tmp/cc1kFpjO.s:1692   .text:0000000000000954 .LBB170
     /tmp/cc1kFpjO.s:1702   .text:0000000000000968 .LBE170
     /tmp/cc1kFpjO.s:1806   .text:0000000000000a04 .LBB220
     /tmp/cc1kFpjO.s:1922   .text:0000000000000ab0 .LBE220
     /tmp/cc1kFpjO.s:1924   .text:0000000000000ab0 .LBB233
     /tmp/cc1kFpjO.s:2008   .text:0000000000000b38 .LBE233
     /tmp/cc1kFpjO.s:1903   .text:0000000000000a88 .LBE221
     /tmp/cc1kFpjO.s:1925   .text:0000000000000ab0 .LBB232
     /tmp/cc1kFpjO.s:2000   .text:0000000000000b28 .LBE232
     /tmp/cc1kFpjO.s:1814   .text:0000000000000a0c .LBB223
GAS LISTING /tmp/cc1kFpjO.s 			page 115


     /tmp/cc1kFpjO.s:1901   .text:0000000000000a88 .LBE223
     /tmp/cc1kFpjO.s:1929   .text:0000000000000ab0 .LBB230
     /tmp/cc1kFpjO.s:1998   .text:0000000000000b28 .LBE230
     /tmp/cc1kFpjO.s:1829   .text:0000000000000a24 .LBB226
     /tmp/cc1kFpjO.s:1898   .text:0000000000000a88 .LBE226
     /tmp/cc1kFpjO.s:1985   .text:0000000000000b14 .LBB227
     /tmp/cc1kFpjO.s:1995   .text:0000000000000b28 .LBE227
     /tmp/cc1kFpjO.s:2048   .text:0000000000000b80 .LBB235
     /tmp/cc1kFpjO.s:2074   .text:0000000000000b98 .LBE235
     /tmp/cc1kFpjO.s:2078   .text:0000000000000b98 .LBB274
     /tmp/cc1kFpjO.s:2527   .text:0000000000000e38 .LBE274
     /tmp/cc1kFpjO.s:2054   .text:0000000000000b88 .LBB236
     /tmp/cc1kFpjO.s:2073   .text:0000000000000b98 .LBE236
     /tmp/cc1kFpjO.s:2079   .text:0000000000000b98 .LBB272
     /tmp/cc1kFpjO.s:2436   .text:0000000000000d98 .LBE272
     /tmp/cc1kFpjO.s:2445   .text:0000000000000da4 .LBB273
     /tmp/cc1kFpjO.s:2526   .text:0000000000000e38 .LBE273
     /tmp/cc1kFpjO.s:2072   .text:0000000000000b98 .LBE237
     /tmp/cc1kFpjO.s:2080   .text:0000000000000b98 .LBB250
     /tmp/cc1kFpjO.s:2159   .text:0000000000000bfc .LBE250
     /tmp/cc1kFpjO.s:2250   .text:0000000000000c80 .LBB268
     /tmp/cc1kFpjO.s:2318   .text:0000000000000cec .LBE268
     /tmp/cc1kFpjO.s:2470   .text:0000000000000de8 .LBB270
     /tmp/cc1kFpjO.s:2495   .text:0000000000000e10 .LBE270
     /tmp/cc1kFpjO.s:2131   .text:0000000000000bdc .LBE239
     /tmp/cc1kFpjO.s:2266   .text:0000000000000ca4 .LBB245
     /tmp/cc1kFpjO.s:2288   .text:0000000000000cc4 .LBE245
     /tmp/cc1kFpjO.s:2151   .text:0000000000000bf4 .LBE242
     /tmp/cc1kFpjO.s:2289   .text:0000000000000cc4 .LBB246
     /tmp/cc1kFpjO.s:2311   .text:0000000000000ce4 .LBE246
     /tmp/cc1kFpjO.s:2249   .text:0000000000000c80 .LBE253
     /tmp/cc1kFpjO.s:2328   .text:0000000000000d00 .LBB269
     /tmp/cc1kFpjO.s:2422   .text:0000000000000d7c .LBE269
     /tmp/cc1kFpjO.s:2496   .text:0000000000000e10 .LBB271
     /tmp/cc1kFpjO.s:2516   .text:0000000000000e24 .LBE271
     /tmp/cc1kFpjO.s:2189   .text:0000000000000c20 .LBB255
     /tmp/cc1kFpjO.s:2247   .text:0000000000000c80 .LBE255
     /tmp/cc1kFpjO.s:2330   .text:0000000000000d00 .LBB264
     /tmp/cc1kFpjO.s:2420   .text:0000000000000d7c .LBE264
     /tmp/cc1kFpjO.s:2498   .text:0000000000000e10 .LBB265
     /tmp/cc1kFpjO.s:2514   .text:0000000000000e24 .LBE265
     /tmp/cc1kFpjO.s:2347   .text:0000000000000d18 .LBB258
     /tmp/cc1kFpjO.s:2417   .text:0000000000000d7c .LBE258
     /tmp/cc1kFpjO.s:2501   .text:0000000000000e10 .LBB259
     /tmp/cc1kFpjO.s:2511   .text:0000000000000e24 .LBE259
     /tmp/cc1kFpjO.s:2528   .text:0000000000000e38 .LBB275
     /tmp/cc1kFpjO.s:2555   .text:0000000000000e50 .LBE275
     /tmp/cc1kFpjO.s:2559   .text:0000000000000e50 .LBB314
     /tmp/cc1kFpjO.s:3005   .text:00000000000010ec .LBE314
     /tmp/cc1kFpjO.s:2535   .text:0000000000000e40 .LBB276
     /tmp/cc1kFpjO.s:2554   .text:0000000000000e50 .LBE276
     /tmp/cc1kFpjO.s:2560   .text:0000000000000e50 .LBB312
     /tmp/cc1kFpjO.s:2914   .text:000000000000104c .LBE312
     /tmp/cc1kFpjO.s:2923   .text:0000000000001058 .LBB313
     /tmp/cc1kFpjO.s:3004   .text:00000000000010ec .LBE313
     /tmp/cc1kFpjO.s:2553   .text:0000000000000e50 .LBE277
     /tmp/cc1kFpjO.s:2561   .text:0000000000000e50 .LBB290
GAS LISTING /tmp/cc1kFpjO.s 			page 116


     /tmp/cc1kFpjO.s:2640   .text:0000000000000eb4 .LBE290
     /tmp/cc1kFpjO.s:2728   .text:0000000000000f34 .LBB308
     /tmp/cc1kFpjO.s:2796   .text:0000000000000fa0 .LBE308
     /tmp/cc1kFpjO.s:2948   .text:000000000000109c .LBB310
     /tmp/cc1kFpjO.s:2973   .text:00000000000010c4 .LBE310
     /tmp/cc1kFpjO.s:2612   .text:0000000000000e94 .LBE279
     /tmp/cc1kFpjO.s:2744   .text:0000000000000f58 .LBB285
     /tmp/cc1kFpjO.s:2766   .text:0000000000000f78 .LBE285
     /tmp/cc1kFpjO.s:2632   .text:0000000000000eac .LBE282
     /tmp/cc1kFpjO.s:2767   .text:0000000000000f78 .LBB286
     /tmp/cc1kFpjO.s:2789   .text:0000000000000f98 .LBE286
     /tmp/cc1kFpjO.s:2727   .text:0000000000000f34 .LBE293
     /tmp/cc1kFpjO.s:2806   .text:0000000000000fb4 .LBB309
     /tmp/cc1kFpjO.s:2900   .text:0000000000001030 .LBE309
     /tmp/cc1kFpjO.s:2974   .text:00000000000010c4 .LBB311
     /tmp/cc1kFpjO.s:2994   .text:00000000000010d8 .LBE311
     /tmp/cc1kFpjO.s:2667   .text:0000000000000ed4 .LBB295
     /tmp/cc1kFpjO.s:2725   .text:0000000000000f34 .LBE295
     /tmp/cc1kFpjO.s:2808   .text:0000000000000fb4 .LBB304
     /tmp/cc1kFpjO.s:2898   .text:0000000000001030 .LBE304
     /tmp/cc1kFpjO.s:2976   .text:00000000000010c4 .LBB305
     /tmp/cc1kFpjO.s:2992   .text:00000000000010d8 .LBE305
     /tmp/cc1kFpjO.s:2825   .text:0000000000000fcc .LBB298
     /tmp/cc1kFpjO.s:2895   .text:0000000000001030 .LBE298
     /tmp/cc1kFpjO.s:2979   .text:00000000000010c4 .LBB299
     /tmp/cc1kFpjO.s:2989   .text:00000000000010d8 .LBE299
     /tmp/cc1kFpjO.s:3052   .text:0000000000001128 .LBE317
     /tmp/cc1kFpjO.s:3081   .text:0000000000001164 .LBB321
     /tmp/cc1kFpjO.s:3112   .text:00000000000011a0 .LBE321

UNDEFINED SYMBOLS
__putc
__getc
_ZN16MemoryAllocation9fmem_headE
HEAP_END_ADDR
HEAP_START_ADDR
_ZN16MemoryAllocation8instanceE
