GAS LISTING /tmp/cckEac7R.s 			page 1


   1              		.file	"MemoryAllocation.cpp"
   2              		.option pic
   3              		.option norelax
   4              		.text
   5              	.Ltext0:
   6              		.align	2
   8              	_Z41__static_initialization_and_destruction_0ii:
   9              	.LFB10:
  10              		.file 1 "src/MemoryAllocation.cpp"
   1:src/MemoryAllocation.cpp **** 
   2:src/MemoryAllocation.cpp **** #include "../h/MemoryAllocation.hpp"
   3:src/MemoryAllocation.cpp **** MemoryAllocation::FreeMem * MemoryAllocation::fmem_head=(FreeMem*) HEAP_START_ADDR;
   4:src/MemoryAllocation.cpp **** MemoryAllocation * MemoryAllocation::instance= nullptr;...
  11              		.loc 1 4 55
  12              		.cfi_startproc
  13              	.LVL0:
  14 0000 130101FF 		addi	sp,sp,-16
  15              		.cfi_def_cfa_offset 16
  16 0004 23348100 		sd	s0,8(sp)
  17              		.cfi_offset 8, -8
  18 0008 13040101 		addi	s0,sp,16
  19              		.cfi_def_cfa 8, 0
  20              		.loc 1 4 55 is_stmt 0
  21 000c 93071000 		li	a5,1
  22 0010 6308F500 		beq	a0,a5,.L4
  23              	.L1:
  24 0014 03348100 		ld	s0,8(sp)
  25              		.cfi_remember_state
  26              		.cfi_restore 8
  27              		.cfi_def_cfa 2, 16
  28 0018 13010101 		addi	sp,sp,16
  29              		.cfi_def_cfa_offset 0
  30 001c 67800000 		jr	ra
  31              	.L4:
  32              		.cfi_restore_state
  33              		.loc 1 4 55 discriminator 1
  34 0020 B7070100 		li	a5,65536
  35 0024 9387F7FF 		addi	a5,a5,-1
  36 0028 E396F5FE 		bne	a1,a5,.L1
   3:src/MemoryAllocation.cpp **** MemoryAllocation::FreeMem * MemoryAllocation::fmem_head=(FreeMem*) HEAP_START_ADDR;
  37              		.loc 1 3 29
  38 002c 97070000 		la	a5,HEAP_START_ADDR
  38      83B70700 
  39 0034 83B70700 		ld	a5,0(a5)
  40 0038 17070000 		sd	a5,.LANCHOR0,a4
  40      2330F700 
  41              		.loc 1 4 55
  42 0040 6FF05FFD 		j	.L1
  43              		.cfi_endproc
  44              	.LFE10:
  46              		.align	2
  48              	_GLOBAL__sub_I__ZN16MemoryAllocation9fmem_headE:
  49              	.LFB11:
  50              		.loc 1 4 55 is_stmt 1
  51              		.cfi_startproc
  52 0044 130101FF 		addi	sp,sp,-16
  53              		.cfi_def_cfa_offset 16
GAS LISTING /tmp/cckEac7R.s 			page 2


  54 0048 23341100 		sd	ra,8(sp)
  55 004c 23308100 		sd	s0,0(sp)
  56              		.cfi_offset 1, -8
  57              		.cfi_offset 8, -16
  58 0050 13040101 		addi	s0,sp,16
  59              		.cfi_def_cfa 8, 0
  60              		.loc 1 4 55 is_stmt 0
  61 0054 B7050100 		li	a1,65536
  62 0058 9385F5FF 		addi	a1,a1,-1
  63 005c 13051000 		li	a0,1
  64 0060 97000000 		call	_Z41__static_initialization_and_destruction_0ii
  64      E7800000 
  65              	.LVL1:
  66 0068 83308100 		ld	ra,8(sp)
  67              		.cfi_restore 1
  68 006c 03340100 		ld	s0,0(sp)
  69              		.cfi_restore 8
  70              		.cfi_def_cfa 2, 16
  71 0070 13010101 		addi	sp,sp,16
  72              		.cfi_def_cfa_offset 0
  73 0074 67800000 		jr	ra
  74              		.cfi_endproc
  75              	.LFE11:
  77              		.section	.init_array,"aw"
  78              		.align	3
  79 0000 00000000 		.dword	_GLOBAL__sub_I__ZN16MemoryAllocation9fmem_headE
  79      00000000 
  80              		.globl	_ZN16MemoryAllocation8instanceE
  81              		.globl	_ZN16MemoryAllocation9fmem_headE
  82              		.bss
  83              		.align	3
  84              		.set	.LANCHOR0,. + 0
  87              	_ZN16MemoryAllocation9fmem_headE:
  88 0000 00000000 		.zero	8
  88      00000000 
  91              	_ZN16MemoryAllocation8instanceE:
  92 0008 00000000 		.zero	8
  92      00000000 
  93              		.text
  94              	.Letext0:
  95              		.file 2 "src/../h/../lib/hw.h"
  96              		.file 3 "src/../h/MemoryAllocation.hpp"
GAS LISTING /tmp/cckEac7R.s 			page 3


DEFINED SYMBOLS
                            *ABS*:0000000000000000 MemoryAllocation.cpp
     /tmp/cckEac7R.s:8      .text:0000000000000000 _Z41__static_initialization_and_destruction_0ii
     /tmp/cckEac7R.s:12     .text:0000000000000000 .L0 
     /tmp/cckEac7R.s:14     .text:0000000000000000 .L0 
     /tmp/cckEac7R.s:15     .text:0000000000000004 .L0 
     /tmp/cckEac7R.s:17     .text:0000000000000008 .L0 
     /tmp/cckEac7R.s:19     .text:000000000000000c .L0 
     /tmp/cckEac7R.s:21     .text:000000000000000c .L0 
     /tmp/cckEac7R.s:25     .text:0000000000000018 .L0 
     /tmp/cckEac7R.s:26     .text:0000000000000018 .L0 
     /tmp/cckEac7R.s:27     .text:0000000000000018 .L0 
     /tmp/cckEac7R.s:29     .text:000000000000001c .L0 
     /tmp/cckEac7R.s:32     .text:0000000000000020 .L0 
     /tmp/cckEac7R.s:34     .text:0000000000000020 .L0 
     /tmp/cckEac7R.s:38     .text:000000000000002c .L0 
     /tmp/cckEac7R.s:42     .text:0000000000000040 .L0 
     /tmp/cckEac7R.s:43     .text:0000000000000044 .L0 
     /tmp/cckEac7R.s:48     .text:0000000000000044 _GLOBAL__sub_I__ZN16MemoryAllocation9fmem_headE
     /tmp/cckEac7R.s:51     .text:0000000000000044 .L0 
     /tmp/cckEac7R.s:52     .text:0000000000000044 .L0 
     /tmp/cckEac7R.s:53     .text:0000000000000048 .L0 
     /tmp/cckEac7R.s:56     .text:0000000000000050 .L0 
     /tmp/cckEac7R.s:57     .text:0000000000000050 .L0 
     /tmp/cckEac7R.s:59     .text:0000000000000054 .L0 
     /tmp/cckEac7R.s:61     .text:0000000000000054 .L0 
     /tmp/cckEac7R.s:67     .text:000000000000006c .L0 
     /tmp/cckEac7R.s:69     .text:0000000000000070 .L0 
     /tmp/cckEac7R.s:70     .text:0000000000000070 .L0 
     /tmp/cckEac7R.s:72     .text:0000000000000074 .L0 
     /tmp/cckEac7R.s:74     .text:0000000000000078 .L0 
     /tmp/cckEac7R.s:91     .bss:0000000000000008 _ZN16MemoryAllocation8instanceE
     /tmp/cckEac7R.s:87     .bss:0000000000000000 _ZN16MemoryAllocation9fmem_headE
     /tmp/cckEac7R.s:84     .bss:0000000000000000 .LANCHOR0
     /tmp/cckEac7R.s:97     .text:0000000000000078 .L0 
     /tmp/cckEac7R.s:38     .text:000000000000002c .L0 
     /tmp/cckEac7R.s:40     .text:0000000000000038 .L0 
     /tmp/cckEac7R.s:31     .text:0000000000000020 .L4
     /tmp/cckEac7R.s:23     .text:0000000000000014 .L1
     /tmp/cckEac7R.s:476    .debug_abbrev:0000000000000000 .Ldebug_abbrev0
     /tmp/cckEac7R.s:1032   .debug_str:000000000000020a .LASF42
     /tmp/cckEac7R.s:1080   .debug_str:000000000000046e .LASF43
     /tmp/cckEac7R.s:1054   .debug_str:000000000000037e .LASF44
     /tmp/cckEac7R.s:5      .text:0000000000000000 .Ltext0
     /tmp/cckEac7R.s:94     .text:0000000000000078 .Letext0
     /tmp/cckEac7R.s:980    .debug_line:0000000000000000 .Ldebug_line0
     /tmp/cckEac7R.s:1038   .debug_str:00000000000002de .LASF0
     /tmp/cckEac7R.s:1024   .debug_str:00000000000001a0 .LASF1
     /tmp/cckEac7R.s:1016   .debug_str:0000000000000153 .LASF2
     /tmp/cckEac7R.s:1000   .debug_str:00000000000000b3 .LASF4
     /tmp/cckEac7R.s:1022   .debug_str:000000000000018e .LASF3
     /tmp/cckEac7R.s:986    .debug_str:000000000000001e .LASF5
     /tmp/cckEac7R.s:982    .debug_str:0000000000000000 .LASF6
     /tmp/cckEac7R.s:1008   .debug_str:0000000000000122 .LASF7
     /tmp/cckEac7R.s:1046   .debug_str:000000000000032a .LASF8
     /tmp/cckEac7R.s:996    .debug_str:0000000000000094 .LASF9
     /tmp/cckEac7R.s:1084   .debug_str:000000000000048c .LASF10
GAS LISTING /tmp/cckEac7R.s 			page 4


     /tmp/cckEac7R.s:1014   .debug_str:0000000000000144 .LASF11
     /tmp/cckEac7R.s:1070   .debug_str:000000000000041e .LASF12
     /tmp/cckEac7R.s:1044   .debug_str:000000000000031a .LASF13
     /tmp/cckEac7R.s:1026   .debug_str:00000000000001b3 .LASF14
     /tmp/cckEac7R.s:1004   .debug_str:00000000000000ea .LASF15
     /tmp/cckEac7R.s:1050   .debug_str:000000000000035c .LASF16
     /tmp/cckEac7R.s:998    .debug_str:00000000000000a2 .LASF23
     /tmp/cckEac7R.s:1018   .debug_str:0000000000000161 .LASF45
     /tmp/cckEac7R.s:988    .debug_str:0000000000000025 .LASF17
     /tmp/cckEac7R.s:1082   .debug_str:0000000000000487 .LASF18
     /tmp/cckEac7R.s:1078   .debug_str:0000000000000469 .LASF19
     /tmp/cckEac7R.s:1010   .debug_str:0000000000000135 .LASF20
     /tmp/cckEac7R.s:1062   .debug_str:00000000000003e3 .LASF21
     /tmp/cckEac7R.s:1012   .debug_str:000000000000013f .LASF22
     /tmp/cckEac7R.s:1066   .debug_str:00000000000003fa .LASF24
     /tmp/cckEac7R.s:1028   .debug_str:00000000000001bf .LASF25
     /tmp/cckEac7R.s:1074   .debug_str:0000000000000455 .LASF26
     /tmp/cckEac7R.s:1058   .debug_str:00000000000003a5 .LASF27
     /tmp/cckEac7R.s:1052   .debug_str:0000000000000372 .LASF46
     /tmp/cckEac7R.s:1020   .debug_str:0000000000000169 .LASF47
     /tmp/cckEac7R.s:1034   .debug_str:00000000000002ce .LASF48
     /tmp/cckEac7R.s:1040   .debug_str:00000000000002eb .LASF49
     /tmp/cckEac7R.s:1036   .debug_str:00000000000002d6 .LASF28
     /tmp/cckEac7R.s:994    .debug_str:0000000000000074 .LASF30
     /tmp/cckEac7R.s:1064   .debug_str:00000000000003ec .LASF29
     /tmp/cckEac7R.s:1072   .debug_str:000000000000042e .LASF31
     /tmp/cckEac7R.s:1068   .debug_str:0000000000000414 .LASF32
     /tmp/cckEac7R.s:1030   .debug_str:00000000000001dc .LASF33
     /tmp/cckEac7R.s:1056   .debug_str:000000000000039c .LASF34
     /tmp/cckEac7R.s:1006   .debug_str:0000000000000100 .LASF35
     /tmp/cckEac7R.s:1076   .debug_str:000000000000045f .LASF36
     /tmp/cckEac7R.s:1048   .debug_str:000000000000033a .LASF37
     /tmp/cckEac7R.s:1060   .debug_str:00000000000003c2 .LASF38
     /tmp/cckEac7R.s:990    .debug_str:000000000000002a .LASF39
     /tmp/cckEac7R.s:1002   .debug_str:00000000000000ba .LASF50
     /tmp/cckEac7R.s:49     .text:0000000000000044 .LFB11
     /tmp/cckEac7R.s:75     .text:0000000000000078 .LFE11
     /tmp/cckEac7R.s:65     .text:0000000000000068 .LVL1
     /tmp/cckEac7R.s:992    .debug_str:000000000000004a .LASF51
     /tmp/cckEac7R.s:9      .text:0000000000000000 .LFB10
     /tmp/cckEac7R.s:44     .text:0000000000000044 .LFE10
     /tmp/cckEac7R.s:1042   .debug_str:000000000000030b .LASF40
     /tmp/cckEac7R.s:984    .debug_str:0000000000000013 .LASF41
     /tmp/cckEac7R.s:98     .debug_info:0000000000000000 .Ldebug_info0

UNDEFINED SYMBOLS
HEAP_START_ADDR
