GAS LISTING /tmp/cckEac7R.s 			page 1


   1              		.file	"MemoryAllocation.cpp"
   2              		.option pic
   3              		.option norelax
   4              		.text
   5              	.Ltext0:
   6              		.align	2
   8              	_Z41__static_initialization_and_destruction_0ii:
   9              	.LFB10:
  10              		.file 1 "src/MemoryAllocation.cpp"
   1:src/MemoryAllocation.cpp **** 
   2:src/MemoryAllocation.cpp **** #include "../h/MemoryAllocation.hpp"
   3:src/MemoryAllocation.cpp **** MemoryAllocation::FreeMem * MemoryAllocation::fmem_head=(FreeMem*) HEAP_START_ADDR;
   4:src/MemoryAllocation.cpp **** MemoryAllocation * MemoryAllocation::instance= nullptr;...
  11              		.loc 1 4 55
  12              		.cfi_startproc
  13              	.LVL0:
  14 0000 130101FF 		addi	sp,sp,-16
  15              		.cfi_def_cfa_offset 16
  16 0004 23348100 		sd	s0,8(sp)
  17              		.cfi_offset 8, -8
  18 0008 13040101 		addi	s0,sp,16
  19              		.cfi_def_cfa 8, 0
  20              		.loc 1 4 55 is_stmt 0
  21 000c 93071000 		li	a5,1
  22 0010 6308F500 		beq	a0,a5,.L4
  23              	.L1:
  24 0014 03348100 		ld	s0,8(sp)
  25              		.cfi_remember_state
  26              		.cfi_restore 8
  27              		.cfi_def_cfa 2, 16
  28 0018 13010101 		addi	sp,sp,16
  29              		.cfi_def_cfa_offset 0
  30 001c 67800000 		jr	ra
  31              	.L4:
  32              		.cfi_restore_state
  33              		.loc 1 4 55 discriminator 1
  34 0020 B7070100 		li	a5,65536
  35 0024 9387F7FF 		addi	a5,a5,-1
  36 0028 E396F5FE 		bne	a1,a5,.L1
   3:src/MemoryAllocation.cpp **** MemoryAllocation::FreeMem * MemoryAllocation::fmem_head=(FreeMem*) HEAP_START_ADDR;
  37              		.loc 1 3 29
  38 002c 97070000 		la	a5,HEAP_START_ADDR
  38      83B70700 
  39 0034 83B70700 		ld	a5,0(a5)
  40 0038 17070000 		sd	a5,.LANCHOR0,a4
  40      2330F700 
  41              		.loc 1 4 55
  42 0040 6FF05FFD 		j	.L1
  43              		.cfi_endproc
  44              	.LFE10:
  46              		.align	2
  48              	_GLOBAL__sub_I__ZN16MemoryAllocation9fmem_headE:
  49              	.LFB11:
  50              		.loc 1 4 55 is_stmt 1
  51              		.cfi_startproc
  52 0044 130101FF 		addi	sp,sp,-16
  53              		.cfi_def_cfa_offset 16
GAS LISTING /tmp/cckEac7R.s 			page 2


  54 0048 23341100 		sd	ra,8(sp)
  55 004c 23308100 		sd	s0,0(sp)
  56              		.cfi_offset 1, -8
  57              		.cfi_offset 8, -16
  58 0050 13040101 		addi	s0,sp,16
  59              		.cfi_def_cfa 8, 0
  60              		.loc 1 4 55 is_stmt 0
  61 0054 B7050100 		li	a1,65536
  62 0058 9385F5FF 		addi	a1,a1,-1
  63 005c 13051000 		li	a0,1
  64 0060 97000000 		call	_Z41__static_initialization_and_destruction_0ii
  64      E7800000 
  65              	.LVL1:
  66 0068 83308100 		ld	ra,8(sp)
  67              		.cfi_restore 1
  68 006c 03340100 		ld	s0,0(sp)
  69              		.cfi_restore 8
  70              		.cfi_def_cfa 2, 16
  71 0070 13010101 		addi	sp,sp,16
  72              		.cfi_def_cfa_offset 0
  73 0074 67800000 		jr	ra
  74              		.cfi_endproc
  75              	.LFE11:
  77              		.section	.init_array,"aw"
  78              		.align	3
  79 0000 00000000 		.dword	_GLOBAL__sub_I__ZN16MemoryAllocation9fmem_headE
  79      00000000 
  80              		.globl	_ZN16MemoryAllocation8instanceE
  81              		.globl	_ZN16MemoryAllocation9fmem_headE
  82              		.bss
  83              		.align	3
  84              		.set	.LANCHOR0,. + 0
  87              	_ZN16MemoryAllocation9fmem_headE:
  88 0000 00000000 		.zero	8
  88      00000000 
  91              	_ZN16MemoryAllocation8instanceE:
  92 0008 00000000 		.zero	8
  92      00000000 
  93              		.text
  94              	.Letext0:
  95              		.file 2 "src/../h/../lib/hw.h"
  96              		.file 3 "src/../h/MemoryAllocation.hpp"
GAS LISTING /tmp/cckEac7R.s 			page 3

