GAS LISTING /tmp/ccUzRdYL.s 			page 1


   1              		.file	"Print.cpp"
   2              		.option pic
   3              		.option norelax
   4              		.text
   5              	.Ltext0:
   6              		.align	2
   7              		.globl	_Z11printStringPKc
   9              	_Z11printStringPKc:
  10              	.LFB16:
  11              		.file 1 "src/Print.cpp"
   1:src/Print.cpp **** //
   2:src/Print.cpp **** // Created by os on 8/15/22.
   3:src/Print.cpp **** //
   4:src/Print.cpp **** 
   5:src/Print.cpp **** #include "../h/Print.hpp"
   6:src/Print.cpp **** #include "../lib/console.h"
   7:src/Print.cpp **** #include "../h/RiscV.hpp"
   8:src/Print.cpp **** //promenjeni print string i integer na vezbama 2, 1:10:00 tu negde, da bi se onemogucili prekidi u 
   9:src/Print.cpp **** void printString(char const *string){
  12              		.loc 1 9 37
  13              		.cfi_startproc
  14              	.LVL0:
  15 0000 130101FE 		addi	sp,sp,-32
  16              		.cfi_def_cfa_offset 32
  17 0004 233C1100 		sd	ra,24(sp)
  18 0008 23388100 		sd	s0,16(sp)
  19 000c 23349100 		sd	s1,8(sp)
  20 0010 23302101 		sd	s2,0(sp)
  21              		.cfi_offset 1, -8
  22              		.cfi_offset 8, -16
  23              		.cfi_offset 9, -24
  24              		.cfi_offset 18, -32
  25 0014 13040102 		addi	s0,sp,32
  26              		.cfi_def_cfa 8, 0
  27 0018 93040500 		mv	s1,a0
  10:src/Print.cpp ****     uint64 sstatus = RiscV::r_sstatus();
  28              		.loc 1 10 5
  29              	.LBB14:
  30              	.LBB15:
  31              		.file 2 "src/../h/RiscV.hpp"
   1:src/../h/RiscV.hpp **** //
   2:src/../h/RiscV.hpp **** // Created by os on 8/14/22.
   3:src/../h/RiscV.hpp **** //
   4:src/../h/RiscV.hpp **** 
   5:src/../h/RiscV.hpp **** #ifndef PROJECT_BASE_RISCV_HPP
   6:src/../h/RiscV.hpp **** #define PROJECT_BASE_RISCV_HPP
   7:src/../h/RiscV.hpp **** #include "../lib/hw.h"
   8:src/../h/RiscV.hpp **** 
   9:src/../h/RiscV.hpp **** class RiscV {
  10:src/../h/RiscV.hpp **** public:
  11:src/../h/RiscV.hpp ****     //pop sstatus.spp and sstatus.spie bits(mora da bude ne inline funkcija)
  12:src/../h/RiscV.hpp ****     static void popSppSpie();
  13:src/../h/RiscV.hpp **** 
  14:src/../h/RiscV.hpp ****     //push x3...x31 registers on stack
  15:src/../h/RiscV.hpp ****     static void pushRegisters();
  16:src/../h/RiscV.hpp **** 
  17:src/../h/RiscV.hpp ****     //pop x3...x31 registers on stack
GAS LISTING /tmp/ccUzRdYL.s 			page 2


  18:src/../h/RiscV.hpp ****     static void popRegisters();
  19:src/../h/RiscV.hpp **** 
  20:src/../h/RiscV.hpp ****     //read register scause
  21:src/../h/RiscV.hpp ****     static uint64 r_scause();
  22:src/../h/RiscV.hpp **** 
  23:src/../h/RiscV.hpp ****     //write register scause
  24:src/../h/RiscV.hpp ****     static void w_scause(uint64 scause);
  25:src/../h/RiscV.hpp **** 
  26:src/../h/RiscV.hpp ****     //read register sepc
  27:src/../h/RiscV.hpp ****     static uint64 r_sepc();
  28:src/../h/RiscV.hpp **** 
  29:src/../h/RiscV.hpp ****     //write register sepc
  30:src/../h/RiscV.hpp ****     static void w_sepc(uint64 sepc);
  31:src/../h/RiscV.hpp **** 
  32:src/../h/RiscV.hpp ****     //read register stvec
  33:src/../h/RiscV.hpp ****     static uint64 r_stvec();
  34:src/../h/RiscV.hpp **** 
  35:src/../h/RiscV.hpp ****     //write register stvec
  36:src/../h/RiscV.hpp ****     static void w_stvec(uint64 stvec);
  37:src/../h/RiscV.hpp **** 
  38:src/../h/RiscV.hpp ****     //write register stval
  39:src/../h/RiscV.hpp ****     static uint64 r_stval();
  40:src/../h/RiscV.hpp **** 
  41:src/../h/RiscV.hpp ****     //write register stval
  42:src/../h/RiscV.hpp ****     static void w_stval(uint64 stval);
  43:src/../h/RiscV.hpp **** 
  44:src/../h/RiscV.hpp ****     enum BitMaskSip{
  45:src/../h/RiscV.hpp ****         SIP_SSIP = (1 << 1),
  46:src/../h/RiscV.hpp ****         SIP_STIP = (1 << 5),
  47:src/../h/RiscV.hpp ****         SIP_SEIP = (1 << 9),
  48:src/../h/RiscV.hpp ****     };
  49:src/../h/RiscV.hpp **** 
  50:src/../h/RiscV.hpp ****     //mask set register sip
  51:src/../h/RiscV.hpp ****     static void ms_sip(uint64 mask);
  52:src/../h/RiscV.hpp **** 
  53:src/../h/RiscV.hpp ****     //mask clear register sip
  54:src/../h/RiscV.hpp ****     static void mc_sip(uint64 mask);
  55:src/../h/RiscV.hpp **** 
  56:src/../h/RiscV.hpp ****     //read register sip
  57:src/../h/RiscV.hpp ****     static uint64 r_sip();
  58:src/../h/RiscV.hpp **** 
  59:src/../h/RiscV.hpp ****     //write register sip
  60:src/../h/RiscV.hpp ****     static void w_sip(uint64 sip);
  61:src/../h/RiscV.hpp **** 
  62:src/../h/RiscV.hpp ****     enum BitMaskSstatus{
  63:src/../h/RiscV.hpp ****         SSTATUS_SIE = (1<<1),
  64:src/../h/RiscV.hpp ****         SSTATUS_SPIE = (1<<5),
  65:src/../h/RiscV.hpp ****         SSTATUS_SPP=  (1<<8),
  66:src/../h/RiscV.hpp ****     };
  67:src/../h/RiscV.hpp **** 
  68:src/../h/RiscV.hpp ****     //mask set register sstatus
  69:src/../h/RiscV.hpp ****     static void ms_sstatus(uint64 mask);
  70:src/../h/RiscV.hpp **** 
  71:src/../h/RiscV.hpp ****     //mask clear register sstatus
  72:src/../h/RiscV.hpp ****     static void mc_sstatus(uint64 mask);
  73:src/../h/RiscV.hpp **** 
  74:src/../h/RiscV.hpp ****     //read register sstatus
GAS LISTING /tmp/ccUzRdYL.s 			page 3


  75:src/../h/RiscV.hpp ****     static uint64 r_sstatus();
  76:src/../h/RiscV.hpp **** 
  77:src/../h/RiscV.hpp ****     //write register sstatus
  78:src/../h/RiscV.hpp ****     static void w_sstatus(uint64 sstatus);
  79:src/../h/RiscV.hpp **** 
  80:src/../h/RiscV.hpp ****     static void supervisorTrap();
  81:src/../h/RiscV.hpp **** 
  82:src/../h/RiscV.hpp **** private:
  83:src/../h/RiscV.hpp ****     //obradjuje trap handler
  84:src/../h/RiscV.hpp ****     static void handleSupervisorTrap();
  85:src/../h/RiscV.hpp **** };
  86:src/../h/RiscV.hpp **** 
  87:src/../h/RiscV.hpp **** inline uint64 RiscV::r_scause() {
  88:src/../h/RiscV.hpp ****     uint64 volatile scause;
  89:src/../h/RiscV.hpp ****     __asm__ volatile("csrr %[scause], scause" : [scause] "=r"(scause));
  90:src/../h/RiscV.hpp ****     return scause;
  91:src/../h/RiscV.hpp **** 
  92:src/../h/RiscV.hpp **** }
  93:src/../h/RiscV.hpp **** 
  94:src/../h/RiscV.hpp **** inline void RiscV::w_scause(uint64 scause){
  95:src/../h/RiscV.hpp ****     __asm__ volatile("csrw scause, %[scause]": : [scause] "r"(scause));
  96:src/../h/RiscV.hpp **** 
  97:src/../h/RiscV.hpp **** }
  98:src/../h/RiscV.hpp **** 
  99:src/../h/RiscV.hpp **** inline uint64 RiscV::r_sepc(){
 100:src/../h/RiscV.hpp ****     uint64  sepc;
 101:src/../h/RiscV.hpp ****     __asm__ volatile("csrr %[sepc], sepc" : [sepc] "=r"(sepc));
 102:src/../h/RiscV.hpp ****     return sepc;
 103:src/../h/RiscV.hpp **** }
 104:src/../h/RiscV.hpp **** 
 105:src/../h/RiscV.hpp **** inline void RiscV::w_sepc(uint64 volatile sepc){
 106:src/../h/RiscV.hpp ****     __asm__ volatile ("csrw sepc, %[sepc]": : [sepc] "r"(sepc));
 107:src/../h/RiscV.hpp **** }
 108:src/../h/RiscV.hpp **** 
 109:src/../h/RiscV.hpp **** inline uint64 RiscV::r_stvec() {
 110:src/../h/RiscV.hpp ****     uint64 volatile stvec;
 111:src/../h/RiscV.hpp ****     __asm__ volatile ("csrr %[stvec], stvec": [stvec] "=r"(stvec));
 112:src/../h/RiscV.hpp ****     return stvec;
 113:src/../h/RiscV.hpp **** }
 114:src/../h/RiscV.hpp **** 
 115:src/../h/RiscV.hpp **** inline void RiscV::w_stvec(uint64 stvec){
 116:src/../h/RiscV.hpp ****     __asm__ volatile ("csrw stvec, %[stvec]": : [stvec] "r"(stvec));
 117:src/../h/RiscV.hpp **** }
 118:src/../h/RiscV.hpp **** 
 119:src/../h/RiscV.hpp **** inline uint64 RiscV::r_stval(){
 120:src/../h/RiscV.hpp ****     uint64 volatile stval;
 121:src/../h/RiscV.hpp ****     __asm__ volatile("csrr %[stval], stval" : [stval] "=r"(stval));
 122:src/../h/RiscV.hpp ****     return stval;
 123:src/../h/RiscV.hpp **** }
 124:src/../h/RiscV.hpp **** 
 125:src/../h/RiscV.hpp **** inline void RiscV::w_stval(uint64 stval) {
 126:src/../h/RiscV.hpp ****     __asm__ volatile ("csrw stval, %[stval]": : [stval] "r"(stval));
 127:src/../h/RiscV.hpp **** }
 128:src/../h/RiscV.hpp **** 
 129:src/../h/RiscV.hpp **** inline void RiscV::ms_sip(uint64 mask){
 130:src/../h/RiscV.hpp ****     __asm__ volatile("csrs sip, %[mask]": : [mask]"r"(mask));
 131:src/../h/RiscV.hpp **** }
GAS LISTING /tmp/ccUzRdYL.s 			page 4


 132:src/../h/RiscV.hpp **** 
 133:src/../h/RiscV.hpp **** inline void RiscV::mc_sip(uint64 mask) {
 134:src/../h/RiscV.hpp ****     __asm__ volatile("csrc sip, %[mask]" : : [mask] "r"(mask));
 135:src/../h/RiscV.hpp **** }
 136:src/../h/RiscV.hpp **** 
 137:src/../h/RiscV.hpp **** inline uint64 RiscV::r_sip(){
 138:src/../h/RiscV.hpp ****     uint64 volatile sip;
 139:src/../h/RiscV.hpp ****     __asm__ volatile("csrr %[sip], sip" : [sip] "=r"(sip));
 140:src/../h/RiscV.hpp ****     return sip;
 141:src/../h/RiscV.hpp **** }
 142:src/../h/RiscV.hpp **** 
 143:src/../h/RiscV.hpp **** inline void RiscV::w_sip(uint64 sip) {
 144:src/../h/RiscV.hpp ****     __asm__ volatile("csrw sip, %[sip]": : [sip] "r"(sip));
 145:src/../h/RiscV.hpp **** }
 146:src/../h/RiscV.hpp **** 
 147:src/../h/RiscV.hpp **** inline void RiscV::ms_sstatus(uint64 mask) {
 148:src/../h/RiscV.hpp ****     __asm__ volatile ("csrs sstatus, %[mask]": : [mask] "r"(mask));
 149:src/../h/RiscV.hpp **** }
 150:src/../h/RiscV.hpp **** 
 151:src/../h/RiscV.hpp **** inline void RiscV::mc_sstatus(uint64 mask) {
 152:src/../h/RiscV.hpp ****     __asm__ volatile("csrc sstatus, %[mask]": : [mask] "r"(mask));
 153:src/../h/RiscV.hpp **** }
 154:src/../h/RiscV.hpp **** 
 155:src/../h/RiscV.hpp **** inline uint64 RiscV::r_sstatus() {
 156:src/../h/RiscV.hpp ****     uint64 sstatus;
  32              		.loc 2 156 5
 157:src/../h/RiscV.hpp ****     __asm__ volatile ("csrr %[sstatus], sstatus": [sstatus] "=r"(sstatus));
  33              		.loc 2 157 5
  34              		.loc 2 157 75 is_stmt 0
  35              	#APP
  36              	# 157 "src/../h/RiscV.hpp" 1
 158              	    return sstatus;
  37              		csrr s2, sstatus
  38              	# 0 "" 2
  39              	.LVL1:
  40              		.loc 2 158 5 is_stmt 1
  41              	#NO_APP
  42              	.LBE15:
  43              	.LBE14:
  11:src/Print.cpp ****     RiscV::mc_sstatus(RiscV::SSTATUS_SIE);
  44              		.loc 1 11 5
  45              	.LBB16:
  46              	.LBB17:
 152:src/../h/RiscV.hpp **** }
  47              		.loc 2 152 5
 152:src/../h/RiscV.hpp **** }
  48              		.loc 2 152 66 is_stmt 0
  49 0020 93072000 		li	a5,2
  50              	#APP
  51              	# 152 "src/../h/RiscV.hpp" 1
  52              		csrc sstatus, a5
  53              	# 0 "" 2
  54              	.LVL2:
  55              	#NO_APP
  56              	.L3:
  57              	.LBE17:
  58              	.LBE16:
GAS LISTING /tmp/ccUzRdYL.s 			page 5


  12:src/Print.cpp ****     while(*string!='\0'){
  59              		.loc 1 12 5 is_stmt 1
  60              		.loc 1 12 18
  61              		.loc 1 12 11 is_stmt 0
  62 0028 03C50400 		lbu	a0,0(s1)
  63              		.loc 1 12 18
  64 002c 630A0500 		beqz	a0,.L2
  13:src/Print.cpp ****         __putc(*string);
  65              		.loc 1 13 9 is_stmt 1
  66              		.loc 1 13 15 is_stmt 0
  67 0030 97000000 		call	__putc@plt
  67      E7800000 
  68              	.LVL3:
  14:src/Print.cpp ****         string++;
  69              		.loc 1 14 9 is_stmt 1
  70              		.loc 1 14 15 is_stmt 0
  71 0038 93841400 		addi	s1,s1,1
  72              	.LVL4:
  12:src/Print.cpp ****     while(*string!='\0'){
  73              		.loc 1 12 5
  74 003c 6FF0DFFE 		j	.L3
  75              	.L2:
  15:src/Print.cpp ****     }
  16:src/Print.cpp ****     RiscV::ms_sstatus(sstatus & RiscV::SSTATUS_SIE ? RiscV::SSTATUS_SIE : 0);
  76              		.loc 1 16 5 is_stmt 1
  77              		.loc 1 16 52 is_stmt 0
  78 0040 1B090900 		sext.w	s2,s2
  79              	.LVL5:
  80              		.loc 1 16 22
  81 0044 13792900 		andi	s2,s2,2
  82 0048 1B090900 		sext.w	s2,s2
  83              	.LVL6:
  84              	.LBB18:
  85              	.LBB19:
 148:src/../h/RiscV.hpp **** }
  86              		.loc 2 148 5 is_stmt 1
 148:src/../h/RiscV.hpp **** }
  87              		.loc 2 148 67 is_stmt 0
  88              	#APP
  89              	# 148 "src/../h/RiscV.hpp" 1
  90              		csrs sstatus, s2
  91              	# 0 "" 2
  92              	.LVL7:
  93              	#NO_APP
  94              	.LBE19:
  95              	.LBE18:
  17:src/Print.cpp **** }
  96              		.loc 1 17 1
  97 0050 83308101 		ld	ra,24(sp)
  98              		.cfi_restore 1
  99 0054 03340101 		ld	s0,16(sp)
 100              		.cfi_restore 8
 101              		.cfi_def_cfa 2, 32
 102 0058 83348100 		ld	s1,8(sp)
 103              		.cfi_restore 9
 104              	.LVL8:
 105 005c 03390100 		ld	s2,0(sp)
GAS LISTING /tmp/ccUzRdYL.s 			page 6


 106              		.cfi_restore 18
 107 0060 13010102 		addi	sp,sp,32
 108              		.cfi_def_cfa_offset 0
 109 0064 67800000 		jr	ra
 110              		.cfi_endproc
 111              	.LFE16:
 113              		.align	2
 114              		.globl	_Z12printIntegeri
 116              	_Z12printIntegeri:
 117              	.LFB17:
  18:src/Print.cpp **** 
  19:src/Print.cpp **** void printInteger(int integer){
 118              		.loc 1 19 31 is_stmt 1
 119              		.cfi_startproc
 120              	.LVL9:
 121 0068 130101FD 		addi	sp,sp,-48
 122              		.cfi_def_cfa_offset 48
 123 006c 23341102 		sd	ra,40(sp)
 124 0070 23308102 		sd	s0,32(sp)
 125 0074 233C9100 		sd	s1,24(sp)
 126 0078 23382101 		sd	s2,16(sp)
 127              		.cfi_offset 1, -8
 128              		.cfi_offset 8, -16
 129              		.cfi_offset 9, -24
 130              		.cfi_offset 18, -32
 131 007c 13040103 		addi	s0,sp,48
 132              		.cfi_def_cfa 8, 0
  20:src/Print.cpp ****     uint64 sstatus = RiscV::r_sstatus();
 133              		.loc 1 20 5
 134              	.LBB20:
 135              	.LBB21:
 156:src/../h/RiscV.hpp ****     __asm__ volatile ("csrr %[sstatus], sstatus": [sstatus] "=r"(sstatus));
 136              		.loc 2 156 5
 157:src/../h/RiscV.hpp ****     return sstatus;
 137              		.loc 2 157 5
 157:src/../h/RiscV.hpp ****     return sstatus;
 138              		.loc 2 157 75 is_stmt 0
 139              	#APP
 140              	# 157 "src/../h/RiscV.hpp" 1
 141              		csrr s2, sstatus
 142              	# 0 "" 2
 143              	.LVL10:
 144              		.loc 2 158 5 is_stmt 1
 145              	#NO_APP
 146              	.LBE21:
 147              	.LBE20:
  21:src/Print.cpp ****     RiscV::mc_sstatus(RiscV::SSTATUS_SIE);
 148              		.loc 1 21 5
 149              	.LBB22:
 150              	.LBB23:
 152:src/../h/RiscV.hpp **** }
 151              		.loc 2 152 5
 152:src/../h/RiscV.hpp **** }
 152              		.loc 2 152 66 is_stmt 0
 153 0084 93072000 		li	a5,2
 154              	#APP
 155              	# 152 "src/../h/RiscV.hpp" 1
GAS LISTING /tmp/ccUzRdYL.s 			page 7


 156              		csrc sstatus, a5
 157              	# 0 "" 2
 158              	.LVL11:
 159              	#NO_APP
 160              	.LBE23:
 161              	.LBE22:
  22:src/Print.cpp ****     static char digits[] = "0123456789";
 162              		.loc 1 22 5 is_stmt 1
  23:src/Print.cpp ****     char buf[16];
 163              		.loc 1 23 5
  24:src/Print.cpp ****     int i, neg;
 164              		.loc 1 24 5
  25:src/Print.cpp ****     uint x;
 165              		.loc 1 25 5
  26:src/Print.cpp **** 
  27:src/Print.cpp ****     neg=0;
 166              		.loc 1 27 5
  28:src/Print.cpp ****     if(integer<0){
 167              		.loc 1 28 5
 168 008c 63460508 		bltz	a0,.L13
  29:src/Print.cpp ****         neg=1;
  30:src/Print.cpp ****         x=-integer;
  31:src/Print.cpp ****     }else{
  32:src/Print.cpp ****         x=integer;
 169              		.loc 1 32 9
 170              		.loc 1 32 10 is_stmt 0
 171 0090 1B050500 		sext.w	a0,a0
 172              	.LVL12:
  27:src/Print.cpp ****     if(integer<0){
 173              		.loc 1 27 8
 174 0094 93050000 		li	a1,0
 175              	.LVL13:
 176              	.L7:
  33:src/Print.cpp ****     }
  34:src/Print.cpp **** 
  35:src/Print.cpp ****     i=0;
 177              		.loc 1 35 5 is_stmt 1
 178              		.loc 1 35 6 is_stmt 0
 179 0098 93040000 		li	s1,0
 180              	.LVL14:
 181              	.L8:
  36:src/Print.cpp ****     do {
 182              		.loc 1 36 5 is_stmt 1
  37:src/Print.cpp ****         buf[i++] = digits [x%10];
 183              		.loc 1 37 9
 184              		.loc 1 37 29 is_stmt 0
 185 009c 9306A000 		li	a3,10
 186 00a0 BB77D502 		remuw	a5,a0,a3
 187 00a4 13860400 		mv	a2,s1
 188              		.loc 1 37 14
 189 00a8 9B841400 		addiw	s1,s1,1
 190              	.LVL15:
 191              		.loc 1 37 32
 192 00ac 13970702 		slli	a4,a5,32
 193 00b0 13570702 		srli	a4,a4,32
 194 00b4 97070000 		lla	a5,.LANCHOR0
 194      93870700 
GAS LISTING /tmp/ccUzRdYL.s 			page 8


 195 00bc B387E700 		add	a5,a5,a4
 196 00c0 03C70700 		lbu	a4,0(a5)
 197              		.loc 1 37 18
 198 00c4 930704FE 		addi	a5,s0,-32
 199 00c8 B387C700 		add	a5,a5,a2
 200 00cc 2388E7FE 		sb	a4,-16(a5)
  38:src/Print.cpp ****     }while((x/=10) != 0);
 201              		.loc 1 38 20 is_stmt 1
 202 00d0 1B070500 		sext.w	a4,a0
 203              		.loc 1 38 14 is_stmt 0
 204 00d4 3B55D502 		divuw	a0,a0,a3
 205              	.LVL16:
 206              		.loc 1 38 20
 207 00d8 93079000 		li	a5,9
 208 00dc E3E0E7FC 		bgtu	a4,a5,.L8
  39:src/Print.cpp ****     if(neg) buf[i++] = '-';
 209              		.loc 1 39 5 is_stmt 1
 210 00e0 638C0500 		beqz	a1,.L11
 211              		.loc 1 39 13 discriminator 1
 212              	.LVL17:
 213              		.loc 1 39 22 is_stmt 0 discriminator 1
 214 00e4 930704FE 		addi	a5,s0,-32
 215 00e8 B3849700 		add	s1,a5,s1
 216 00ec 9307D002 		li	a5,45
 217 00f0 2388F4FE 		sb	a5,-16(s1)
 218              		.loc 1 39 18 discriminator 1
 219 00f4 9B042600 		addiw	s1,a2,2
 220              	.LVL18:
 221              	.L11:
  40:src/Print.cpp **** 
  41:src/Print.cpp ****     while(--i >= 0){
 222              		.loc 1 41 5 is_stmt 1
 223              		.loc 1 41 15
 224 00f8 9B84F4FF 		addiw	s1,s1,-1
 225              	.LVL19:
 226 00fc 63C40402 		bltz	s1,.L10
  42:src/Print.cpp ****         __putc(buf[i]);
 227              		.loc 1 42 9
 228              		.loc 1 42 15 is_stmt 0
 229 0100 930704FE 		addi	a5,s0,-32
 230 0104 B3879700 		add	a5,a5,s1
 231 0108 03C507FF 		lbu	a0,-16(a5)
 232 010c 97000000 		call	__putc@plt
 232      E7800000 
 233              	.LVL20:
 234 0114 6FF05FFE 		j	.L11
 235              	.LVL21:
 236              	.L13:
  29:src/Print.cpp ****         x=-integer;
 237              		.loc 1 29 9 is_stmt 1
  30:src/Print.cpp ****     }else{
 238              		.loc 1 30 9
  30:src/Print.cpp ****     }else{
 239              		.loc 1 30 10 is_stmt 0
 240 0118 3B05A040 		negw	a0,a0
 241              	.LVL22:
  29:src/Print.cpp ****         x=-integer;
GAS LISTING /tmp/ccUzRdYL.s 			page 9


 242              		.loc 1 29 12
 243 011c 93051000 		li	a1,1
 244 0120 6FF09FF7 		j	.L7
 245              	.LVL23:
 246              	.L10:
  43:src/Print.cpp ****     }
  44:src/Print.cpp ****     RiscV::ms_sstatus(sstatus & RiscV::SSTATUS_SIE ? RiscV::SSTATUS_SIE : 0);
 247              		.loc 1 44 5 is_stmt 1
 248              		.loc 1 44 52 is_stmt 0
 249 0124 1B090900 		sext.w	s2,s2
 250              	.LVL24:
 251              		.loc 1 44 22
 252 0128 13792900 		andi	s2,s2,2
 253 012c 1B090900 		sext.w	s2,s2
 254              	.LVL25:
 255              	.LBB24:
 256              	.LBB25:
 148:src/../h/RiscV.hpp **** }
 257              		.loc 2 148 5 is_stmt 1
 148:src/../h/RiscV.hpp **** }
 258              		.loc 2 148 67 is_stmt 0
 259              	#APP
 260              	# 148 "src/../h/RiscV.hpp" 1
 261              		csrs sstatus, s2
 262              	# 0 "" 2
 263              	.LVL26:
 264              	#NO_APP
 265              	.LBE25:
 266              	.LBE24:
  45:src/Print.cpp **** }
 267              		.loc 1 45 1
 268 0134 83308102 		ld	ra,40(sp)
 269              		.cfi_restore 1
 270 0138 03340102 		ld	s0,32(sp)
 271              		.cfi_restore 8
 272              		.cfi_def_cfa 2, 48
 273 013c 83348101 		ld	s1,24(sp)
 274              		.cfi_restore 9
 275 0140 03390101 		ld	s2,16(sp)
 276              		.cfi_restore 18
 277 0144 13010103 		addi	sp,sp,48
 278              		.cfi_def_cfa_offset 0
 279 0148 67800000 		jr	ra
 280              		.cfi_endproc
 281              	.LFE17:
 283              		.section	.rodata
 284              		.align	3
 285              		.set	.LANCHOR0,. + 0
 288              	_ZZ12printIntegeriE6digits:
 289 0000 30313233 		.string	"0123456789"
 289      34353637 
 289      383900
 290              		.text
 291              	.Letext0:
 292              		.file 3 "src/../h/../lib/hw.h"
 293              		.file 4 "src/../lib/console.h"
GAS LISTING /tmp/ccUzRdYL.s 			page 10

