GAS LISTING /tmp/ccUzRdYL.s 			page 1


   1              		.file	"Print.cpp"
   2              		.option pic
   3              		.option norelax
   4              		.text
   5              	.Ltext0:
   6              		.align	2
   7              		.globl	_Z11printStringPKc
   9              	_Z11printStringPKc:
  10              	.LFB16:
  11              		.file 1 "src/Print.cpp"
   1:src/Print.cpp **** //
   2:src/Print.cpp **** // Created by os on 8/15/22.
   3:src/Print.cpp **** //
   4:src/Print.cpp **** 
   5:src/Print.cpp **** #include "../h/Print.hpp"
   6:src/Print.cpp **** #include "../lib/console.h"
   7:src/Print.cpp **** #include "../h/RiscV.hpp"
   8:src/Print.cpp **** //promenjeni print string i integer na vezbama 2, 1:10:00 tu negde, da bi se onemogucili prekidi u 
   9:src/Print.cpp **** void printString(char const *string){
  12              		.loc 1 9 37
  13              		.cfi_startproc
  14              	.LVL0:
  15 0000 130101FE 		addi	sp,sp,-32
  16              		.cfi_def_cfa_offset 32
  17 0004 233C1100 		sd	ra,24(sp)
  18 0008 23388100 		sd	s0,16(sp)
  19 000c 23349100 		sd	s1,8(sp)
  20 0010 23302101 		sd	s2,0(sp)
  21              		.cfi_offset 1, -8
  22              		.cfi_offset 8, -16
  23              		.cfi_offset 9, -24
  24              		.cfi_offset 18, -32
  25 0014 13040102 		addi	s0,sp,32
  26              		.cfi_def_cfa 8, 0
  27 0018 93040500 		mv	s1,a0
  10:src/Print.cpp ****     uint64 sstatus = RiscV::r_sstatus();
  28              		.loc 1 10 5
  29              	.LBB14:
  30              	.LBB15:
  31              		.file 2 "src/../h/RiscV.hpp"
   1:src/../h/RiscV.hpp **** //
   2:src/../h/RiscV.hpp **** // Created by os on 8/14/22.
   3:src/../h/RiscV.hpp **** //
   4:src/../h/RiscV.hpp **** 
   5:src/../h/RiscV.hpp **** #ifndef PROJECT_BASE_RISCV_HPP
   6:src/../h/RiscV.hpp **** #define PROJECT_BASE_RISCV_HPP
   7:src/../h/RiscV.hpp **** #include "../lib/hw.h"
   8:src/../h/RiscV.hpp **** 
   9:src/../h/RiscV.hpp **** class RiscV {
  10:src/../h/RiscV.hpp **** public:
  11:src/../h/RiscV.hpp ****     //pop sstatus.spp and sstatus.spie bits(mora da bude ne inline funkcija)
  12:src/../h/RiscV.hpp ****     static void popSppSpie();
  13:src/../h/RiscV.hpp **** 
  14:src/../h/RiscV.hpp ****     //push x3...x31 registers on stack
  15:src/../h/RiscV.hpp ****     static void pushRegisters();
  16:src/../h/RiscV.hpp **** 
  17:src/../h/RiscV.hpp ****     //pop x3...x31 registers on stack
GAS LISTING /tmp/ccUzRdYL.s 			page 2


  18:src/../h/RiscV.hpp ****     static void popRegisters();
  19:src/../h/RiscV.hpp **** 
  20:src/../h/RiscV.hpp ****     //read register scause
  21:src/../h/RiscV.hpp ****     static uint64 r_scause();
  22:src/../h/RiscV.hpp **** 
  23:src/../h/RiscV.hpp ****     //write register scause
  24:src/../h/RiscV.hpp ****     static void w_scause(uint64 scause);
  25:src/../h/RiscV.hpp **** 
  26:src/../h/RiscV.hpp ****     //read register sepc
  27:src/../h/RiscV.hpp ****     static uint64 r_sepc();
  28:src/../h/RiscV.hpp **** 
  29:src/../h/RiscV.hpp ****     //write register sepc
  30:src/../h/RiscV.hpp ****     static void w_sepc(uint64 sepc);
  31:src/../h/RiscV.hpp **** 
  32:src/../h/RiscV.hpp ****     //read register stvec
  33:src/../h/RiscV.hpp ****     static uint64 r_stvec();
  34:src/../h/RiscV.hpp **** 
  35:src/../h/RiscV.hpp ****     //write register stvec
  36:src/../h/RiscV.hpp ****     static void w_stvec(uint64 stvec);
  37:src/../h/RiscV.hpp **** 
  38:src/../h/RiscV.hpp ****     //write register stval
  39:src/../h/RiscV.hpp ****     static uint64 r_stval();
  40:src/../h/RiscV.hpp **** 
  41:src/../h/RiscV.hpp ****     //write register stval
  42:src/../h/RiscV.hpp ****     static void w_stval(uint64 stval);
  43:src/../h/RiscV.hpp **** 
  44:src/../h/RiscV.hpp ****     enum BitMaskSip{
  45:src/../h/RiscV.hpp ****         SIP_SSIP = (1 << 1),
  46:src/../h/RiscV.hpp ****         SIP_STIP = (1 << 5),
  47:src/../h/RiscV.hpp ****         SIP_SEIP = (1 << 9),
  48:src/../h/RiscV.hpp ****     };
  49:src/../h/RiscV.hpp **** 
  50:src/../h/RiscV.hpp ****     //mask set register sip
  51:src/../h/RiscV.hpp ****     static void ms_sip(uint64 mask);
  52:src/../h/RiscV.hpp **** 
  53:src/../h/RiscV.hpp ****     //mask clear register sip
  54:src/../h/RiscV.hpp ****     static void mc_sip(uint64 mask);
  55:src/../h/RiscV.hpp **** 
  56:src/../h/RiscV.hpp ****     //read register sip
  57:src/../h/RiscV.hpp ****     static uint64 r_sip();
  58:src/../h/RiscV.hpp **** 
  59:src/../h/RiscV.hpp ****     //write register sip
  60:src/../h/RiscV.hpp ****     static void w_sip(uint64 sip);
  61:src/../h/RiscV.hpp **** 
  62:src/../h/RiscV.hpp ****     enum BitMaskSstatus{
  63:src/../h/RiscV.hpp ****         SSTATUS_SIE = (1<<1),
  64:src/../h/RiscV.hpp ****         SSTATUS_SPIE = (1<<5),
  65:src/../h/RiscV.hpp ****         SSTATUS_SPP=  (1<<8),
  66:src/../h/RiscV.hpp ****     };
  67:src/../h/RiscV.hpp **** 
  68:src/../h/RiscV.hpp ****     //mask set register sstatus
  69:src/../h/RiscV.hpp ****     static void ms_sstatus(uint64 mask);
  70:src/../h/RiscV.hpp **** 
  71:src/../h/RiscV.hpp ****     //mask clear register sstatus
  72:src/../h/RiscV.hpp ****     static void mc_sstatus(uint64 mask);
  73:src/../h/RiscV.hpp **** 
  74:src/../h/RiscV.hpp ****     //read register sstatus
GAS LISTING /tmp/ccUzRdYL.s 			page 3


  75:src/../h/RiscV.hpp ****     static uint64 r_sstatus();
  76:src/../h/RiscV.hpp **** 
  77:src/../h/RiscV.hpp ****     //write register sstatus
  78:src/../h/RiscV.hpp ****     static void w_sstatus(uint64 sstatus);
  79:src/../h/RiscV.hpp **** 
  80:src/../h/RiscV.hpp ****     static void supervisorTrap();
  81:src/../h/RiscV.hpp **** 
  82:src/../h/RiscV.hpp **** private:
  83:src/../h/RiscV.hpp ****     //obradjuje trap handler
  84:src/../h/RiscV.hpp ****     static void handleSupervisorTrap();
  85:src/../h/RiscV.hpp **** };
  86:src/../h/RiscV.hpp **** 
  87:src/../h/RiscV.hpp **** inline uint64 RiscV::r_scause() {
  88:src/../h/RiscV.hpp ****     uint64 volatile scause;
  89:src/../h/RiscV.hpp ****     __asm__ volatile("csrr %[scause], scause" : [scause] "=r"(scause));
  90:src/../h/RiscV.hpp ****     return scause;
  91:src/../h/RiscV.hpp **** 
  92:src/../h/RiscV.hpp **** }
  93:src/../h/RiscV.hpp **** 
  94:src/../h/RiscV.hpp **** inline void RiscV::w_scause(uint64 scause){
  95:src/../h/RiscV.hpp ****     __asm__ volatile("csrw scause, %[scause]": : [scause] "r"(scause));
  96:src/../h/RiscV.hpp **** 
  97:src/../h/RiscV.hpp **** }
  98:src/../h/RiscV.hpp **** 
  99:src/../h/RiscV.hpp **** inline uint64 RiscV::r_sepc(){
 100:src/../h/RiscV.hpp ****     uint64  sepc;
 101:src/../h/RiscV.hpp ****     __asm__ volatile("csrr %[sepc], sepc" : [sepc] "=r"(sepc));
 102:src/../h/RiscV.hpp ****     return sepc;
 103:src/../h/RiscV.hpp **** }
 104:src/../h/RiscV.hpp **** 
 105:src/../h/RiscV.hpp **** inline void RiscV::w_sepc(uint64 volatile sepc){
 106:src/../h/RiscV.hpp ****     __asm__ volatile ("csrw sepc, %[sepc]": : [sepc] "r"(sepc));
 107:src/../h/RiscV.hpp **** }
 108:src/../h/RiscV.hpp **** 
 109:src/../h/RiscV.hpp **** inline uint64 RiscV::r_stvec() {
 110:src/../h/RiscV.hpp ****     uint64 volatile stvec;
 111:src/../h/RiscV.hpp ****     __asm__ volatile ("csrr %[stvec], stvec": [stvec] "=r"(stvec));
 112:src/../h/RiscV.hpp ****     return stvec;
 113:src/../h/RiscV.hpp **** }
 114:src/../h/RiscV.hpp **** 
 115:src/../h/RiscV.hpp **** inline void RiscV::w_stvec(uint64 stvec){
 116:src/../h/RiscV.hpp ****     __asm__ volatile ("csrw stvec, %[stvec]": : [stvec] "r"(stvec));
 117:src/../h/RiscV.hpp **** }
 118:src/../h/RiscV.hpp **** 
 119:src/../h/RiscV.hpp **** inline uint64 RiscV::r_stval(){
 120:src/../h/RiscV.hpp ****     uint64 volatile stval;
 121:src/../h/RiscV.hpp ****     __asm__ volatile("csrr %[stval], stval" : [stval] "=r"(stval));
 122:src/../h/RiscV.hpp ****     return stval;
 123:src/../h/RiscV.hpp **** }
 124:src/../h/RiscV.hpp **** 
 125:src/../h/RiscV.hpp **** inline void RiscV::w_stval(uint64 stval) {
 126:src/../h/RiscV.hpp ****     __asm__ volatile ("csrw stval, %[stval]": : [stval] "r"(stval));
 127:src/../h/RiscV.hpp **** }
 128:src/../h/RiscV.hpp **** 
 129:src/../h/RiscV.hpp **** inline void RiscV::ms_sip(uint64 mask){
 130:src/../h/RiscV.hpp ****     __asm__ volatile("csrs sip, %[mask]": : [mask]"r"(mask));
 131:src/../h/RiscV.hpp **** }
GAS LISTING /tmp/ccUzRdYL.s 			page 4


 132:src/../h/RiscV.hpp **** 
 133:src/../h/RiscV.hpp **** inline void RiscV::mc_sip(uint64 mask) {
 134:src/../h/RiscV.hpp ****     __asm__ volatile("csrc sip, %[mask]" : : [mask] "r"(mask));
 135:src/../h/RiscV.hpp **** }
 136:src/../h/RiscV.hpp **** 
 137:src/../h/RiscV.hpp **** inline uint64 RiscV::r_sip(){
 138:src/../h/RiscV.hpp ****     uint64 volatile sip;
 139:src/../h/RiscV.hpp ****     __asm__ volatile("csrr %[sip], sip" : [sip] "=r"(sip));
 140:src/../h/RiscV.hpp ****     return sip;
 141:src/../h/RiscV.hpp **** }
 142:src/../h/RiscV.hpp **** 
 143:src/../h/RiscV.hpp **** inline void RiscV::w_sip(uint64 sip) {
 144:src/../h/RiscV.hpp ****     __asm__ volatile("csrw sip, %[sip]": : [sip] "r"(sip));
 145:src/../h/RiscV.hpp **** }
 146:src/../h/RiscV.hpp **** 
 147:src/../h/RiscV.hpp **** inline void RiscV::ms_sstatus(uint64 mask) {
 148:src/../h/RiscV.hpp ****     __asm__ volatile ("csrs sstatus, %[mask]": : [mask] "r"(mask));
 149:src/../h/RiscV.hpp **** }
 150:src/../h/RiscV.hpp **** 
 151:src/../h/RiscV.hpp **** inline void RiscV::mc_sstatus(uint64 mask) {
 152:src/../h/RiscV.hpp ****     __asm__ volatile("csrc sstatus, %[mask]": : [mask] "r"(mask));
 153:src/../h/RiscV.hpp **** }
 154:src/../h/RiscV.hpp **** 
 155:src/../h/RiscV.hpp **** inline uint64 RiscV::r_sstatus() {
 156:src/../h/RiscV.hpp ****     uint64 sstatus;
  32              		.loc 2 156 5
 157:src/../h/RiscV.hpp ****     __asm__ volatile ("csrr %[sstatus], sstatus": [sstatus] "=r"(sstatus));
  33              		.loc 2 157 5
  34              		.loc 2 157 75 is_stmt 0
  35              	#APP
  36              	# 157 "src/../h/RiscV.hpp" 1
 158              	    return sstatus;
  37              		csrr s2, sstatus
  38              	# 0 "" 2
  39              	.LVL1:
  40              		.loc 2 158 5 is_stmt 1
  41              	#NO_APP
  42              	.LBE15:
  43              	.LBE14:
  11:src/Print.cpp ****     RiscV::mc_sstatus(RiscV::SSTATUS_SIE);
  44              		.loc 1 11 5
  45              	.LBB16:
  46              	.LBB17:
 152:src/../h/RiscV.hpp **** }
  47              		.loc 2 152 5
 152:src/../h/RiscV.hpp **** }
  48              		.loc 2 152 66 is_stmt 0
  49 0020 93072000 		li	a5,2
  50              	#APP
  51              	# 152 "src/../h/RiscV.hpp" 1
  52              		csrc sstatus, a5
  53              	# 0 "" 2
  54              	.LVL2:
  55              	#NO_APP
  56              	.L3:
  57              	.LBE17:
  58              	.LBE16:
GAS LISTING /tmp/ccUzRdYL.s 			page 5


  12:src/Print.cpp ****     while(*string!='\0'){
  59              		.loc 1 12 5 is_stmt 1
  60              		.loc 1 12 18
  61              		.loc 1 12 11 is_stmt 0
  62 0028 03C50400 		lbu	a0,0(s1)
  63              		.loc 1 12 18
  64 002c 630A0500 		beqz	a0,.L2
  13:src/Print.cpp ****         __putc(*string);
  65              		.loc 1 13 9 is_stmt 1
  66              		.loc 1 13 15 is_stmt 0
  67 0030 97000000 		call	__putc@plt
  67      E7800000 
  68              	.LVL3:
  14:src/Print.cpp ****         string++;
  69              		.loc 1 14 9 is_stmt 1
  70              		.loc 1 14 15 is_stmt 0
  71 0038 93841400 		addi	s1,s1,1
  72              	.LVL4:
  12:src/Print.cpp ****     while(*string!='\0'){
  73              		.loc 1 12 5
  74 003c 6FF0DFFE 		j	.L3
  75              	.L2:
  15:src/Print.cpp ****     }
  16:src/Print.cpp ****     RiscV::ms_sstatus(sstatus & RiscV::SSTATUS_SIE ? RiscV::SSTATUS_SIE : 0);
  76              		.loc 1 16 5 is_stmt 1
  77              		.loc 1 16 52 is_stmt 0
  78 0040 1B090900 		sext.w	s2,s2
  79              	.LVL5:
  80              		.loc 1 16 22
  81 0044 13792900 		andi	s2,s2,2
  82 0048 1B090900 		sext.w	s2,s2
  83              	.LVL6:
  84              	.LBB18:
  85              	.LBB19:
 148:src/../h/RiscV.hpp **** }
  86              		.loc 2 148 5 is_stmt 1
 148:src/../h/RiscV.hpp **** }
  87              		.loc 2 148 67 is_stmt 0
  88              	#APP
  89              	# 148 "src/../h/RiscV.hpp" 1
  90              		csrs sstatus, s2
  91              	# 0 "" 2
  92              	.LVL7:
  93              	#NO_APP
  94              	.LBE19:
  95              	.LBE18:
  17:src/Print.cpp **** }
  96              		.loc 1 17 1
  97 0050 83308101 		ld	ra,24(sp)
  98              		.cfi_restore 1
  99 0054 03340101 		ld	s0,16(sp)
 100              		.cfi_restore 8
 101              		.cfi_def_cfa 2, 32
 102 0058 83348100 		ld	s1,8(sp)
 103              		.cfi_restore 9
 104              	.LVL8:
 105 005c 03390100 		ld	s2,0(sp)
GAS LISTING /tmp/ccUzRdYL.s 			page 6


 106              		.cfi_restore 18
 107 0060 13010102 		addi	sp,sp,32
 108              		.cfi_def_cfa_offset 0
 109 0064 67800000 		jr	ra
 110              		.cfi_endproc
 111              	.LFE16:
 113              		.align	2
 114              		.globl	_Z12printIntegeri
 116              	_Z12printIntegeri:
 117              	.LFB17:
  18:src/Print.cpp **** 
  19:src/Print.cpp **** void printInteger(int integer){
 118              		.loc 1 19 31 is_stmt 1
 119              		.cfi_startproc
 120              	.LVL9:
 121 0068 130101FD 		addi	sp,sp,-48
 122              		.cfi_def_cfa_offset 48
 123 006c 23341102 		sd	ra,40(sp)
 124 0070 23308102 		sd	s0,32(sp)
 125 0074 233C9100 		sd	s1,24(sp)
 126 0078 23382101 		sd	s2,16(sp)
 127              		.cfi_offset 1, -8
 128              		.cfi_offset 8, -16
 129              		.cfi_offset 9, -24
 130              		.cfi_offset 18, -32
 131 007c 13040103 		addi	s0,sp,48
 132              		.cfi_def_cfa 8, 0
  20:src/Print.cpp ****     uint64 sstatus = RiscV::r_sstatus();
 133              		.loc 1 20 5
 134              	.LBB20:
 135              	.LBB21:
 156:src/../h/RiscV.hpp ****     __asm__ volatile ("csrr %[sstatus], sstatus": [sstatus] "=r"(sstatus));
 136              		.loc 2 156 5
 157:src/../h/RiscV.hpp ****     return sstatus;
 137              		.loc 2 157 5
 157:src/../h/RiscV.hpp ****     return sstatus;
 138              		.loc 2 157 75 is_stmt 0
 139              	#APP
 140              	# 157 "src/../h/RiscV.hpp" 1
 141              		csrr s2, sstatus
 142              	# 0 "" 2
 143              	.LVL10:
 144              		.loc 2 158 5 is_stmt 1
 145              	#NO_APP
 146              	.LBE21:
 147              	.LBE20:
  21:src/Print.cpp ****     RiscV::mc_sstatus(RiscV::SSTATUS_SIE);
 148              		.loc 1 21 5
 149              	.LBB22:
 150              	.LBB23:
 152:src/../h/RiscV.hpp **** }
 151              		.loc 2 152 5
 152:src/../h/RiscV.hpp **** }
 152              		.loc 2 152 66 is_stmt 0
 153 0084 93072000 		li	a5,2
 154              	#APP
 155              	# 152 "src/../h/RiscV.hpp" 1
GAS LISTING /tmp/ccUzRdYL.s 			page 7


 156              		csrc sstatus, a5
 157              	# 0 "" 2
 158              	.LVL11:
 159              	#NO_APP
 160              	.LBE23:
 161              	.LBE22:
  22:src/Print.cpp ****     static char digits[] = "0123456789";
 162              		.loc 1 22 5 is_stmt 1
  23:src/Print.cpp ****     char buf[16];
 163              		.loc 1 23 5
  24:src/Print.cpp ****     int i, neg;
 164              		.loc 1 24 5
  25:src/Print.cpp ****     uint x;
 165              		.loc 1 25 5
  26:src/Print.cpp **** 
  27:src/Print.cpp ****     neg=0;
 166              		.loc 1 27 5
  28:src/Print.cpp ****     if(integer<0){
 167              		.loc 1 28 5
 168 008c 63460508 		bltz	a0,.L13
  29:src/Print.cpp ****         neg=1;
  30:src/Print.cpp ****         x=-integer;
  31:src/Print.cpp ****     }else{
  32:src/Print.cpp ****         x=integer;
 169              		.loc 1 32 9
 170              		.loc 1 32 10 is_stmt 0
 171 0090 1B050500 		sext.w	a0,a0
 172              	.LVL12:
  27:src/Print.cpp ****     if(integer<0){
 173              		.loc 1 27 8
 174 0094 93050000 		li	a1,0
 175              	.LVL13:
 176              	.L7:
  33:src/Print.cpp ****     }
  34:src/Print.cpp **** 
  35:src/Print.cpp ****     i=0;
 177              		.loc 1 35 5 is_stmt 1
 178              		.loc 1 35 6 is_stmt 0
 179 0098 93040000 		li	s1,0
 180              	.LVL14:
 181              	.L8:
  36:src/Print.cpp ****     do {
 182              		.loc 1 36 5 is_stmt 1
  37:src/Print.cpp ****         buf[i++] = digits [x%10];
 183              		.loc 1 37 9
 184              		.loc 1 37 29 is_stmt 0
 185 009c 9306A000 		li	a3,10
 186 00a0 BB77D502 		remuw	a5,a0,a3
 187 00a4 13860400 		mv	a2,s1
 188              		.loc 1 37 14
 189 00a8 9B841400 		addiw	s1,s1,1
 190              	.LVL15:
 191              		.loc 1 37 32
 192 00ac 13970702 		slli	a4,a5,32
 193 00b0 13570702 		srli	a4,a4,32
 194 00b4 97070000 		lla	a5,.LANCHOR0
 194      93870700 
GAS LISTING /tmp/ccUzRdYL.s 			page 8


 195 00bc B387E700 		add	a5,a5,a4
 196 00c0 03C70700 		lbu	a4,0(a5)
 197              		.loc 1 37 18
 198 00c4 930704FE 		addi	a5,s0,-32
 199 00c8 B387C700 		add	a5,a5,a2
 200 00cc 2388E7FE 		sb	a4,-16(a5)
  38:src/Print.cpp ****     }while((x/=10) != 0);
 201              		.loc 1 38 20 is_stmt 1
 202 00d0 1B070500 		sext.w	a4,a0
 203              		.loc 1 38 14 is_stmt 0
 204 00d4 3B55D502 		divuw	a0,a0,a3
 205              	.LVL16:
 206              		.loc 1 38 20
 207 00d8 93079000 		li	a5,9
 208 00dc E3E0E7FC 		bgtu	a4,a5,.L8
  39:src/Print.cpp ****     if(neg) buf[i++] = '-';
 209              		.loc 1 39 5 is_stmt 1
 210 00e0 638C0500 		beqz	a1,.L11
 211              		.loc 1 39 13 discriminator 1
 212              	.LVL17:
 213              		.loc 1 39 22 is_stmt 0 discriminator 1
 214 00e4 930704FE 		addi	a5,s0,-32
 215 00e8 B3849700 		add	s1,a5,s1
 216 00ec 9307D002 		li	a5,45
 217 00f0 2388F4FE 		sb	a5,-16(s1)
 218              		.loc 1 39 18 discriminator 1
 219 00f4 9B042600 		addiw	s1,a2,2
 220              	.LVL18:
 221              	.L11:
  40:src/Print.cpp **** 
  41:src/Print.cpp ****     while(--i >= 0){
 222              		.loc 1 41 5 is_stmt 1
 223              		.loc 1 41 15
 224 00f8 9B84F4FF 		addiw	s1,s1,-1
 225              	.LVL19:
 226 00fc 63C40402 		bltz	s1,.L10
  42:src/Print.cpp ****         __putc(buf[i]);
 227              		.loc 1 42 9
 228              		.loc 1 42 15 is_stmt 0
 229 0100 930704FE 		addi	a5,s0,-32
 230 0104 B3879700 		add	a5,a5,s1
 231 0108 03C507FF 		lbu	a0,-16(a5)
 232 010c 97000000 		call	__putc@plt
 232      E7800000 
 233              	.LVL20:
 234 0114 6FF05FFE 		j	.L11
 235              	.LVL21:
 236              	.L13:
  29:src/Print.cpp ****         x=-integer;
 237              		.loc 1 29 9 is_stmt 1
  30:src/Print.cpp ****     }else{
 238              		.loc 1 30 9
  30:src/Print.cpp ****     }else{
 239              		.loc 1 30 10 is_stmt 0
 240 0118 3B05A040 		negw	a0,a0
 241              	.LVL22:
  29:src/Print.cpp ****         x=-integer;
GAS LISTING /tmp/ccUzRdYL.s 			page 9


 242              		.loc 1 29 12
 243 011c 93051000 		li	a1,1
 244 0120 6FF09FF7 		j	.L7
 245              	.LVL23:
 246              	.L10:
  43:src/Print.cpp ****     }
  44:src/Print.cpp ****     RiscV::ms_sstatus(sstatus & RiscV::SSTATUS_SIE ? RiscV::SSTATUS_SIE : 0);
 247              		.loc 1 44 5 is_stmt 1
 248              		.loc 1 44 52 is_stmt 0
 249 0124 1B090900 		sext.w	s2,s2
 250              	.LVL24:
 251              		.loc 1 44 22
 252 0128 13792900 		andi	s2,s2,2
 253 012c 1B090900 		sext.w	s2,s2
 254              	.LVL25:
 255              	.LBB24:
 256              	.LBB25:
 148:src/../h/RiscV.hpp **** }
 257              		.loc 2 148 5 is_stmt 1
 148:src/../h/RiscV.hpp **** }
 258              		.loc 2 148 67 is_stmt 0
 259              	#APP
 260              	# 148 "src/../h/RiscV.hpp" 1
 261              		csrs sstatus, s2
 262              	# 0 "" 2
 263              	.LVL26:
 264              	#NO_APP
 265              	.LBE25:
 266              	.LBE24:
  45:src/Print.cpp **** }
 267              		.loc 1 45 1
 268 0134 83308102 		ld	ra,40(sp)
 269              		.cfi_restore 1
 270 0138 03340102 		ld	s0,32(sp)
 271              		.cfi_restore 8
 272              		.cfi_def_cfa 2, 48
 273 013c 83348101 		ld	s1,24(sp)
 274              		.cfi_restore 9
 275 0140 03390101 		ld	s2,16(sp)
 276              		.cfi_restore 18
 277 0144 13010103 		addi	sp,sp,48
 278              		.cfi_def_cfa_offset 0
 279 0148 67800000 		jr	ra
 280              		.cfi_endproc
 281              	.LFE17:
 283              		.section	.rodata
 284              		.align	3
 285              		.set	.LANCHOR0,. + 0
 288              	_ZZ12printIntegeriE6digits:
 289 0000 30313233 		.string	"0123456789"
 289      34353637 
 289      383900
 290              		.text
 291              	.Letext0:
 292              		.file 3 "src/../h/../lib/hw.h"
 293              		.file 4 "src/../lib/console.h"
GAS LISTING /tmp/ccUzRdYL.s 			page 10


DEFINED SYMBOLS
                            *ABS*:0000000000000000 Print.cpp
     /tmp/ccUzRdYL.s:9      .text:0000000000000000 _Z11printStringPKc
     /tmp/ccUzRdYL.s:13     .text:0000000000000000 .L0 
     /tmp/ccUzRdYL.s:15     .text:0000000000000000 .L0 
     /tmp/ccUzRdYL.s:16     .text:0000000000000004 .L0 
     /tmp/ccUzRdYL.s:21     .text:0000000000000014 .L0 
     /tmp/ccUzRdYL.s:22     .text:0000000000000014 .L0 
     /tmp/ccUzRdYL.s:23     .text:0000000000000014 .L0 
     /tmp/ccUzRdYL.s:24     .text:0000000000000014 .L0 
     /tmp/ccUzRdYL.s:26     .text:0000000000000018 .L0 
     /tmp/ccUzRdYL.s:32     .text:000000000000001c .L0 
     /tmp/ccUzRdYL.s:33     .text:000000000000001c .L0 
     /tmp/ccUzRdYL.s:34     .text:000000000000001c .L0 
  src/../h/RiscV.hpp:157    .text:000000000000001c .L0 
     /tmp/ccUzRdYL.s:44     .text:0000000000000020 .L0 
     /tmp/ccUzRdYL.s:47     .text:0000000000000020 .L0 
     /tmp/ccUzRdYL.s:48     .text:0000000000000020 .L0 
     /tmp/ccUzRdYL.s:49     .text:0000000000000020 .L0 
     /tmp/ccUzRdYL.s:60     .text:0000000000000028 .L0 
     /tmp/ccUzRdYL.s:61     .text:0000000000000028 .L0 
     /tmp/ccUzRdYL.s:62     .text:0000000000000028 .L0 
     /tmp/ccUzRdYL.s:64     .text:000000000000002c .L0 
     /tmp/ccUzRdYL.s:66     .text:0000000000000030 .L0 
     /tmp/ccUzRdYL.s:67     .text:0000000000000030 .L0 
     /tmp/ccUzRdYL.s:70     .text:0000000000000038 .L0 
     /tmp/ccUzRdYL.s:71     .text:0000000000000038 .L0 
     /tmp/ccUzRdYL.s:74     .text:000000000000003c .L0 
     /tmp/ccUzRdYL.s:77     .text:0000000000000040 .L0 
     /tmp/ccUzRdYL.s:78     .text:0000000000000040 .L0 
     /tmp/ccUzRdYL.s:81     .text:0000000000000044 .L0 
     /tmp/ccUzRdYL.s:87     .text:000000000000004c .L0 
  src/../h/RiscV.hpp:148    .text:000000000000004c .L0 
     /tmp/ccUzRdYL.s:97     .text:0000000000000050 .L0 
     /tmp/ccUzRdYL.s:98     .text:0000000000000054 .L0 
     /tmp/ccUzRdYL.s:100    .text:0000000000000058 .L0 
     /tmp/ccUzRdYL.s:101    .text:0000000000000058 .L0 
     /tmp/ccUzRdYL.s:103    .text:000000000000005c .L0 
     /tmp/ccUzRdYL.s:106    .text:0000000000000060 .L0 
     /tmp/ccUzRdYL.s:108    .text:0000000000000064 .L0 
     /tmp/ccUzRdYL.s:110    .text:0000000000000068 .L0 
     /tmp/ccUzRdYL.s:116    .text:0000000000000068 _Z12printIntegeri
     /tmp/ccUzRdYL.s:119    .text:0000000000000068 .L0 
     /tmp/ccUzRdYL.s:121    .text:0000000000000068 .L0 
     /tmp/ccUzRdYL.s:122    .text:000000000000006c .L0 
     /tmp/ccUzRdYL.s:127    .text:000000000000007c .L0 
     /tmp/ccUzRdYL.s:128    .text:000000000000007c .L0 
     /tmp/ccUzRdYL.s:129    .text:000000000000007c .L0 
     /tmp/ccUzRdYL.s:130    .text:000000000000007c .L0 
     /tmp/ccUzRdYL.s:132    .text:0000000000000080 .L0 
     /tmp/ccUzRdYL.s:136    .text:0000000000000080 .L0 
     /tmp/ccUzRdYL.s:137    .text:0000000000000080 .L0 
     /tmp/ccUzRdYL.s:138    .text:0000000000000080 .L0 
  src/../h/RiscV.hpp:157    .text:0000000000000080 .L0 
     /tmp/ccUzRdYL.s:148    .text:0000000000000084 .L0 
     /tmp/ccUzRdYL.s:151    .text:0000000000000084 .L0 
     /tmp/ccUzRdYL.s:152    .text:0000000000000084 .L0 
GAS LISTING /tmp/ccUzRdYL.s 			page 11


     /tmp/ccUzRdYL.s:153    .text:0000000000000084 .L0 
     /tmp/ccUzRdYL.s:163    .text:000000000000008c .L0 
     /tmp/ccUzRdYL.s:164    .text:000000000000008c .L0 
     /tmp/ccUzRdYL.s:165    .text:000000000000008c .L0 
     /tmp/ccUzRdYL.s:166    .text:000000000000008c .L0 
     /tmp/ccUzRdYL.s:167    .text:000000000000008c .L0 
     /tmp/ccUzRdYL.s:168    .text:000000000000008c .L0 
     /tmp/ccUzRdYL.s:170    .text:0000000000000090 .L0 
     /tmp/ccUzRdYL.s:171    .text:0000000000000090 .L0 
     /tmp/ccUzRdYL.s:174    .text:0000000000000094 .L0 
     /tmp/ccUzRdYL.s:178    .text:0000000000000098 .L0 
     /tmp/ccUzRdYL.s:179    .text:0000000000000098 .L0 
     /tmp/ccUzRdYL.s:183    .text:000000000000009c .L0 
     /tmp/ccUzRdYL.s:184    .text:000000000000009c .L0 
     /tmp/ccUzRdYL.s:185    .text:000000000000009c .L0 
     /tmp/ccUzRdYL.s:189    .text:00000000000000a8 .L0 
     /tmp/ccUzRdYL.s:192    .text:00000000000000ac .L0 
     /tmp/ccUzRdYL.s:198    .text:00000000000000c4 .L0 
     /tmp/ccUzRdYL.s:202    .text:00000000000000d0 .L0 
     /tmp/ccUzRdYL.s:204    .text:00000000000000d4 .L0 
     /tmp/ccUzRdYL.s:207    .text:00000000000000d8 .L0 
     /tmp/ccUzRdYL.s:210    .text:00000000000000e0 .L0 
     /tmp/ccUzRdYL.s:213    .text:00000000000000e4 .L0 
     /tmp/ccUzRdYL.s:214    .text:00000000000000e4 .L0 
     /tmp/ccUzRdYL.s:219    .text:00000000000000f4 .L0 
     /tmp/ccUzRdYL.s:223    .text:00000000000000f8 .L0 
     /tmp/ccUzRdYL.s:224    .text:00000000000000f8 .L0 
     /tmp/ccUzRdYL.s:228    .text:0000000000000100 .L0 
     /tmp/ccUzRdYL.s:229    .text:0000000000000100 .L0 
     /tmp/ccUzRdYL.s:238    .text:0000000000000118 .L0 
     /tmp/ccUzRdYL.s:239    .text:0000000000000118 .L0 
     /tmp/ccUzRdYL.s:240    .text:0000000000000118 .L0 
     /tmp/ccUzRdYL.s:243    .text:000000000000011c .L0 
     /tmp/ccUzRdYL.s:248    .text:0000000000000124 .L0 
     /tmp/ccUzRdYL.s:249    .text:0000000000000124 .L0 
     /tmp/ccUzRdYL.s:252    .text:0000000000000128 .L0 
     /tmp/ccUzRdYL.s:258    .text:0000000000000130 .L0 
  src/../h/RiscV.hpp:148    .text:0000000000000130 .L0 
     /tmp/ccUzRdYL.s:268    .text:0000000000000134 .L0 
     /tmp/ccUzRdYL.s:269    .text:0000000000000138 .L0 
     /tmp/ccUzRdYL.s:271    .text:000000000000013c .L0 
     /tmp/ccUzRdYL.s:272    .text:000000000000013c .L0 
     /tmp/ccUzRdYL.s:274    .text:0000000000000140 .L0 
     /tmp/ccUzRdYL.s:276    .text:0000000000000144 .L0 
     /tmp/ccUzRdYL.s:278    .text:0000000000000148 .L0 
     /tmp/ccUzRdYL.s:280    .text:000000000000014c .L0 
     /tmp/ccUzRdYL.s:285    .rodata:0000000000000000 .LANCHOR0
     /tmp/ccUzRdYL.s:288    .rodata:0000000000000000 _ZZ12printIntegeriE6digits
     /tmp/ccUzRdYL.s:294    .text:000000000000014c .L0 
     /tmp/ccUzRdYL.s:194    .text:00000000000000b4 .L0 
     /tmp/ccUzRdYL.s:75     .text:0000000000000040 .L2
     /tmp/ccUzRdYL.s:56     .text:0000000000000028 .L3
     /tmp/ccUzRdYL.s:236    .text:0000000000000118 .L13
     /tmp/ccUzRdYL.s:181    .text:000000000000009c .L8
     /tmp/ccUzRdYL.s:221    .text:00000000000000f8 .L11
     /tmp/ccUzRdYL.s:246    .text:0000000000000124 .L10
     /tmp/ccUzRdYL.s:176    .text:0000000000000098 .L7
GAS LISTING /tmp/ccUzRdYL.s 			page 12


     /tmp/ccUzRdYL.s:898    .debug_abbrev:0000000000000000 .Ldebug_abbrev0
     /tmp/ccUzRdYL.s:1675   .debug_str:0000000000000200 .LASF71
     /tmp/ccUzRdYL.s:1735   .debug_str:0000000000000497 .LASF72
     /tmp/ccUzRdYL.s:1707   .debug_str:0000000000000397 .LASF73
     /tmp/ccUzRdYL.s:5      .text:0000000000000000 .Ltext0
     /tmp/ccUzRdYL.s:291    .text:000000000000014c .Letext0
     /tmp/ccUzRdYL.s:1601   .debug_line:0000000000000000 .Ldebug_line0
     /tmp/ccUzRdYL.s:1687   .debug_str:00000000000002f8 .LASF0
     /tmp/ccUzRdYL.s:1683   .debug_str:00000000000002e0 .LASF3
     /tmp/ccUzRdYL.s:1659   .debug_str:0000000000000183 .LASF1
     /tmp/ccUzRdYL.s:1647   .debug_str:0000000000000128 .LASF2
     /tmp/ccUzRdYL.s:1621   .debug_str:000000000000005d .LASF4
     /tmp/ccUzRdYL.s:1655   .debug_str:0000000000000169 .LASF5
     /tmp/ccUzRdYL.s:1609   .debug_str:000000000000002c .LASF6
     /tmp/ccUzRdYL.s:1605   .debug_str:0000000000000012 .LASF7
     /tmp/ccUzRdYL.s:1639   .debug_str:00000000000000db .LASF8
     /tmp/ccUzRdYL.s:1701   .debug_str:000000000000035e .LASF9
     /tmp/ccUzRdYL.s:1617   .debug_str:000000000000004a .LASF10
     /tmp/ccUzRdYL.s:1759   .debug_str:0000000000000534 .LASF11
     /tmp/ccUzRdYL.s:1643   .debug_str:0000000000000104 .LASF12
     /tmp/ccUzRdYL.s:1739   .debug_str:00000000000004ab .LASF13
     /tmp/ccUzRdYL.s:1695   .debug_str:000000000000033b .LASF14
     /tmp/ccUzRdYL.s:1661   .debug_str:0000000000000196 .LASF15
     /tmp/ccUzRdYL.s:1631   .debug_str:0000000000000096 .LASF16
     /tmp/ccUzRdYL.s:1703   .debug_str:000000000000036e .LASF17
     /tmp/ccUzRdYL.s:1751   .debug_str:000000000000050c .LASF74
     /tmp/ccUzRdYL.s:1741   .debug_str:00000000000004bb .LASF75
     /tmp/ccUzRdYL.s:1699   .debug_str:0000000000000352 .LASF18
     /tmp/ccUzRdYL.s:1671   .debug_str:00000000000001e8 .LASF19
     /tmp/ccUzRdYL.s:1723   .debug_str:0000000000000446 .LASF20
     /tmp/ccUzRdYL.s:1673   .debug_str:00000000000001f5 .LASF21
     /tmp/ccUzRdYL.s:1711   .debug_str:00000000000003d7 .LASF23
     /tmp/ccUzRdYL.s:1635   .debug_str:00000000000000b3 .LASF22
     /tmp/ccUzRdYL.s:1689   .debug_str:0000000000000305 .LASF24
     /tmp/ccUzRdYL.s:1719   .debug_str:000000000000041d .LASF25
     /tmp/ccUzRdYL.s:1637   .debug_str:00000000000000c1 .LASF26
     /tmp/ccUzRdYL.s:1677   .debug_str:00000000000002c4 .LASF27
     /tmp/ccUzRdYL.s:1715   .debug_str:0000000000000403 .LASF29
     /tmp/ccUzRdYL.s:1679   .debug_str:00000000000002cd .LASF31
     /tmp/ccUzRdYL.s:1745   .debug_str:00000000000004dd .LASF33
     /tmp/ccUzRdYL.s:1691   .debug_str:0000000000000320 .LASF28
     /tmp/ccUzRdYL.s:1653   .debug_str:0000000000000156 .LASF30
     /tmp/ccUzRdYL.s:1629   .debug_str:000000000000008f .LASF32
     /tmp/ccUzRdYL.s:1705   .debug_str:0000000000000384 .LASF34
     /tmp/ccUzRdYL.s:1749   .debug_str:0000000000000504 .LASF35
     /tmp/ccUzRdYL.s:1693   .debug_str:0000000000000327 .LASF36
     /tmp/ccUzRdYL.s:1657   .debug_str:000000000000017b .LASF37
     /tmp/ccUzRdYL.s:1667   .debug_str:00000000000001c2 .LASF38
     /tmp/ccUzRdYL.s:1733   .debug_str:000000000000048f .LASF39
     /tmp/ccUzRdYL.s:1729   .debug_str:0000000000000465 .LASF40
     /tmp/ccUzRdYL.s:1651   .debug_str:000000000000014e .LASF41
     /tmp/ccUzRdYL.s:1713   .debug_str:00000000000003ef .LASF42
     /tmp/ccUzRdYL.s:1753   .debug_str:0000000000000512 .LASF43
     /tmp/ccUzRdYL.s:1685   .debug_str:00000000000002e5 .LASF44
     /tmp/ccUzRdYL.s:1611   .debug_str:0000000000000033 .LASF45
     /tmp/ccUzRdYL.s:1623   .debug_str:0000000000000064 .LASF46
     /tmp/ccUzRdYL.s:1737   .debug_str:00000000000004a5 .LASF47
GAS LISTING /tmp/ccUzRdYL.s 			page 13


     /tmp/ccUzRdYL.s:1747   .debug_str:00000000000004f2 .LASF48
     /tmp/ccUzRdYL.s:1615   .debug_str:0000000000000044 .LASF49
     /tmp/ccUzRdYL.s:1603   .debug_str:0000000000000000 .LASF50
     /tmp/ccUzRdYL.s:1727   .debug_str:000000000000045a .LASF51
     /tmp/ccUzRdYL.s:1663   .debug_str:00000000000001a2 .LASF52
     /tmp/ccUzRdYL.s:1625   .debug_str:0000000000000077 .LASF53
     /tmp/ccUzRdYL.s:1649   .debug_str:0000000000000136 .LASF54
     /tmp/ccUzRdYL.s:1681   .debug_str:00000000000002d6 .LASF55
     /tmp/ccUzRdYL.s:1641   .debug_str:00000000000000ee .LASF56
     /tmp/ccUzRdYL.s:1613   .debug_str:000000000000003a .LASF57
     /tmp/ccUzRdYL.s:1731   .debug_str:0000000000000479 .LASF58
     /tmp/ccUzRdYL.s:1755   .debug_str:0000000000000519 .LASF59
     /tmp/ccUzRdYL.s:1721   .debug_str:000000000000042a .LASF60
     /tmp/ccUzRdYL.s:1645   .debug_str:0000000000000113 .LASF76
     /tmp/ccUzRdYL.s:1709   .debug_str:00000000000003b5 .LASF77
     /tmp/ccUzRdYL.s:1627   .debug_str:0000000000000082 .LASF64
     /tmp/ccUzRdYL.s:1669   .debug_str:00000000000001d6 .LASF66
     /tmp/ccUzRdYL.s:117    .text:0000000000000068 .LFB17
     /tmp/ccUzRdYL.s:281    .text:000000000000014c .LFE17
     /tmp/ccUzRdYL.s:1665   .debug_str:00000000000001ba .LASF68
     /tmp/ccUzRdYL.s:1439   .debug_loc:0000000000000000 .LLST4
     /tmp/ccUzRdYL.s:1725   .debug_str:0000000000000452 .LASF61
     /tmp/ccUzRdYL.s:1464   .debug_loc:0000000000000062 .LLST5
     /tmp/ccUzRdYL.s:1607   .debug_str:0000000000000025 .LASF62
     /tmp/ccUzRdYL.s:1471   .debug_loc:0000000000000085 .LLST6
     /tmp/ccUzRdYL.s:1493   .debug_loc:00000000000000e4 .LLST7
     /tmp/ccUzRdYL.s:1510   .debug_loc:000000000000012f .LLST8
     /tmp/ccUzRdYL.s:134    .text:0000000000000080 .LBB20
     /tmp/ccUzRdYL.s:147    .text:0000000000000084 .LBE20
     /tmp/ccUzRdYL.s:149    .text:0000000000000084 .LBB22
     /tmp/ccUzRdYL.s:161    .text:000000000000008c .LBE22
     /tmp/ccUzRdYL.s:1540   .debug_loc:0000000000000187 .LLST9
     /tmp/ccUzRdYL.s:255    .text:0000000000000130 .LBB24
     /tmp/ccUzRdYL.s:266    .text:0000000000000134 .LBE24
     /tmp/ccUzRdYL.s:1548   .debug_loc:00000000000001ab .LLST10
     /tmp/ccUzRdYL.s:233    .text:0000000000000114 .LVL20
     /tmp/ccUzRdYL.s:1717   .debug_str:0000000000000418 .LASF63
     /tmp/ccUzRdYL.s:1757   .debug_str:0000000000000528 .LASF65
     /tmp/ccUzRdYL.s:1743   .debug_str:00000000000004ca .LASF67
     /tmp/ccUzRdYL.s:10     .text:0000000000000000 .LFB16
     /tmp/ccUzRdYL.s:111    .text:0000000000000068 .LFE16
     /tmp/ccUzRdYL.s:1633   .debug_str:00000000000000ac .LASF69
     /tmp/ccUzRdYL.s:1555   .debug_loc:00000000000001ce .LLST0
     /tmp/ccUzRdYL.s:1566   .debug_loc:0000000000000204 .LLST1
     /tmp/ccUzRdYL.s:29     .text:000000000000001c .LBB14
     /tmp/ccUzRdYL.s:43     .text:0000000000000020 .LBE14
     /tmp/ccUzRdYL.s:45     .text:0000000000000020 .LBB16
     /tmp/ccUzRdYL.s:58     .text:0000000000000028 .LBE16
     /tmp/ccUzRdYL.s:1573   .debug_loc:0000000000000227 .LLST2
     /tmp/ccUzRdYL.s:84     .text:000000000000004c .LBB18
     /tmp/ccUzRdYL.s:95     .text:0000000000000050 .LBE18
     /tmp/ccUzRdYL.s:1581   .debug_loc:000000000000024b .LLST3
     /tmp/ccUzRdYL.s:68     .text:0000000000000038 .LVL3
     /tmp/ccUzRdYL.s:1619   .debug_str:0000000000000058 .LASF70
     /tmp/ccUzRdYL.s:1697   .debug_str:000000000000034b .LASF78
     /tmp/ccUzRdYL.s:120    .text:0000000000000068 .LVL9
     /tmp/ccUzRdYL.s:175    .text:0000000000000098 .LVL13
GAS LISTING /tmp/ccUzRdYL.s 			page 14


     /tmp/ccUzRdYL.s:235    .text:0000000000000118 .LVL21
     /tmp/ccUzRdYL.s:241    .text:000000000000011c .LVL22
     /tmp/ccUzRdYL.s:143    .text:0000000000000084 .LVL10
     /tmp/ccUzRdYL.s:250    .text:0000000000000128 .LVL24
     /tmp/ccUzRdYL.s:180    .text:000000000000009c .LVL14
     /tmp/ccUzRdYL.s:190    .text:00000000000000ac .LVL15
     /tmp/ccUzRdYL.s:212    .text:00000000000000e4 .LVL17
     /tmp/ccUzRdYL.s:220    .text:00000000000000f8 .LVL18
     /tmp/ccUzRdYL.s:225    .text:00000000000000fc .LVL19
     /tmp/ccUzRdYL.s:158    .text:000000000000008c .LVL11
     /tmp/ccUzRdYL.s:245    .text:0000000000000124 .LVL23
     /tmp/ccUzRdYL.s:172    .text:0000000000000094 .LVL12
     /tmp/ccUzRdYL.s:205    .text:00000000000000d8 .LVL16
     /tmp/ccUzRdYL.s:254    .text:0000000000000130 .LVL25
     /tmp/ccUzRdYL.s:263    .text:0000000000000134 .LVL26
     /tmp/ccUzRdYL.s:14     .text:0000000000000000 .LVL0
     /tmp/ccUzRdYL.s:54     .text:0000000000000028 .LVL2
     /tmp/ccUzRdYL.s:104    .text:000000000000005c .LVL8
     /tmp/ccUzRdYL.s:39     .text:0000000000000020 .LVL1
     /tmp/ccUzRdYL.s:79     .text:0000000000000044 .LVL5
     /tmp/ccUzRdYL.s:83     .text:000000000000004c .LVL6
     /tmp/ccUzRdYL.s:92     .text:0000000000000050 .LVL7
     /tmp/ccUzRdYL.s:295    .debug_info:0000000000000000 .Ldebug_info0

UNDEFINED SYMBOLS
__putc
