GAS LISTING /tmp/ccZvUt0T.s 			page 1


   1              		.file	"RiscV.cpp"
   2              		.option pic
   3              		.option norelax
   4              		.text
   5              	.Ltext0:
   6              		.align	2
   7              		.globl	_ZN5RiscV10popSppSpieEv
   9              	_ZN5RiscV10popSppSpieEv:
  10              	.LFB49:
  11              		.file 1 "src/RiscV.cpp"
   1:src/RiscV.cpp **** //
   2:src/RiscV.cpp **** // Created by os on 8/14/22.
   3:src/RiscV.cpp **** //
   4:src/RiscV.cpp **** 
   5:src/RiscV.cpp **** #include "../h/RiscV.hpp"
   6:src/RiscV.cpp **** #include "../h/tcb.hpp"
   7:src/RiscV.cpp **** #include "../lib/console.h"
   8:src/RiscV.cpp **** #include "../h/MemoryAllocation.hpp"
   9:src/RiscV.cpp **** #include "../h/tcb.hpp"
  10:src/RiscV.cpp **** #include "../lib/console.h"
  11:src/RiscV.cpp **** 
  12:src/RiscV.cpp **** 
  13:src/RiscV.cpp **** void RiscV::popSppSpie() {
  12              		.loc 1 13 26
  13              		.cfi_startproc
  14 0000 130101FF 		addi	sp,sp,-16
  15              		.cfi_def_cfa_offset 16
  16 0004 23348100 		sd	s0,8(sp)
  17              		.cfi_offset 8, -8
  18 0008 13040101 		addi	s0,sp,16
  19              		.cfi_def_cfa 8, 0
  14:src/RiscV.cpp ****     __asm__ volatile ("csrw sepc, ra");
  20              		.loc 1 14 5
  21              		.loc 1 14 39 is_stmt 0
  22              	#APP
  23              	# 14 "src/RiscV.cpp" 1
  15              	    __asm__ volatile ("sret");
  24              		csrw sepc, ra
  25              	# 0 "" 2
  26              		.loc 1 15 5 is_stmt 1
  27              		.loc 1 15 30 is_stmt 0
  28              	# 15 "src/RiscV.cpp" 1
  16              	}
  29              		sret
  30              	# 0 "" 2
  31              		.loc 1 16 1
  32              	#NO_APP
  33 0014 03348100 		ld	s0,8(sp)
  34              		.cfi_restore 8
  35              		.cfi_def_cfa 2, 16
  36 0018 13010101 		addi	sp,sp,16
  37              		.cfi_def_cfa_offset 0
  38 001c 67800000 		jr	ra
  39              		.cfi_endproc
  40              	.LFE49:
  42              		.align	2
  43              		.globl	_ZN5RiscV20handleSupervisorTrapEv
GAS LISTING /tmp/ccZvUt0T.s 			page 2


  45              	_ZN5RiscV20handleSupervisorTrapEv:
  46              	.LFB50:
  17:src/RiscV.cpp **** 
  18:src/RiscV.cpp **** void RiscV::handleSupervisorTrap() {
  47              		.loc 1 18 36 is_stmt 1
  48              		.cfi_startproc
  49 0020 130101FA 		addi	sp,sp,-96
  50              		.cfi_def_cfa_offset 96
  51 0024 233C1104 		sd	ra,88(sp)
  52 0028 23388104 		sd	s0,80(sp)
  53              		.cfi_offset 1, -8
  54              		.cfi_offset 8, -16
  55 002c 13040106 		addi	s0,sp,96
  56              		.cfi_def_cfa 8, 0
  19:src/RiscV.cpp ****     //class TCB;
  20:src/RiscV.cpp ****     typedef TCB* thread_t;
  57              		.loc 1 20 5
  21:src/RiscV.cpp ****     typedef semaphore* sem_t;
  58              		.loc 1 21 5
  22:src/RiscV.cpp ****     volatile uint64 a4;
  59              		.loc 1 22 5
  23:src/RiscV.cpp ****     volatile uint64 size;
  60              		.loc 1 23 5
  24:src/RiscV.cpp ****     volatile uint64 handle;
  61              		.loc 1 24 5
  25:src/RiscV.cpp ****     volatile uint64 start_routine;
  62              		.loc 1 25 5
  26:src/RiscV.cpp ****     volatile uint64 arg;
  63              		.loc 1 26 5
  27:src/RiscV.cpp ****     volatile uint64 ptr;
  64              		.loc 1 27 5
  28:src/RiscV.cpp ****     __asm__ volatile("sd a4, %0" : "=m"(a4));
  65              		.loc 1 28 5
  66              		.loc 1 28 45 is_stmt 0
  67              	#APP
  68              	# 28 "src/RiscV.cpp" 1
  29              	    __asm__ volatile("sd a3, %0" : "=m"(arg));
  69              		sd a4, -24(s0)
  70              	# 0 "" 2
  71              		.loc 1 29 5 is_stmt 1
  72              		.loc 1 29 46 is_stmt 0
  73              	# 29 "src/RiscV.cpp" 1
  30              	    __asm__ volatile("sd a2, %0" : "=m"(start_routine));
  74              		sd a3, -56(s0)
  75              	# 0 "" 2
  76              		.loc 1 30 5 is_stmt 1
  77              		.loc 1 30 56 is_stmt 0
  78              	# 30 "src/RiscV.cpp" 1
  31              	    __asm__ volatile("sd a1, %0" : "=m"(handle));
  79              		sd a2, -48(s0)
  80              	# 0 "" 2
  81              		.loc 1 31 5 is_stmt 1
  82              		.loc 1 31 49 is_stmt 0
  83              	# 31 "src/RiscV.cpp" 1
  32              	    //__asm__ volatile("sd a1, %0" : "=m"(size));
  33:src/RiscV.cpp ****     //__asm__ volatile("sd a1, %0" : "=m"(ptr));
  34:src/RiscV.cpp ****     uint64 sysCallNr;
GAS LISTING /tmp/ccZvUt0T.s 			page 3


  84              		sd a1, -40(s0)
  85              	# 0 "" 2
  86              		.loc 1 34 5 is_stmt 1
  35:src/RiscV.cpp ****     int ret_value_thr_exit;
  87              		.loc 1 35 5
  36:src/RiscV.cpp ****     uint64 scause = r_scause();
  88              		.loc 1 36 5
  89              	#NO_APP
  90              	.LBB106:
  91              	.LBB107:
  92              		.file 2 "src/../h/RiscV.hpp"
   1:src/../h/RiscV.hpp **** //
   2:src/../h/RiscV.hpp **** // Created by os on 8/14/22.
   3:src/../h/RiscV.hpp **** //
   4:src/../h/RiscV.hpp **** 
   5:src/../h/RiscV.hpp **** #ifndef PROJECT_BASE_RISCV_HPP
   6:src/../h/RiscV.hpp **** #define PROJECT_BASE_RISCV_HPP
   7:src/../h/RiscV.hpp **** #include "../lib/hw.h"
   8:src/../h/RiscV.hpp **** 
   9:src/../h/RiscV.hpp **** class RiscV {
  10:src/../h/RiscV.hpp **** public:
  11:src/../h/RiscV.hpp ****     //pop sstatus.spp and sstatus.spie bits(mora da bude ne inline funkcija)
  12:src/../h/RiscV.hpp ****     static void popSppSpie();
  13:src/../h/RiscV.hpp **** 
  14:src/../h/RiscV.hpp ****     //push x3...x31 registers on stack
  15:src/../h/RiscV.hpp ****     static void pushRegisters();
  16:src/../h/RiscV.hpp **** 
  17:src/../h/RiscV.hpp ****     //pop x3...x31 registers on stack
  18:src/../h/RiscV.hpp ****     static void popRegisters();
  19:src/../h/RiscV.hpp **** 
  20:src/../h/RiscV.hpp ****     //read register scause
  21:src/../h/RiscV.hpp ****     static uint64 r_scause();
  22:src/../h/RiscV.hpp **** 
  23:src/../h/RiscV.hpp ****     //write register scause
  24:src/../h/RiscV.hpp ****     static void w_scause(uint64 scause);
  25:src/../h/RiscV.hpp **** 
  26:src/../h/RiscV.hpp ****     //read register sepc
  27:src/../h/RiscV.hpp ****     static uint64 r_sepc();
  28:src/../h/RiscV.hpp **** 
  29:src/../h/RiscV.hpp ****     //write register sepc
  30:src/../h/RiscV.hpp ****     static void w_sepc(uint64 sepc);
  31:src/../h/RiscV.hpp **** 
  32:src/../h/RiscV.hpp ****     //read register stvec
  33:src/../h/RiscV.hpp ****     static uint64 r_stvec();
  34:src/../h/RiscV.hpp **** 
  35:src/../h/RiscV.hpp ****     //write register stvec
  36:src/../h/RiscV.hpp ****     static void w_stvec(uint64 stvec);
  37:src/../h/RiscV.hpp **** 
  38:src/../h/RiscV.hpp ****     //write register stval
  39:src/../h/RiscV.hpp ****     static uint64 r_stval();
  40:src/../h/RiscV.hpp **** 
  41:src/../h/RiscV.hpp ****     //write register stval
  42:src/../h/RiscV.hpp ****     static void w_stval(uint64 stval);
  43:src/../h/RiscV.hpp **** 
  44:src/../h/RiscV.hpp ****     enum BitMaskSip{
  45:src/../h/RiscV.hpp ****         SIP_SSIP = (1 << 1),
  46:src/../h/RiscV.hpp ****         SIP_STIP = (1 << 5),
GAS LISTING /tmp/ccZvUt0T.s 			page 4


  47:src/../h/RiscV.hpp ****         SIP_SEIP = (1 << 9),
  48:src/../h/RiscV.hpp ****     };
  49:src/../h/RiscV.hpp **** 
  50:src/../h/RiscV.hpp ****     //mask set register sip
  51:src/../h/RiscV.hpp ****     static void ms_sip(uint64 mask);
  52:src/../h/RiscV.hpp **** 
  53:src/../h/RiscV.hpp ****     //mask clear register sip
  54:src/../h/RiscV.hpp ****     static void mc_sip(uint64 mask);
  55:src/../h/RiscV.hpp **** 
  56:src/../h/RiscV.hpp ****     //read register sip
  57:src/../h/RiscV.hpp ****     static uint64 r_sip();
  58:src/../h/RiscV.hpp **** 
  59:src/../h/RiscV.hpp ****     //write register sip
  60:src/../h/RiscV.hpp ****     static void w_sip(uint64 sip);
  61:src/../h/RiscV.hpp **** 
  62:src/../h/RiscV.hpp ****     enum BitMaskSstatus{
  63:src/../h/RiscV.hpp ****         SSTATUS_SIE = (1<<1),
  64:src/../h/RiscV.hpp ****         SSTATUS_SPIE = (1<<5),
  65:src/../h/RiscV.hpp ****         SSTATUS_SPP=  (1<<8),
  66:src/../h/RiscV.hpp ****     };
  67:src/../h/RiscV.hpp **** 
  68:src/../h/RiscV.hpp ****     //mask set register sstatus
  69:src/../h/RiscV.hpp ****     static void ms_sstatus(uint64 mask);
  70:src/../h/RiscV.hpp **** 
  71:src/../h/RiscV.hpp ****     //mask clear register sstatus
  72:src/../h/RiscV.hpp ****     static void mc_sstatus(uint64 mask);
  73:src/../h/RiscV.hpp **** 
  74:src/../h/RiscV.hpp ****     //read register sstatus
  75:src/../h/RiscV.hpp ****     static uint64 r_sstatus();
  76:src/../h/RiscV.hpp **** 
  77:src/../h/RiscV.hpp ****     //write register sstatus
  78:src/../h/RiscV.hpp ****     static void w_sstatus(uint64 sstatus);
  79:src/../h/RiscV.hpp **** 
  80:src/../h/RiscV.hpp ****     static void supervisorTrap();
  81:src/../h/RiscV.hpp **** 
  82:src/../h/RiscV.hpp **** private:
  83:src/../h/RiscV.hpp ****     //obradjuje trap handler
  84:src/../h/RiscV.hpp ****     static void handleSupervisorTrap();
  85:src/../h/RiscV.hpp **** };
  86:src/../h/RiscV.hpp **** 
  87:src/../h/RiscV.hpp **** inline uint64 RiscV::r_scause() {
  88:src/../h/RiscV.hpp ****     uint64 volatile scause;
  93              		.loc 2 88 5
  89:src/../h/RiscV.hpp ****     __asm__ volatile("csrr %[scause], scause" : [scause] "=r"(scause));
  94              		.loc 2 89 5
  95              		.loc 2 89 71 is_stmt 0
  96              	#APP
  97              	# 89 "src/../h/RiscV.hpp" 1
  90              	    return scause;
  98              		csrr a5, scause
  99              	# 0 "" 2
 100              	#NO_APP
 101 0044 2334F4FA 		sd	a5,-88(s0)
 102              		.loc 2 90 5 is_stmt 1
 103              		.loc 2 90 12 is_stmt 0
 104 0048 033784FA 		ld	a4,-88(s0)
 105              	.LVL0:
GAS LISTING /tmp/ccZvUt0T.s 			page 5


 106              	.LBE107:
 107              	.LBE106:
  37:src/RiscV.cpp ****     volatile uint64 sepc = r_sepc() + 4;
 108              		.loc 1 37 5 is_stmt 1
 109              	.LBB108:
 110              	.LBB109:
  91:src/../h/RiscV.hpp **** 
  92:src/../h/RiscV.hpp **** }
  93:src/../h/RiscV.hpp **** 
  94:src/../h/RiscV.hpp **** inline void RiscV::w_scause(uint64 scause){
  95:src/../h/RiscV.hpp ****     __asm__ volatile("csrw scause, %[scause]": : [scause] "r"(scause));
  96:src/../h/RiscV.hpp **** 
  97:src/../h/RiscV.hpp **** }
  98:src/../h/RiscV.hpp **** 
  99:src/../h/RiscV.hpp **** inline uint64 RiscV::r_sepc(){
 100:src/../h/RiscV.hpp ****     uint64  sepc;
 111              		.loc 2 100 5
 101:src/../h/RiscV.hpp ****     __asm__ volatile("csrr %[sepc], sepc" : [sepc] "=r"(sepc));
 112              		.loc 2 101 5
 113              		.loc 2 101 63 is_stmt 0
 114              	#APP
 115              	# 101 "src/../h/RiscV.hpp" 1
 102              	    return sepc;
 116              		csrr a5, sepc
 117              	# 0 "" 2
 118              	.LVL1:
 119              		.loc 2 102 5 is_stmt 1
 120              	#NO_APP
 121              	.LBE109:
 122              	.LBE108:
 123              		.loc 1 37 37 is_stmt 0
 124 0050 93874700 		addi	a5,a5,4
 125              		.loc 1 37 39
 126 0054 233CF4FA 		sd	a5,-72(s0)
  38:src/RiscV.cpp ****     volatile uint64 sstatus = r_sstatus();
 127              		.loc 1 38 5 is_stmt 1
 128              	.LBB110:
 129              	.LBB111:
 103:src/../h/RiscV.hpp **** }
 104:src/../h/RiscV.hpp **** 
 105:src/../h/RiscV.hpp **** inline void RiscV::w_sepc(uint64 volatile sepc){
 106:src/../h/RiscV.hpp ****     __asm__ volatile ("csrw sepc, %[sepc]": : [sepc] "r"(sepc));
 107:src/../h/RiscV.hpp **** }
 108:src/../h/RiscV.hpp **** 
 109:src/../h/RiscV.hpp **** inline uint64 RiscV::r_stvec() {
 110:src/../h/RiscV.hpp ****     uint64 volatile stvec;
 111:src/../h/RiscV.hpp ****     __asm__ volatile ("csrr %[stvec], stvec": [stvec] "=r"(stvec));
 112:src/../h/RiscV.hpp ****     return stvec;
 113:src/../h/RiscV.hpp **** }
 114:src/../h/RiscV.hpp **** 
 115:src/../h/RiscV.hpp **** inline void RiscV::w_stvec(uint64 stvec){
 116:src/../h/RiscV.hpp ****     __asm__ volatile ("csrw stvec, %[stvec]": : [stvec] "r"(stvec));
 117:src/../h/RiscV.hpp **** }
 118:src/../h/RiscV.hpp **** 
 119:src/../h/RiscV.hpp **** inline uint64 RiscV::r_stval(){
 120:src/../h/RiscV.hpp ****     uint64 volatile stval;
 121:src/../h/RiscV.hpp ****     __asm__ volatile("csrr %[stval], stval" : [stval] "=r"(stval));
GAS LISTING /tmp/ccZvUt0T.s 			page 6


 122:src/../h/RiscV.hpp ****     return stval;
 123:src/../h/RiscV.hpp **** }
 124:src/../h/RiscV.hpp **** 
 125:src/../h/RiscV.hpp **** inline void RiscV::w_stval(uint64 stval) {
 126:src/../h/RiscV.hpp ****     __asm__ volatile ("csrw stval, %[stval]": : [stval] "r"(stval));
 127:src/../h/RiscV.hpp **** }
 128:src/../h/RiscV.hpp **** 
 129:src/../h/RiscV.hpp **** inline void RiscV::ms_sip(uint64 mask){
 130:src/../h/RiscV.hpp ****     __asm__ volatile("csrs sip, %[mask]": : [mask]"r"(mask));
 131:src/../h/RiscV.hpp **** }
 132:src/../h/RiscV.hpp **** 
 133:src/../h/RiscV.hpp **** inline void RiscV::mc_sip(uint64 mask) {
 134:src/../h/RiscV.hpp ****     __asm__ volatile("csrc sip, %[mask]" : : [mask] "r"(mask));
 135:src/../h/RiscV.hpp **** }
 136:src/../h/RiscV.hpp **** 
 137:src/../h/RiscV.hpp **** inline uint64 RiscV::r_sip(){
 138:src/../h/RiscV.hpp ****     uint64 volatile sip;
 139:src/../h/RiscV.hpp ****     __asm__ volatile("csrr %[sip], sip" : [sip] "=r"(sip));
 140:src/../h/RiscV.hpp ****     return sip;
 141:src/../h/RiscV.hpp **** }
 142:src/../h/RiscV.hpp **** 
 143:src/../h/RiscV.hpp **** inline void RiscV::w_sip(uint64 sip) {
 144:src/../h/RiscV.hpp ****     __asm__ volatile("csrw sip, %[sip]": : [sip] "r"(sip));
 145:src/../h/RiscV.hpp **** }
 146:src/../h/RiscV.hpp **** 
 147:src/../h/RiscV.hpp **** inline void RiscV::ms_sstatus(uint64 mask) {
 148:src/../h/RiscV.hpp ****     __asm__ volatile ("csrs sstatus, %[mask]": : [mask] "r"(mask));
 149:src/../h/RiscV.hpp **** }
 150:src/../h/RiscV.hpp **** 
 151:src/../h/RiscV.hpp **** inline void RiscV::mc_sstatus(uint64 mask) {
 152:src/../h/RiscV.hpp ****     __asm__ volatile("csrc sstatus, %[mask]": : [mask] "r"(mask));
 153:src/../h/RiscV.hpp **** }
 154:src/../h/RiscV.hpp **** 
 155:src/../h/RiscV.hpp **** inline uint64 RiscV::r_sstatus() {
 156:src/../h/RiscV.hpp ****     uint64 sstatus;
 130              		.loc 2 156 5
 157:src/../h/RiscV.hpp ****     __asm__ volatile ("csrr %[sstatus], sstatus": [sstatus] "=r"(sstatus));
 131              		.loc 2 157 5
 132              		.loc 2 157 75 is_stmt 0
 133              	#APP
 134              	# 157 "src/../h/RiscV.hpp" 1
 158              	    return sstatus;
 135              		csrr a5, sstatus
 136              	# 0 "" 2
 137              	.LVL2:
 138              		.loc 2 158 5 is_stmt 1
 139              	#NO_APP
 140              	.LBE111:
 141              	.LBE110:
 142              		.loc 1 38 41 is_stmt 0
 143 005c 2338F4FA 		sd	a5,-80(s0)
  39:src/RiscV.cpp ****     __asm__ volatile("mv %[sysCallNr], a0" : [sysCallNr] "=r"(sysCallNr));
 144              		.loc 1 39 5 is_stmt 1
 145              		.loc 1 39 74 is_stmt 0
 146              	#APP
 147              	# 39 "src/RiscV.cpp" 1
  40              	    if (scause == 0x000000000000009UL || scause == 0x000000000000008UL){
GAS LISTING /tmp/ccZvUt0T.s 			page 7


 148              		mv a5, a0
 149              	# 0 "" 2
 150              	.LVL3:
 151              		.loc 1 40 5 is_stmt 1
 152              	#NO_APP
 153              	.LBB112:
 154              		.loc 1 40 39 is_stmt 0
 155 0064 130687FF 		addi	a2,a4,-8
 156              		.loc 1 40 5
 157 0068 93061000 		li	a3,1
 158 006c 63F8C602 		bleu	a2,a3,.L44
  41:src/RiscV.cpp ****         if (sysCallNr == 0x01UL) {
  42:src/RiscV.cpp ****             __asm__ volatile("mv %[size], a1" : [size] "=r"(size)); //promeni ovaj read, undefined 
  43:src/RiscV.cpp ****             void* pointer=MemoryAllocation::mem_alloc(MemoryAllocation::bytesToBlocks((size_t)size)
  44:src/RiscV.cpp ****             //ja sam ovde spakovao argument koji se dobije, i saljem ga nazad u funkciju posle ecal
  45:src/RiscV.cpp ****             __asm__ volatile("mv a1, %0": : [pointer] "r"(pointer) );
  46:src/RiscV.cpp ****             __asm__ volatile("sd a1, 88(s0)");
  47:src/RiscV.cpp ****         } else if (sysCallNr == 0x02UL) {
  48:src/RiscV.cpp ****             __asm__ volatile("mv %[ptr], a1" : [ptr] "=r"(ptr)); //promeni ovaj read, undefined ref
  49:src/RiscV.cpp ****             int ret=MemoryAllocation::mem_free((void*)ptr);
  50:src/RiscV.cpp ****             __asm__ volatile("mv a1, %0": : [ret] "r"(ret));
  51:src/RiscV.cpp ****             __asm__ volatile("sd a1, 88(s0)"); //zasto je ovde bas 88
  52:src/RiscV.cpp ****         }else if(sysCallNr == 0x11UL){
  53:src/RiscV.cpp ****             int ret_val=TCB::createThread((TCB::Body)start_routine, (thread_t*) handle, (void*)arg,
  54:src/RiscV.cpp ****             __asm__ volatile("mv a1, %0": : [ret_val] "r"(ret_val));
  55:src/RiscV.cpp ****             __asm__ volatile("sd a1, 88(s0)");
  56:src/RiscV.cpp ****         }else if(sysCallNr == 0x12UL){
  57:src/RiscV.cpp ****             ret_value_thr_exit=TCB::thread_exit();
  58:src/RiscV.cpp ****             __asm__ volatile("mv a1, %0": : [ret_value_thr_exit] "r"(ret_value_thr_exit) );
  59:src/RiscV.cpp ****             __asm__ volatile("sd a1, 88(s0)");
  60:src/RiscV.cpp ****         }else if(sysCallNr == 0x13UL){
  61:src/RiscV.cpp ****             TCB::thread_dispatch();
  62:src/RiscV.cpp ****         }else if(sysCallNr==0x14UL){
  63:src/RiscV.cpp ****             int ret_val=TCB::createThread((TCB::Body)a4, (thread_t*) handle, (void*)arg, false);
  64:src/RiscV.cpp ****             __asm__ volatile("mv a1, %0": : [ret_val] "r"(ret_val));
  65:src/RiscV.cpp ****             __asm__ volatile("sd a1, 88(s0)");
  66:src/RiscV.cpp ****         }else if(sysCallNr==0x15UL){
  67:src/RiscV.cpp ****             TCB::startThread((thread_t*)handle);
  68:src/RiscV.cpp ****         }else if(sysCallNr == 0x21UL){
  69:src/RiscV.cpp ****             int retval = semaphore::semOpen((sem_t*)handle, (unsigned)start_routine);
  70:src/RiscV.cpp ****             __asm__ volatile("mv a1, %0": : [retval] "r"(retval) );
  71:src/RiscV.cpp ****             __asm__ volatile("sd a1, 88(s0)");
  72:src/RiscV.cpp ****         }else if(sysCallNr == 0x22UL){
  73:src/RiscV.cpp ****             int retval = semaphore::semClose((sem_t)handle);
  74:src/RiscV.cpp ****             __asm__ volatile("mv a1, %0": : [retval] "r"(retval) );
  75:src/RiscV.cpp ****             __asm__ volatile("sd a1, 88(s0)");
  76:src/RiscV.cpp ****         }else if(sysCallNr == 0x23UL){
  77:src/RiscV.cpp ****             int retval = semaphore::semWait((sem_t)handle);
  78:src/RiscV.cpp ****             __asm__ volatile("mv a1, %0": : [retval] "r"(retval) );
  79:src/RiscV.cpp ****             __asm__ volatile("sd a1, 88(s0)");
  80:src/RiscV.cpp ****         }else if(sysCallNr == 0x24UL){
  81:src/RiscV.cpp ****             int retval = semaphore::semSignal((sem_t)handle);
  82:src/RiscV.cpp ****             __asm__ volatile("mv a1, %0": : [retval] "r"(retval) );
  83:src/RiscV.cpp ****             __asm__ volatile("sd a1, 88(s0)");
  84:src/RiscV.cpp ****        }else if(sysCallNr==0x41UL){
  85:src/RiscV.cpp ****             char retval = __getc();
  86:src/RiscV.cpp ****             __asm__ volatile("mv a1, %0": : [retval] "r"(retval) );
GAS LISTING /tmp/ccZvUt0T.s 			page 8


  87:src/RiscV.cpp ****             __asm__ volatile("sd a1, 88(s0)");
  88:src/RiscV.cpp ****         }else if(sysCallNr==0x42UL){
  89:src/RiscV.cpp ****             __putc((char)handle);
  90:src/RiscV.cpp ****         }
  91:src/RiscV.cpp ****         //enviroment call from s-mode
  92:src/RiscV.cpp **** 
  93:src/RiscV.cpp ****         /*TCB::timeSliceCounter = 0;
  94:src/RiscV.cpp ****         TCB::dispatch();*/
  95:src/RiscV.cpp ****         w_sstatus(sstatus);
  96:src/RiscV.cpp ****         w_sepc(sepc);
  97:src/RiscV.cpp ****     }
  98:src/RiscV.cpp ****     else if(scause == 0x8000000000000001UL){
 159              		.loc 1 98 10 is_stmt 1
 160 0070 9307F0FF 		li	a5,-1
 161              	.LVL4:
 162 0074 9397F703 		slli	a5,a5,63
 163 0078 93871700 		addi	a5,a5,1
 164 007c 6308F740 		beq	a4,a5,.L45
  99:src/RiscV.cpp **** //         TCB::timeSliceCounter++;
 100:src/RiscV.cpp **** //         if(TCB::timeSliceCounter>= TCB::running->getTimeSlice()){
 101:src/RiscV.cpp **** //             volatile uint64 sepc = r_sepc();
 102:src/RiscV.cpp **** //             volatile uint64 sstatus = r_sstatus();
 103:src/RiscV.cpp **** //             TCB::timeSliceCounter=0;
 104:src/RiscV.cpp **** //             TCB::dispatch();
 105:src/RiscV.cpp **** //             w_sstatus(sstatus);
 106:src/RiscV.cpp **** //             w_sepc(sepc);
 107:src/RiscV.cpp **** //         }
 108:src/RiscV.cpp ****         mc_sip(SIP_SSIP);
 109:src/RiscV.cpp ****     }else if(scause==0x8000000000000009UL){
 165              		.loc 1 109 11
 166 0080 9307F0FF 		li	a5,-1
 167 0084 9397F703 		slli	a5,a5,63
 168 0088 93879700 		addi	a5,a5,9
 169 008c 631EF718 		bne	a4,a5,.L3
 110:src/RiscV.cpp ****         //supervisor external interrupt (console)
 111:src/RiscV.cpp ****         console_handler();
 170              		.loc 1 111 9
 171              		.loc 1 111 24 is_stmt 0
 172 0090 97000000 		call	console_handler@plt
 172      E7800000 
 173              	.LVL5:
 174              	.LBE112:
 112:src/RiscV.cpp ****     }else {
 113:src/RiscV.cpp ****         //unexpected trap cause
 114:src/RiscV.cpp ****         //print (scause)
 115:src/RiscV.cpp ****         //print sepc
 116:src/RiscV.cpp ****         //print sval
 117:src/RiscV.cpp **** 
 118:src/RiscV.cpp ****     }
 119:src/RiscV.cpp **** }...
 175              		.loc 1 119 1
 176 0098 6F000019 		j	.L3
 177              	.LVL6:
 178              	.L44:
 179              	.LBB273:
 180              	.LBB113:
  41:src/RiscV.cpp ****         if (sysCallNr == 0x01UL) {
GAS LISTING /tmp/ccZvUt0T.s 			page 9


 181              		.loc 1 41 9 is_stmt 1
 182              	.LBB114:
 183 009c 13071000 		li	a4,1
 184              	.LVL7:
 185 00a0 638CE706 		beq	a5,a4,.L46
 186              	.LBE114:
 187              	.LBE113:
 188              	.LBE273:
  47:src/RiscV.cpp ****         } else if (sysCallNr == 0x02UL) {
 189              		.loc 1 47 16
 190              	.LBB274:
 191              	.LBB258:
 192              	.LBB241:
 193              	.LBB115:
 194 00a4 13072000 		li	a4,2
 195 00a8 6382E71A 		beq	a5,a4,.L47
 196              	.LBE115:
 197              	.LBE241:
 198              	.LBE258:
 199              	.LBE274:
  52:src/RiscV.cpp ****         }else if(sysCallNr == 0x11UL){
 200              		.loc 1 52 15
 201              	.LBB275:
 202              	.LBB259:
 203              	.LBB242:
 204              	.LBB211:
 205              	.LBB116:
 206 00ac 13071001 		li	a4,17
 207 00b0 638EE72A 		beq	a5,a4,.L48
 208              	.LBE116:
 209              	.LBE211:
 210              	.LBE242:
 211              	.LBE259:
 212              	.LBE275:
  56:src/RiscV.cpp ****         }else if(sysCallNr == 0x12UL){
 213              		.loc 1 56 15
 214              	.LBB276:
 215              	.LBB260:
 216              	.LBB243:
 217              	.LBB212:
 218              	.LBB184:
 219              	.LBB117:
 220 00b4 13072001 		li	a4,18
 221 00b8 638CE72C 		beq	a5,a4,.L49
 222              	.LBE117:
 223              	.LBE184:
 224              	.LBE212:
 225              	.LBE243:
 226              	.LBE260:
 227              	.LBE276:
  60:src/RiscV.cpp ****         }else if(sysCallNr == 0x13UL){
 228              		.loc 1 60 15
 229              	.LBB277:
 230              	.LBB261:
 231              	.LBB244:
 232              	.LBB213:
 233              	.LBB185:
GAS LISTING /tmp/ccZvUt0T.s 			page 10


 234              	.LBB174:
 235              	.LBB118:
 236 00bc 13073001 		li	a4,19
 237 00c0 6380E730 		beq	a5,a4,.L50
 238              	.LBE118:
 239              	.LBE174:
 240              	.LBE185:
 241              	.LBE213:
 242              	.LBE244:
 243              	.LBE261:
 244              	.LBE277:
  62:src/RiscV.cpp ****         }else if(sysCallNr==0x14UL){
 245              		.loc 1 62 15
 246              	.LBB278:
 247              	.LBB262:
 248              	.LBB245:
 249              	.LBB214:
 250              	.LBB186:
 251              	.LBB175:
 252              	.LBB164:
 253              	.LBB119:
 254 00c4 13074001 		li	a4,20
 255 00c8 6382E730 		beq	a5,a4,.L51
 256              	.LBE119:
 257              	.LBE164:
 258              	.LBE175:
 259              	.LBE186:
 260              	.LBE214:
 261              	.LBE245:
 262              	.LBE262:
 263              	.LBE278:
  66:src/RiscV.cpp ****         }else if(sysCallNr==0x15UL){
 264              		.loc 1 66 15
 265              	.LBB279:
 266              	.LBB263:
 267              	.LBB246:
 268              	.LBB215:
 269              	.LBB187:
 270              	.LBB176:
 271              	.LBB165:
 272              	.LBB155:
 273              	.LBB120:
 274 00cc 13075001 		li	a4,21
 275 00d0 6380E732 		beq	a5,a4,.L52
 276              	.LBE120:
 277              	.LBE155:
 278              	.LBE165:
 279              	.LBE176:
 280              	.LBE187:
 281              	.LBE215:
 282              	.LBE246:
 283              	.LBE263:
 284              	.LBE279:
  68:src/RiscV.cpp ****         }else if(sysCallNr == 0x21UL){
 285              		.loc 1 68 15
 286              	.LBB280:
 287              	.LBB264:
GAS LISTING /tmp/ccZvUt0T.s 			page 11


 288              	.LBB247:
 289              	.LBB216:
 290              	.LBB188:
 291              	.LBB177:
 292              	.LBB166:
 293              	.LBB156:
 294              	.LBB148:
 295              	.LBB121:
 296 00d4 13071002 		li	a4,33
 297 00d8 638CE732 		beq	a5,a4,.L53
 298              	.LBE121:
 299              	.LBE148:
 300              	.LBE156:
 301              	.LBE166:
 302              	.LBE177:
 303              	.LBE188:
 304              	.LBE216:
 305              	.LBE247:
 306              	.LBE264:
 307              	.LBE280:
  72:src/RiscV.cpp ****         }else if(sysCallNr == 0x22UL){
 308              		.loc 1 72 15
 309              	.LBB281:
 310              	.LBB265:
 311              	.LBB248:
 312              	.LBB217:
 313              	.LBB189:
 314              	.LBB178:
 315              	.LBB167:
 316              	.LBB157:
 317              	.LBB149:
 318              	.LBB141:
 319              	.LBB122:
 320 00dc 13072002 		li	a4,34
 321 00e0 6388E734 		beq	a5,a4,.L54
 322              	.LBE122:
 323              	.LBE141:
 324              	.LBE149:
 325              	.LBE157:
 326              	.LBE167:
 327              	.LBE178:
 328              	.LBE189:
 329              	.LBE217:
 330              	.LBE248:
 331              	.LBE265:
 332              	.LBE281:
  76:src/RiscV.cpp ****         }else if(sysCallNr == 0x23UL){
 333              		.loc 1 76 15
 334              	.LBB282:
 335              	.LBB266:
 336              	.LBB249:
 337              	.LBB218:
 338              	.LBB190:
 339              	.LBB179:
 340              	.LBB168:
 341              	.LBB158:
 342              	.LBB150:
GAS LISTING /tmp/ccZvUt0T.s 			page 12


 343              	.LBB142:
 344              	.LBB136:
 345              	.LBB123:
 346 00e4 13073002 		li	a4,35
 347 00e8 6380E736 		beq	a5,a4,.L55
 348              	.LBE123:
 349              	.LBE136:
 350              	.LBE142:
 351              	.LBE150:
 352              	.LBE158:
 353              	.LBE168:
 354              	.LBE179:
 355              	.LBE190:
 356              	.LBE218:
 357              	.LBE249:
 358              	.LBE266:
 359              	.LBE282:
  80:src/RiscV.cpp ****         }else if(sysCallNr == 0x24UL){
 360              		.loc 1 80 15
 361              	.LBB283:
 362              	.LBB267:
 363              	.LBB250:
 364              	.LBB219:
 365              	.LBB191:
 366              	.LBB180:
 367              	.LBB169:
 368              	.LBB159:
 369              	.LBB151:
 370              	.LBB143:
 371              	.LBB137:
 372              	.LBB132:
 373              	.LBB124:
 374 00ec 13074002 		li	a4,36
 375 00f0 6388E736 		beq	a5,a4,.L56
 376              	.LBE124:
 377              	.LBE132:
 378              	.LBE137:
 379              	.LBE143:
 380              	.LBE151:
 381              	.LBE159:
 382              	.LBE169:
 383              	.LBE180:
 384              	.LBE191:
 385              	.LBE219:
 386              	.LBE250:
 387              	.LBE267:
 388              	.LBE283:
  84:src/RiscV.cpp ****        }else if(sysCallNr==0x41UL){
 389              		.loc 1 84 14
 390              	.LBB284:
 391              	.LBB268:
 392              	.LBB251:
 393              	.LBB220:
 394              	.LBB192:
 395              	.LBB181:
 396              	.LBB170:
 397              	.LBB160:
GAS LISTING /tmp/ccZvUt0T.s 			page 13


 398              	.LBB152:
 399              	.LBB144:
 400              	.LBB138:
 401              	.LBB133:
 402              	.LBB129:
 403              	.LBB125:
 404 00f4 13071004 		li	a4,65
 405 00f8 6380E738 		beq	a5,a4,.L57
  88:src/RiscV.cpp ****         }else if(sysCallNr==0x42UL){
 406              		.loc 1 88 15
 407 00fc 13072004 		li	a4,66
 408 0100 639CE710 		bne	a5,a4,.L15
  89:src/RiscV.cpp ****             __putc((char)handle);
 409              		.loc 1 89 13
  89:src/RiscV.cpp ****             __putc((char)handle);
 410              		.loc 1 89 19 is_stmt 0
 411 0104 033584FD 		ld	a0,-40(s0)
 412 0108 1375F50F 		andi	a0,a0,0xff
 413 010c 97000000 		call	__putc@plt
 413      E7800000 
 414              	.LVL8:
 415 0114 6F004010 		j	.L15
 416              	.LVL9:
 417              	.L46:
 418              	.LBE125:
 419              	.LBE129:
 420              	.LBE133:
 421              	.LBE138:
 422              	.LBE144:
 423              	.LBE152:
 424              	.LBE160:
 425              	.LBE170:
 426              	.LBE181:
 427              	.LBE192:
 428              	.LBE220:
 429              	.LBB221:
  42:src/RiscV.cpp ****             __asm__ volatile("mv %[size], a1" : [size] "=r"(size)); //promeni ovaj read, undefined 
 430              		.loc 1 42 13 is_stmt 1
  42:src/RiscV.cpp ****             __asm__ volatile("mv %[size], a1" : [size] "=r"(size)); //promeni ovaj read, undefined 
 431              		.loc 1 42 67 is_stmt 0
 432              	#APP
 433              	# 42 "src/RiscV.cpp" 1
 434              		mv a5, a1
 435              	# 0 "" 2
 436              	.LVL10:
 437              	#NO_APP
 438 011c 2330F4FE 		sd	a5,-32(s0)
  43:src/RiscV.cpp ****             void* pointer=MemoryAllocation::mem_alloc(MemoryAllocation::bytesToBlocks((size_t)size)
 439              		.loc 1 43 13 is_stmt 1
  43:src/RiscV.cpp ****             void* pointer=MemoryAllocation::mem_alloc(MemoryAllocation::bytesToBlocks((size_t)size)
 440              		.loc 1 43 86 is_stmt 0
 441 0120 833704FE 		ld	a5,-32(s0)
 442              	.LVL11:
 443              	.LBB222:
 444              	.LBB223:
 445              		.file 3 "src/../h/../h/../h/MemoryAllocation.hpp"
   1:src/../h/../h/../h/MemoryAllocation.hpp **** #include "../lib/hw.h"
GAS LISTING /tmp/ccZvUt0T.s 			page 14


   2:src/../h/../h/../h/MemoryAllocation.hpp **** 
   3:src/../h/../h/../h/MemoryAllocation.hpp **** 
   4:src/../h/../h/../h/MemoryAllocation.hpp **** #ifndef PROJECT_BASE_MEMORYALLOCATION_HPP
   5:src/../h/../h/../h/MemoryAllocation.hpp **** #define PROJECT_BASE_MEMORYALLOCATION_HPP
   6:src/../h/../h/../h/MemoryAllocation.hpp **** 
   7:src/../h/../h/../h/MemoryAllocation.hpp **** 
   8:src/../h/../h/../h/MemoryAllocation.hpp **** class MemoryAllocation {
   9:src/../h/../h/../h/MemoryAllocation.hpp **** 
  10:src/../h/../h/../h/MemoryAllocation.hpp ****     //===========================DEFINICIJA SINGLETON KLASE POCETAK=======================k
  11:src/../h/../h/../h/MemoryAllocation.hpp **** private:
  12:src/../h/../h/../h/MemoryAllocation.hpp **** 
  13:src/../h/../h/../h/MemoryAllocation.hpp ****     struct FreeMem {
  14:src/../h/../h/../h/MemoryAllocation.hpp ****         FreeMem *next;
  15:src/../h/../h/../h/MemoryAllocation.hpp ****         FreeMem *prev;
  16:src/../h/../h/../h/MemoryAllocation.hpp ****         size_t size;
  17:src/../h/../h/../h/MemoryAllocation.hpp ****     };
  18:src/../h/../h/../h/MemoryAllocation.hpp **** 
  19:src/../h/../h/../h/MemoryAllocation.hpp **** 
  20:src/../h/../h/../h/MemoryAllocation.hpp ****     static FreeMem *fmem_head; //koja pocetna vrednost?
  21:src/../h/../h/../h/MemoryAllocation.hpp **** 
  22:src/../h/../h/../h/MemoryAllocation.hpp **** 
  23:src/../h/../h/../h/MemoryAllocation.hpp **** 
  24:src/../h/../h/../h/MemoryAllocation.hpp ****     static MemoryAllocation *instance;
  25:src/../h/../h/../h/MemoryAllocation.hpp ****     int data;
  26:src/../h/../h/../h/MemoryAllocation.hpp **** 
  27:src/../h/../h/../h/MemoryAllocation.hpp **** 
  28:src/../h/../h/../h/MemoryAllocation.hpp ****     MemoryAllocation() { //OVO SE SADA NIGGDE
  29:src/../h/../h/../h/MemoryAllocation.hpp ****         fmem_head->size = (size_t) ((char *) HEAP_END_ADDR -
  30:src/../h/../h/../h/MemoryAllocation.hpp ****                                     (char *) HEAP_START_ADDR); //da li smem ovo da castujem u size_
  31:src/../h/../h/../h/MemoryAllocation.hpp ****         fmem_head->next = nullptr;
  32:src/../h/../h/../h/MemoryAllocation.hpp ****         fmem_head->prev = nullptr;
  33:src/../h/../h/../h/MemoryAllocation.hpp ****         data = 0;
  34:src/../h/../h/../h/MemoryAllocation.hpp ****     }
  35:src/../h/../h/../h/MemoryAllocation.hpp **** 
  36:src/../h/../h/../h/MemoryAllocation.hpp ****     MemoryAllocation(MemoryAllocation const &);
  37:src/../h/../h/../h/MemoryAllocation.hpp **** 
  38:src/../h/../h/../h/MemoryAllocation.hpp ****     void operator=(MemoryAllocation const &);
  39:src/../h/../h/../h/MemoryAllocation.hpp **** 
  40:src/../h/../h/../h/MemoryAllocation.hpp **** public:
  41:src/../h/../h/../h/MemoryAllocation.hpp **** 
  42:src/../h/../h/../h/MemoryAllocation.hpp **** 
  43:src/../h/../h/../h/MemoryAllocation.hpp ****     static MemoryAllocation *getInstance() {
  44:src/../h/../h/../h/MemoryAllocation.hpp ****         if (!instance) {
  45:src/../h/../h/../h/MemoryAllocation.hpp ****             fmem_head =  (FreeMem*) HEAP_START_ADDR;
  46:src/../h/../h/../h/MemoryAllocation.hpp ****             fmem_head->size = (size_t) ((char *) HEAP_END_ADDR -
  47:src/../h/../h/../h/MemoryAllocation.hpp ****                                         (char *) HEAP_START_ADDR); //da li smem ovo da castujem u s
  48:src/../h/../h/../h/MemoryAllocation.hpp ****             fmem_head->next = nullptr;
  49:src/../h/../h/../h/MemoryAllocation.hpp ****             fmem_head->prev = nullptr;
  50:src/../h/../h/../h/MemoryAllocation.hpp ****             static MemoryAllocation* instance;
  51:src/../h/../h/../h/MemoryAllocation.hpp ****             return instance;
  52:src/../h/../h/../h/MemoryAllocation.hpp ****         }
  53:src/../h/../h/../h/MemoryAllocation.hpp ****         return instance;
  54:src/../h/../h/../h/MemoryAllocation.hpp ****     }
  55:src/../h/../h/../h/MemoryAllocation.hpp **** 
  56:src/../h/../h/../h/MemoryAllocation.hpp **** 
  57:src/../h/../h/../h/MemoryAllocation.hpp ****     int getData() {
  58:src/../h/../h/../h/MemoryAllocation.hpp ****         return this->data;
GAS LISTING /tmp/ccZvUt0T.s 			page 15


  59:src/../h/../h/../h/MemoryAllocation.hpp ****     }
  60:src/../h/../h/../h/MemoryAllocation.hpp **** 
  61:src/../h/../h/../h/MemoryAllocation.hpp ****     void setData(int data) {
  62:src/../h/../h/../h/MemoryAllocation.hpp ****         this->data = data;
  63:src/../h/../h/../h/MemoryAllocation.hpp ****     }
  64:src/../h/../h/../h/MemoryAllocation.hpp **** 
  65:src/../h/../h/../h/MemoryAllocation.hpp ****     /*MemoryAllocation(MemoryAllocation const&) = delete;
  66:src/../h/../h/../h/MemoryAllocation.hpp ****     void operator=(MemoryAllocation const&)  = delete;*/
  67:src/../h/../h/../h/MemoryAllocation.hpp **** //===========================DEFINICIJA SINGLETON KLASE KRAJ========================
  68:src/../h/../h/../h/MemoryAllocation.hpp ****     static int bytesToBlocks(size_t size){
  69:src/../h/../h/../h/MemoryAllocation.hpp ****         return (size+sizeof(FreeMem)+MEM_BLOCK_SIZE-1)/MEM_BLOCK_SIZE;
 446              		.loc 3 69 9 is_stmt 1
 447              		.loc 3 69 52 is_stmt 0
 448 0124 93877705 		addi	a5,a5,87
 449              	.LVL12:
 450              		.loc 3 69 55
 451 0128 93D76700 		srli	a5,a5,6
 452              	.LVL13:
 453              		.loc 3 69 56
 454 012c 9B870700 		sext.w	a5,a5
 455              	.LVL14:
 456              	.LBE223:
 457              	.LBE222:
 458              	.LBB224:
 459              	.LBB225:
  70:src/../h/../h/../h/MemoryAllocation.hpp ****     }
  71:src/../h/../h/../h/MemoryAllocation.hpp **** 
  72:src/../h/../h/../h/MemoryAllocation.hpp **** 
  73:src/../h/../h/../h/MemoryAllocation.hpp **** //===========================METODE ZA ALOKACIJU MEMORIJE===========================
  74:src/../h/../h/../h/MemoryAllocation.hpp ****     static void tryToJoin (FreeMem* curr) {
  75:src/../h/../h/../h/MemoryAllocation.hpp ****         if (!curr) return;
  76:src/../h/../h/../h/MemoryAllocation.hpp ****         if (curr->next && (char*)curr+curr->size == (char*)(curr->next)) {
  77:src/../h/../h/../h/MemoryAllocation.hpp ****         // Remove the cur->next segment:
  78:src/../h/../h/../h/MemoryAllocation.hpp ****             curr->size += curr->next->size;
  79:src/../h/../h/../h/MemoryAllocation.hpp ****             curr->next = curr->next->next;
  80:src/../h/../h/../h/MemoryAllocation.hpp ****             if (curr->next) curr->next->prev = curr;
  81:src/../h/../h/../h/MemoryAllocation.hpp ****             return;
  82:src/../h/../h/../h/MemoryAllocation.hpp ****         }
  83:src/../h/../h/../h/MemoryAllocation.hpp **** 
  84:src/../h/../h/../h/MemoryAllocation.hpp ****     }
  85:src/../h/../h/../h/MemoryAllocation.hpp **** 
  86:src/../h/../h/../h/MemoryAllocation.hpp ****     //===================================== mem_free, ali sa ptr ===============
  87:src/../h/../h/../h/MemoryAllocation.hpp ****         static int mem_free(void* ptr) { //radi i kada posaljem sa &
  88:src/../h/../h/../h/MemoryAllocation.hpp ****         FreeMem* cur=0;
  89:src/../h/../h/../h/MemoryAllocation.hpp ****         if(!fmem_head || ptr < (char*)fmem_head)
  90:src/../h/../h/../h/MemoryAllocation.hpp ****         {
  91:src/../h/../h/../h/MemoryAllocation.hpp ****             cur=nullptr;
  92:src/../h/../h/../h/MemoryAllocation.hpp ****         }else {
  93:src/../h/../h/../h/MemoryAllocation.hpp ****                 for (cur=fmem_head; cur->next!=ptr && ptr>(char*)(cur->next); cur=cur->next); //moz
  94:src/../h/../h/../h/MemoryAllocation.hpp ****             }
  95:src/../h/../h/../h/MemoryAllocation.hpp ****                 FreeMem* newSeg = (FreeMem*)ptr;
  96:src/../h/../h/../h/MemoryAllocation.hpp ****                 newSeg->next=nullptr;
  97:src/../h/../h/../h/MemoryAllocation.hpp ****                 newSeg->prev=nullptr;
  98:src/../h/../h/../h/MemoryAllocation.hpp ****                 newSeg->size=bytesToBlocks(sizeof(ptr))*MEM_BLOCK_SIZE;
  99:src/../h/../h/../h/MemoryAllocation.hpp ****                         //sizeof(ptr);
 100:src/../h/../h/../h/MemoryAllocation.hpp ****                 newSeg->prev=cur;
 101:src/../h/../h/../h/MemoryAllocation.hpp ****                 if(cur) {
GAS LISTING /tmp/ccZvUt0T.s 			page 16


 102:src/../h/../h/../h/MemoryAllocation.hpp ****                     newSeg->next = cur->next;
 103:src/../h/../h/../h/MemoryAllocation.hpp ****                 }
 104:src/../h/../h/../h/MemoryAllocation.hpp ****                 else {
 105:src/../h/../h/../h/MemoryAllocation.hpp ****                     newSeg->next = fmem_head;
 106:src/../h/../h/../h/MemoryAllocation.hpp ****                 }
 107:src/../h/../h/../h/MemoryAllocation.hpp ****                 if(newSeg->next) {
 108:src/../h/../h/../h/MemoryAllocation.hpp ****                     newSeg->next->prev=newSeg;
 109:src/../h/../h/../h/MemoryAllocation.hpp ****                 }
 110:src/../h/../h/../h/MemoryAllocation.hpp ****                 if (cur) {
 111:src/../h/../h/../h/MemoryAllocation.hpp ****                     cur->next = newSeg; //zasto ovde odjednom uzme vrednost x8000 umesto x8000f...?
 112:src/../h/../h/../h/MemoryAllocation.hpp ****                 }
 113:src/../h/../h/../h/MemoryAllocation.hpp ****                 else {
 114:src/../h/../h/../h/MemoryAllocation.hpp ****                     fmem_head = newSeg;
 115:src/../h/../h/../h/MemoryAllocation.hpp ****                 }
 116:src/../h/../h/../h/MemoryAllocation.hpp ****                 // Try to merge with the previous and next segments:
 117:src/../h/../h/../h/MemoryAllocation.hpp ****             tryToJoin(newSeg);
 118:src/../h/../h/../h/MemoryAllocation.hpp ****             tryToJoin(cur);
 119:src/../h/../h/../h/MemoryAllocation.hpp ****             //mozda da fmem_head nije jednako starom fmem_headu?
 120:src/../h/../h/../h/MemoryAllocation.hpp ****             if(newSeg==nullptr){
 121:src/../h/../h/../h/MemoryAllocation.hpp ****                 return -1;
 122:src/../h/../h/../h/MemoryAllocation.hpp ****             }else{return 0;}
 123:src/../h/../h/../h/MemoryAllocation.hpp **** 
 124:src/../h/../h/../h/MemoryAllocation.hpp **** 
 125:src/../h/../h/../h/MemoryAllocation.hpp ****     }
 126:src/../h/../h/../h/MemoryAllocation.hpp ****     //===================================== kraj probe ==========================
 127:src/../h/../h/../h/MemoryAllocation.hpp **** 
 128:src/../h/../h/../h/MemoryAllocation.hpp **** 
 129:src/../h/../h/../h/MemoryAllocation.hpp **** 
 130:src/../h/../h/../h/MemoryAllocation.hpp ****     /*int mem_free(char* addr, size_t size) {
 131:src/../h/../h/../h/MemoryAllocation.hpp ****         // Find the place where to insert the new free segment (just after cur):
 132:src/../h/../h/../h/MemoryAllocation.hpp ****         FreeMem* cur=0;
 133:src/../h/../h/../h/MemoryAllocation.hpp ****         if (!fmem_head || addr<(char*)fmem_head)
 134:src/../h/../h/../h/MemoryAllocation.hpp ****             cur = 0; // insert as the first
 135:src/../h/../h/../h/MemoryAllocation.hpp ****         else
 136:src/../h/../h/../h/MemoryAllocation.hpp ****             for (cur=fmem_head; cur->next!=0 && addr>(char*)(cur->next);
 137:src/../h/../h/../h/MemoryAllocation.hpp ****                  cur=cur->next);
 138:src/../h/../h/../h/MemoryAllocation.hpp ****             // Insert the new segment after cur:
 139:src/../h/../h/../h/MemoryAllocation.hpp ****         FreeMem* newSeg = (FreeMem*)addr;
 140:src/../h/../h/../h/MemoryAllocation.hpp ****         newSeg->size = size;
 141:src/../h/../h/../h/MemoryAllocation.hpp ****         newSeg->prev = cur;
 142:src/../h/../h/../h/MemoryAllocation.hpp ****         if (cur) newSeg->next = cur->next;
 143:src/../h/../h/../h/MemoryAllocation.hpp ****         else newSeg->next = fmem_head;
 144:src/../h/../h/../h/MemoryAllocation.hpp ****         if (newSeg->next) newSeg->next->prev = newSeg;
 145:src/../h/../h/../h/MemoryAllocation.hpp ****         if (cur) cur->next = newSeg;
 146:src/../h/../h/../h/MemoryAllocation.hpp ****         else fmem_head = newSeg;
 147:src/../h/../h/../h/MemoryAllocation.hpp ****             // Try to merge with the previous and next segments:
 148:src/../h/../h/../h/MemoryAllocation.hpp ****         tryToJoin(newSeg);
 149:src/../h/../h/../h/MemoryAllocation.hpp ****         tryToJoin(cur);
 150:src/../h/../h/../h/MemoryAllocation.hpp ****     }*/
 151:src/../h/../h/../h/MemoryAllocation.hpp **** 
 152:src/../h/../h/../h/MemoryAllocation.hpp ****     static void* mem_alloc(size_t size) {//uopste ne radi, iako u lotsofsmallmallocs pise da radi
 153:src/../h/../h/../h/MemoryAllocation.hpp ****         //size_t x=sizeof(fmem_head);
 154:src/../h/../h/../h/MemoryAllocation.hpp ****         //pozovi ovde samo bytes to blocks od size, da ne moras to da radis iz maina
 155:src/../h/../h/../h/MemoryAllocation.hpp ****         size=(size)*(size_t)MEM_BLOCK_SIZE; //kada je ovo ukljuceno, pravi problem u memfree, so il
 460              		.loc 3 155 9 is_stmt 1
 461              		.loc 3 155 13 is_stmt 0
 462 0130 93976700 		slli	a5,a5,6
GAS LISTING /tmp/ccZvUt0T.s 			page 17


 463              	.LVL15:
 156:src/../h/../h/../h/MemoryAllocation.hpp ****         for (FreeMem* cur = fmem_head; cur != nullptr; cur=cur->next){ // U DRUGOJ ITERACIJI FMEM_H
 464              		.loc 3 156 9 is_stmt 1
 465              	.LBB226:
 466              		.loc 3 156 23 is_stmt 0
 467 0134 17070000 		la	a4,_ZN16MemoryAllocation9fmem_headE
 467      03370700 
 468 013c 03370700 		ld	a4,0(a4)
 469              	.LVL16:
 470              	.L7:
 471              		.loc 3 156 44 is_stmt 1
 472 0140 6308070C 		beqz	a4,.L6
 473              	.LBB227:
 157:src/../h/../h/../h/MemoryAllocation.hpp ****             cur->next=fmem_head->next;
 474              		.loc 3 157 13
 475              		.loc 3 157 34 is_stmt 0
 476 0144 97060000 		la	a3,_ZN16MemoryAllocation9fmem_headE
 476      83B60600 
 477 014c 03B60600 		ld	a2,0(a3)
 478 0150 03360600 		ld	a2,0(a2)
 479              		.loc 3 157 22
 480 0154 2330C700 		sd	a2,0(a4)
 158:src/../h/../h/../h/MemoryAllocation.hpp ****             cur->prev=fmem_head->prev;
 481              		.loc 3 158 13 is_stmt 1
 482              		.loc 3 158 34 is_stmt 0
 483 0158 83B60600 		ld	a3,0(a3)
 484 015c 83B58600 		ld	a1,8(a3)
 485              		.loc 3 158 22
 486 0160 2334B700 		sd	a1,8(a4)
 159:src/../h/../h/../h/MemoryAllocation.hpp ****             if (cur->size<size) continue;
 487              		.loc 3 159 13 is_stmt 1
 488              		.loc 3 159 22 is_stmt 0
 489 0164 83360701 		ld	a3,16(a4)
 490              		.loc 3 159 13
 491 0168 63E6F602 		bgtu	a5,a3,.L39
 160:src/../h/../h/../h/MemoryAllocation.hpp ****             if (cur->size-size<=sizeof(FreeMem)){
 492              		.loc 3 160 13 is_stmt 1
 493              	.LBB228:
 494              		.loc 3 160 26 is_stmt 0
 495 016c B386F640 		sub	a3,a3,a5
 496              		.loc 3 160 13
 497 0170 13058001 		li	a0,24
 498 0174 636CD502 		bgtu	a3,a0,.L8
 161:src/../h/../h/../h/MemoryAllocation.hpp ****                 if (cur->prev) cur->prev->next = cur->next;
 499              		.loc 3 161 17 is_stmt 1
 500 0178 63820502 		beqz	a1,.L9
 501              		.loc 3 161 32
 502              		.loc 3 161 48 is_stmt 0
 503 017c 23B0C500 		sd	a2,0(a1)
 504              	.LVL17:
 505              	.L10:
 162:src/../h/../h/../h/MemoryAllocation.hpp ****                 else fmem_head = cur->next;
 163:src/../h/../h/../h/MemoryAllocation.hpp ****                 if (cur->next) cur->next->prev = cur->prev;
 506              		.loc 3 163 17 is_stmt 1
 507              		.loc 3 163 26 is_stmt 0
 508 0180 83370700 		ld	a5,0(a4)
 509              		.loc 3 163 17
GAS LISTING /tmp/ccZvUt0T.s 			page 18


 510 0184 63860708 		beqz	a5,.L6
 511              		.loc 3 163 32 is_stmt 1
 512              		.loc 3 163 55 is_stmt 0
 513 0188 83368700 		ld	a3,8(a4)
 514              		.loc 3 163 48
 515 018c 23B4D700 		sd	a3,8(a5)
 164:src/../h/../h/../h/MemoryAllocation.hpp ****                 return cur;
 516              		.loc 3 164 17 is_stmt 1
 517              		.loc 3 164 24 is_stmt 0
 518 0190 6F000008 		j	.L6
 519              	.LVL18:
 520              	.L39:
 521              	.LBE228:
 522              	.LBE227:
 156:src/../h/../h/../h/MemoryAllocation.hpp ****             cur->next=fmem_head->next;
 523              		.loc 3 156 59
 524 0194 13070600 		mv	a4,a2
 525              	.LVL19:
 526 0198 6FF09FFA 		j	.L7
 527              	.LVL20:
 528              	.L9:
 529              	.LBB233:
 530              	.LBB231:
 162:src/../h/../h/../h/MemoryAllocation.hpp ****                 else fmem_head = cur->next;
 531              		.loc 3 162 22 is_stmt 1
 162:src/../h/../h/../h/MemoryAllocation.hpp ****                 else fmem_head = cur->next;
 532              		.loc 3 162 32 is_stmt 0
 533 019c 97070000 		la	a5,_ZN16MemoryAllocation9fmem_headE
 533      83B70700 
 534              	.LVL21:
 535 01a4 23B0C700 		sd	a2,0(a5)
 536 01a8 6FF09FFD 		j	.L10
 537              	.LVL22:
 538              	.L8:
 539              	.LBB229:
 165:src/../h/../h/../h/MemoryAllocation.hpp ****             }else {
 166:src/../h/../h/../h/MemoryAllocation.hpp ****                 FreeMem* newfrgm = (FreeMem*)((char*)cur+size);
 540              		.loc 3 166 17 is_stmt 1
 541              		.loc 3 166 26 is_stmt 0
 542 01ac B306F700 		add	a3,a4,a5
 543              	.LVL23:
 167:src/../h/../h/../h/MemoryAllocation.hpp ****                 newfrgm->prev=nullptr;
 544              		.loc 3 167 17 is_stmt 1
 545              		.loc 3 167 30 is_stmt 0
 546 01b0 23B40600 		sd	zero,8(a3)
 168:src/../h/../h/../h/MemoryAllocation.hpp ****                 newfrgm->next=nullptr;
 547              		.loc 3 168 17 is_stmt 1
 548              		.loc 3 168 30 is_stmt 0
 549 01b4 23B00600 		sd	zero,0(a3)
 169:src/../h/../h/../h/MemoryAllocation.hpp ****                 //newfrgm->size=cur->size-size;// DODATO TOKOM PROBE NITI
 170:src/../h/../h/../h/MemoryAllocation.hpp ****                 if (cur && cur->prev) cur->prev->next = newfrgm;
 550              		.loc 3 170 17 is_stmt 1
 551              		.loc 3 170 33 is_stmt 0
 552 01b8 03368700 		ld	a2,8(a4)
 553              		.loc 3 170 25
 554 01bc 630E0606 		beqz	a2,.L12
 555              		.loc 3 170 39 is_stmt 1
GAS LISTING /tmp/ccZvUt0T.s 			page 19


 556              		.loc 3 170 55 is_stmt 0
 557 01c0 2330D600 		sd	a3,0(a2)
 558              	.L13:
 171:src/../h/../h/../h/MemoryAllocation.hpp ****                 else fmem_head = newfrgm+sizeof(fmem_head); // ovo sam dodao sizeof da bi mi radio 
 172:src/../h/../h/../h/MemoryAllocation.hpp ****                 if (cur && cur->next) cur->next->prev = newfrgm;
 559              		.loc 3 172 17 is_stmt 1
 560              		.loc 3 172 33 is_stmt 0
 561 01c4 03360700 		ld	a2,0(a4)
 562              		.loc 3 172 25
 563 01c8 63040600 		beqz	a2,.L14
 564              		.loc 3 172 39 is_stmt 1
 565              		.loc 3 172 55 is_stmt 0
 566 01cc 2334D600 		sd	a3,8(a2)
 567              	.L14:
 173:src/../h/../h/../h/MemoryAllocation.hpp ****                 newfrgm->prev = cur->prev;
 568              		.loc 3 173 17 is_stmt 1
 569              		.loc 3 173 38 is_stmt 0
 570 01d0 03368700 		ld	a2,8(a4)
 571              		.loc 3 173 31
 572 01d4 23B4C600 		sd	a2,8(a3)
 174:src/../h/../h/../h/MemoryAllocation.hpp ****                 newfrgm->next = cur->next;
 573              		.loc 3 174 17 is_stmt 1
 574              		.loc 3 174 38 is_stmt 0
 575 01d8 83350700 		ld	a1,0(a4)
 576              		.loc 3 174 31
 577 01dc 23B0B600 		sd	a1,0(a3)
 175:src/../h/../h/../h/MemoryAllocation.hpp ****                 newfrgm->size = cur->size-size;
 578              		.loc 3 175 17 is_stmt 1
 579              		.loc 3 175 38 is_stmt 0
 580 01e0 03370701 		ld	a4,16(a4)
 581              	.LVL24:
 582              		.loc 3 175 42
 583 01e4 B307F740 		sub	a5,a4,a5
 584              	.LVL25:
 585              		.loc 3 175 31
 586 01e8 23B8F600 		sd	a5,16(a3)
 176:src/../h/../h/../h/MemoryAllocation.hpp ****                 fmem_head =newfrgm+sizeof(fmem_head);
 587              		.loc 3 176 17 is_stmt 1
 588              		.loc 3 176 35 is_stmt 0
 589 01ec 1387060C 		addi	a4,a3,192
 590              		.loc 3 176 27
 591 01f0 97050000 		la	a1,_ZN16MemoryAllocation9fmem_headE
 591      83B50500 
 592 01f8 23B0E500 		sd	a4,0(a1)
 177:src/../h/../h/../h/MemoryAllocation.hpp ****                 fmem_head->next=newfrgm->next;
 593              		.loc 3 177 17 is_stmt 1
 594              		.loc 3 177 42 is_stmt 0
 595 01fc 83B50600 		ld	a1,0(a3)
 596              		.loc 3 177 32
 597 0200 23B0B60C 		sd	a1,192(a3)
 178:src/../h/../h/../h/MemoryAllocation.hpp ****                 fmem_head->prev=newfrgm->prev;
 598              		.loc 3 178 17 is_stmt 1
 599              		.loc 3 178 32 is_stmt 0
 600 0204 23B4C60C 		sd	a2,200(a3)
 179:src/../h/../h/../h/MemoryAllocation.hpp ****                 fmem_head->size=newfrgm->size;
 601              		.loc 3 179 17 is_stmt 1
 602              		.loc 3 179 32 is_stmt 0
GAS LISTING /tmp/ccZvUt0T.s 			page 20


 603 0208 23B8F60C 		sd	a5,208(a3)
 180:src/../h/../h/../h/MemoryAllocation.hpp ****                 //fmem_head = (FreeMem*) (char*)newfrgm;
 181:src/../h/../h/../h/MemoryAllocation.hpp ****                 return newfrgm;
 604              		.loc 3 181 17 is_stmt 1
 605              		.loc 3 181 24 is_stmt 0
 606 020c 13870600 		mv	a4,a3
 607              	.LVL26:
 608              	.L6:
 609              	.LBE229:
 610              	.LBE231:
 611              	.LBE233:
 612              	.LBE226:
 613              	.LBE225:
 614              	.LBE224:
  45:src/RiscV.cpp ****             __asm__ volatile("mv a1, %0": : [pointer] "r"(pointer) );
 615              		.loc 1 45 13 is_stmt 1
  45:src/RiscV.cpp ****             __asm__ volatile("mv a1, %0": : [pointer] "r"(pointer) );
 616              		.loc 1 45 69 is_stmt 0
 617              	#APP
 618              	# 45 "src/RiscV.cpp" 1
  46:src/RiscV.cpp ****             __asm__ volatile("sd a1, 88(s0)");
 619              		mv a1, a4
 620              	# 0 "" 2
 621              		.loc 1 46 13 is_stmt 1
  46:src/RiscV.cpp ****             __asm__ volatile("sd a1, 88(s0)");
 622              		.loc 1 46 46 is_stmt 0
 623              	# 46 "src/RiscV.cpp" 1
 624              		sd a1, 88(s0)
 625              	# 0 "" 2
 626              	.LVL27:
 627              	#NO_APP
 628              	.L15:
 629              	.LBE221:
 630              	.LBE251:
  95:src/RiscV.cpp ****         w_sstatus(sstatus);
 631              		.loc 1 95 9 is_stmt 1
  95:src/RiscV.cpp ****         w_sstatus(sstatus);
 632              		.loc 1 95 18 is_stmt 0
 633 0218 833704FB 		ld	a5,-80(s0)
 634              	.LVL28:
 635              	.LBB252:
 636              	.LBB253:
 159:src/../h/RiscV.hpp **** }
 160:src/../h/RiscV.hpp **** 
 161:src/../h/RiscV.hpp **** inline void RiscV::w_sstatus(uint64 volatile sstatus) {
 162:src/../h/RiscV.hpp ****     __asm__ volatile("csrw sstatus, %[sstatus]": : [sstatus] "r"(sstatus));
 637              		.loc 2 162 5 is_stmt 1
 638              		.loc 2 162 75 is_stmt 0
 639              	#APP
 640              	# 162 "src/../h/RiscV.hpp" 1
 163              	}
 641              		csrw sstatus, a5
 642              	# 0 "" 2
 643              	.LVL29:
 644              	#NO_APP
 645              	.LBE253:
 646              	.LBE252:
GAS LISTING /tmp/ccZvUt0T.s 			page 21


  96:src/RiscV.cpp ****         w_sepc(sepc);
 647              		.loc 1 96 9 is_stmt 1
  96:src/RiscV.cpp ****         w_sepc(sepc);
 648              		.loc 1 96 15 is_stmt 0
 649 0220 833784FB 		ld	a5,-72(s0)
 650              	.LVL30:
 651              	.LBB254:
 652              	.LBB255:
 106:src/../h/RiscV.hpp **** }
 653              		.loc 2 106 5 is_stmt 1
 106:src/../h/RiscV.hpp **** }
 654              		.loc 2 106 64 is_stmt 0
 655              	#APP
 656              	# 106 "src/../h/RiscV.hpp" 1
 657              		csrw sepc, a5
 658              	# 0 "" 2
 659              	.LVL31:
 660              	#NO_APP
 661              	.L3:
 662              	.LBE255:
 663              	.LBE254:
 664              	.LBE268:
 665              	.LBE284:
 666              		.loc 1 119 1
 667 0228 83308105 		ld	ra,88(sp)
 668              		.cfi_remember_state
 669              		.cfi_restore 1
 670 022c 03340105 		ld	s0,80(sp)
 671              		.cfi_restore 8
 672              		.cfi_def_cfa 2, 96
 673 0230 13010106 		addi	sp,sp,96
 674              		.cfi_def_cfa_offset 0
 675 0234 67800000 		jr	ra
 676              	.LVL32:
 677              	.L12:
 678              		.cfi_restore_state
 679              	.LBB285:
 680              	.LBB269:
 681              	.LBB256:
 682              	.LBB238:
 683              	.LBB237:
 684              	.LBB236:
 685              	.LBB235:
 686              	.LBB234:
 687              	.LBB232:
 688              	.LBB230:
 171:src/../h/../h/../h/MemoryAllocation.hpp ****                 if (cur && cur->next) cur->next->prev = newfrgm;
 689              		.loc 3 171 22 is_stmt 1
 171:src/../h/../h/../h/MemoryAllocation.hpp ****                 if (cur && cur->next) cur->next->prev = newfrgm;
 690              		.loc 3 171 41 is_stmt 0
 691 0238 1386060C 		addi	a2,a3,192
 171:src/../h/../h/../h/MemoryAllocation.hpp ****                 if (cur && cur->next) cur->next->prev = newfrgm;
 692              		.loc 3 171 32
 693 023c 97050000 		la	a1,_ZN16MemoryAllocation9fmem_headE
 693      83B50500 
 694 0244 23B0C500 		sd	a2,0(a1)
 695 0248 6FF0DFF7 		j	.L13
GAS LISTING /tmp/ccZvUt0T.s 			page 22


 696              	.LVL33:
 697              	.L47:
 698              	.LBE230:
 699              	.LBE232:
 700              	.LBE234:
 701              	.LBE235:
 702              	.LBE236:
 703              	.LBE237:
 704              	.LBE238:
 705              	.LBB239:
 706              	.LBB193:
  48:src/RiscV.cpp ****             __asm__ volatile("mv %[ptr], a1" : [ptr] "=r"(ptr)); //promeni ovaj read, undefined ref
 707              		.loc 1 48 13 is_stmt 1
  48:src/RiscV.cpp ****             __asm__ volatile("mv %[ptr], a1" : [ptr] "=r"(ptr)); //promeni ovaj read, undefined ref
 708              		.loc 1 48 64 is_stmt 0
 709              	#APP
 710              	# 48 "src/RiscV.cpp" 1
 711              		mv a5, a1
 712              	# 0 "" 2
 713              	.LVL34:
 714              	#NO_APP
 715 0250 2330F4FC 		sd	a5,-64(s0)
  49:src/RiscV.cpp ****             int ret=MemoryAllocation::mem_free((void*)ptr);
 716              		.loc 1 49 13 is_stmt 1
  49:src/RiscV.cpp ****             int ret=MemoryAllocation::mem_free((void*)ptr);
 717              		.loc 1 49 47 is_stmt 0
 718 0254 033704FC 		ld	a4,-64(s0)
 719              	.LVL35:
 720              	.LBB194:
 721              	.LBB195:
  88:src/../h/../h/../h/MemoryAllocation.hpp ****         if(!fmem_head || ptr < (char*)fmem_head)
 722              		.loc 3 88 9 is_stmt 1
  89:src/../h/../h/../h/MemoryAllocation.hpp ****         {
 723              		.loc 3 89 9
  89:src/../h/../h/../h/MemoryAllocation.hpp ****         {
 724              		.loc 3 89 12 is_stmt 0
 725 0258 97070000 		la	a5,_ZN16MemoryAllocation9fmem_headE
 725      83B70700 
 726 0260 83B70700 		ld	a5,0(a5)
  89:src/../h/../h/../h/MemoryAllocation.hpp ****         {
 727              		.loc 3 89 9
 728 0264 638E0700 		beqz	a5,.L40
  89:src/../h/../h/../h/MemoryAllocation.hpp ****         {
 729              		.loc 3 89 23
 730 0268 6360F702 		bltu	a4,a5,.L41
 731              	.LVL36:
 732              	.L18:
  93:src/../h/../h/../h/MemoryAllocation.hpp ****             }
 733              		.loc 3 93 52 is_stmt 1
 734 026c 93860700 		mv	a3,a5
  93:src/../h/../h/../h/MemoryAllocation.hpp ****             }
 735              		.loc 3 93 42 is_stmt 0
 736 0270 83B70700 		ld	a5,0(a5)
 737              	.LVL37:
  93:src/../h/../h/../h/MemoryAllocation.hpp ****             }
 738              		.loc 3 93 52
 739 0274 630CF700 		beq	a4,a5,.L17
GAS LISTING /tmp/ccZvUt0T.s 			page 23


 740 0278 E3EAE7FE 		bgtu	a4,a5,.L18
 741 027c 6F000001 		j	.L17
 742              	.LVL38:
 743              	.L40:
  91:src/../h/../h/../h/MemoryAllocation.hpp ****         }else {
 744              		.loc 3 91 16
 745 0280 93860700 		mv	a3,a5
 746 0284 6F008000 		j	.L17
 747              	.L41:
 748 0288 93060000 		li	a3,0
 749              	.LVL39:
 750              	.L17:
  95:src/../h/../h/../h/MemoryAllocation.hpp ****                 newSeg->next=nullptr;
 751              		.loc 3 95 17 is_stmt 1
  96:src/../h/../h/../h/MemoryAllocation.hpp ****                 newSeg->prev=nullptr;
 752              		.loc 3 96 17
  96:src/../h/../h/../h/MemoryAllocation.hpp ****                 newSeg->prev=nullptr;
 753              		.loc 3 96 29 is_stmt 0
 754 028c 23300700 		sd	zero,0(a4)
  97:src/../h/../h/../h/MemoryAllocation.hpp ****                 newSeg->size=bytesToBlocks(sizeof(ptr))*MEM_BLOCK_SIZE;
 755              		.loc 3 97 17 is_stmt 1
  98:src/../h/../h/../h/MemoryAllocation.hpp ****                         //sizeof(ptr);
 756              		.loc 3 98 17
 757              	.LVL40:
 758              	.LBE195:
 759              	.LBE194:
 760              	.LBE193:
 761              	.LBE239:
 762              	.LBE256:
 763              	.LBE269:
 764              	.LBE285:
  69:src/../h/../h/../h/MemoryAllocation.hpp ****     }
 765              		.loc 3 69 9
 766              	.LBB286:
 767              	.LBB270:
 768              	.LBB257:
 769              	.LBB240:
 770              	.LBB208:
 771              	.LBB206:
 772              	.LBB204:
  98:src/../h/../h/../h/MemoryAllocation.hpp ****                         //sizeof(ptr);
 773              		.loc 3 98 29 is_stmt 0
 774 0290 93070004 		li	a5,64
 775 0294 2338F700 		sd	a5,16(a4)
 100:src/../h/../h/../h/MemoryAllocation.hpp ****                 if(cur) {
 776              		.loc 3 100 17 is_stmt 1
 100:src/../h/../h/../h/MemoryAllocation.hpp ****                 if(cur) {
 777              		.loc 3 100 29 is_stmt 0
 778 0298 2334D700 		sd	a3,8(a4)
 101:src/../h/../h/../h/MemoryAllocation.hpp ****                     newSeg->next = cur->next;
 779              		.loc 3 101 17 is_stmt 1
 780 029c 63820606 		beqz	a3,.L19
 102:src/../h/../h/../h/MemoryAllocation.hpp ****                 }
 781              		.loc 3 102 21
 102:src/../h/../h/../h/MemoryAllocation.hpp ****                 }
 782              		.loc 3 102 41 is_stmt 0
 783 02a0 83B70600 		ld	a5,0(a3)
GAS LISTING /tmp/ccZvUt0T.s 			page 24


 102:src/../h/../h/../h/MemoryAllocation.hpp ****                 }
 784              		.loc 3 102 34
 785 02a4 2330F700 		sd	a5,0(a4)
 786              	.L20:
 107:src/../h/../h/../h/MemoryAllocation.hpp ****                     newSeg->next->prev=newSeg;
 787              		.loc 3 107 17 is_stmt 1
 107:src/../h/../h/../h/MemoryAllocation.hpp ****                     newSeg->next->prev=newSeg;
 788              		.loc 3 107 28 is_stmt 0
 789 02a8 83370700 		ld	a5,0(a4)
 107:src/../h/../h/../h/MemoryAllocation.hpp ****                     newSeg->next->prev=newSeg;
 790              		.loc 3 107 17
 791 02ac 63840700 		beqz	a5,.L21
 108:src/../h/../h/../h/MemoryAllocation.hpp ****                 }
 792              		.loc 3 108 21 is_stmt 1
 108:src/../h/../h/../h/MemoryAllocation.hpp ****                 }
 793              		.loc 3 108 39 is_stmt 0
 794 02b0 23B4E700 		sd	a4,8(a5)
 795              	.L21:
 110:src/../h/../h/../h/MemoryAllocation.hpp ****                     cur->next = newSeg; //zasto ovde odjednom uzme vrednost x8000 umesto x8000f...?
 796              		.loc 3 110 17 is_stmt 1
 797 02b4 63800606 		beqz	a3,.L22
 111:src/../h/../h/../h/MemoryAllocation.hpp ****                 }
 798              		.loc 3 111 21
 111:src/../h/../h/../h/MemoryAllocation.hpp ****                 }
 799              		.loc 3 111 31 is_stmt 0
 800 02b8 23B0E600 		sd	a4,0(a3)
 801              	.L23:
 117:src/../h/../h/../h/MemoryAllocation.hpp ****             tryToJoin(cur);
 802              		.loc 3 117 13 is_stmt 1
 803              	.LVL41:
 804              	.LBB196:
 805              	.LBB197:
  75:src/../h/../h/../h/MemoryAllocation.hpp ****         if (curr->next && (char*)curr+curr->size == (char*)(curr->next)) {
 806              		.loc 3 75 9
 807 02bc 630C0700 		beqz	a4,.L24
  76:src/../h/../h/../h/MemoryAllocation.hpp ****         // Remove the cur->next segment:
 808              		.loc 3 76 9
  76:src/../h/../h/../h/MemoryAllocation.hpp ****         // Remove the cur->next segment:
 809              		.loc 3 76 19 is_stmt 0
 810 02c0 83370700 		ld	a5,0(a4)
  76:src/../h/../h/../h/MemoryAllocation.hpp ****         // Remove the cur->next segment:
 811              		.loc 3 76 9
 812 02c4 63880700 		beqz	a5,.L24
  76:src/../h/../h/../h/MemoryAllocation.hpp ****         // Remove the cur->next segment:
 813              		.loc 3 76 45
 814 02c8 03360701 		ld	a2,16(a4)
 815              	.LVL42:
  76:src/../h/../h/../h/MemoryAllocation.hpp ****         // Remove the cur->next segment:
 816              		.loc 3 76 38
 817 02cc B305C700 		add	a1,a4,a2
  76:src/../h/../h/../h/MemoryAllocation.hpp ****         // Remove the cur->next segment:
 818              		.loc 3 76 24
 819 02d0 638AB704 		beq	a5,a1,.L58
 820              	.L24:
 821              	.LVL43:
 822              	.LBE197:
 823              	.LBE196:
GAS LISTING /tmp/ccZvUt0T.s 			page 25


 118:src/../h/../h/../h/MemoryAllocation.hpp ****             //mozda da fmem_head nije jednako starom fmem_headu?
 824              		.loc 3 118 13 is_stmt 1
 825              	.LBB199:
 826              	.LBB200:
  75:src/../h/../h/../h/MemoryAllocation.hpp ****         if (curr->next && (char*)curr+curr->size == (char*)(curr->next)) {
 827              		.loc 3 75 9
 828 02d4 638C0600 		beqz	a3,.L25
  76:src/../h/../h/../h/MemoryAllocation.hpp ****         // Remove the cur->next segment:
 829              		.loc 3 76 9
  76:src/../h/../h/../h/MemoryAllocation.hpp ****         // Remove the cur->next segment:
 830              		.loc 3 76 19 is_stmt 0
 831 02d8 83B70600 		ld	a5,0(a3)
  76:src/../h/../h/../h/MemoryAllocation.hpp ****         // Remove the cur->next segment:
 832              		.loc 3 76 9
 833 02dc 63880700 		beqz	a5,.L25
  76:src/../h/../h/../h/MemoryAllocation.hpp ****         // Remove the cur->next segment:
 834              		.loc 3 76 45
 835 02e0 03B60601 		ld	a2,16(a3)
  76:src/../h/../h/../h/MemoryAllocation.hpp ****         // Remove the cur->next segment:
 836              		.loc 3 76 38
 837 02e4 B385C600 		add	a1,a3,a2
  76:src/../h/../h/../h/MemoryAllocation.hpp ****         // Remove the cur->next segment:
 838              		.loc 3 76 24
 839 02e8 638EB704 		beq	a5,a1,.L59
 840              	.L25:
 841              	.LVL44:
 842              	.LBE200:
 843              	.LBE199:
 120:src/../h/../h/../h/MemoryAllocation.hpp ****                 return -1;
 844              		.loc 3 120 13 is_stmt 1
 845 02ec 630C0706 		beqz	a4,.L60
 122:src/../h/../h/../h/MemoryAllocation.hpp **** 
 846              		.loc 3 122 26 is_stmt 0
 847 02f0 93070000 		li	a5,0
 848              	.L26:
 849              	.LVL45:
 850              	.LBE204:
 851              	.LBE206:
  50:src/RiscV.cpp ****             __asm__ volatile("mv a1, %0": : [ret] "r"(ret));
 852              		.loc 1 50 13 is_stmt 1
  50:src/RiscV.cpp ****             __asm__ volatile("mv a1, %0": : [ret] "r"(ret));
 853              		.loc 1 50 60 is_stmt 0
 854              	#APP
 855              	# 50 "src/RiscV.cpp" 1
  51:src/RiscV.cpp ****             __asm__ volatile("sd a1, 88(s0)"); //zasto je ovde bas 88
 856              		mv a1, a5
 857              	# 0 "" 2
 858              		.loc 1 51 13 is_stmt 1
  51:src/RiscV.cpp ****             __asm__ volatile("sd a1, 88(s0)"); //zasto je ovde bas 88
 859              		.loc 1 51 46 is_stmt 0
 860              	# 51 "src/RiscV.cpp" 1
 861              		sd a1, 88(s0)
 862              	# 0 "" 2
 863              	#NO_APP
 864              	.LBE208:
 865 02fc 6FF0DFF1 		j	.L15
 866              	.LVL46:
GAS LISTING /tmp/ccZvUt0T.s 			page 26


 867              	.L19:
 868              	.LBB209:
 869              	.LBB207:
 870              	.LBB205:
 105:src/../h/../h/../h/MemoryAllocation.hpp ****                 }
 871              		.loc 3 105 21 is_stmt 1
 105:src/../h/../h/../h/MemoryAllocation.hpp ****                 }
 872              		.loc 3 105 34 is_stmt 0
 873 0300 97070000 		la	a5,_ZN16MemoryAllocation9fmem_headE
 873      83B70700 
 874 0308 83B70700 		ld	a5,0(a5)
 875 030c 2330F700 		sd	a5,0(a4)
 876 0310 6FF09FF9 		j	.L20
 877              	.L22:
 114:src/../h/../h/../h/MemoryAllocation.hpp ****                 }
 878              		.loc 3 114 21 is_stmt 1
 114:src/../h/../h/../h/MemoryAllocation.hpp ****                 }
 879              		.loc 3 114 31 is_stmt 0
 880 0314 97070000 		la	a5,_ZN16MemoryAllocation9fmem_headE
 880      83B70700 
 881 031c 23B0E700 		sd	a4,0(a5)
 882 0320 6FF0DFF9 		j	.L23
 883              	.LVL47:
 884              	.L58:
 885              	.LBB202:
 886              	.LBB198:
  78:src/../h/../h/../h/MemoryAllocation.hpp ****             curr->next = curr->next->next;
 887              		.loc 3 78 13 is_stmt 1
  78:src/../h/../h/../h/MemoryAllocation.hpp ****             curr->next = curr->next->next;
 888              		.loc 3 78 39 is_stmt 0
 889 0324 83B50701 		ld	a1,16(a5)
  78:src/../h/../h/../h/MemoryAllocation.hpp ****             curr->next = curr->next->next;
 890              		.loc 3 78 24
 891 0328 3306B600 		add	a2,a2,a1
 892 032c 2338C700 		sd	a2,16(a4)
  79:src/../h/../h/../h/MemoryAllocation.hpp ****             if (curr->next) curr->next->prev = curr;
 893              		.loc 3 79 13 is_stmt 1
  79:src/../h/../h/../h/MemoryAllocation.hpp ****             if (curr->next) curr->next->prev = curr;
 894              		.loc 3 79 38 is_stmt 0
 895 0330 83B70700 		ld	a5,0(a5)
  79:src/../h/../h/../h/MemoryAllocation.hpp ****             if (curr->next) curr->next->prev = curr;
 896              		.loc 3 79 24
 897 0334 2330F700 		sd	a5,0(a4)
  80:src/../h/../h/../h/MemoryAllocation.hpp ****             return;
 898              		.loc 3 80 13 is_stmt 1
 899 0338 E38E07F8 		beqz	a5,.L24
  80:src/../h/../h/../h/MemoryAllocation.hpp ****             return;
 900              		.loc 3 80 29
  80:src/../h/../h/../h/MemoryAllocation.hpp ****             return;
 901              		.loc 3 80 46 is_stmt 0
 902 033c 23B4E700 		sd	a4,8(a5)
 903 0340 6FF05FF9 		j	.L24
 904              	.LVL48:
 905              	.L59:
 906              	.LBE198:
 907              	.LBE202:
 908              	.LBB203:
GAS LISTING /tmp/ccZvUt0T.s 			page 27


 909              	.LBB201:
  78:src/../h/../h/../h/MemoryAllocation.hpp ****             curr->next = curr->next->next;
 910              		.loc 3 78 13 is_stmt 1
  78:src/../h/../h/../h/MemoryAllocation.hpp ****             curr->next = curr->next->next;
 911              		.loc 3 78 39 is_stmt 0
 912 0344 83B50701 		ld	a1,16(a5)
  78:src/../h/../h/../h/MemoryAllocation.hpp ****             curr->next = curr->next->next;
 913              		.loc 3 78 24
 914 0348 3306B600 		add	a2,a2,a1
 915 034c 23B8C600 		sd	a2,16(a3)
  79:src/../h/../h/../h/MemoryAllocation.hpp ****             if (curr->next) curr->next->prev = curr;
 916              		.loc 3 79 13 is_stmt 1
  79:src/../h/../h/../h/MemoryAllocation.hpp ****             if (curr->next) curr->next->prev = curr;
 917              		.loc 3 79 38 is_stmt 0
 918 0350 83B70700 		ld	a5,0(a5)
  79:src/../h/../h/../h/MemoryAllocation.hpp ****             if (curr->next) curr->next->prev = curr;
 919              		.loc 3 79 24
 920 0354 23B0F600 		sd	a5,0(a3)
  80:src/../h/../h/../h/MemoryAllocation.hpp ****             return;
 921              		.loc 3 80 13 is_stmt 1
 922 0358 E38A07F8 		beqz	a5,.L25
  80:src/../h/../h/../h/MemoryAllocation.hpp ****             return;
 923              		.loc 3 80 29
  80:src/../h/../h/../h/MemoryAllocation.hpp ****             return;
 924              		.loc 3 80 46 is_stmt 0
 925 035c 23B4D700 		sd	a3,8(a5)
 926 0360 6FF0DFF8 		j	.L25
 927              	.LVL49:
 928              	.L60:
 929              	.LBE201:
 930              	.LBE203:
 121:src/../h/../h/../h/MemoryAllocation.hpp ****             }else{return 0;}
 931              		.loc 3 121 25
 932 0364 9307F0FF 		li	a5,-1
 933 0368 6FF0DFF8 		j	.L26
 934              	.LVL50:
 935              	.L48:
 936              	.LBE205:
 937              	.LBE207:
 938              	.LBE209:
 939              	.LBB210:
 940              	.LBB182:
  53:src/RiscV.cpp ****             int ret_val=TCB::createThread((TCB::Body)start_routine, (thread_t*) handle, (void*)arg,
 941              		.loc 1 53 13 is_stmt 1
  53:src/RiscV.cpp ****             int ret_val=TCB::createThread((TCB::Body)start_routine, (thread_t*) handle, (void*)arg,
 942              		.loc 1 53 42 is_stmt 0
 943 036c 033504FD 		ld	a0,-48(s0)
 944 0370 833584FD 		ld	a1,-40(s0)
 945 0374 033684FC 		ld	a2,-56(s0)
 946              	.LVL51:
 947 0378 93061000 		li	a3,1
 948 037c 97000000 		call	_ZN3TCB12createThreadEPFvPvEPPS_S0_b@plt
 948      E7800000 
 949              	.LVL52:
  54:src/RiscV.cpp ****             __asm__ volatile("mv a1, %0": : [ret_val] "r"(ret_val));
 950              		.loc 1 54 13 is_stmt 1
  54:src/RiscV.cpp ****             __asm__ volatile("mv a1, %0": : [ret_val] "r"(ret_val));
GAS LISTING /tmp/ccZvUt0T.s 			page 28


 951              		.loc 1 54 68 is_stmt 0
 952              	#APP
 953              	# 54 "src/RiscV.cpp" 1
  55:src/RiscV.cpp ****             __asm__ volatile("sd a1, 88(s0)");
 954              		mv a1, a0
 955              	# 0 "" 2
 956              		.loc 1 55 13 is_stmt 1
  55:src/RiscV.cpp ****             __asm__ volatile("sd a1, 88(s0)");
 957              		.loc 1 55 46 is_stmt 0
 958              	# 55 "src/RiscV.cpp" 1
 959              		sd a1, 88(s0)
 960              	# 0 "" 2
 961              	#NO_APP
 962              	.LBE182:
 963 038c 6FF0DFE8 		j	.L15
 964              	.LVL53:
 965              	.L49:
 966              	.LBB183:
  57:src/RiscV.cpp ****             ret_value_thr_exit=TCB::thread_exit();
 967              		.loc 1 57 13 is_stmt 1
 968              	.LBB171:
 969              	.LBB172:
 970              		.file 4 "src/../h/tcb.hpp"
   1:src/../h/tcb.hpp **** //
   2:src/../h/tcb.hpp **** // Created by os on 8/14/22.
   3:src/../h/tcb.hpp **** //
   4:src/../h/tcb.hpp **** 
   5:src/../h/tcb.hpp **** #ifndef PROJECT_BASE_TCB_HPP
   6:src/../h/tcb.hpp **** #define PROJECT_BASE_TCB_HPP
   7:src/../h/tcb.hpp **** #include "../lib/hw.h"
   8:src/../h/tcb.hpp **** #include "../h/Scheduler.hpp"
   9:src/../h/tcb.hpp **** #include "../h/MemoryAllocation.hpp"
  10:src/../h/tcb.hpp **** #include "../h/semaphore.hpp"
  11:src/../h/tcb.hpp **** #include "../h/printing.hpp"
  12:src/../h/tcb.hpp **** 
  13:src/../h/tcb.hpp **** class TCB {
  14:src/../h/tcb.hpp **** 
  15:src/../h/tcb.hpp **** public:
  16:src/../h/tcb.hpp ****     void* operator new(uint64 n){//promenjeno uint64 u size_t
  17:src/../h/tcb.hpp ****         return MemoryAllocation::mem_alloc(MemoryAllocation::bytesToBlocks(n)); //njemu je samo __m
  18:src/../h/tcb.hpp ****         //return __mem_alloc(n);
  19:src/../h/tcb.hpp ****     }
  20:src/../h/tcb.hpp **** 
  21:src/../h/tcb.hpp ****     void* operator new[](uint64 n){
  22:src/../h/tcb.hpp ****         return MemoryAllocation::mem_alloc(MemoryAllocation::bytesToBlocks(n));
  23:src/../h/tcb.hpp ****         //return __mem_alloc(n);
  24:src/../h/tcb.hpp ****     }
  25:src/../h/tcb.hpp **** 
  26:src/../h/tcb.hpp ****     void operator delete(void *p) noexcept {
  27:src/../h/tcb.hpp ****         MemoryAllocation::mem_free(p);
  28:src/../h/tcb.hpp ****         //__mem_free(p);
  29:src/../h/tcb.hpp ****     }
  30:src/../h/tcb.hpp **** 
  31:src/../h/tcb.hpp ****     void operator delete[] (void *p) noexcept{
  32:src/../h/tcb.hpp ****         MemoryAllocation::mem_free(p);
  33:src/../h/tcb.hpp ****         //__mem_free(p);
  34:src/../h/tcb.hpp ****     }
GAS LISTING /tmp/ccZvUt0T.s 			page 29


  35:src/../h/tcb.hpp **** 
  36:src/../h/tcb.hpp ****     ~TCB() { delete[] stack; }
  37:src/../h/tcb.hpp **** 
  38:src/../h/tcb.hpp ****     using Body = void (*)(void*); //mislim da mora da se promeni ovaj body sa nekim argumentima, i 
  39:src/../h/tcb.hpp **** 
  40:src/../h/tcb.hpp ****     static int createThread(Body body, TCB** handle, void* arguments, bool started);
  41:src/../h/tcb.hpp **** 
  42:src/../h/tcb.hpp ****     static void thread_dispatch(){dispatch();}
  43:src/../h/tcb.hpp **** 
  44:src/../h/tcb.hpp ****     static int thread_exit(){
  45:src/../h/tcb.hpp ****         running->setFinished(true);
 971              		.loc 4 45 9
 972              		.loc 4 45 29 is_stmt 0
 973 0390 93051000 		li	a1,1
 974 0394 97070000 		la	a5,_ZN3TCB7runningE
 974      83B70700 
 975              	.LVL54:
 976 039c 03B50700 		ld	a0,0(a5)
 977 03a0 97000000 		call	_ZN3TCB11setFinishedEb@plt
 977      E7800000 
 978              	.LVL55:
  46:src/../h/tcb.hpp ****         dispatch();
 979              		.loc 4 46 9 is_stmt 1
 980              		.loc 4 46 17 is_stmt 0
 981 03a8 97000000 		call	_ZN3TCB8dispatchEv@plt
 981      E7800000 
 982              	.LVL56:
  47:src/../h/tcb.hpp ****         //running nullptr->negativna
  48:src/../h/tcb.hpp ****         return 0;
 983              		.loc 4 48 9 is_stmt 1
 984              	.LBE172:
 985              	.LBE171:
  58:src/RiscV.cpp ****             __asm__ volatile("mv a1, %0": : [ret_value_thr_exit] "r"(ret_value_thr_exit) );
 986              		.loc 1 58 13
  58:src/RiscV.cpp ****             __asm__ volatile("mv a1, %0": : [ret_value_thr_exit] "r"(ret_value_thr_exit) );
 987              		.loc 1 58 91 is_stmt 0
 988 03b0 93070000 		li	a5,0
 989              	#APP
 990              	# 58 "src/RiscV.cpp" 1
  59:src/RiscV.cpp ****             __asm__ volatile("sd a1, 88(s0)");
 991              		mv a1, a5
 992              	# 0 "" 2
 993              		.loc 1 59 13 is_stmt 1
  59:src/RiscV.cpp ****             __asm__ volatile("sd a1, 88(s0)");
 994              		.loc 1 59 46 is_stmt 0
 995              	# 59 "src/RiscV.cpp" 1
 996              		sd a1, 88(s0)
 997              	# 0 "" 2
 998              	#NO_APP
 999 03bc 6FF0DFE5 		j	.L15
 1000              	.LVL57:
 1001              	.L50:
 1002              	.LBB173:
  61:src/RiscV.cpp ****             TCB::thread_dispatch();
 1003              		.loc 1 61 13 is_stmt 1
 1004              	.LBB161:
 1005              	.LBB162:
GAS LISTING /tmp/ccZvUt0T.s 			page 30


  42:src/../h/tcb.hpp **** 
 1006              		.loc 4 42 35
  42:src/../h/tcb.hpp **** 
 1007              		.loc 4 42 43 is_stmt 0
 1008 03c0 97000000 		call	_ZN3TCB8dispatchEv@plt
 1008      E7800000 
 1009              	.LVL58:
  42:src/../h/tcb.hpp **** 
 1010              		.loc 4 42 46
 1011 03c8 6FF01FE5 		j	.L15
 1012              	.LVL59:
 1013              	.L51:
 1014              	.LBE162:
 1015              	.LBE161:
 1016              	.LBB163:
 1017              	.LBB153:
  63:src/RiscV.cpp ****             int ret_val=TCB::createThread((TCB::Body)a4, (thread_t*) handle, (void*)arg, false);
 1018              		.loc 1 63 13 is_stmt 1
  63:src/RiscV.cpp ****             int ret_val=TCB::createThread((TCB::Body)a4, (thread_t*) handle, (void*)arg, false);
 1019              		.loc 1 63 42 is_stmt 0
 1020 03cc 033584FE 		ld	a0,-24(s0)
 1021 03d0 833584FD 		ld	a1,-40(s0)
 1022 03d4 033684FC 		ld	a2,-56(s0)
 1023              	.LVL60:
 1024 03d8 93060000 		li	a3,0
 1025 03dc 97000000 		call	_ZN3TCB12createThreadEPFvPvEPPS_S0_b@plt
 1025      E7800000 
 1026              	.LVL61:
  64:src/RiscV.cpp ****             __asm__ volatile("mv a1, %0": : [ret_val] "r"(ret_val));
 1027              		.loc 1 64 13 is_stmt 1
  64:src/RiscV.cpp ****             __asm__ volatile("mv a1, %0": : [ret_val] "r"(ret_val));
 1028              		.loc 1 64 68 is_stmt 0
 1029              	#APP
 1030              	# 64 "src/RiscV.cpp" 1
  65:src/RiscV.cpp ****             __asm__ volatile("sd a1, 88(s0)");
 1031              		mv a1, a0
 1032              	# 0 "" 2
 1033              		.loc 1 65 13 is_stmt 1
  65:src/RiscV.cpp ****             __asm__ volatile("sd a1, 88(s0)");
 1034              		.loc 1 65 46 is_stmt 0
 1035              	# 65 "src/RiscV.cpp" 1
 1036              		sd a1, 88(s0)
 1037              	# 0 "" 2
 1038              	#NO_APP
 1039              	.LBE153:
 1040 03ec 6FF0DFE2 		j	.L15
 1041              	.LVL62:
 1042              	.L52:
 1043              	.LBB154:
  67:src/RiscV.cpp ****             TCB::startThread((thread_t*)handle);
 1044              		.loc 1 67 13 is_stmt 1
  67:src/RiscV.cpp ****             TCB::startThread((thread_t*)handle);
 1045              		.loc 1 67 29 is_stmt 0
 1046 03f0 833784FD 		ld	a5,-40(s0)
 1047              	.LVL63:
 1048              	.LBB145:
 1049              	.LBB146:
GAS LISTING /tmp/ccZvUt0T.s 			page 31


  49:src/../h/tcb.hpp ****     };
  50:src/../h/tcb.hpp **** 
  51:src/../h/tcb.hpp ****     void setStarted(TCB** handle){
  52:src/../h/tcb.hpp ****         (*handle)->threadStarted=true;
  53:src/../h/tcb.hpp ****     }
  54:src/../h/tcb.hpp **** 
  55:src/../h/tcb.hpp ****     bool isStarted() {
  56:src/../h/tcb.hpp ****         return threadStarted;
  57:src/../h/tcb.hpp ****     }
  58:src/../h/tcb.hpp **** 
  59:src/../h/tcb.hpp ****     static void startThread(TCB** handle){ //mzd ne treba static
  60:src/../h/tcb.hpp ****         //printString("udje u start klasu\n");
  61:src/../h/tcb.hpp ****         (*handle)->threadStarted=true;
 1050              		.loc 4 61 9 is_stmt 1
 1051              		.loc 4 61 10 is_stmt 0
 1052 03f4 03B70700 		ld	a4,0(a5)
 1053              		.loc 4 61 33
 1054 03f8 93061000 		li	a3,1
 1055 03fc 2300D704 		sb	a3,64(a4)
  62:src/../h/tcb.hpp ****         //printString("setuje started\n");
  63:src/../h/tcb.hpp ****         Scheduler::put(*handle); //vidi nekako da startuje handle nad kojim pozivas, mada mislim da
 1056              		.loc 4 63 9 is_stmt 1
 1057              		.loc 4 63 23 is_stmt 0
 1058 0400 03B50700 		ld	a0,0(a5)
 1059 0404 97000000 		call	_ZN9Scheduler3putEP3TCB@plt
 1059      E7800000 
 1060              	.LVL64:
  64:src/../h/tcb.hpp ****        //printString("ubacuje u scheduler\n");
  65:src/../h/tcb.hpp ****     }
 1061              		.loc 4 65 5
 1062 040c 6FF0DFE0 		j	.L15
 1063              	.LVL65:
 1064              	.L53:
 1065              	.LBE146:
 1066              	.LBE145:
 1067              	.LBB147:
 1068              	.LBB139:
  69:src/RiscV.cpp ****             int retval = semaphore::semOpen((sem_t*)handle, (unsigned)start_routine);
 1069              		.loc 1 69 13 is_stmt 1
  69:src/RiscV.cpp ****             int retval = semaphore::semOpen((sem_t*)handle, (unsigned)start_routine);
 1070              		.loc 1 69 44 is_stmt 0
 1071 0410 033584FD 		ld	a0,-40(s0)
 1072 0414 833504FD 		ld	a1,-48(s0)
 1073 0418 9B850500 		sext.w	a1,a1
 1074 041c 97000000 		call	_ZN9semaphore7semOpenEPPS_j@plt
 1074      E7800000 
 1075              	.LVL66:
  70:src/RiscV.cpp ****             __asm__ volatile("mv a1, %0": : [retval] "r"(retval) );
 1076              		.loc 1 70 13 is_stmt 1
  70:src/RiscV.cpp ****             __asm__ volatile("mv a1, %0": : [retval] "r"(retval) );
 1077              		.loc 1 70 67 is_stmt 0
 1078              	#APP
 1079              	# 70 "src/RiscV.cpp" 1
  71:src/RiscV.cpp ****             __asm__ volatile("sd a1, 88(s0)");
 1080              		mv a1, a0
 1081              	# 0 "" 2
 1082              		.loc 1 71 13 is_stmt 1
GAS LISTING /tmp/ccZvUt0T.s 			page 32


  71:src/RiscV.cpp ****             __asm__ volatile("sd a1, 88(s0)");
 1083              		.loc 1 71 46 is_stmt 0
 1084              	# 71 "src/RiscV.cpp" 1
 1085              		sd a1, 88(s0)
 1086              	# 0 "" 2
 1087              	#NO_APP
 1088              	.LBE139:
 1089 042c 6FF0DFDE 		j	.L15
 1090              	.LVL67:
 1091              	.L54:
 1092              	.LBB140:
 1093              	.LBB134:
  73:src/RiscV.cpp ****             int retval = semaphore::semClose((sem_t)handle);
 1094              		.loc 1 73 13 is_stmt 1
  73:src/RiscV.cpp ****             int retval = semaphore::semClose((sem_t)handle);
 1095              		.loc 1 73 45 is_stmt 0
 1096 0430 033584FD 		ld	a0,-40(s0)
 1097 0434 97000000 		call	_ZN9semaphore8semCloseEPS_@plt
 1097      E7800000 
 1098              	.LVL68:
  74:src/RiscV.cpp ****             __asm__ volatile("mv a1, %0": : [retval] "r"(retval) );
 1099              		.loc 1 74 13 is_stmt 1
  74:src/RiscV.cpp ****             __asm__ volatile("mv a1, %0": : [retval] "r"(retval) );
 1100              		.loc 1 74 67 is_stmt 0
 1101              	#APP
 1102              	# 74 "src/RiscV.cpp" 1
  75:src/RiscV.cpp ****             __asm__ volatile("sd a1, 88(s0)");
 1103              		mv a1, a0
 1104              	# 0 "" 2
 1105              		.loc 1 75 13 is_stmt 1
  75:src/RiscV.cpp ****             __asm__ volatile("sd a1, 88(s0)");
 1106              		.loc 1 75 46 is_stmt 0
 1107              	# 75 "src/RiscV.cpp" 1
 1108              		sd a1, 88(s0)
 1109              	# 0 "" 2
 1110              	#NO_APP
 1111              	.LBE134:
 1112 0444 6FF05FDD 		j	.L15
 1113              	.LVL69:
 1114              	.L55:
 1115              	.LBB135:
 1116              	.LBB130:
  77:src/RiscV.cpp ****             int retval = semaphore::semWait((sem_t)handle);
 1117              		.loc 1 77 13 is_stmt 1
  77:src/RiscV.cpp ****             int retval = semaphore::semWait((sem_t)handle);
 1118              		.loc 1 77 44 is_stmt 0
 1119 0448 033584FD 		ld	a0,-40(s0)
 1120 044c 97000000 		call	_ZN9semaphore7semWaitEPS_@plt
 1120      E7800000 
 1121              	.LVL70:
  78:src/RiscV.cpp ****             __asm__ volatile("mv a1, %0": : [retval] "r"(retval) );
 1122              		.loc 1 78 13 is_stmt 1
  78:src/RiscV.cpp ****             __asm__ volatile("mv a1, %0": : [retval] "r"(retval) );
 1123              		.loc 1 78 67 is_stmt 0
 1124              	#APP
 1125              	# 78 "src/RiscV.cpp" 1
  79:src/RiscV.cpp ****             __asm__ volatile("sd a1, 88(s0)");
GAS LISTING /tmp/ccZvUt0T.s 			page 33


 1126              		mv a1, a0
 1127              	# 0 "" 2
 1128              		.loc 1 79 13 is_stmt 1
  79:src/RiscV.cpp ****             __asm__ volatile("sd a1, 88(s0)");
 1129              		.loc 1 79 46 is_stmt 0
 1130              	# 79 "src/RiscV.cpp" 1
 1131              		sd a1, 88(s0)
 1132              	# 0 "" 2
 1133              	#NO_APP
 1134              	.LBE130:
 1135 045c 6FF0DFDB 		j	.L15
 1136              	.LVL71:
 1137              	.L56:
 1138              	.LBB131:
 1139              	.LBB127:
  81:src/RiscV.cpp ****             int retval = semaphore::semSignal((sem_t)handle);
 1140              		.loc 1 81 13 is_stmt 1
  81:src/RiscV.cpp ****             int retval = semaphore::semSignal((sem_t)handle);
 1141              		.loc 1 81 46 is_stmt 0
 1142 0460 033584FD 		ld	a0,-40(s0)
 1143 0464 97000000 		call	_ZN9semaphore9semSignalEPS_@plt
 1143      E7800000 
 1144              	.LVL72:
  82:src/RiscV.cpp ****             __asm__ volatile("mv a1, %0": : [retval] "r"(retval) );
 1145              		.loc 1 82 13 is_stmt 1
  82:src/RiscV.cpp ****             __asm__ volatile("mv a1, %0": : [retval] "r"(retval) );
 1146              		.loc 1 82 67 is_stmt 0
 1147              	#APP
 1148              	# 82 "src/RiscV.cpp" 1
  83:src/RiscV.cpp ****             __asm__ volatile("sd a1, 88(s0)");
 1149              		mv a1, a0
 1150              	# 0 "" 2
 1151              		.loc 1 83 13 is_stmt 1
  83:src/RiscV.cpp ****             __asm__ volatile("sd a1, 88(s0)");
 1152              		.loc 1 83 46 is_stmt 0
 1153              	# 83 "src/RiscV.cpp" 1
 1154              		sd a1, 88(s0)
 1155              	# 0 "" 2
 1156              	#NO_APP
 1157              	.LBE127:
 1158 0474 6FF05FDA 		j	.L15
 1159              	.LVL73:
 1160              	.L57:
 1161              	.LBB128:
 1162              	.LBB126:
  85:src/RiscV.cpp ****             char retval = __getc();
 1163              		.loc 1 85 13 is_stmt 1
  85:src/RiscV.cpp ****             char retval = __getc();
 1164              		.loc 1 85 33 is_stmt 0
 1165 0478 97000000 		call	__getc@plt
 1165      E7800000 
 1166              	.LVL74:
  86:src/RiscV.cpp ****             __asm__ volatile("mv a1, %0": : [retval] "r"(retval) );
 1167              		.loc 1 86 13 is_stmt 1
  86:src/RiscV.cpp ****             __asm__ volatile("mv a1, %0": : [retval] "r"(retval) );
 1168              		.loc 1 86 67 is_stmt 0
 1169              	#APP
GAS LISTING /tmp/ccZvUt0T.s 			page 34


 1170              	# 86 "src/RiscV.cpp" 1
  87:src/RiscV.cpp ****             __asm__ volatile("sd a1, 88(s0)");
 1171              		mv a1, a0
 1172              	# 0 "" 2
 1173              		.loc 1 87 13 is_stmt 1
  87:src/RiscV.cpp ****             __asm__ volatile("sd a1, 88(s0)");
 1174              		.loc 1 87 46 is_stmt 0
 1175              	# 87 "src/RiscV.cpp" 1
 1176              		sd a1, 88(s0)
 1177              	# 0 "" 2
 1178              	#NO_APP
 1179              	.LBE126:
 1180 0488 6FF01FD9 		j	.L15
 1181              	.LVL75:
 1182              	.L45:
 1183              	.LBE128:
 1184              	.LBE131:
 1185              	.LBE135:
 1186              	.LBE140:
 1187              	.LBE147:
 1188              	.LBE154:
 1189              	.LBE163:
 1190              	.LBE173:
 1191              	.LBE183:
 1192              	.LBE210:
 1193              	.LBE240:
 1194              	.LBE257:
 1195              	.LBE270:
 108:src/RiscV.cpp ****         mc_sip(SIP_SSIP);
 1196              		.loc 1 108 9 is_stmt 1
 1197              	.LBB271:
 1198              	.LBB272:
 134:src/../h/RiscV.hpp **** }
 1199              		.loc 2 134 5
 134:src/../h/RiscV.hpp **** }
 1200              		.loc 2 134 63 is_stmt 0
 1201 048c 93072000 		li	a5,2
 1202              	#APP
 1203              	# 134 "src/../h/RiscV.hpp" 1
 135:src/../h/RiscV.hpp **** 
 1204              		csrc sip, a5
 1205              	# 0 "" 2
 1206              		.loc 2 135 1
 1207              	#NO_APP
 1208 0494 6FF05FD9 		j	.L3
 1209              	.LBE272:
 1210              	.LBE271:
 1211              	.LBE286:
 1212              		.cfi_endproc
 1213              	.LFE50:
 1215              	.Letext0:
 1216              		.file 5 "src/../h/../lib/hw.h"
 1217              		.file 6 "src/../h/../h/Scheduler.hpp"
 1218              		.file 7 "src/../h/../h/semaphore.hpp"
 1219              		.file 8 "src/../h/../h/../h/syscall_c.hpp"
 1220              		.file 9 "src/../lib/console.h"
GAS LISTING /tmp/ccZvUt0T.s 			page 35


DEFINED SYMBOLS
                            *ABS*:0000000000000000 RiscV.cpp
     /tmp/ccZvUt0T.s:9      .text:0000000000000000 _ZN5RiscV10popSppSpieEv
     /tmp/ccZvUt0T.s:13     .text:0000000000000000 .L0 
     /tmp/ccZvUt0T.s:14     .text:0000000000000000 .L0 
     /tmp/ccZvUt0T.s:15     .text:0000000000000004 .L0 
     /tmp/ccZvUt0T.s:17     .text:0000000000000008 .L0 
     /tmp/ccZvUt0T.s:19     .text:000000000000000c .L0 
     /tmp/ccZvUt0T.s:21     .text:000000000000000c .L0 
       src/RiscV.cpp:14     .text:000000000000000c .L0 
     /tmp/ccZvUt0T.s:27     .text:0000000000000010 .L0 
       src/RiscV.cpp:15     .text:0000000000000010 .L0 
     /tmp/ccZvUt0T.s:33     .text:0000000000000014 .L0 
     /tmp/ccZvUt0T.s:34     .text:0000000000000018 .L0 
     /tmp/ccZvUt0T.s:35     .text:0000000000000018 .L0 
     /tmp/ccZvUt0T.s:37     .text:000000000000001c .L0 
     /tmp/ccZvUt0T.s:39     .text:0000000000000020 .L0 
     /tmp/ccZvUt0T.s:45     .text:0000000000000020 _ZN5RiscV20handleSupervisorTrapEv
     /tmp/ccZvUt0T.s:48     .text:0000000000000020 .L0 
     /tmp/ccZvUt0T.s:49     .text:0000000000000020 .L0 
     /tmp/ccZvUt0T.s:50     .text:0000000000000024 .L0 
     /tmp/ccZvUt0T.s:53     .text:000000000000002c .L0 
     /tmp/ccZvUt0T.s:54     .text:000000000000002c .L0 
     /tmp/ccZvUt0T.s:56     .text:0000000000000030 .L0 
     /tmp/ccZvUt0T.s:58     .text:0000000000000030 .L0 
     /tmp/ccZvUt0T.s:59     .text:0000000000000030 .L0 
     /tmp/ccZvUt0T.s:60     .text:0000000000000030 .L0 
     /tmp/ccZvUt0T.s:61     .text:0000000000000030 .L0 
     /tmp/ccZvUt0T.s:62     .text:0000000000000030 .L0 
     /tmp/ccZvUt0T.s:63     .text:0000000000000030 .L0 
     /tmp/ccZvUt0T.s:64     .text:0000000000000030 .L0 
     /tmp/ccZvUt0T.s:65     .text:0000000000000030 .L0 
     /tmp/ccZvUt0T.s:66     .text:0000000000000030 .L0 
       src/RiscV.cpp:28     .text:0000000000000030 .L0 
     /tmp/ccZvUt0T.s:72     .text:0000000000000034 .L0 
       src/RiscV.cpp:29     .text:0000000000000034 .L0 
     /tmp/ccZvUt0T.s:77     .text:0000000000000038 .L0 
       src/RiscV.cpp:30     .text:0000000000000038 .L0 
     /tmp/ccZvUt0T.s:82     .text:000000000000003c .L0 
       src/RiscV.cpp:31     .text:000000000000003c .L0 
     /tmp/ccZvUt0T.s:87     .text:0000000000000040 .L0 
     /tmp/ccZvUt0T.s:88     .text:0000000000000040 .L0 
     /tmp/ccZvUt0T.s:93     .text:0000000000000040 .L0 
     /tmp/ccZvUt0T.s:94     .text:0000000000000040 .L0 
     /tmp/ccZvUt0T.s:95     .text:0000000000000040 .L0 
  src/../h/RiscV.hpp:89     .text:0000000000000040 .L0 
     /tmp/ccZvUt0T.s:103    .text:0000000000000048 .L0 
     /tmp/ccZvUt0T.s:104    .text:0000000000000048 .L0 
     /tmp/ccZvUt0T.s:111    .text:000000000000004c .L0 
     /tmp/ccZvUt0T.s:112    .text:000000000000004c .L0 
     /tmp/ccZvUt0T.s:113    .text:000000000000004c .L0 
  src/../h/RiscV.hpp:101    .text:000000000000004c .L0 
     /tmp/ccZvUt0T.s:123    .text:0000000000000050 .L0 
     /tmp/ccZvUt0T.s:124    .text:0000000000000050 .L0 
     /tmp/ccZvUt0T.s:126    .text:0000000000000054 .L0 
     /tmp/ccZvUt0T.s:130    .text:0000000000000058 .L0 
     /tmp/ccZvUt0T.s:131    .text:0000000000000058 .L0 
GAS LISTING /tmp/ccZvUt0T.s 			page 36


     /tmp/ccZvUt0T.s:132    .text:0000000000000058 .L0 
  src/../h/RiscV.hpp:157    .text:0000000000000058 .L0 
     /tmp/ccZvUt0T.s:142    .text:000000000000005c .L0 
     /tmp/ccZvUt0T.s:143    .text:000000000000005c .L0 
     /tmp/ccZvUt0T.s:145    .text:0000000000000060 .L0 
       src/RiscV.cpp:39     .text:0000000000000060 .L0 
     /tmp/ccZvUt0T.s:154    .text:0000000000000064 .L0 
     /tmp/ccZvUt0T.s:155    .text:0000000000000064 .L0 
     /tmp/ccZvUt0T.s:157    .text:0000000000000068 .L0 
     /tmp/ccZvUt0T.s:160    .text:0000000000000070 .L0 
     /tmp/ccZvUt0T.s:166    .text:0000000000000080 .L0 
     /tmp/ccZvUt0T.s:171    .text:0000000000000090 .L0 
     /tmp/ccZvUt0T.s:172    .text:0000000000000090 .L0 
     /tmp/ccZvUt0T.s:176    .text:0000000000000098 .L0 
     /tmp/ccZvUt0T.s:183    .text:000000000000009c .L0 
     /tmp/ccZvUt0T.s:194    .text:00000000000000a4 .L0 
     /tmp/ccZvUt0T.s:206    .text:00000000000000ac .L0 
     /tmp/ccZvUt0T.s:220    .text:00000000000000b4 .L0 
     /tmp/ccZvUt0T.s:236    .text:00000000000000bc .L0 
     /tmp/ccZvUt0T.s:254    .text:00000000000000c4 .L0 
     /tmp/ccZvUt0T.s:274    .text:00000000000000cc .L0 
     /tmp/ccZvUt0T.s:296    .text:00000000000000d4 .L0 
     /tmp/ccZvUt0T.s:320    .text:00000000000000dc .L0 
     /tmp/ccZvUt0T.s:346    .text:00000000000000e4 .L0 
     /tmp/ccZvUt0T.s:374    .text:00000000000000ec .L0 
     /tmp/ccZvUt0T.s:404    .text:00000000000000f4 .L0 
     /tmp/ccZvUt0T.s:407    .text:00000000000000fc .L0 
     /tmp/ccZvUt0T.s:410    .text:0000000000000104 .L0 
     /tmp/ccZvUt0T.s:411    .text:0000000000000104 .L0 
     /tmp/ccZvUt0T.s:431    .text:0000000000000118 .L0 
       src/RiscV.cpp:42     .text:0000000000000118 .L0 
     /tmp/ccZvUt0T.s:440    .text:0000000000000120 .L0 
     /tmp/ccZvUt0T.s:441    .text:0000000000000120 .L0 
     /tmp/ccZvUt0T.s:447    .text:0000000000000124 .L0 
     /tmp/ccZvUt0T.s:448    .text:0000000000000124 .L0 
     /tmp/ccZvUt0T.s:451    .text:0000000000000128 .L0 
     /tmp/ccZvUt0T.s:454    .text:000000000000012c .L0 
     /tmp/ccZvUt0T.s:461    .text:0000000000000130 .L0 
     /tmp/ccZvUt0T.s:462    .text:0000000000000130 .L0 
     /tmp/ccZvUt0T.s:466    .text:0000000000000134 .L0 
     /tmp/ccZvUt0T.s:467    .text:0000000000000134 .L0 
     /tmp/ccZvUt0T.s:472    .text:0000000000000140 .L0 
     /tmp/ccZvUt0T.s:475    .text:0000000000000144 .L0 
     /tmp/ccZvUt0T.s:476    .text:0000000000000144 .L0 
     /tmp/ccZvUt0T.s:480    .text:0000000000000154 .L0 
     /tmp/ccZvUt0T.s:482    .text:0000000000000158 .L0 
     /tmp/ccZvUt0T.s:483    .text:0000000000000158 .L0 
     /tmp/ccZvUt0T.s:486    .text:0000000000000160 .L0 
     /tmp/ccZvUt0T.s:488    .text:0000000000000164 .L0 
     /tmp/ccZvUt0T.s:489    .text:0000000000000164 .L0 
     /tmp/ccZvUt0T.s:491    .text:0000000000000168 .L0 
     /tmp/ccZvUt0T.s:494    .text:000000000000016c .L0 
     /tmp/ccZvUt0T.s:495    .text:000000000000016c .L0 
     /tmp/ccZvUt0T.s:497    .text:0000000000000170 .L0 
     /tmp/ccZvUt0T.s:500    .text:0000000000000178 .L0 
     /tmp/ccZvUt0T.s:502    .text:000000000000017c .L0 
     /tmp/ccZvUt0T.s:503    .text:000000000000017c .L0 
GAS LISTING /tmp/ccZvUt0T.s 			page 37


     /tmp/ccZvUt0T.s:507    .text:0000000000000180 .L0 
     /tmp/ccZvUt0T.s:508    .text:0000000000000180 .L0 
     /tmp/ccZvUt0T.s:510    .text:0000000000000184 .L0 
     /tmp/ccZvUt0T.s:512    .text:0000000000000188 .L0 
     /tmp/ccZvUt0T.s:513    .text:0000000000000188 .L0 
     /tmp/ccZvUt0T.s:515    .text:000000000000018c .L0 
     /tmp/ccZvUt0T.s:517    .text:0000000000000190 .L0 
     /tmp/ccZvUt0T.s:518    .text:0000000000000190 .L0 
     /tmp/ccZvUt0T.s:524    .text:0000000000000194 .L0 
     /tmp/ccZvUt0T.s:532    .text:000000000000019c .L0 
     /tmp/ccZvUt0T.s:533    .text:000000000000019c .L0 
     /tmp/ccZvUt0T.s:541    .text:00000000000001ac .L0 
     /tmp/ccZvUt0T.s:542    .text:00000000000001ac .L0 
     /tmp/ccZvUt0T.s:545    .text:00000000000001b0 .L0 
     /tmp/ccZvUt0T.s:546    .text:00000000000001b0 .L0 
     /tmp/ccZvUt0T.s:548    .text:00000000000001b4 .L0 
     /tmp/ccZvUt0T.s:549    .text:00000000000001b4 .L0 
     /tmp/ccZvUt0T.s:551    .text:00000000000001b8 .L0 
     /tmp/ccZvUt0T.s:552    .text:00000000000001b8 .L0 
     /tmp/ccZvUt0T.s:554    .text:00000000000001bc .L0 
     /tmp/ccZvUt0T.s:556    .text:00000000000001c0 .L0 
     /tmp/ccZvUt0T.s:557    .text:00000000000001c0 .L0 
     /tmp/ccZvUt0T.s:560    .text:00000000000001c4 .L0 
     /tmp/ccZvUt0T.s:561    .text:00000000000001c4 .L0 
     /tmp/ccZvUt0T.s:563    .text:00000000000001c8 .L0 
     /tmp/ccZvUt0T.s:565    .text:00000000000001cc .L0 
     /tmp/ccZvUt0T.s:566    .text:00000000000001cc .L0 
     /tmp/ccZvUt0T.s:569    .text:00000000000001d0 .L0 
     /tmp/ccZvUt0T.s:570    .text:00000000000001d0 .L0 
     /tmp/ccZvUt0T.s:572    .text:00000000000001d4 .L0 
     /tmp/ccZvUt0T.s:574    .text:00000000000001d8 .L0 
     /tmp/ccZvUt0T.s:575    .text:00000000000001d8 .L0 
     /tmp/ccZvUt0T.s:577    .text:00000000000001dc .L0 
     /tmp/ccZvUt0T.s:579    .text:00000000000001e0 .L0 
     /tmp/ccZvUt0T.s:580    .text:00000000000001e0 .L0 
     /tmp/ccZvUt0T.s:583    .text:00000000000001e4 .L0 
     /tmp/ccZvUt0T.s:586    .text:00000000000001e8 .L0 
     /tmp/ccZvUt0T.s:588    .text:00000000000001ec .L0 
     /tmp/ccZvUt0T.s:589    .text:00000000000001ec .L0 
     /tmp/ccZvUt0T.s:591    .text:00000000000001f0 .L0 
     /tmp/ccZvUt0T.s:594    .text:00000000000001fc .L0 
     /tmp/ccZvUt0T.s:595    .text:00000000000001fc .L0 
     /tmp/ccZvUt0T.s:597    .text:0000000000000200 .L0 
     /tmp/ccZvUt0T.s:599    .text:0000000000000204 .L0 
     /tmp/ccZvUt0T.s:600    .text:0000000000000204 .L0 
     /tmp/ccZvUt0T.s:602    .text:0000000000000208 .L0 
     /tmp/ccZvUt0T.s:603    .text:0000000000000208 .L0 
     /tmp/ccZvUt0T.s:605    .text:000000000000020c .L0 
     /tmp/ccZvUt0T.s:606    .text:000000000000020c .L0 
     /tmp/ccZvUt0T.s:616    .text:0000000000000210 .L0 
       src/RiscV.cpp:45     .text:0000000000000210 .L0 
     /tmp/ccZvUt0T.s:622    .text:0000000000000214 .L0 
       src/RiscV.cpp:46     .text:0000000000000214 .L0 
     /tmp/ccZvUt0T.s:632    .text:0000000000000218 .L0 
     /tmp/ccZvUt0T.s:633    .text:0000000000000218 .L0 
     /tmp/ccZvUt0T.s:638    .text:000000000000021c .L0 
  src/../h/RiscV.hpp:162    .text:000000000000021c .L0 
GAS LISTING /tmp/ccZvUt0T.s 			page 38


     /tmp/ccZvUt0T.s:648    .text:0000000000000220 .L0 
     /tmp/ccZvUt0T.s:649    .text:0000000000000220 .L0 
     /tmp/ccZvUt0T.s:654    .text:0000000000000224 .L0 
  src/../h/RiscV.hpp:106    .text:0000000000000224 .L0 
     /tmp/ccZvUt0T.s:667    .text:0000000000000228 .L0 
     /tmp/ccZvUt0T.s:668    .text:000000000000022c .L0 
     /tmp/ccZvUt0T.s:669    .text:000000000000022c .L0 
     /tmp/ccZvUt0T.s:671    .text:0000000000000230 .L0 
     /tmp/ccZvUt0T.s:672    .text:0000000000000230 .L0 
     /tmp/ccZvUt0T.s:674    .text:0000000000000234 .L0 
     /tmp/ccZvUt0T.s:678    .text:0000000000000238 .L0 
     /tmp/ccZvUt0T.s:690    .text:0000000000000238 .L0 
     /tmp/ccZvUt0T.s:691    .text:0000000000000238 .L0 
     /tmp/ccZvUt0T.s:693    .text:000000000000023c .L0 
     /tmp/ccZvUt0T.s:708    .text:000000000000024c .L0 
       src/RiscV.cpp:48     .text:000000000000024c .L0 
     /tmp/ccZvUt0T.s:717    .text:0000000000000254 .L0 
     /tmp/ccZvUt0T.s:718    .text:0000000000000254 .L0 
     /tmp/ccZvUt0T.s:723    .text:0000000000000258 .L0 
     /tmp/ccZvUt0T.s:724    .text:0000000000000258 .L0 
     /tmp/ccZvUt0T.s:725    .text:0000000000000258 .L0 
     /tmp/ccZvUt0T.s:728    .text:0000000000000264 .L0 
     /tmp/ccZvUt0T.s:730    .text:0000000000000268 .L0 
     /tmp/ccZvUt0T.s:734    .text:000000000000026c .L0 
     /tmp/ccZvUt0T.s:736    .text:0000000000000270 .L0 
     /tmp/ccZvUt0T.s:739    .text:0000000000000274 .L0 
     /tmp/ccZvUt0T.s:745    .text:0000000000000280 .L0 
     /tmp/ccZvUt0T.s:752    .text:000000000000028c .L0 
     /tmp/ccZvUt0T.s:753    .text:000000000000028c .L0 
     /tmp/ccZvUt0T.s:754    .text:000000000000028c .L0 
     /tmp/ccZvUt0T.s:756    .text:0000000000000290 .L0 
     /tmp/ccZvUt0T.s:765    .text:0000000000000290 .L0 
     /tmp/ccZvUt0T.s:773    .text:0000000000000290 .L0 
     /tmp/ccZvUt0T.s:774    .text:0000000000000290 .L0 
     /tmp/ccZvUt0T.s:777    .text:0000000000000298 .L0 
     /tmp/ccZvUt0T.s:778    .text:0000000000000298 .L0 
     /tmp/ccZvUt0T.s:780    .text:000000000000029c .L0 
     /tmp/ccZvUt0T.s:782    .text:00000000000002a0 .L0 
     /tmp/ccZvUt0T.s:783    .text:00000000000002a0 .L0 
     /tmp/ccZvUt0T.s:785    .text:00000000000002a4 .L0 
     /tmp/ccZvUt0T.s:788    .text:00000000000002a8 .L0 
     /tmp/ccZvUt0T.s:789    .text:00000000000002a8 .L0 
     /tmp/ccZvUt0T.s:791    .text:00000000000002ac .L0 
     /tmp/ccZvUt0T.s:793    .text:00000000000002b0 .L0 
     /tmp/ccZvUt0T.s:794    .text:00000000000002b0 .L0 
     /tmp/ccZvUt0T.s:797    .text:00000000000002b4 .L0 
     /tmp/ccZvUt0T.s:799    .text:00000000000002b8 .L0 
     /tmp/ccZvUt0T.s:800    .text:00000000000002b8 .L0 
     /tmp/ccZvUt0T.s:806    .text:00000000000002bc .L0 
     /tmp/ccZvUt0T.s:807    .text:00000000000002bc .L0 
     /tmp/ccZvUt0T.s:809    .text:00000000000002c0 .L0 
     /tmp/ccZvUt0T.s:810    .text:00000000000002c0 .L0 
     /tmp/ccZvUt0T.s:812    .text:00000000000002c4 .L0 
     /tmp/ccZvUt0T.s:814    .text:00000000000002c8 .L0 
     /tmp/ccZvUt0T.s:817    .text:00000000000002cc .L0 
     /tmp/ccZvUt0T.s:819    .text:00000000000002d0 .L0 
     /tmp/ccZvUt0T.s:827    .text:00000000000002d4 .L0 
GAS LISTING /tmp/ccZvUt0T.s 			page 39


     /tmp/ccZvUt0T.s:828    .text:00000000000002d4 .L0 
     /tmp/ccZvUt0T.s:830    .text:00000000000002d8 .L0 
     /tmp/ccZvUt0T.s:831    .text:00000000000002d8 .L0 
     /tmp/ccZvUt0T.s:833    .text:00000000000002dc .L0 
     /tmp/ccZvUt0T.s:835    .text:00000000000002e0 .L0 
     /tmp/ccZvUt0T.s:837    .text:00000000000002e4 .L0 
     /tmp/ccZvUt0T.s:839    .text:00000000000002e8 .L0 
     /tmp/ccZvUt0T.s:845    .text:00000000000002ec .L0 
     /tmp/ccZvUt0T.s:847    .text:00000000000002f0 .L0 
     /tmp/ccZvUt0T.s:853    .text:00000000000002f4 .L0 
       src/RiscV.cpp:50     .text:00000000000002f4 .L0 
     /tmp/ccZvUt0T.s:859    .text:00000000000002f8 .L0 
       src/RiscV.cpp:51     .text:00000000000002f8 .L0 
     /tmp/ccZvUt0T.s:872    .text:0000000000000300 .L0 
     /tmp/ccZvUt0T.s:873    .text:0000000000000300 .L0 
     /tmp/ccZvUt0T.s:879    .text:0000000000000314 .L0 
     /tmp/ccZvUt0T.s:880    .text:0000000000000314 .L0 
     /tmp/ccZvUt0T.s:888    .text:0000000000000324 .L0 
     /tmp/ccZvUt0T.s:889    .text:0000000000000324 .L0 
     /tmp/ccZvUt0T.s:891    .text:0000000000000328 .L0 
     /tmp/ccZvUt0T.s:894    .text:0000000000000330 .L0 
     /tmp/ccZvUt0T.s:895    .text:0000000000000330 .L0 
     /tmp/ccZvUt0T.s:897    .text:0000000000000334 .L0 
     /tmp/ccZvUt0T.s:899    .text:0000000000000338 .L0 
     /tmp/ccZvUt0T.s:901    .text:000000000000033c .L0 
     /tmp/ccZvUt0T.s:902    .text:000000000000033c .L0 
     /tmp/ccZvUt0T.s:911    .text:0000000000000344 .L0 
     /tmp/ccZvUt0T.s:912    .text:0000000000000344 .L0 
     /tmp/ccZvUt0T.s:914    .text:0000000000000348 .L0 
     /tmp/ccZvUt0T.s:917    .text:0000000000000350 .L0 
     /tmp/ccZvUt0T.s:918    .text:0000000000000350 .L0 
     /tmp/ccZvUt0T.s:920    .text:0000000000000354 .L0 
     /tmp/ccZvUt0T.s:922    .text:0000000000000358 .L0 
     /tmp/ccZvUt0T.s:924    .text:000000000000035c .L0 
     /tmp/ccZvUt0T.s:925    .text:000000000000035c .L0 
     /tmp/ccZvUt0T.s:932    .text:0000000000000364 .L0 
     /tmp/ccZvUt0T.s:942    .text:000000000000036c .L0 
     /tmp/ccZvUt0T.s:943    .text:000000000000036c .L0 
     /tmp/ccZvUt0T.s:951    .text:0000000000000384 .L0 
       src/RiscV.cpp:54     .text:0000000000000384 .L0 
     /tmp/ccZvUt0T.s:957    .text:0000000000000388 .L0 
       src/RiscV.cpp:55     .text:0000000000000388 .L0 
     /tmp/ccZvUt0T.s:971    .text:0000000000000390 .L0 
     /tmp/ccZvUt0T.s:972    .text:0000000000000390 .L0 
     /tmp/ccZvUt0T.s:973    .text:0000000000000390 .L0 
     /tmp/ccZvUt0T.s:980    .text:00000000000003a8 .L0 
     /tmp/ccZvUt0T.s:981    .text:00000000000003a8 .L0 
     /tmp/ccZvUt0T.s:986    .text:00000000000003b0 .L0 
     /tmp/ccZvUt0T.s:987    .text:00000000000003b0 .L0 
     /tmp/ccZvUt0T.s:988    .text:00000000000003b0 .L0 
     /tmp/ccZvUt0T.s:994    .text:00000000000003b8 .L0 
       src/RiscV.cpp:59     .text:00000000000003b8 .L0 
     /tmp/ccZvUt0T.s:1006   .text:00000000000003c0 .L0 
     /tmp/ccZvUt0T.s:1007   .text:00000000000003c0 .L0 
     /tmp/ccZvUt0T.s:1008   .text:00000000000003c0 .L0 
     /tmp/ccZvUt0T.s:1011   .text:00000000000003c8 .L0 
     /tmp/ccZvUt0T.s:1019   .text:00000000000003cc .L0 
GAS LISTING /tmp/ccZvUt0T.s 			page 40


     /tmp/ccZvUt0T.s:1020   .text:00000000000003cc .L0 
     /tmp/ccZvUt0T.s:1028   .text:00000000000003e4 .L0 
       src/RiscV.cpp:64     .text:00000000000003e4 .L0 
     /tmp/ccZvUt0T.s:1034   .text:00000000000003e8 .L0 
       src/RiscV.cpp:65     .text:00000000000003e8 .L0 
     /tmp/ccZvUt0T.s:1045   .text:00000000000003f0 .L0 
     /tmp/ccZvUt0T.s:1046   .text:00000000000003f0 .L0 
     /tmp/ccZvUt0T.s:1051   .text:00000000000003f4 .L0 
     /tmp/ccZvUt0T.s:1052   .text:00000000000003f4 .L0 
     /tmp/ccZvUt0T.s:1054   .text:00000000000003f8 .L0 
     /tmp/ccZvUt0T.s:1057   .text:0000000000000400 .L0 
     /tmp/ccZvUt0T.s:1058   .text:0000000000000400 .L0 
     /tmp/ccZvUt0T.s:1062   .text:000000000000040c .L0 
     /tmp/ccZvUt0T.s:1070   .text:0000000000000410 .L0 
     /tmp/ccZvUt0T.s:1071   .text:0000000000000410 .L0 
     /tmp/ccZvUt0T.s:1077   .text:0000000000000424 .L0 
       src/RiscV.cpp:70     .text:0000000000000424 .L0 
     /tmp/ccZvUt0T.s:1083   .text:0000000000000428 .L0 
       src/RiscV.cpp:71     .text:0000000000000428 .L0 
     /tmp/ccZvUt0T.s:1095   .text:0000000000000430 .L0 
     /tmp/ccZvUt0T.s:1096   .text:0000000000000430 .L0 
     /tmp/ccZvUt0T.s:1100   .text:000000000000043c .L0 
       src/RiscV.cpp:74     .text:000000000000043c .L0 
     /tmp/ccZvUt0T.s:1106   .text:0000000000000440 .L0 
       src/RiscV.cpp:75     .text:0000000000000440 .L0 
     /tmp/ccZvUt0T.s:1118   .text:0000000000000448 .L0 
     /tmp/ccZvUt0T.s:1119   .text:0000000000000448 .L0 
     /tmp/ccZvUt0T.s:1123   .text:0000000000000454 .L0 
       src/RiscV.cpp:78     .text:0000000000000454 .L0 
     /tmp/ccZvUt0T.s:1129   .text:0000000000000458 .L0 
       src/RiscV.cpp:79     .text:0000000000000458 .L0 
     /tmp/ccZvUt0T.s:1141   .text:0000000000000460 .L0 
     /tmp/ccZvUt0T.s:1142   .text:0000000000000460 .L0 
     /tmp/ccZvUt0T.s:1146   .text:000000000000046c .L0 
       src/RiscV.cpp:82     .text:000000000000046c .L0 
     /tmp/ccZvUt0T.s:1152   .text:0000000000000470 .L0 
       src/RiscV.cpp:83     .text:0000000000000470 .L0 
     /tmp/ccZvUt0T.s:1164   .text:0000000000000478 .L0 
     /tmp/ccZvUt0T.s:1165   .text:0000000000000478 .L0 
     /tmp/ccZvUt0T.s:1168   .text:0000000000000480 .L0 
       src/RiscV.cpp:86     .text:0000000000000480 .L0 
     /tmp/ccZvUt0T.s:1174   .text:0000000000000484 .L0 
       src/RiscV.cpp:87     .text:0000000000000484 .L0 
     /tmp/ccZvUt0T.s:1199   .text:000000000000048c .L0 
     /tmp/ccZvUt0T.s:1200   .text:000000000000048c .L0 
     /tmp/ccZvUt0T.s:1201   .text:000000000000048c .L0 
     /tmp/ccZvUt0T.s:1208   .text:0000000000000494 .L0 
     /tmp/ccZvUt0T.s:1212   .text:0000000000000498 .L0 
     /tmp/ccZvUt0T.s:1221   .text:0000000000000498 .L0 
     /tmp/ccZvUt0T.s:467    .text:0000000000000134 .L0 
     /tmp/ccZvUt0T.s:476    .text:0000000000000144 .L0 
     /tmp/ccZvUt0T.s:533    .text:000000000000019c .L0 
     /tmp/ccZvUt0T.s:591    .text:00000000000001f0 .L0 
     /tmp/ccZvUt0T.s:693    .text:000000000000023c .L0 
     /tmp/ccZvUt0T.s:725    .text:0000000000000258 .L0 
     /tmp/ccZvUt0T.s:873    .text:0000000000000300 .L0 
     /tmp/ccZvUt0T.s:880    .text:0000000000000314 .L0 
GAS LISTING /tmp/ccZvUt0T.s 			page 41


     /tmp/ccZvUt0T.s:974    .text:0000000000000394 .L0 
     /tmp/ccZvUt0T.s:178    .text:000000000000009c .L44
     /tmp/ccZvUt0T.s:1182   .text:000000000000048c .L45
     /tmp/ccZvUt0T.s:661    .text:0000000000000228 .L3
     /tmp/ccZvUt0T.s:417    .text:0000000000000118 .L46
     /tmp/ccZvUt0T.s:697    .text:000000000000024c .L47
     /tmp/ccZvUt0T.s:935    .text:000000000000036c .L48
     /tmp/ccZvUt0T.s:965    .text:0000000000000390 .L49
     /tmp/ccZvUt0T.s:1001   .text:00000000000003c0 .L50
     /tmp/ccZvUt0T.s:1013   .text:00000000000003cc .L51
     /tmp/ccZvUt0T.s:1042   .text:00000000000003f0 .L52
     /tmp/ccZvUt0T.s:1064   .text:0000000000000410 .L53
     /tmp/ccZvUt0T.s:1091   .text:0000000000000430 .L54
     /tmp/ccZvUt0T.s:1114   .text:0000000000000448 .L55
     /tmp/ccZvUt0T.s:1137   .text:0000000000000460 .L56
     /tmp/ccZvUt0T.s:1160   .text:0000000000000478 .L57
     /tmp/ccZvUt0T.s:628    .text:0000000000000218 .L15
     /tmp/ccZvUt0T.s:608    .text:0000000000000210 .L6
     /tmp/ccZvUt0T.s:520    .text:0000000000000194 .L39
     /tmp/ccZvUt0T.s:538    .text:00000000000001ac .L8
     /tmp/ccZvUt0T.s:528    .text:000000000000019c .L9
     /tmp/ccZvUt0T.s:470    .text:0000000000000140 .L7
     /tmp/ccZvUt0T.s:505    .text:0000000000000180 .L10
     /tmp/ccZvUt0T.s:677    .text:0000000000000238 .L12
     /tmp/ccZvUt0T.s:567    .text:00000000000001d0 .L14
     /tmp/ccZvUt0T.s:558    .text:00000000000001c4 .L13
     /tmp/ccZvUt0T.s:743    .text:0000000000000280 .L40
     /tmp/ccZvUt0T.s:747    .text:0000000000000288 .L41
     /tmp/ccZvUt0T.s:750    .text:000000000000028c .L17
     /tmp/ccZvUt0T.s:732    .text:000000000000026c .L18
     /tmp/ccZvUt0T.s:867    .text:0000000000000300 .L19
     /tmp/ccZvUt0T.s:795    .text:00000000000002b4 .L21
     /tmp/ccZvUt0T.s:877    .text:0000000000000314 .L22
     /tmp/ccZvUt0T.s:820    .text:00000000000002d4 .L24
     /tmp/ccZvUt0T.s:884    .text:0000000000000324 .L58
     /tmp/ccZvUt0T.s:840    .text:00000000000002ec .L25
     /tmp/ccZvUt0T.s:905    .text:0000000000000344 .L59
     /tmp/ccZvUt0T.s:928    .text:0000000000000364 .L60
     /tmp/ccZvUt0T.s:786    .text:00000000000002a8 .L20
     /tmp/ccZvUt0T.s:801    .text:00000000000002bc .L23
     /tmp/ccZvUt0T.s:848    .text:00000000000002f4 .L26
     /tmp/ccZvUt0T.s:2929   .debug_abbrev:0000000000000000 .Ldebug_abbrev0
     /tmp/ccZvUt0T.s:4777   .debug_str:00000000000008ef .LASF173
     /tmp/ccZvUt0T.s:4487   .debug_str:0000000000000051 .LASF174
     /tmp/ccZvUt0T.s:4567   .debug_str:00000000000002b7 .LASF175
     /tmp/ccZvUt0T.s:5      .text:0000000000000000 .Ltext0
     /tmp/ccZvUt0T.s:1215   .text:0000000000000498 .Letext0
     /tmp/ccZvUt0T.s:4475   .debug_line:0000000000000000 .Ldebug_line0
     /tmp/ccZvUt0T.s:4593   .debug_str:0000000000000372 .LASF0
     /tmp/ccZvUt0T.s:4619   .debug_str:0000000000000447 .LASF1
     /tmp/ccZvUt0T.s:4719   .debug_str:0000000000000773 .LASF2
     /tmp/ccZvUt0T.s:4727   .debug_str:00000000000007bc .LASF4
     /tmp/ccZvUt0T.s:4603   .debug_str:00000000000003b6 .LASF3
     /tmp/ccZvUt0T.s:4577   .debug_str:000000000000031a .LASF5
     /tmp/ccZvUt0T.s:4693   .debug_str:00000000000006cf .LASF6
     /tmp/ccZvUt0T.s:4609   .debug_str:00000000000003d8 .LASF7
     /tmp/ccZvUt0T.s:4565   .debug_str:00000000000002a7 .LASF8
GAS LISTING /tmp/ccZvUt0T.s 			page 42


     /tmp/ccZvUt0T.s:4573   .debug_str:00000000000002f1 .LASF9
     /tmp/ccZvUt0T.s:4507   .debug_str:00000000000000e6 .LASF10
     /tmp/ccZvUt0T.s:4555   .debug_str:000000000000025b .LASF11
     /tmp/ccZvUt0T.s:4521   .debug_str:0000000000000149 .LASF12
     /tmp/ccZvUt0T.s:4505   .debug_str:00000000000000d6 .LASF13
     /tmp/ccZvUt0T.s:4757   .debug_str:0000000000000871 .LASF14
     /tmp/ccZvUt0T.s:4545   .debug_str:0000000000000208 .LASF15
     /tmp/ccZvUt0T.s:4749   .debug_str:0000000000000840 .LASF16
     /tmp/ccZvUt0T.s:4793   .debug_str:0000000000000a30 .LASF60
     /tmp/ccZvUt0T.s:4705   .debug_str:000000000000072a .LASF176
     /tmp/ccZvUt0T.s:4625   .debug_str:0000000000000472 .LASF17
     /tmp/ccZvUt0T.s:4549   .debug_str:0000000000000234 .LASF18
     /tmp/ccZvUt0T.s:4819   .debug_str:0000000000000ace .LASF19
     /tmp/ccZvUt0T.s:4581   .debug_str:000000000000032e .LASF20
     /tmp/ccZvUt0T.s:4653   .debug_str:0000000000000565 .LASF22
     /tmp/ccZvUt0T.s:4733   .debug_str:00000000000007cf .LASF21
     /tmp/ccZvUt0T.s:4575   .debug_str:00000000000002ff .LASF23
     /tmp/ccZvUt0T.s:4595   .debug_str:000000000000037f .LASF24
     /tmp/ccZvUt0T.s:4655   .debug_str:000000000000057d .LASF25
     /tmp/ccZvUt0T.s:4797   .debug_str:0000000000000a52 .LASF26
     /tmp/ccZvUt0T.s:4825   .debug_str:0000000000000ae8 .LASF28
     /tmp/ccZvUt0T.s:4715   .debug_str:000000000000075f .LASF30
     /tmp/ccZvUt0T.s:4827   .debug_str:0000000000000afd .LASF32
     /tmp/ccZvUt0T.s:4701   .debug_str:0000000000000710 .LASF27
     /tmp/ccZvUt0T.s:4617   .debug_str:0000000000000434 .LASF29
     /tmp/ccZvUt0T.s:4665   .debug_str:00000000000005dd .LASF31
     /tmp/ccZvUt0T.s:4525   .debug_str:000000000000017b .LASF33
     /tmp/ccZvUt0T.s:4815   .debug_str:0000000000000aba .LASF34
     /tmp/ccZvUt0T.s:4639   .debug_str:00000000000004e7 .LASF35
     /tmp/ccZvUt0T.s:4661   .debug_str:00000000000005cb .LASF36
     /tmp/ccZvUt0T.s:4531   .debug_str:00000000000001a1 .LASF37
     /tmp/ccZvUt0T.s:4633   .debug_str:00000000000004bf .LASF38
     /tmp/ccZvUt0T.s:4559   .debug_str:000000000000027d .LASF39
     /tmp/ccZvUt0T.s:4841   .debug_str:0000000000000b77 .LASF40
     /tmp/ccZvUt0T.s:4839   .debug_str:0000000000000b63 .LASF41
     /tmp/ccZvUt0T.s:4753   .debug_str:000000000000085d .LASF42
     /tmp/ccZvUt0T.s:4519   .debug_str:0000000000000136 .LASF43
     /tmp/ccZvUt0T.s:4731   .debug_str:00000000000007c8 .LASF44
     /tmp/ccZvUt0T.s:4703   .debug_str:0000000000000717 .LASF45
     /tmp/ccZvUt0T.s:4539   .debug_str:00000000000001de .LASF46
     /tmp/ccZvUt0T.s:4685   .debug_str:00000000000006a3 .LASF47
     /tmp/ccZvUt0T.s:4597   .debug_str:000000000000038c .LASF48
     /tmp/ccZvUt0T.s:4623   .debug_str:0000000000000460 .LASF49
     /tmp/ccZvUt0T.s:4489   .debug_str:000000000000005f .LASF50
     /tmp/ccZvUt0T.s:4787   .debug_str:00000000000009ee .LASF51
     /tmp/ccZvUt0T.s:4717   .debug_str:0000000000000768 .LASF52
     /tmp/ccZvUt0T.s:4511   .debug_str:00000000000000fa .LASF53
     /tmp/ccZvUt0T.s:4809   .debug_str:0000000000000a99 .LASF54
     /tmp/ccZvUt0T.s:4615   .debug_str:000000000000041e .LASF55
     /tmp/ccZvUt0T.s:4807   .debug_str:0000000000000a8f .LASF56
     /tmp/ccZvUt0T.s:4547   .debug_str:000000000000021e .LASF57
     /tmp/ccZvUt0T.s:4813   .debug_str:0000000000000aab .LASF58
     /tmp/ccZvUt0T.s:4795   .debug_str:0000000000000a36 .LASF59
     /tmp/ccZvUt0T.s:4695   .debug_str:00000000000006e2 .LASF128
     /tmp/ccZvUt0T.s:4523   .debug_str:0000000000000159 .LASF130
     /tmp/ccZvUt0T.s:4629   .debug_str:0000000000000494 .LASF61
     /tmp/ccZvUt0T.s:4773   .debug_str:00000000000008df .LASF86
GAS LISTING /tmp/ccZvUt0T.s 			page 43


     /tmp/ccZvUt0T.s:4509   .debug_str:00000000000000f5 .LASF62
     /tmp/ccZvUt0T.s:4491   .debug_str:000000000000006a .LASF63
     /tmp/ccZvUt0T.s:4527   .debug_str:000000000000018e .LASF64
     /tmp/ccZvUt0T.s:4745   .debug_str:0000000000000823 .LASF65
     /tmp/ccZvUt0T.s:4515   .debug_str:0000000000000125 .LASF66
     /tmp/ccZvUt0T.s:4613   .debug_str:0000000000000419 .LASF67
     /tmp/ccZvUt0T.s:4651   .debug_str:000000000000054b .LASF68
     /tmp/ccZvUt0T.s:4721   .debug_str:0000000000000781 .LASF69
     /tmp/ccZvUt0T.s:4723   .debug_str:000000000000079e .LASF70
     /tmp/ccZvUt0T.s:4659   .debug_str:00000000000005ae .LASF71
     /tmp/ccZvUt0T.s:4817   .debug_str:0000000000000ac2 .LASF72
     /tmp/ccZvUt0T.s:4647   .debug_str:000000000000051c .LASF73
     /tmp/ccZvUt0T.s:4835   .debug_str:0000000000000b4e .LASF106
     /tmp/ccZvUt0T.s:4767   .debug_str:00000000000008ae .LASF108
     /tmp/ccZvUt0T.s:4645   .debug_str:0000000000000514 .LASF74
     /tmp/ccZvUt0T.s:4675   .debug_str:0000000000000638 .LASF76
     /tmp/ccZvUt0T.s:4543   .debug_str:00000000000001fa .LASF75
     /tmp/ccZvUt0T.s:4681   .debug_str:0000000000000677 .LASF77
     /tmp/ccZvUt0T.s:4601   .debug_str:00000000000003ac .LASF78
     /tmp/ccZvUt0T.s:4611   .debug_str:00000000000003eb .LASF79
     /tmp/ccZvUt0T.s:4761   .debug_str:0000000000000886 .LASF80
     /tmp/ccZvUt0T.s:4831   .debug_str:0000000000000b26 .LASF81
     /tmp/ccZvUt0T.s:4649   .debug_str:0000000000000541 .LASF82
     /tmp/ccZvUt0T.s:4791   .debug_str:0000000000000a0e .LASF83
     /tmp/ccZvUt0T.s:4563   .debug_str:000000000000029d .LASF84
     /tmp/ccZvUt0T.s:4765   .debug_str:000000000000089a .LASF85
     /tmp/ccZvUt0T.s:4829   .debug_str:0000000000000b12 .LASF177
     /tmp/ccZvUt0T.s:4589   .debug_str:0000000000000354 .LASF178
     /tmp/ccZvUt0T.s:4671   .debug_str:0000000000000603 .LASF179
     /tmp/ccZvUt0T.s:4667   .debug_str:00000000000005e4 .LASF87
     /tmp/ccZvUt0T.s:4837   .debug_str:0000000000000b56 .LASF88
     /tmp/ccZvUt0T.s:4571   .debug_str:00000000000002e5 .LASF89
     /tmp/ccZvUt0T.s:4499   .debug_str:0000000000000093 .LASF90
     /tmp/ccZvUt0T.s:4561   .debug_str:0000000000000291 .LASF91
     /tmp/ccZvUt0T.s:4479   .debug_str:0000000000000005 .LASF92
     /tmp/ccZvUt0T.s:4743   .debug_str:0000000000000816 .LASF93
     /tmp/ccZvUt0T.s:4747   .debug_str:000000000000082d .LASF94
     /tmp/ccZvUt0T.s:4579   .debug_str:0000000000000321 .LASF95
     /tmp/ccZvUt0T.s:4729   .debug_str:00000000000007c3 .LASF96
     /tmp/ccZvUt0T.s:4485   .debug_str:0000000000000045 .LASF97
     /tmp/ccZvUt0T.s:4755   .debug_str:0000000000000864 .LASF98
     /tmp/ccZvUt0T.s:4673   .debug_str:0000000000000613 .LASF99
     /tmp/ccZvUt0T.s:4683   .debug_str:000000000000069e .LASF180
     /tmp/ccZvUt0T.s:4709   .debug_str:0000000000000740 .LASF100
     /tmp/ccZvUt0T.s:4737   .debug_str:00000000000007ee .LASF101
     /tmp/ccZvUt0T.s:4643   .debug_str:0000000000000508 .LASF102
     /tmp/ccZvUt0T.s:4553   .debug_str:0000000000000244 .LASF103
     /tmp/ccZvUt0T.s:4707   .debug_str:0000000000000735 .LASF104
     /tmp/ccZvUt0T.s:4635   .debug_str:00000000000004c7 .LASF105
     /tmp/ccZvUt0T.s:4663   .debug_str:00000000000005d3 .LASF107
     /tmp/ccZvUt0T.s:4725   .debug_str:00000000000007a8 .LASF109
     /tmp/ccZvUt0T.s:4771   .debug_str:00000000000008d3 .LASF110
     /tmp/ccZvUt0T.s:4599   .debug_str:0000000000000392 .LASF111
     /tmp/ccZvUt0T.s:4763   .debug_str:000000000000088f .LASF112
     /tmp/ccZvUt0T.s:4657   .debug_str:0000000000000597 .LASF113
     /tmp/ccZvUt0T.s:4493   .debug_str:000000000000006f .LASF114
     /tmp/ccZvUt0T.s:4679   .debug_str:0000000000000660 .LASF115
GAS LISTING /tmp/ccZvUt0T.s 			page 44


     /tmp/ccZvUt0T.s:4621   .debug_str:000000000000045a .LASF116
     /tmp/ccZvUt0T.s:4781   .debug_str:00000000000009b8 .LASF117
     /tmp/ccZvUt0T.s:4641   .debug_str:00000000000004fb .LASF118
     /tmp/ccZvUt0T.s:4501   .debug_str:00000000000000a3 .LASF119
     /tmp/ccZvUt0T.s:4775   .debug_str:00000000000008e7 .LASF181
     /tmp/ccZvUt0T.s:4477   .debug_str:0000000000000000 .LASF120
     /tmp/ccZvUt0T.s:4833   .debug_str:0000000000000b48 .LASF121
     /tmp/ccZvUt0T.s:4789   .debug_str:0000000000000a06 .LASF122
     /tmp/ccZvUt0T.s:4759   .debug_str:000000000000087d .LASF123
     /tmp/ccZvUt0T.s:4689   .debug_str:00000000000006bd .LASF124
     /tmp/ccZvUt0T.s:4697   .debug_str:00000000000006f7 .LASF125
     /tmp/ccZvUt0T.s:4783   .debug_str:00000000000009c8 .LASF126
     /tmp/ccZvUt0T.s:4583   .debug_str:0000000000000339 .LASF127
     /tmp/ccZvUt0T.s:4497   .debug_str:0000000000000085 .LASF129
     /tmp/ccZvUt0T.s:4627   .debug_str:000000000000047b .LASF131
     /tmp/ccZvUt0T.s:4529   .debug_str:0000000000000193 .LASF132
     /tmp/ccZvUt0T.s:4483   .debug_str:000000000000001d .LASF182
     /tmp/ccZvUt0T.s:4537   .debug_str:00000000000001d5 .LASF133
     /tmp/ccZvUt0T.s:4513   .debug_str:0000000000000112 .LASF134
     /tmp/ccZvUt0T.s:4735   .debug_str:00000000000007dd .LASF135
     /tmp/ccZvUt0T.s:4821   .debug_str:0000000000000ad7 .LASF183
     /tmp/ccZvUt0T.s:4711   .debug_str:0000000000000750 .LASF136
     /tmp/ccZvUt0T.s:4713   .debug_str:0000000000000755 .LASF137
     /tmp/ccZvUt0T.s:4585   .debug_str:0000000000000347 .LASF138
     /tmp/ccZvUt0T.s:4669   .debug_str:00000000000005ec .LASF139
     /tmp/ccZvUt0T.s:4535   .debug_str:00000000000001cd .LASF140
     /tmp/ccZvUt0T.s:4801   .debug_str:0000000000000a65 .LASF141
     /tmp/ccZvUt0T.s:4605   .debug_str:00000000000003c8 .LASF142
     /tmp/ccZvUt0T.s:4503   .debug_str:00000000000000bb .LASF143
     /tmp/ccZvUt0T.s:4687   .debug_str:00000000000006b5 .LASF144
     /tmp/ccZvUt0T.s:4631   .debug_str:00000000000004a5 .LASF145
     /tmp/ccZvUt0T.s:4495   .debug_str:000000000000007b .LASF146
     /tmp/ccZvUt0T.s:4785   .debug_str:00000000000009d2 .LASF147
     /tmp/ccZvUt0T.s:4591   .debug_str:000000000000036c .LASF148
     /tmp/ccZvUt0T.s:4541   .debug_str:00000000000001e4 .LASF149
     /tmp/ccZvUt0T.s:4481   .debug_str:0000000000000015 .LASF150
     /tmp/ccZvUt0T.s:4533   .debug_str:00000000000001b5 .LASF151
     /tmp/ccZvUt0T.s:4677   .debug_str:0000000000000658 .LASF152
     /tmp/ccZvUt0T.s:46     .text:0000000000000020 .LFB50
     /tmp/ccZvUt0T.s:1213   .text:0000000000000498 .LFE50
     /tmp/ccZvUt0T.s:4805   .debug_str:0000000000000a86 .LASF153
     /tmp/ccZvUt0T.s:4823   .debug_str:0000000000000ae2 .LASF154
     /tmp/ccZvUt0T.s:4843   .debug_str:0000000000000b7f .LASF155
     /tmp/ccZvUt0T.s:4699   .debug_str:0000000000000702 .LASF156
     /tmp/ccZvUt0T.s:4799   .debug_str:0000000000000a5b .LASF157
     /tmp/ccZvUt0T.s:4031   .debug_loc:0000000000000000 .LLST0
     /tmp/ccZvUt0T.s:4557   .debug_str:000000000000026a .LASF158
     /tmp/ccZvUt0T.s:4090   .debug_loc:000000000000011a .LLST1
     /tmp/ccZvUt0T.s:4751   .debug_str:0000000000000856 .LASF159
     /tmp/ccZvUt0T.s:4098   .debug_loc:000000000000013e .LLST2
     /tmp/ccZvUt0T.s:4779   .debug_str:00000000000009b3 .LASF160
     /tmp/ccZvUt0T.s:4811   .debug_str:0000000000000aa3 .LASF161
     /tmp/ccZvUt0T.s:4421   .debug_ranges:0000000000000000 .Ldebug_ranges0
     /tmp/ccZvUt0T.s:4691   .debug_str:00000000000006c7 .LASF162
     /tmp/ccZvUt0T.s:4197   .debug_loc:00000000000002ad .LLST17
     /tmp/ccZvUt0T.s:443    .text:0000000000000124 .LBB222
     /tmp/ccZvUt0T.s:457    .text:0000000000000130 .LBE222
GAS LISTING /tmp/ccZvUt0T.s 			page 45


     /tmp/ccZvUt0T.s:4204   .debug_loc:00000000000002d0 .LLST18
     /tmp/ccZvUt0T.s:458    .text:0000000000000130 .LBB224
     /tmp/ccZvUt0T.s:4217   .debug_loc:0000000000000309 .LLST19
     /tmp/ccZvUt0T.s:4236   .debug_loc:0000000000000365 .LLST20
     /tmp/ccZvUt0T.s:4251   .debug_loc:00000000000003ae .LLST21
     /tmp/ccZvUt0T.s:4262   .debug_loc:00000000000003e4 .LLST11
     /tmp/ccZvUt0T.s:720    .text:0000000000000258 .LBB194
     /tmp/ccZvUt0T.s:4269   .debug_loc:0000000000000407 .LLST12
     /tmp/ccZvUt0T.s:4280   .debug_loc:000000000000043d .LLST13
     /tmp/ccZvUt0T.s:4309   .debug_loc:00000000000004c1 .LLST14
     /tmp/ccZvUt0T.s:804    .text:00000000000002bc .LBB196
     /tmp/ccZvUt0T.s:4316   .debug_loc:00000000000004e4 .LLST15
     /tmp/ccZvUt0T.s:825    .text:00000000000002d4 .LBB199
     /tmp/ccZvUt0T.s:4327   .debug_loc:000000000000051a .LLST16
     /tmp/ccZvUt0T.s:940    .text:000000000000036c .LBB182
     /tmp/ccZvUt0T.s:962    .text:000000000000038c .LBE182
     /tmp/ccZvUt0T.s:4739   .debug_str:0000000000000809 .LASF163
     /tmp/ccZvUt0T.s:4338   .debug_loc:0000000000000550 .LLST10
     /tmp/ccZvUt0T.s:949    .text:0000000000000384 .LVL52
     /tmp/ccZvUt0T.s:1017   .text:00000000000003cc .LBB153
     /tmp/ccZvUt0T.s:1039   .text:00000000000003ec .LBE153
     /tmp/ccZvUt0T.s:4345   .debug_loc:0000000000000573 .LLST9
     /tmp/ccZvUt0T.s:1026   .text:00000000000003e4 .LVL61
     /tmp/ccZvUt0T.s:1068   .text:0000000000000410 .LBB139
     /tmp/ccZvUt0T.s:1088   .text:000000000000042c .LBE139
     /tmp/ccZvUt0T.s:4551   .debug_str:000000000000023d .LASF164
     /tmp/ccZvUt0T.s:4352   .debug_loc:0000000000000596 .LLST7
     /tmp/ccZvUt0T.s:1075   .text:0000000000000424 .LVL66
     /tmp/ccZvUt0T.s:1093   .text:0000000000000430 .LBB134
     /tmp/ccZvUt0T.s:1111   .text:0000000000000444 .LBE134
     /tmp/ccZvUt0T.s:4359   .debug_loc:00000000000005b9 .LLST6
     /tmp/ccZvUt0T.s:1098   .text:000000000000043c .LVL68
     /tmp/ccZvUt0T.s:1116   .text:0000000000000448 .LBB130
     /tmp/ccZvUt0T.s:1134   .text:000000000000045c .LBE130
     /tmp/ccZvUt0T.s:4366   .debug_loc:00000000000005dc .LLST5
     /tmp/ccZvUt0T.s:1121   .text:0000000000000454 .LVL70
     /tmp/ccZvUt0T.s:1139   .text:0000000000000460 .LBB127
     /tmp/ccZvUt0T.s:1157   .text:0000000000000474 .LBE127
     /tmp/ccZvUt0T.s:4373   .debug_loc:00000000000005ff .LLST4
     /tmp/ccZvUt0T.s:1144   .text:000000000000046c .LVL72
     /tmp/ccZvUt0T.s:1162   .text:0000000000000478 .LBB126
     /tmp/ccZvUt0T.s:1179   .text:0000000000000488 .LBE126
     /tmp/ccZvUt0T.s:4380   .debug_loc:0000000000000622 .LLST3
     /tmp/ccZvUt0T.s:1166   .text:0000000000000480 .LVL74
     /tmp/ccZvUt0T.s:90     .text:0000000000000040 .LBB106
     /tmp/ccZvUt0T.s:107    .text:000000000000004c .LBE106
     /tmp/ccZvUt0T.s:109    .text:000000000000004c .LBB108
     /tmp/ccZvUt0T.s:122    .text:0000000000000050 .LBE108
     /tmp/ccZvUt0T.s:128    .text:0000000000000058 .LBB110
     /tmp/ccZvUt0T.s:141    .text:000000000000005c .LBE110
     /tmp/ccZvUt0T.s:1048   .text:00000000000003f4 .LBB145
     /tmp/ccZvUt0T.s:1066   .text:0000000000000410 .LBE145
     /tmp/ccZvUt0T.s:4387   .debug_loc:0000000000000645 .LLST8
     /tmp/ccZvUt0T.s:1060   .text:000000000000040c .LVL64
     /tmp/ccZvUt0T.s:1004   .text:00000000000003c0 .LBB161
     /tmp/ccZvUt0T.s:1015   .text:00000000000003cc .LBE161
     /tmp/ccZvUt0T.s:1009   .text:00000000000003c8 .LVL58
GAS LISTING /tmp/ccZvUt0T.s 			page 46


     /tmp/ccZvUt0T.s:968    .text:0000000000000390 .LBB171
     /tmp/ccZvUt0T.s:985    .text:00000000000003b0 .LBE171
     /tmp/ccZvUt0T.s:978    .text:00000000000003a8 .LVL55
     /tmp/ccZvUt0T.s:982    .text:00000000000003b0 .LVL56
     /tmp/ccZvUt0T.s:635    .text:000000000000021c .LBB252
     /tmp/ccZvUt0T.s:646    .text:0000000000000220 .LBE252
     /tmp/ccZvUt0T.s:4394   .debug_loc:0000000000000668 .LLST22
     /tmp/ccZvUt0T.s:651    .text:0000000000000224 .LBB254
     /tmp/ccZvUt0T.s:663    .text:0000000000000228 .LBE254
     /tmp/ccZvUt0T.s:4401   .debug_loc:000000000000068b .LLST23
     /tmp/ccZvUt0T.s:1197   .text:000000000000048c .LBB271
     /tmp/ccZvUt0T.s:1210   .text:0000000000000498 .LBE271
     /tmp/ccZvUt0T.s:173    .text:0000000000000098 .LVL5
     /tmp/ccZvUt0T.s:414    .text:0000000000000114 .LVL8
     /tmp/ccZvUt0T.s:4769   .debug_str:00000000000008ce .LASF165
     /tmp/ccZvUt0T.s:10     .text:0000000000000000 .LFB49
     /tmp/ccZvUt0T.s:40     .text:0000000000000020 .LFE49
     /tmp/ccZvUt0T.s:4517   .debug_str:000000000000012e .LASF166
     /tmp/ccZvUt0T.s:4607   .debug_str:00000000000003d1 .LASF167
     /tmp/ccZvUt0T.s:4741   .debug_str:0000000000000811 .LASF168
     /tmp/ccZvUt0T.s:4803   .debug_str:0000000000000a81 .LASF169
     /tmp/ccZvUt0T.s:4587   .debug_str:000000000000034d .LASF170
     /tmp/ccZvUt0T.s:4569   .debug_str:00000000000002d5 .LASF171
     /tmp/ccZvUt0T.s:4637   .debug_str:00000000000004e0 .LASF172
     /tmp/ccZvUt0T.s:150    .text:0000000000000064 .LVL3
     /tmp/ccZvUt0T.s:161    .text:0000000000000074 .LVL4
     /tmp/ccZvUt0T.s:177    .text:000000000000009c .LVL6
     /tmp/ccZvUt0T.s:416    .text:0000000000000118 .LVL9
     /tmp/ccZvUt0T.s:436    .text:000000000000011c .LVL10
     /tmp/ccZvUt0T.s:696    .text:000000000000024c .LVL33
     /tmp/ccZvUt0T.s:713    .text:0000000000000250 .LVL34
     /tmp/ccZvUt0T.s:934    .text:000000000000036c .LVL50
     /tmp/ccZvUt0T.s:964    .text:0000000000000390 .LVL53
     /tmp/ccZvUt0T.s:975    .text:000000000000039c .LVL54
     /tmp/ccZvUt0T.s:1000   .text:00000000000003c0 .LVL57
     /tmp/ccZvUt0T.s:1012   .text:00000000000003cc .LVL59
     /tmp/ccZvUt0T.s:1041   .text:00000000000003f0 .LVL62
     /tmp/ccZvUt0T.s:1047   .text:00000000000003f4 .LVL63
     /tmp/ccZvUt0T.s:1063   .text:0000000000000410 .LVL65
     /tmp/ccZvUt0T.s:1090   .text:0000000000000430 .LVL67
     /tmp/ccZvUt0T.s:1113   .text:0000000000000448 .LVL69
     /tmp/ccZvUt0T.s:1136   .text:0000000000000460 .LVL71
     /tmp/ccZvUt0T.s:1159   .text:0000000000000478 .LVL73
     /tmp/ccZvUt0T.s:105    .text:000000000000004c .LVL0
     /tmp/ccZvUt0T.s:184    .text:00000000000000a0 .LVL7
     /tmp/ccZvUt0T.s:469    .text:0000000000000140 .LVL16
     /tmp/ccZvUt0T.s:815    .text:00000000000002cc .LVL42
     /tmp/ccZvUt0T.s:866    .text:0000000000000300 .LVL46
     /tmp/ccZvUt0T.s:883    .text:0000000000000324 .LVL47
     /tmp/ccZvUt0T.s:946    .text:0000000000000378 .LVL51
     /tmp/ccZvUt0T.s:1023   .text:00000000000003d8 .LVL60
     /tmp/ccZvUt0T.s:1181   .text:000000000000048c .LVL75
     /tmp/ccZvUt0T.s:607    .text:0000000000000210 .LVL26
     /tmp/ccZvUt0T.s:626    .text:0000000000000218 .LVL27
     /tmp/ccZvUt0T.s:442    .text:0000000000000124 .LVL11
     /tmp/ccZvUt0T.s:449    .text:0000000000000128 .LVL12
     /tmp/ccZvUt0T.s:452    .text:000000000000012c .LVL13
GAS LISTING /tmp/ccZvUt0T.s 			page 47


     /tmp/ccZvUt0T.s:455    .text:0000000000000130 .LVL14
     /tmp/ccZvUt0T.s:504    .text:0000000000000180 .LVL17
     /tmp/ccZvUt0T.s:519    .text:0000000000000194 .LVL18
     /tmp/ccZvUt0T.s:534    .text:00000000000001a4 .LVL21
     /tmp/ccZvUt0T.s:537    .text:00000000000001ac .LVL22
     /tmp/ccZvUt0T.s:584    .text:00000000000001e8 .LVL25
     /tmp/ccZvUt0T.s:676    .text:0000000000000238 .LVL32
     /tmp/ccZvUt0T.s:525    .text:0000000000000198 .LVL19
     /tmp/ccZvUt0T.s:527    .text:000000000000019c .LVL20
     /tmp/ccZvUt0T.s:581    .text:00000000000001e4 .LVL24
     /tmp/ccZvUt0T.s:543    .text:00000000000001b0 .LVL23
     /tmp/ccZvUt0T.s:849    .text:00000000000002f4 .LVL45
     /tmp/ccZvUt0T.s:719    .text:0000000000000258 .LVL35
     /tmp/ccZvUt0T.s:731    .text:000000000000026c .LVL36
     /tmp/ccZvUt0T.s:737    .text:0000000000000274 .LVL37
     /tmp/ccZvUt0T.s:742    .text:0000000000000280 .LVL38
     /tmp/ccZvUt0T.s:749    .text:000000000000028c .LVL39
     /tmp/ccZvUt0T.s:803    .text:00000000000002bc .LVL41
     /tmp/ccZvUt0T.s:821    .text:00000000000002d4 .LVL43
     /tmp/ccZvUt0T.s:904    .text:0000000000000344 .LVL48
     /tmp/ccZvUt0T.s:841    .text:00000000000002ec .LVL44
     /tmp/ccZvUt0T.s:927    .text:0000000000000364 .LVL49
     /tmp/ccZvUt0T.s:634    .text:000000000000021c .LVL28
     /tmp/ccZvUt0T.s:643    .text:0000000000000220 .LVL29
     /tmp/ccZvUt0T.s:650    .text:0000000000000224 .LVL30
     /tmp/ccZvUt0T.s:659    .text:0000000000000228 .LVL31
     /tmp/ccZvUt0T.s:1222   .debug_info:0000000000000000 .Ldebug_info0
     /tmp/ccZvUt0T.s:706    .text:000000000000024c .LBB193
     /tmp/ccZvUt0T.s:760    .text:0000000000000290 .LBE193
     /tmp/ccZvUt0T.s:770    .text:0000000000000290 .LBB208
     /tmp/ccZvUt0T.s:864    .text:00000000000002fc .LBE208
     /tmp/ccZvUt0T.s:868    .text:0000000000000300 .LBB209
     /tmp/ccZvUt0T.s:938    .text:000000000000036c .LBE209
     /tmp/ccZvUt0T.s:759    .text:0000000000000290 .LBE194
     /tmp/ccZvUt0T.s:771    .text:0000000000000290 .LBB206
     /tmp/ccZvUt0T.s:851    .text:00000000000002f4 .LBE206
     /tmp/ccZvUt0T.s:869    .text:0000000000000300 .LBB207
     /tmp/ccZvUt0T.s:937    .text:000000000000036c .LBE207
     /tmp/ccZvUt0T.s:823    .text:00000000000002d4 .LBE196
     /tmp/ccZvUt0T.s:885    .text:0000000000000324 .LBB202
     /tmp/ccZvUt0T.s:907    .text:0000000000000344 .LBE202
     /tmp/ccZvUt0T.s:843    .text:00000000000002ec .LBE199
     /tmp/ccZvUt0T.s:908    .text:0000000000000344 .LBB203
     /tmp/ccZvUt0T.s:930    .text:0000000000000364 .LBE203
     /tmp/ccZvUt0T.s:429    .text:0000000000000118 .LBB221
     /tmp/ccZvUt0T.s:629    .text:0000000000000218 .LBE221
     /tmp/ccZvUt0T.s:682    .text:0000000000000238 .LBB238
     /tmp/ccZvUt0T.s:704    .text:000000000000024c .LBE238
     /tmp/ccZvUt0T.s:614    .text:0000000000000210 .LBE224
     /tmp/ccZvUt0T.s:683    .text:0000000000000238 .LBB237
     /tmp/ccZvUt0T.s:703    .text:000000000000024c .LBE237
     /tmp/ccZvUt0T.s:465    .text:0000000000000134 .LBB226
     /tmp/ccZvUt0T.s:612    .text:0000000000000210 .LBE226
     /tmp/ccZvUt0T.s:685    .text:0000000000000238 .LBB235
     /tmp/ccZvUt0T.s:701    .text:000000000000024c .LBE235
     /tmp/ccZvUt0T.s:539    .text:00000000000001ac .LBB229
     /tmp/ccZvUt0T.s:609    .text:0000000000000210 .LBE229
GAS LISTING /tmp/ccZvUt0T.s 			page 48


     /tmp/ccZvUt0T.s:688    .text:0000000000000238 .LBB230
     /tmp/ccZvUt0T.s:698    .text:000000000000024c .LBE230

UNDEFINED SYMBOLS
console_handler
__putc
_ZN16MemoryAllocation9fmem_headE
_ZN3TCB12createThreadEPFvPvEPPS_S0_b
_ZN3TCB7runningE
_ZN3TCB11setFinishedEb
_ZN3TCB8dispatchEv
_ZN9Scheduler3putEP3TCB
_ZN9semaphore7semOpenEPPS_j
_ZN9semaphore8semCloseEPS_
_ZN9semaphore7semWaitEPS_
_ZN9semaphore9semSignalEPS_
__getc
