GAS LISTING /tmp/cc96Rsgi.s 			page 1


   1              		.file	"RiscV.cpp"
   2              		.option pic
   3              		.option norelax
   4              		.text
   5              	.Ltext0:
   6              		.align	2
   7              		.globl	_ZN5RiscV10popSppSpieEv
   9              	_ZN5RiscV10popSppSpieEv:
  10              	.LFB46:
  11              		.file 1 "src/RiscV.cpp"
   1:src/RiscV.cpp **** //
   2:src/RiscV.cpp **** // Created by os on 8/14/22.
   3:src/RiscV.cpp **** //
   4:src/RiscV.cpp **** 
   5:src/RiscV.cpp **** #include "../h/RiscV.hpp"
   6:src/RiscV.cpp **** #include "../h/tcb.hpp"
   7:src/RiscV.cpp **** #include "../lib/console.h"
   8:src/RiscV.cpp **** #include "../h/MemoryAllocation.hpp"
   9:src/RiscV.cpp **** #include "../h/tcb.hpp"
  10:src/RiscV.cpp **** #include "../lib/console.h"
  11:src/RiscV.cpp **** 
  12:src/RiscV.cpp **** 
  13:src/RiscV.cpp **** void RiscV::popSppSpie() {
  12              		.loc 1 13 26
  13              		.cfi_startproc
  14 0000 130101FF 		addi	sp,sp,-16
  15              		.cfi_def_cfa_offset 16
  16 0004 23348100 		sd	s0,8(sp)
  17              		.cfi_offset 8, -8
  18 0008 13040101 		addi	s0,sp,16
  19              		.cfi_def_cfa 8, 0
  14:src/RiscV.cpp ****     __asm__ volatile ("csrw sepc, ra");
  20              		.loc 1 14 5
  21              		.loc 1 14 39 is_stmt 0
  22              	#APP
  23              	# 14 "src/RiscV.cpp" 1
  15              	    __asm__ volatile ("sret");
  24              		csrw sepc, ra
  25              	# 0 "" 2
  26              		.loc 1 15 5 is_stmt 1
  27              		.loc 1 15 30 is_stmt 0
  28              	# 15 "src/RiscV.cpp" 1
  16              	}
  29              		sret
  30              	# 0 "" 2
  31              		.loc 1 16 1
  32              	#NO_APP
  33 0014 03348100 		ld	s0,8(sp)
  34              		.cfi_restore 8
  35              		.cfi_def_cfa 2, 16
  36 0018 13010101 		addi	sp,sp,16
  37              		.cfi_def_cfa_offset 0
  38 001c 67800000 		jr	ra
  39              		.cfi_endproc
  40              	.LFE46:
  42              		.align	2
  43              		.globl	_ZN5RiscV20handleSupervisorTrapEv
GAS LISTING /tmp/cc96Rsgi.s 			page 2


  45              	_ZN5RiscV20handleSupervisorTrapEv:
  46              	.LFB47:
  17:src/RiscV.cpp **** 
  18:src/RiscV.cpp **** void RiscV::handleSupervisorTrap() {
  47              		.loc 1 18 36 is_stmt 1
  48              		.cfi_startproc
  49 0020 130101FB 		addi	sp,sp,-80
  50              		.cfi_def_cfa_offset 80
  51 0024 23341104 		sd	ra,72(sp)
  52 0028 23308104 		sd	s0,64(sp)
  53              		.cfi_offset 1, -8
  54              		.cfi_offset 8, -16
  55 002c 13040105 		addi	s0,sp,80
  56              		.cfi_def_cfa 8, 0
  19:src/RiscV.cpp ****     //class TCB;
  20:src/RiscV.cpp ****     typedef TCB* thread_t;
  57              		.loc 1 20 5
  21:src/RiscV.cpp ****     typedef semaphore* sem_t;
  58              		.loc 1 21 5
  22:src/RiscV.cpp ****     volatile uint64 size;
  59              		.loc 1 22 5
  23:src/RiscV.cpp ****     volatile uint64 handle;
  60              		.loc 1 23 5
  24:src/RiscV.cpp ****     volatile uint64 start_routine;
  61              		.loc 1 24 5
  25:src/RiscV.cpp ****     volatile uint64 arg;
  62              		.loc 1 25 5
  26:src/RiscV.cpp ****     volatile uint64 ptr;
  63              		.loc 1 26 5
  27:src/RiscV.cpp ****     __asm__ volatile("sd a3, %0" : "=m"(arg));
  64              		.loc 1 27 5
  65              		.loc 1 27 46 is_stmt 0
  66              	#APP
  67              	# 27 "src/RiscV.cpp" 1
  28              	    __asm__ volatile("sd a2, %0" : "=m"(start_routine));
  68              		sd a3, -48(s0)
  69              	# 0 "" 2
  70              		.loc 1 28 5 is_stmt 1
  71              		.loc 1 28 56 is_stmt 0
  72              	# 28 "src/RiscV.cpp" 1
  29              	    __asm__ volatile("sd a1, %0" : "=m"(handle));
  73              		sd a2, -40(s0)
  74              	# 0 "" 2
  75              		.loc 1 29 5 is_stmt 1
  76              		.loc 1 29 49 is_stmt 0
  77              	# 29 "src/RiscV.cpp" 1
  30              	    //__asm__ volatile("sd a1, %0" : "=m"(size));
  31:src/RiscV.cpp ****     //__asm__ volatile("sd a1, %0" : "=m"(ptr));
  32:src/RiscV.cpp ****     uint64 sysCallNr;
  78              		sd a1, -32(s0)
  79              	# 0 "" 2
  80              		.loc 1 32 5 is_stmt 1
  33:src/RiscV.cpp ****     int ret_value_thr_exit;
  81              		.loc 1 33 5
  34:src/RiscV.cpp ****     uint64 scause = r_scause();
  82              		.loc 1 34 5
  83              	#NO_APP
GAS LISTING /tmp/cc96Rsgi.s 			page 3


  84              	.LBB96:
  85              	.LBB97:
  86              		.file 2 "src/../h/RiscV.hpp"
   1:src/../h/RiscV.hpp **** //
   2:src/../h/RiscV.hpp **** // Created by os on 8/14/22.
   3:src/../h/RiscV.hpp **** //
   4:src/../h/RiscV.hpp **** 
   5:src/../h/RiscV.hpp **** #ifndef PROJECT_BASE_RISCV_HPP
   6:src/../h/RiscV.hpp **** #define PROJECT_BASE_RISCV_HPP
   7:src/../h/RiscV.hpp **** #include "../lib/hw.h"
   8:src/../h/RiscV.hpp **** 
   9:src/../h/RiscV.hpp **** class RiscV {
  10:src/../h/RiscV.hpp **** public:
  11:src/../h/RiscV.hpp ****     //pop sstatus.spp and sstatus.spie bits(mora da bude ne inline funkcija)
  12:src/../h/RiscV.hpp ****     static void popSppSpie();
  13:src/../h/RiscV.hpp **** 
  14:src/../h/RiscV.hpp ****     //push x3...x31 registers on stack
  15:src/../h/RiscV.hpp ****     static void pushRegisters();
  16:src/../h/RiscV.hpp **** 
  17:src/../h/RiscV.hpp ****     //pop x3...x31 registers on stack
  18:src/../h/RiscV.hpp ****     static void popRegisters();
  19:src/../h/RiscV.hpp **** 
  20:src/../h/RiscV.hpp ****     //read register scause
  21:src/../h/RiscV.hpp ****     static uint64 r_scause();
  22:src/../h/RiscV.hpp **** 
  23:src/../h/RiscV.hpp ****     //write register scause
  24:src/../h/RiscV.hpp ****     static void w_scause(uint64 scause);
  25:src/../h/RiscV.hpp **** 
  26:src/../h/RiscV.hpp ****     //read register sepc
  27:src/../h/RiscV.hpp ****     static uint64 r_sepc();
  28:src/../h/RiscV.hpp **** 
  29:src/../h/RiscV.hpp ****     //write register sepc
  30:src/../h/RiscV.hpp ****     static void w_sepc(uint64 sepc);
  31:src/../h/RiscV.hpp **** 
  32:src/../h/RiscV.hpp ****     //read register stvec
  33:src/../h/RiscV.hpp ****     static uint64 r_stvec();
  34:src/../h/RiscV.hpp **** 
  35:src/../h/RiscV.hpp ****     //write register stvec
  36:src/../h/RiscV.hpp ****     static void w_stvec(uint64 stvec);
  37:src/../h/RiscV.hpp **** 
  38:src/../h/RiscV.hpp ****     //write register stval
  39:src/../h/RiscV.hpp ****     static uint64 r_stval();
  40:src/../h/RiscV.hpp **** 
  41:src/../h/RiscV.hpp ****     //write register stval
  42:src/../h/RiscV.hpp ****     static void w_stval(uint64 stval);
  43:src/../h/RiscV.hpp **** 
  44:src/../h/RiscV.hpp ****     enum BitMaskSip{
  45:src/../h/RiscV.hpp ****         SIP_SSIP = (1 << 1),
  46:src/../h/RiscV.hpp ****         SIP_STIP = (1 << 5),
  47:src/../h/RiscV.hpp ****         SIP_SEIP = (1 << 9),
  48:src/../h/RiscV.hpp ****     };
  49:src/../h/RiscV.hpp **** 
  50:src/../h/RiscV.hpp ****     //mask set register sip
  51:src/../h/RiscV.hpp ****     static void ms_sip(uint64 mask);
  52:src/../h/RiscV.hpp **** 
  53:src/../h/RiscV.hpp ****     //mask clear register sip
  54:src/../h/RiscV.hpp ****     static void mc_sip(uint64 mask);
GAS LISTING /tmp/cc96Rsgi.s 			page 4


  55:src/../h/RiscV.hpp **** 
  56:src/../h/RiscV.hpp ****     //read register sip
  57:src/../h/RiscV.hpp ****     static uint64 r_sip();
  58:src/../h/RiscV.hpp **** 
  59:src/../h/RiscV.hpp ****     //write register sip
  60:src/../h/RiscV.hpp ****     static void w_sip(uint64 sip);
  61:src/../h/RiscV.hpp **** 
  62:src/../h/RiscV.hpp ****     enum BitMaskSstatus{
  63:src/../h/RiscV.hpp ****         SSTATUS_SIE = (1<<1),
  64:src/../h/RiscV.hpp ****         SSTATUS_SPIE = (1<<5),
  65:src/../h/RiscV.hpp ****         SSTATUS_SPP=  (1<<8),
  66:src/../h/RiscV.hpp ****     };
  67:src/../h/RiscV.hpp **** 
  68:src/../h/RiscV.hpp ****     //mask set register sstatus
  69:src/../h/RiscV.hpp ****     static void ms_sstatus(uint64 mask);
  70:src/../h/RiscV.hpp **** 
  71:src/../h/RiscV.hpp ****     //mask clear register sstatus
  72:src/../h/RiscV.hpp ****     static void mc_sstatus(uint64 mask);
  73:src/../h/RiscV.hpp **** 
  74:src/../h/RiscV.hpp ****     //read register sstatus
  75:src/../h/RiscV.hpp ****     static uint64 r_sstatus();
  76:src/../h/RiscV.hpp **** 
  77:src/../h/RiscV.hpp ****     //write register sstatus
  78:src/../h/RiscV.hpp ****     static void w_sstatus(uint64 sstatus);
  79:src/../h/RiscV.hpp **** 
  80:src/../h/RiscV.hpp ****     static void supervisorTrap();
  81:src/../h/RiscV.hpp **** 
  82:src/../h/RiscV.hpp **** private:
  83:src/../h/RiscV.hpp ****     //obradjuje trap handler
  84:src/../h/RiscV.hpp ****     static void handleSupervisorTrap();
  85:src/../h/RiscV.hpp **** };
  86:src/../h/RiscV.hpp **** 
  87:src/../h/RiscV.hpp **** inline uint64 RiscV::r_scause() {
  88:src/../h/RiscV.hpp ****     uint64 volatile scause;
  87              		.loc 2 88 5
  89:src/../h/RiscV.hpp ****     __asm__ volatile("csrr %[scause], scause" : [scause] "=r"(scause));
  88              		.loc 2 89 5
  89              		.loc 2 89 71 is_stmt 0
  90              	#APP
  91              	# 89 "src/../h/RiscV.hpp" 1
  90              	    return scause;
  92              		csrr a5, scause
  93              	# 0 "" 2
  94              	#NO_APP
  95 0040 2338F4FA 		sd	a5,-80(s0)
  96              		.loc 2 90 5 is_stmt 1
  97              		.loc 2 90 12 is_stmt 0
  98 0044 033704FB 		ld	a4,-80(s0)
  99              	.LVL0:
 100              	.LBE97:
 101              	.LBE96:
  35:src/RiscV.cpp ****     volatile uint64 sepc = r_sepc() + 4;
 102              		.loc 1 35 5 is_stmt 1
 103              	.LBB98:
 104              	.LBB99:
  91:src/../h/RiscV.hpp **** 
  92:src/../h/RiscV.hpp **** }
GAS LISTING /tmp/cc96Rsgi.s 			page 5


  93:src/../h/RiscV.hpp **** 
  94:src/../h/RiscV.hpp **** inline void RiscV::w_scause(uint64 scause){
  95:src/../h/RiscV.hpp ****     __asm__ volatile("csrw scause, %[scause]": : [scause] "r"(scause));
  96:src/../h/RiscV.hpp **** 
  97:src/../h/RiscV.hpp **** }
  98:src/../h/RiscV.hpp **** 
  99:src/../h/RiscV.hpp **** inline uint64 RiscV::r_sepc(){
 100:src/../h/RiscV.hpp ****     uint64  sepc;
 105              		.loc 2 100 5
 101:src/../h/RiscV.hpp ****     __asm__ volatile("csrr %[sepc], sepc" : [sepc] "=r"(sepc));
 106              		.loc 2 101 5
 107              		.loc 2 101 63 is_stmt 0
 108              	#APP
 109              	# 101 "src/../h/RiscV.hpp" 1
 102              	    return sepc;
 110              		csrr a5, sepc
 111              	# 0 "" 2
 112              	.LVL1:
 113              		.loc 2 102 5 is_stmt 1
 114              	#NO_APP
 115              	.LBE99:
 116              	.LBE98:
 117              		.loc 1 35 37 is_stmt 0
 118 004c 93874700 		addi	a5,a5,4
 119              		.loc 1 35 39
 120 0050 2330F4FC 		sd	a5,-64(s0)
  36:src/RiscV.cpp ****     volatile uint64 sstatus = r_sstatus();
 121              		.loc 1 36 5 is_stmt 1
 122              	.LBB100:
 123              	.LBB101:
 103:src/../h/RiscV.hpp **** }
 104:src/../h/RiscV.hpp **** 
 105:src/../h/RiscV.hpp **** inline void RiscV::w_sepc(uint64 volatile sepc){
 106:src/../h/RiscV.hpp ****     __asm__ volatile ("csrw sepc, %[sepc]": : [sepc] "r"(sepc));
 107:src/../h/RiscV.hpp **** }
 108:src/../h/RiscV.hpp **** 
 109:src/../h/RiscV.hpp **** inline uint64 RiscV::r_stvec() {
 110:src/../h/RiscV.hpp ****     uint64 volatile stvec;
 111:src/../h/RiscV.hpp ****     __asm__ volatile ("csrr %[stvec], stvec": [stvec] "=r"(stvec));
 112:src/../h/RiscV.hpp ****     return stvec;
 113:src/../h/RiscV.hpp **** }
 114:src/../h/RiscV.hpp **** 
 115:src/../h/RiscV.hpp **** inline void RiscV::w_stvec(uint64 stvec){
 116:src/../h/RiscV.hpp ****     __asm__ volatile ("csrw stvec, %[stvec]": : [stvec] "r"(stvec));
 117:src/../h/RiscV.hpp **** }
 118:src/../h/RiscV.hpp **** 
 119:src/../h/RiscV.hpp **** inline uint64 RiscV::r_stval(){
 120:src/../h/RiscV.hpp ****     uint64 volatile stval;
 121:src/../h/RiscV.hpp ****     __asm__ volatile("csrr %[stval], stval" : [stval] "=r"(stval));
 122:src/../h/RiscV.hpp ****     return stval;
 123:src/../h/RiscV.hpp **** }
 124:src/../h/RiscV.hpp **** 
 125:src/../h/RiscV.hpp **** inline void RiscV::w_stval(uint64 stval) {
 126:src/../h/RiscV.hpp ****     __asm__ volatile ("csrw stval, %[stval]": : [stval] "r"(stval));
 127:src/../h/RiscV.hpp **** }
 128:src/../h/RiscV.hpp **** 
 129:src/../h/RiscV.hpp **** inline void RiscV::ms_sip(uint64 mask){
GAS LISTING /tmp/cc96Rsgi.s 			page 6


 130:src/../h/RiscV.hpp ****     __asm__ volatile("csrs sip, %[mask]": : [mask]"r"(mask));
 131:src/../h/RiscV.hpp **** }
 132:src/../h/RiscV.hpp **** 
 133:src/../h/RiscV.hpp **** inline void RiscV::mc_sip(uint64 mask) {
 134:src/../h/RiscV.hpp ****     __asm__ volatile("csrc sip, %[mask]" : : [mask] "r"(mask));
 135:src/../h/RiscV.hpp **** }
 136:src/../h/RiscV.hpp **** 
 137:src/../h/RiscV.hpp **** inline uint64 RiscV::r_sip(){
 138:src/../h/RiscV.hpp ****     uint64 volatile sip;
 139:src/../h/RiscV.hpp ****     __asm__ volatile("csrr %[sip], sip" : [sip] "=r"(sip));
 140:src/../h/RiscV.hpp ****     return sip;
 141:src/../h/RiscV.hpp **** }
 142:src/../h/RiscV.hpp **** 
 143:src/../h/RiscV.hpp **** inline void RiscV::w_sip(uint64 sip) {
 144:src/../h/RiscV.hpp ****     __asm__ volatile("csrw sip, %[sip]": : [sip] "r"(sip));
 145:src/../h/RiscV.hpp **** }
 146:src/../h/RiscV.hpp **** 
 147:src/../h/RiscV.hpp **** inline void RiscV::ms_sstatus(uint64 mask) {
 148:src/../h/RiscV.hpp ****     __asm__ volatile ("csrs sstatus, %[mask]": : [mask] "r"(mask));
 149:src/../h/RiscV.hpp **** }
 150:src/../h/RiscV.hpp **** 
 151:src/../h/RiscV.hpp **** inline void RiscV::mc_sstatus(uint64 mask) {
 152:src/../h/RiscV.hpp ****     __asm__ volatile("csrc sstatus, %[mask]": : [mask] "r"(mask));
 153:src/../h/RiscV.hpp **** }
 154:src/../h/RiscV.hpp **** 
 155:src/../h/RiscV.hpp **** inline uint64 RiscV::r_sstatus() {
 156:src/../h/RiscV.hpp ****     uint64 sstatus;
 124              		.loc 2 156 5
 157:src/../h/RiscV.hpp ****     __asm__ volatile ("csrr %[sstatus], sstatus": [sstatus] "=r"(sstatus));
 125              		.loc 2 157 5
 126              		.loc 2 157 75 is_stmt 0
 127              	#APP
 128              	# 157 "src/../h/RiscV.hpp" 1
 158              	    return sstatus;
 129              		csrr a5, sstatus
 130              	# 0 "" 2
 131              	.LVL2:
 132              		.loc 2 158 5 is_stmt 1
 133              	#NO_APP
 134              	.LBE101:
 135              	.LBE100:
 136              		.loc 1 36 41 is_stmt 0
 137 0058 233CF4FA 		sd	a5,-72(s0)
  37:src/RiscV.cpp ****     __asm__ volatile("mv %[sysCallNr], a0" : [sysCallNr] "=r"(sysCallNr));
 138              		.loc 1 37 5 is_stmt 1
 139              		.loc 1 37 74 is_stmt 0
 140              	#APP
 141              	# 37 "src/RiscV.cpp" 1
  38              	    if (scause == 0x000000000000009UL || scause == 0x000000000000008UL){
 142              		mv a5, a0
 143              	# 0 "" 2
 144              	.LVL3:
 145              		.loc 1 38 5 is_stmt 1
 146              	#NO_APP
 147              	.LBB102:
 148              		.loc 1 38 39 is_stmt 0
 149 0060 130687FF 		addi	a2,a4,-8
GAS LISTING /tmp/cc96Rsgi.s 			page 7


 150              		.loc 1 38 5
 151 0064 93061000 		li	a3,1
 152 0068 63F8C602 		bleu	a2,a3,.L42
  39:src/RiscV.cpp ****         if (sysCallNr == 0x01UL) {
  40:src/RiscV.cpp ****             __asm__ volatile("mv %[size], a1" : [size] "=r"(size)); //promeni ovaj read, undefined 
  41:src/RiscV.cpp ****             void* pointer=MemoryAllocation::mem_alloc(MemoryAllocation::bytesToBlocks((size_t)size)
  42:src/RiscV.cpp ****             //ja sam ovde spakovao argument koji se dobije, i saljem ga nazad u funkciju posle ecal
  43:src/RiscV.cpp ****             __asm__ volatile("mv a1, %0": : [pointer] "r"(pointer) );
  44:src/RiscV.cpp ****             __asm__ volatile("sd a1, 88(s0)");
  45:src/RiscV.cpp ****         } else if (sysCallNr == 0x02UL) {
  46:src/RiscV.cpp ****             __asm__ volatile("mv %[ptr], a1" : [ptr] "=r"(ptr)); //promeni ovaj read, undefined ref
  47:src/RiscV.cpp ****             int ret=MemoryAllocation::mem_free((void*)ptr);
  48:src/RiscV.cpp ****             __asm__ volatile("mv a1, %0": : [ret] "r"(ret));
  49:src/RiscV.cpp ****             __asm__ volatile("sd a1, 88(s0)"); //zasto je ovde bas 88
  50:src/RiscV.cpp ****         }else if(sysCallNr == 0x11UL){
  51:src/RiscV.cpp ****             int ret_val=TCB::createThread((TCB::Body)start_routine, (thread_t*) handle, (void*)arg)
  52:src/RiscV.cpp ****             __asm__ volatile("mv a1, %0": : [ret_val] "r"(ret_val));
  53:src/RiscV.cpp ****             __asm__ volatile("sd a1, 88(s0)");
  54:src/RiscV.cpp ****         }else if(sysCallNr == 0x12UL){
  55:src/RiscV.cpp ****             ret_value_thr_exit=TCB::thread_exit();
  56:src/RiscV.cpp ****             __asm__ volatile("mv a1, %0": : [ret_value_thr_exit] "r"(ret_value_thr_exit) );
  57:src/RiscV.cpp ****             __asm__ volatile("sd a1, 88(s0)");
  58:src/RiscV.cpp ****         }else if(sysCallNr == 0x13UL){
  59:src/RiscV.cpp ****             TCB::thread_dispatch();
  60:src/RiscV.cpp ****         }else if(sysCallNr == 0x21UL){
  61:src/RiscV.cpp ****             int retval = semaphore::semOpen((sem_t*)handle, (unsigned)start_routine);
  62:src/RiscV.cpp ****             __asm__ volatile("mv a1, %0": : [retval] "r"(retval) );
  63:src/RiscV.cpp ****             __asm__ volatile("sd a1, 88(s0)");
  64:src/RiscV.cpp ****         }else if(sysCallNr == 0x22UL){
  65:src/RiscV.cpp ****             int retval = semaphore::semClose((sem_t)handle);
  66:src/RiscV.cpp ****             __asm__ volatile("mv a1, %0": : [retval] "r"(retval) );
  67:src/RiscV.cpp ****             __asm__ volatile("sd a1, 88(s0)");
  68:src/RiscV.cpp ****         }else if(sysCallNr == 0x23UL){
  69:src/RiscV.cpp ****             int retval = semaphore::semWait((sem_t)handle);
  70:src/RiscV.cpp ****             __asm__ volatile("mv a1, %0": : [retval] "r"(retval) );
  71:src/RiscV.cpp ****             __asm__ volatile("sd a1, 88(s0)");
  72:src/RiscV.cpp ****         }else if(sysCallNr == 0x24UL){
  73:src/RiscV.cpp ****             int retval = semaphore::semSignal((sem_t)handle);
  74:src/RiscV.cpp ****             __asm__ volatile("mv a1, %0": : [retval] "r"(retval) );
  75:src/RiscV.cpp ****             __asm__ volatile("sd a1, 88(s0)");
  76:src/RiscV.cpp ****        }else if(sysCallNr==0x41UL){
  77:src/RiscV.cpp ****             char retval = __getc();
  78:src/RiscV.cpp ****             __asm__ volatile("mv a1, %0": : [retval] "r"(retval) );
  79:src/RiscV.cpp ****             __asm__ volatile("sd a1, 88(s0)");
  80:src/RiscV.cpp ****         }else if(sysCallNr==0x42UL){
  81:src/RiscV.cpp ****             __putc((char)handle);
  82:src/RiscV.cpp ****         }
  83:src/RiscV.cpp ****         //enviroment call from s-mode
  84:src/RiscV.cpp **** 
  85:src/RiscV.cpp ****         /*TCB::timeSliceCounter = 0;
  86:src/RiscV.cpp ****         TCB::dispatch();*/
  87:src/RiscV.cpp ****         w_sstatus(sstatus);
  88:src/RiscV.cpp ****         w_sepc(sepc);
  89:src/RiscV.cpp ****     }
  90:src/RiscV.cpp ****     else if(scause == 0x8000000000000001UL){
 153              		.loc 1 90 10 is_stmt 1
 154 006c 9307F0FF 		li	a5,-1
GAS LISTING /tmp/cc96Rsgi.s 			page 8


 155              	.LVL4:
 156 0070 9397F703 		slli	a5,a5,63
 157 0074 93871700 		addi	a5,a5,1
 158 0078 630CF73A 		beq	a4,a5,.L43
  91:src/RiscV.cpp **** //          TCB::timeSliceCounter++;
  92:src/RiscV.cpp **** //          if(TCB::timeSliceCounter>= TCB::running->getTimeSlice()){
  93:src/RiscV.cpp **** //              volatile uint64 sepc = r_sepc();
  94:src/RiscV.cpp **** //              volatile uint64 sstatus = r_sstatus();
  95:src/RiscV.cpp **** //              TCB::timeSliceCounter=0;
  96:src/RiscV.cpp **** //              TCB::dispatch();
  97:src/RiscV.cpp **** //              w_sstatus(sstatus);
  98:src/RiscV.cpp **** //              w_sepc(sepc);
  99:src/RiscV.cpp **** //          }
 100:src/RiscV.cpp ****         mc_sip(SIP_SSIP);
 101:src/RiscV.cpp ****     }else if(scause==0x8000000000000009UL){
 159              		.loc 1 101 11
 160 007c 9307F0FF 		li	a5,-1
 161 0080 9397F703 		slli	a5,a5,63
 162 0084 93879700 		addi	a5,a5,9
 163 0088 6316F718 		bne	a4,a5,.L3
 102:src/RiscV.cpp ****         //supervisor external interrupt (console)
 103:src/RiscV.cpp ****         console_handler();
 164              		.loc 1 103 9
 165              		.loc 1 103 24 is_stmt 0
 166 008c 97000000 		call	console_handler@plt
 166      E7800000 
 167              	.LVL5:
 168              	.LBE102:
 104:src/RiscV.cpp ****     }else {
 105:src/RiscV.cpp ****         //unexpected trap cause
 106:src/RiscV.cpp ****         //print (scause)
 107:src/RiscV.cpp ****         //print sepc
 108:src/RiscV.cpp ****         //print sval
 109:src/RiscV.cpp **** 
 110:src/RiscV.cpp ****     }
 111:src/RiscV.cpp **** }...
 169              		.loc 1 111 1
 170 0094 6F000018 		j	.L3
 171              	.LVL6:
 172              	.L42:
 173              	.LBB233:
 174              	.LBB103:
  39:src/RiscV.cpp ****         if (sysCallNr == 0x01UL) {
 175              		.loc 1 39 9 is_stmt 1
 176              	.LBB104:
 177 0098 13071000 		li	a4,1
 178              	.LVL7:
 179 009c 6384E706 		beq	a5,a4,.L44
 180              	.LBE104:
 181              	.LBE103:
 182              	.LBE233:
  45:src/RiscV.cpp ****         } else if (sysCallNr == 0x02UL) {
 183              		.loc 1 45 16
 184              	.LBB234:
 185              	.LBB220:
 186              	.LBB205:
 187              	.LBB105:
GAS LISTING /tmp/cc96Rsgi.s 			page 9


 188 00a0 13072000 		li	a4,2
 189 00a4 638AE718 		beq	a5,a4,.L45
 190              	.LBE105:
 191              	.LBE205:
 192              	.LBE220:
 193              	.LBE234:
  50:src/RiscV.cpp ****         }else if(sysCallNr == 0x11UL){
 194              		.loc 1 50 15
 195              	.LBB235:
 196              	.LBB221:
 197              	.LBB206:
 198              	.LBB177:
 199              	.LBB106:
 200 00a8 13071001 		li	a4,17
 201 00ac 6386E72A 		beq	a5,a4,.L46
 202              	.LBE106:
 203              	.LBE177:
 204              	.LBE206:
 205              	.LBE221:
 206              	.LBE235:
  54:src/RiscV.cpp ****         }else if(sysCallNr == 0x12UL){
 207              		.loc 1 54 15
 208              	.LBB236:
 209              	.LBB222:
 210              	.LBB207:
 211              	.LBB178:
 212              	.LBB152:
 213              	.LBB107:
 214 00b0 13072001 		li	a4,18
 215 00b4 6382E72C 		beq	a5,a4,.L47
 216              	.LBE107:
 217              	.LBE152:
 218              	.LBE178:
 219              	.LBE207:
 220              	.LBE222:
 221              	.LBE236:
  58:src/RiscV.cpp ****         }else if(sysCallNr == 0x13UL){
 222              		.loc 1 58 15
 223              	.LBB237:
 224              	.LBB223:
 225              	.LBB208:
 226              	.LBB179:
 227              	.LBB153:
 228              	.LBB144:
 229              	.LBB108:
 230 00b8 13073001 		li	a4,19
 231 00bc 6386E72E 		beq	a5,a4,.L48
 232              	.LBE108:
 233              	.LBE144:
 234              	.LBE153:
 235              	.LBE179:
 236              	.LBE208:
 237              	.LBE223:
 238              	.LBE237:
  60:src/RiscV.cpp ****         }else if(sysCallNr == 0x21UL){
 239              		.loc 1 60 15
 240              	.LBB238:
GAS LISTING /tmp/cc96Rsgi.s 			page 10


 241              	.LBB224:
 242              	.LBB209:
 243              	.LBB180:
 244              	.LBB154:
 245              	.LBB145:
 246              	.LBB136:
 247              	.LBB109:
 248 00c0 13071002 		li	a4,33
 249 00c4 6388E72E 		beq	a5,a4,.L49
 250              	.LBE109:
 251              	.LBE136:
 252              	.LBE145:
 253              	.LBE154:
 254              	.LBE180:
 255              	.LBE209:
 256              	.LBE224:
 257              	.LBE238:
  64:src/RiscV.cpp ****         }else if(sysCallNr == 0x22UL){
 258              		.loc 1 64 15
 259              	.LBB239:
 260              	.LBB225:
 261              	.LBB210:
 262              	.LBB181:
 263              	.LBB155:
 264              	.LBB146:
 265              	.LBB137:
 266              	.LBB129:
 267              	.LBB110:
 268 00c8 13072002 		li	a4,34
 269 00cc 6384E730 		beq	a5,a4,.L50
 270              	.LBE110:
 271              	.LBE129:
 272              	.LBE137:
 273              	.LBE146:
 274              	.LBE155:
 275              	.LBE181:
 276              	.LBE210:
 277              	.LBE225:
 278              	.LBE239:
  68:src/RiscV.cpp ****         }else if(sysCallNr == 0x23UL){
 279              		.loc 1 68 15
 280              	.LBB240:
 281              	.LBB226:
 282              	.LBB211:
 283              	.LBB182:
 284              	.LBB156:
 285              	.LBB147:
 286              	.LBB138:
 287              	.LBB130:
 288              	.LBB124:
 289              	.LBB111:
 290 00d0 13073002 		li	a4,35
 291 00d4 638CE730 		beq	a5,a4,.L51
 292              	.LBE111:
 293              	.LBE124:
 294              	.LBE130:
 295              	.LBE138:
GAS LISTING /tmp/cc96Rsgi.s 			page 11


 296              	.LBE147:
 297              	.LBE156:
 298              	.LBE182:
 299              	.LBE211:
 300              	.LBE226:
 301              	.LBE240:
  72:src/RiscV.cpp ****         }else if(sysCallNr == 0x24UL){
 302              		.loc 1 72 15
 303              	.LBB241:
 304              	.LBB227:
 305              	.LBB212:
 306              	.LBB183:
 307              	.LBB157:
 308              	.LBB148:
 309              	.LBB139:
 310              	.LBB131:
 311              	.LBB125:
 312              	.LBB120:
 313              	.LBB112:
 314 00d8 13074002 		li	a4,36
 315 00dc 6384E732 		beq	a5,a4,.L52
 316              	.LBE112:
 317              	.LBE120:
 318              	.LBE125:
 319              	.LBE131:
 320              	.LBE139:
 321              	.LBE148:
 322              	.LBE157:
 323              	.LBE183:
 324              	.LBE212:
 325              	.LBE227:
 326              	.LBE241:
  76:src/RiscV.cpp ****        }else if(sysCallNr==0x41UL){
 327              		.loc 1 76 14
 328              	.LBB242:
 329              	.LBB228:
 330              	.LBB213:
 331              	.LBB184:
 332              	.LBB158:
 333              	.LBB149:
 334              	.LBB140:
 335              	.LBB132:
 336              	.LBB126:
 337              	.LBB121:
 338              	.LBB117:
 339              	.LBB113:
 340 00e0 13071004 		li	a4,65
 341 00e4 638CE732 		beq	a5,a4,.L53
  80:src/RiscV.cpp ****         }else if(sysCallNr==0x42UL){
 342              		.loc 1 80 15
 343 00e8 13072004 		li	a4,66
 344 00ec 639CE710 		bne	a5,a4,.L15
  81:src/RiscV.cpp ****             __putc((char)handle);
 345              		.loc 1 81 13
  81:src/RiscV.cpp ****             __putc((char)handle);
 346              		.loc 1 81 19 is_stmt 0
 347 00f0 033504FE 		ld	a0,-32(s0)
GAS LISTING /tmp/cc96Rsgi.s 			page 12


 348 00f4 1375F50F 		andi	a0,a0,0xff
 349 00f8 97000000 		call	__putc@plt
 349      E7800000 
 350              	.LVL8:
 351 0100 6F004010 		j	.L15
 352              	.LVL9:
 353              	.L44:
 354              	.LBE113:
 355              	.LBE117:
 356              	.LBE121:
 357              	.LBE126:
 358              	.LBE132:
 359              	.LBE140:
 360              	.LBE149:
 361              	.LBE158:
 362              	.LBE184:
 363              	.LBB185:
  40:src/RiscV.cpp ****             __asm__ volatile("mv %[size], a1" : [size] "=r"(size)); //promeni ovaj read, undefined 
 364              		.loc 1 40 13 is_stmt 1
  40:src/RiscV.cpp ****             __asm__ volatile("mv %[size], a1" : [size] "=r"(size)); //promeni ovaj read, undefined 
 365              		.loc 1 40 67 is_stmt 0
 366              	#APP
 367              	# 40 "src/RiscV.cpp" 1
 368              		mv a5, a1
 369              	# 0 "" 2
 370              	.LVL10:
 371              	#NO_APP
 372 0108 2334F4FE 		sd	a5,-24(s0)
  41:src/RiscV.cpp ****             void* pointer=MemoryAllocation::mem_alloc(MemoryAllocation::bytesToBlocks((size_t)size)
 373              		.loc 1 41 13 is_stmt 1
  41:src/RiscV.cpp ****             void* pointer=MemoryAllocation::mem_alloc(MemoryAllocation::bytesToBlocks((size_t)size)
 374              		.loc 1 41 86 is_stmt 0
 375 010c 833784FE 		ld	a5,-24(s0)
 376              	.LVL11:
 377              	.LBB186:
 378              	.LBB187:
 379              		.file 3 "src/../h/../h/../h/MemoryAllocation.hpp"
   1:src/../h/../h/../h/MemoryAllocation.hpp **** #include "../lib/hw.h"
   2:src/../h/../h/../h/MemoryAllocation.hpp **** 
   3:src/../h/../h/../h/MemoryAllocation.hpp **** 
   4:src/../h/../h/../h/MemoryAllocation.hpp **** #ifndef PROJECT_BASE_MEMORYALLOCATION_HPP
   5:src/../h/../h/../h/MemoryAllocation.hpp **** #define PROJECT_BASE_MEMORYALLOCATION_HPP
   6:src/../h/../h/../h/MemoryAllocation.hpp **** 
   7:src/../h/../h/../h/MemoryAllocation.hpp **** 
   8:src/../h/../h/../h/MemoryAllocation.hpp **** class MemoryAllocation {
   9:src/../h/../h/../h/MemoryAllocation.hpp **** 
  10:src/../h/../h/../h/MemoryAllocation.hpp ****     //===========================DEFINICIJA SINGLETON KLASE POCETAK=======================k
  11:src/../h/../h/../h/MemoryAllocation.hpp **** private:
  12:src/../h/../h/../h/MemoryAllocation.hpp **** 
  13:src/../h/../h/../h/MemoryAllocation.hpp ****     struct FreeMem {
  14:src/../h/../h/../h/MemoryAllocation.hpp ****         FreeMem *next;
  15:src/../h/../h/../h/MemoryAllocation.hpp ****         FreeMem *prev;
  16:src/../h/../h/../h/MemoryAllocation.hpp ****         size_t size;
  17:src/../h/../h/../h/MemoryAllocation.hpp ****     };
  18:src/../h/../h/../h/MemoryAllocation.hpp **** 
  19:src/../h/../h/../h/MemoryAllocation.hpp **** 
  20:src/../h/../h/../h/MemoryAllocation.hpp ****     static FreeMem *fmem_head; //koja pocetna vrednost?
GAS LISTING /tmp/cc96Rsgi.s 			page 13


  21:src/../h/../h/../h/MemoryAllocation.hpp **** 
  22:src/../h/../h/../h/MemoryAllocation.hpp **** 
  23:src/../h/../h/../h/MemoryAllocation.hpp **** 
  24:src/../h/../h/../h/MemoryAllocation.hpp ****     static MemoryAllocation *instance;
  25:src/../h/../h/../h/MemoryAllocation.hpp ****     int data;
  26:src/../h/../h/../h/MemoryAllocation.hpp **** 
  27:src/../h/../h/../h/MemoryAllocation.hpp **** 
  28:src/../h/../h/../h/MemoryAllocation.hpp ****     MemoryAllocation() { //OVO SE SADA NIGGDE
  29:src/../h/../h/../h/MemoryAllocation.hpp ****         fmem_head->size = (size_t) ((char *) HEAP_END_ADDR -
  30:src/../h/../h/../h/MemoryAllocation.hpp ****                                     (char *) HEAP_START_ADDR); //da li smem ovo da castujem u size_
  31:src/../h/../h/../h/MemoryAllocation.hpp ****         fmem_head->next = nullptr;
  32:src/../h/../h/../h/MemoryAllocation.hpp ****         fmem_head->prev = nullptr;
  33:src/../h/../h/../h/MemoryAllocation.hpp ****         data = 0;
  34:src/../h/../h/../h/MemoryAllocation.hpp ****     }
  35:src/../h/../h/../h/MemoryAllocation.hpp **** 
  36:src/../h/../h/../h/MemoryAllocation.hpp ****     MemoryAllocation(MemoryAllocation const &);
  37:src/../h/../h/../h/MemoryAllocation.hpp **** 
  38:src/../h/../h/../h/MemoryAllocation.hpp ****     void operator=(MemoryAllocation const &);
  39:src/../h/../h/../h/MemoryAllocation.hpp **** 
  40:src/../h/../h/../h/MemoryAllocation.hpp **** public:
  41:src/../h/../h/../h/MemoryAllocation.hpp **** 
  42:src/../h/../h/../h/MemoryAllocation.hpp **** 
  43:src/../h/../h/../h/MemoryAllocation.hpp ****     static MemoryAllocation *getInstance() {
  44:src/../h/../h/../h/MemoryAllocation.hpp ****         if (!instance) {
  45:src/../h/../h/../h/MemoryAllocation.hpp ****             fmem_head =  (FreeMem*) HEAP_START_ADDR;
  46:src/../h/../h/../h/MemoryAllocation.hpp ****             fmem_head->size = (size_t) ((char *) HEAP_END_ADDR -
  47:src/../h/../h/../h/MemoryAllocation.hpp ****                                         (char *) HEAP_START_ADDR); //da li smem ovo da castujem u s
  48:src/../h/../h/../h/MemoryAllocation.hpp ****             fmem_head->next = nullptr;
  49:src/../h/../h/../h/MemoryAllocation.hpp ****             fmem_head->prev = nullptr;
  50:src/../h/../h/../h/MemoryAllocation.hpp ****             static MemoryAllocation* instance;
  51:src/../h/../h/../h/MemoryAllocation.hpp ****             return instance;
  52:src/../h/../h/../h/MemoryAllocation.hpp ****         }
  53:src/../h/../h/../h/MemoryAllocation.hpp ****         return instance;
  54:src/../h/../h/../h/MemoryAllocation.hpp ****     }
  55:src/../h/../h/../h/MemoryAllocation.hpp **** 
  56:src/../h/../h/../h/MemoryAllocation.hpp **** 
  57:src/../h/../h/../h/MemoryAllocation.hpp ****     int getData() {
  58:src/../h/../h/../h/MemoryAllocation.hpp ****         return this->data;
  59:src/../h/../h/../h/MemoryAllocation.hpp ****     }
  60:src/../h/../h/../h/MemoryAllocation.hpp **** 
  61:src/../h/../h/../h/MemoryAllocation.hpp ****     void setData(int data) {
  62:src/../h/../h/../h/MemoryAllocation.hpp ****         this->data = data;
  63:src/../h/../h/../h/MemoryAllocation.hpp ****     }
  64:src/../h/../h/../h/MemoryAllocation.hpp **** 
  65:src/../h/../h/../h/MemoryAllocation.hpp ****     /*MemoryAllocation(MemoryAllocation const&) = delete;
  66:src/../h/../h/../h/MemoryAllocation.hpp ****     void operator=(MemoryAllocation const&)  = delete;*/
  67:src/../h/../h/../h/MemoryAllocation.hpp **** //===========================DEFINICIJA SINGLETON KLASE KRAJ========================
  68:src/../h/../h/../h/MemoryAllocation.hpp ****     static int bytesToBlocks(size_t size){
  69:src/../h/../h/../h/MemoryAllocation.hpp ****         return (size+sizeof(FreeMem)+MEM_BLOCK_SIZE-1)/MEM_BLOCK_SIZE;
 380              		.loc 3 69 9 is_stmt 1
 381              		.loc 3 69 52 is_stmt 0
 382 0110 93877705 		addi	a5,a5,87
 383              	.LVL12:
 384              		.loc 3 69 55
 385 0114 93D76700 		srli	a5,a5,6
 386              	.LVL13:
 387              		.loc 3 69 56
GAS LISTING /tmp/cc96Rsgi.s 			page 14


 388 0118 9B870700 		sext.w	a5,a5
 389              	.LVL14:
 390              	.LBE187:
 391              	.LBE186:
 392              	.LBB188:
 393              	.LBB189:
  70:src/../h/../h/../h/MemoryAllocation.hpp ****     }
  71:src/../h/../h/../h/MemoryAllocation.hpp **** 
  72:src/../h/../h/../h/MemoryAllocation.hpp **** 
  73:src/../h/../h/../h/MemoryAllocation.hpp **** //===========================METODE ZA ALOKACIJU MEMORIJE===========================
  74:src/../h/../h/../h/MemoryAllocation.hpp ****     static void tryToJoin (FreeMem* curr) {
  75:src/../h/../h/../h/MemoryAllocation.hpp ****         if (!curr) return;
  76:src/../h/../h/../h/MemoryAllocation.hpp ****         if (curr->next && (char*)curr+curr->size == (char*)(curr->next)) {
  77:src/../h/../h/../h/MemoryAllocation.hpp ****         // Remove the cur->next segment:
  78:src/../h/../h/../h/MemoryAllocation.hpp ****             curr->size += curr->next->size;
  79:src/../h/../h/../h/MemoryAllocation.hpp ****             curr->next = curr->next->next;
  80:src/../h/../h/../h/MemoryAllocation.hpp ****             if (curr->next) curr->next->prev = curr;
  81:src/../h/../h/../h/MemoryAllocation.hpp ****             return;
  82:src/../h/../h/../h/MemoryAllocation.hpp ****         }
  83:src/../h/../h/../h/MemoryAllocation.hpp **** 
  84:src/../h/../h/../h/MemoryAllocation.hpp ****     }
  85:src/../h/../h/../h/MemoryAllocation.hpp **** 
  86:src/../h/../h/../h/MemoryAllocation.hpp ****     //===================================== mem_free, ali sa ptr ===============
  87:src/../h/../h/../h/MemoryAllocation.hpp ****         static int mem_free(void* ptr) { //radi i kada posaljem sa &
  88:src/../h/../h/../h/MemoryAllocation.hpp ****         FreeMem* cur=0;
  89:src/../h/../h/../h/MemoryAllocation.hpp ****         if(!fmem_head || ptr < (char*)fmem_head)
  90:src/../h/../h/../h/MemoryAllocation.hpp ****         {
  91:src/../h/../h/../h/MemoryAllocation.hpp ****             cur=nullptr;
  92:src/../h/../h/../h/MemoryAllocation.hpp ****         }else {
  93:src/../h/../h/../h/MemoryAllocation.hpp ****                 for (cur=fmem_head; cur->next!=ptr && ptr>(char*)(cur->next); cur=cur->next); //moz
  94:src/../h/../h/../h/MemoryAllocation.hpp ****             }
  95:src/../h/../h/../h/MemoryAllocation.hpp ****                 FreeMem* newSeg = (FreeMem*)ptr;
  96:src/../h/../h/../h/MemoryAllocation.hpp ****                 newSeg->next=nullptr;
  97:src/../h/../h/../h/MemoryAllocation.hpp ****                 newSeg->prev=nullptr;
  98:src/../h/../h/../h/MemoryAllocation.hpp ****                 newSeg->size=bytesToBlocks(sizeof(ptr))*MEM_BLOCK_SIZE;
  99:src/../h/../h/../h/MemoryAllocation.hpp ****                         //sizeof(ptr);
 100:src/../h/../h/../h/MemoryAllocation.hpp ****                 newSeg->prev=cur;
 101:src/../h/../h/../h/MemoryAllocation.hpp ****                 if(cur) {
 102:src/../h/../h/../h/MemoryAllocation.hpp ****                     newSeg->next = cur->next;
 103:src/../h/../h/../h/MemoryAllocation.hpp ****                 }
 104:src/../h/../h/../h/MemoryAllocation.hpp ****                 else {
 105:src/../h/../h/../h/MemoryAllocation.hpp ****                     newSeg->next = fmem_head;
 106:src/../h/../h/../h/MemoryAllocation.hpp ****                 }
 107:src/../h/../h/../h/MemoryAllocation.hpp ****                 if(newSeg->next) {
 108:src/../h/../h/../h/MemoryAllocation.hpp ****                     newSeg->next->prev=newSeg;
 109:src/../h/../h/../h/MemoryAllocation.hpp ****                 }
 110:src/../h/../h/../h/MemoryAllocation.hpp ****                 if (cur) {
 111:src/../h/../h/../h/MemoryAllocation.hpp ****                     cur->next = newSeg; //zasto ovde odjednom uzme vrednost x8000 umesto x8000f...?
 112:src/../h/../h/../h/MemoryAllocation.hpp ****                 }
 113:src/../h/../h/../h/MemoryAllocation.hpp ****                 else {
 114:src/../h/../h/../h/MemoryAllocation.hpp ****                     fmem_head = newSeg;
 115:src/../h/../h/../h/MemoryAllocation.hpp ****                 }
 116:src/../h/../h/../h/MemoryAllocation.hpp ****                 // Try to merge with the previous and next segments:
 117:src/../h/../h/../h/MemoryAllocation.hpp ****             tryToJoin(newSeg);
 118:src/../h/../h/../h/MemoryAllocation.hpp ****             tryToJoin(cur);
 119:src/../h/../h/../h/MemoryAllocation.hpp ****             //mozda da fmem_head nije jednako starom fmem_headu?
 120:src/../h/../h/../h/MemoryAllocation.hpp ****             if(newSeg==nullptr){
GAS LISTING /tmp/cc96Rsgi.s 			page 15


 121:src/../h/../h/../h/MemoryAllocation.hpp ****                 return -1;
 122:src/../h/../h/../h/MemoryAllocation.hpp ****             }else{return 0;}
 123:src/../h/../h/../h/MemoryAllocation.hpp **** 
 124:src/../h/../h/../h/MemoryAllocation.hpp **** 
 125:src/../h/../h/../h/MemoryAllocation.hpp ****     }
 126:src/../h/../h/../h/MemoryAllocation.hpp ****     //===================================== kraj probe ==========================
 127:src/../h/../h/../h/MemoryAllocation.hpp **** 
 128:src/../h/../h/../h/MemoryAllocation.hpp **** 
 129:src/../h/../h/../h/MemoryAllocation.hpp **** 
 130:src/../h/../h/../h/MemoryAllocation.hpp ****     /*int mem_free(char* addr, size_t size) {
 131:src/../h/../h/../h/MemoryAllocation.hpp ****         // Find the place where to insert the new free segment (just after cur):
 132:src/../h/../h/../h/MemoryAllocation.hpp ****         FreeMem* cur=0;
 133:src/../h/../h/../h/MemoryAllocation.hpp ****         if (!fmem_head || addr<(char*)fmem_head)
 134:src/../h/../h/../h/MemoryAllocation.hpp ****             cur = 0; // insert as the first
 135:src/../h/../h/../h/MemoryAllocation.hpp ****         else
 136:src/../h/../h/../h/MemoryAllocation.hpp ****             for (cur=fmem_head; cur->next!=0 && addr>(char*)(cur->next);
 137:src/../h/../h/../h/MemoryAllocation.hpp ****                  cur=cur->next);
 138:src/../h/../h/../h/MemoryAllocation.hpp ****             // Insert the new segment after cur:
 139:src/../h/../h/../h/MemoryAllocation.hpp ****         FreeMem* newSeg = (FreeMem*)addr;
 140:src/../h/../h/../h/MemoryAllocation.hpp ****         newSeg->size = size;
 141:src/../h/../h/../h/MemoryAllocation.hpp ****         newSeg->prev = cur;
 142:src/../h/../h/../h/MemoryAllocation.hpp ****         if (cur) newSeg->next = cur->next;
 143:src/../h/../h/../h/MemoryAllocation.hpp ****         else newSeg->next = fmem_head;
 144:src/../h/../h/../h/MemoryAllocation.hpp ****         if (newSeg->next) newSeg->next->prev = newSeg;
 145:src/../h/../h/../h/MemoryAllocation.hpp ****         if (cur) cur->next = newSeg;
 146:src/../h/../h/../h/MemoryAllocation.hpp ****         else fmem_head = newSeg;
 147:src/../h/../h/../h/MemoryAllocation.hpp ****             // Try to merge with the previous and next segments:
 148:src/../h/../h/../h/MemoryAllocation.hpp ****         tryToJoin(newSeg);
 149:src/../h/../h/../h/MemoryAllocation.hpp ****         tryToJoin(cur);
 150:src/../h/../h/../h/MemoryAllocation.hpp ****     }*/
 151:src/../h/../h/../h/MemoryAllocation.hpp **** 
 152:src/../h/../h/../h/MemoryAllocation.hpp ****     static void* mem_alloc(size_t size) {//uopste ne radi, iako u lotsofsmallmallocs pise da radi
 153:src/../h/../h/../h/MemoryAllocation.hpp ****         //size_t x=sizeof(fmem_head);
 154:src/../h/../h/../h/MemoryAllocation.hpp ****         //pozovi ovde samo bytes to blocks od size, da ne moras to da radis iz maina
 155:src/../h/../h/../h/MemoryAllocation.hpp ****         size=(size)*(size_t)MEM_BLOCK_SIZE; //kada je ovo ukljuceno, pravi problem u memfree, so il
 394              		.loc 3 155 9 is_stmt 1
 395              		.loc 3 155 13 is_stmt 0
 396 011c 93976700 		slli	a5,a5,6
 397              	.LVL15:
 156:src/../h/../h/../h/MemoryAllocation.hpp ****         for (FreeMem* cur = fmem_head; cur != nullptr; cur=cur->next){ // U DRUGOJ ITERACIJI FMEM_H
 398              		.loc 3 156 9 is_stmt 1
 399              	.LBB190:
 400              		.loc 3 156 23 is_stmt 0
 401 0120 17070000 		la	a4,_ZN16MemoryAllocation9fmem_headE
 401      03370700 
 402 0128 03370700 		ld	a4,0(a4)
 403              	.LVL16:
 404              	.L7:
 405              		.loc 3 156 44 is_stmt 1
 406 012c 6308070C 		beqz	a4,.L6
 407              	.LBB191:
 157:src/../h/../h/../h/MemoryAllocation.hpp ****             cur->next=fmem_head->next;
 408              		.loc 3 157 13
 409              		.loc 3 157 34 is_stmt 0
 410 0130 97060000 		la	a3,_ZN16MemoryAllocation9fmem_headE
 410      83B60600 
 411 0138 03B60600 		ld	a2,0(a3)
GAS LISTING /tmp/cc96Rsgi.s 			page 16


 412 013c 03360600 		ld	a2,0(a2)
 413              		.loc 3 157 22
 414 0140 2330C700 		sd	a2,0(a4)
 158:src/../h/../h/../h/MemoryAllocation.hpp ****             cur->prev=fmem_head->prev;
 415              		.loc 3 158 13 is_stmt 1
 416              		.loc 3 158 34 is_stmt 0
 417 0144 83B60600 		ld	a3,0(a3)
 418 0148 83B58600 		ld	a1,8(a3)
 419              		.loc 3 158 22
 420 014c 2334B700 		sd	a1,8(a4)
 159:src/../h/../h/../h/MemoryAllocation.hpp ****             if (cur->size<size) continue;
 421              		.loc 3 159 13 is_stmt 1
 422              		.loc 3 159 22 is_stmt 0
 423 0150 83360701 		ld	a3,16(a4)
 424              		.loc 3 159 13
 425 0154 63E6F602 		bgtu	a5,a3,.L37
 160:src/../h/../h/../h/MemoryAllocation.hpp ****             if (cur->size-size<=sizeof(FreeMem)){
 426              		.loc 3 160 13 is_stmt 1
 427              	.LBB192:
 428              		.loc 3 160 26 is_stmt 0
 429 0158 B386F640 		sub	a3,a3,a5
 430              		.loc 3 160 13
 431 015c 13058001 		li	a0,24
 432 0160 636CD502 		bgtu	a3,a0,.L8
 161:src/../h/../h/../h/MemoryAllocation.hpp ****                 if (cur->prev) cur->prev->next = cur->next;
 433              		.loc 3 161 17 is_stmt 1
 434 0164 63820502 		beqz	a1,.L9
 435              		.loc 3 161 32
 436              		.loc 3 161 48 is_stmt 0
 437 0168 23B0C500 		sd	a2,0(a1)
 438              	.LVL17:
 439              	.L10:
 162:src/../h/../h/../h/MemoryAllocation.hpp ****                 else fmem_head = cur->next;
 163:src/../h/../h/../h/MemoryAllocation.hpp ****                 if (cur->next) cur->next->prev = cur->prev;
 440              		.loc 3 163 17 is_stmt 1
 441              		.loc 3 163 26 is_stmt 0
 442 016c 83370700 		ld	a5,0(a4)
 443              		.loc 3 163 17
 444 0170 63860708 		beqz	a5,.L6
 445              		.loc 3 163 32 is_stmt 1
 446              		.loc 3 163 55 is_stmt 0
 447 0174 83368700 		ld	a3,8(a4)
 448              		.loc 3 163 48
 449 0178 23B4D700 		sd	a3,8(a5)
 164:src/../h/../h/../h/MemoryAllocation.hpp ****                 return cur;
 450              		.loc 3 164 17 is_stmt 1
 451              		.loc 3 164 24 is_stmt 0
 452 017c 6F000008 		j	.L6
 453              	.LVL18:
 454              	.L37:
 455              	.LBE192:
 456              	.LBE191:
 156:src/../h/../h/../h/MemoryAllocation.hpp ****             cur->next=fmem_head->next;
 457              		.loc 3 156 59
 458 0180 13070600 		mv	a4,a2
 459              	.LVL19:
 460 0184 6FF09FFA 		j	.L7
GAS LISTING /tmp/cc96Rsgi.s 			page 17


 461              	.LVL20:
 462              	.L9:
 463              	.LBB197:
 464              	.LBB195:
 162:src/../h/../h/../h/MemoryAllocation.hpp ****                 else fmem_head = cur->next;
 465              		.loc 3 162 22 is_stmt 1
 162:src/../h/../h/../h/MemoryAllocation.hpp ****                 else fmem_head = cur->next;
 466              		.loc 3 162 32 is_stmt 0
 467 0188 97070000 		la	a5,_ZN16MemoryAllocation9fmem_headE
 467      83B70700 
 468              	.LVL21:
 469 0190 23B0C700 		sd	a2,0(a5)
 470 0194 6FF09FFD 		j	.L10
 471              	.LVL22:
 472              	.L8:
 473              	.LBB193:
 165:src/../h/../h/../h/MemoryAllocation.hpp ****             }else {
 166:src/../h/../h/../h/MemoryAllocation.hpp ****                 FreeMem* newfrgm = (FreeMem*)((char*)cur+size);
 474              		.loc 3 166 17 is_stmt 1
 475              		.loc 3 166 26 is_stmt 0
 476 0198 B306F700 		add	a3,a4,a5
 477              	.LVL23:
 167:src/../h/../h/../h/MemoryAllocation.hpp ****                 newfrgm->prev=nullptr;
 478              		.loc 3 167 17 is_stmt 1
 479              		.loc 3 167 30 is_stmt 0
 480 019c 23B40600 		sd	zero,8(a3)
 168:src/../h/../h/../h/MemoryAllocation.hpp ****                 newfrgm->next=nullptr;
 481              		.loc 3 168 17 is_stmt 1
 482              		.loc 3 168 30 is_stmt 0
 483 01a0 23B00600 		sd	zero,0(a3)
 169:src/../h/../h/../h/MemoryAllocation.hpp ****                 //newfrgm->size=cur->size-size;// DODATO TOKOM PROBE NITI
 170:src/../h/../h/../h/MemoryAllocation.hpp ****                 if (cur && cur->prev) cur->prev->next = newfrgm;
 484              		.loc 3 170 17 is_stmt 1
 485              		.loc 3 170 33 is_stmt 0
 486 01a4 03368700 		ld	a2,8(a4)
 487              		.loc 3 170 25
 488 01a8 630E0606 		beqz	a2,.L12
 489              		.loc 3 170 39 is_stmt 1
 490              		.loc 3 170 55 is_stmt 0
 491 01ac 2330D600 		sd	a3,0(a2)
 492              	.L13:
 171:src/../h/../h/../h/MemoryAllocation.hpp ****                 else fmem_head = newfrgm+sizeof(fmem_head); // ovo sam dodao sizeof da bi mi radio 
 172:src/../h/../h/../h/MemoryAllocation.hpp ****                 if (cur && cur->next) cur->next->prev = newfrgm;
 493              		.loc 3 172 17 is_stmt 1
 494              		.loc 3 172 33 is_stmt 0
 495 01b0 03360700 		ld	a2,0(a4)
 496              		.loc 3 172 25
 497 01b4 63040600 		beqz	a2,.L14
 498              		.loc 3 172 39 is_stmt 1
 499              		.loc 3 172 55 is_stmt 0
 500 01b8 2334D600 		sd	a3,8(a2)
 501              	.L14:
 173:src/../h/../h/../h/MemoryAllocation.hpp ****                 newfrgm->prev = cur->prev;
 502              		.loc 3 173 17 is_stmt 1
 503              		.loc 3 173 38 is_stmt 0
 504 01bc 03368700 		ld	a2,8(a4)
 505              		.loc 3 173 31
GAS LISTING /tmp/cc96Rsgi.s 			page 18


 506 01c0 23B4C600 		sd	a2,8(a3)
 174:src/../h/../h/../h/MemoryAllocation.hpp ****                 newfrgm->next = cur->next;
 507              		.loc 3 174 17 is_stmt 1
 508              		.loc 3 174 38 is_stmt 0
 509 01c4 83350700 		ld	a1,0(a4)
 510              		.loc 3 174 31
 511 01c8 23B0B600 		sd	a1,0(a3)
 175:src/../h/../h/../h/MemoryAllocation.hpp ****                 newfrgm->size = cur->size-size;
 512              		.loc 3 175 17 is_stmt 1
 513              		.loc 3 175 38 is_stmt 0
 514 01cc 03370701 		ld	a4,16(a4)
 515              	.LVL24:
 516              		.loc 3 175 42
 517 01d0 B307F740 		sub	a5,a4,a5
 518              	.LVL25:
 519              		.loc 3 175 31
 520 01d4 23B8F600 		sd	a5,16(a3)
 176:src/../h/../h/../h/MemoryAllocation.hpp ****                 fmem_head =newfrgm+sizeof(fmem_head);
 521              		.loc 3 176 17 is_stmt 1
 522              		.loc 3 176 35 is_stmt 0
 523 01d8 1387060C 		addi	a4,a3,192
 524              		.loc 3 176 27
 525 01dc 97050000 		la	a1,_ZN16MemoryAllocation9fmem_headE
 525      83B50500 
 526 01e4 23B0E500 		sd	a4,0(a1)
 177:src/../h/../h/../h/MemoryAllocation.hpp ****                 fmem_head->next=newfrgm->next;
 527              		.loc 3 177 17 is_stmt 1
 528              		.loc 3 177 42 is_stmt 0
 529 01e8 83B50600 		ld	a1,0(a3)
 530              		.loc 3 177 32
 531 01ec 23B0B60C 		sd	a1,192(a3)
 178:src/../h/../h/../h/MemoryAllocation.hpp ****                 fmem_head->prev=newfrgm->prev;
 532              		.loc 3 178 17 is_stmt 1
 533              		.loc 3 178 32 is_stmt 0
 534 01f0 23B4C60C 		sd	a2,200(a3)
 179:src/../h/../h/../h/MemoryAllocation.hpp ****                 fmem_head->size=newfrgm->size;
 535              		.loc 3 179 17 is_stmt 1
 536              		.loc 3 179 32 is_stmt 0
 537 01f4 23B8F60C 		sd	a5,208(a3)
 180:src/../h/../h/../h/MemoryAllocation.hpp ****                 //fmem_head = (FreeMem*) (char*)newfrgm;
 181:src/../h/../h/../h/MemoryAllocation.hpp ****                 return newfrgm;
 538              		.loc 3 181 17 is_stmt 1
 539              		.loc 3 181 24 is_stmt 0
 540 01f8 13870600 		mv	a4,a3
 541              	.LVL26:
 542              	.L6:
 543              	.LBE193:
 544              	.LBE195:
 545              	.LBE197:
 546              	.LBE190:
 547              	.LBE189:
 548              	.LBE188:
  43:src/RiscV.cpp ****             __asm__ volatile("mv a1, %0": : [pointer] "r"(pointer) );
 549              		.loc 1 43 13 is_stmt 1
  43:src/RiscV.cpp ****             __asm__ volatile("mv a1, %0": : [pointer] "r"(pointer) );
 550              		.loc 1 43 69 is_stmt 0
 551              	#APP
GAS LISTING /tmp/cc96Rsgi.s 			page 19


 552              	# 43 "src/RiscV.cpp" 1
  44:src/RiscV.cpp ****             __asm__ volatile("sd a1, 88(s0)");
 553              		mv a1, a4
 554              	# 0 "" 2
 555              		.loc 1 44 13 is_stmt 1
  44:src/RiscV.cpp ****             __asm__ volatile("sd a1, 88(s0)");
 556              		.loc 1 44 46 is_stmt 0
 557              	# 44 "src/RiscV.cpp" 1
 558              		sd a1, 88(s0)
 559              	# 0 "" 2
 560              	.LVL27:
 561              	#NO_APP
 562              	.L15:
 563              	.LBE185:
 564              	.LBE213:
  87:src/RiscV.cpp ****         w_sstatus(sstatus);
 565              		.loc 1 87 9 is_stmt 1
  87:src/RiscV.cpp ****         w_sstatus(sstatus);
 566              		.loc 1 87 18 is_stmt 0
 567 0204 833784FB 		ld	a5,-72(s0)
 568              	.LVL28:
 569              	.LBB214:
 570              	.LBB215:
 159:src/../h/RiscV.hpp **** }
 160:src/../h/RiscV.hpp **** 
 161:src/../h/RiscV.hpp **** inline void RiscV::w_sstatus(uint64 volatile sstatus) {
 162:src/../h/RiscV.hpp ****     __asm__ volatile("csrw sstatus, %[sstatus]": : [sstatus] "r"(sstatus));
 571              		.loc 2 162 5 is_stmt 1
 572              		.loc 2 162 75 is_stmt 0
 573              	#APP
 574              	# 162 "src/../h/RiscV.hpp" 1
 163              	}
 575              		csrw sstatus, a5
 576              	# 0 "" 2
 577              	.LVL29:
 578              	#NO_APP
 579              	.LBE215:
 580              	.LBE214:
  88:src/RiscV.cpp ****         w_sepc(sepc);
 581              		.loc 1 88 9 is_stmt 1
  88:src/RiscV.cpp ****         w_sepc(sepc);
 582              		.loc 1 88 15 is_stmt 0
 583 020c 833704FC 		ld	a5,-64(s0)
 584              	.LVL30:
 585              	.LBB216:
 586              	.LBB217:
 106:src/../h/RiscV.hpp **** }
 587              		.loc 2 106 5 is_stmt 1
 106:src/../h/RiscV.hpp **** }
 588              		.loc 2 106 64 is_stmt 0
 589              	#APP
 590              	# 106 "src/../h/RiscV.hpp" 1
 591              		csrw sepc, a5
 592              	# 0 "" 2
 593              	.LVL31:
 594              	#NO_APP
 595              	.L3:
GAS LISTING /tmp/cc96Rsgi.s 			page 20


 596              	.LBE217:
 597              	.LBE216:
 598              	.LBE228:
 599              	.LBE242:
 600              		.loc 1 111 1
 601 0214 83308104 		ld	ra,72(sp)
 602              		.cfi_remember_state
 603              		.cfi_restore 1
 604 0218 03340104 		ld	s0,64(sp)
 605              		.cfi_restore 8
 606              		.cfi_def_cfa 2, 80
 607 021c 13010105 		addi	sp,sp,80
 608              		.cfi_def_cfa_offset 0
 609 0220 67800000 		jr	ra
 610              	.LVL32:
 611              	.L12:
 612              		.cfi_restore_state
 613              	.LBB243:
 614              	.LBB229:
 615              	.LBB218:
 616              	.LBB202:
 617              	.LBB201:
 618              	.LBB200:
 619              	.LBB199:
 620              	.LBB198:
 621              	.LBB196:
 622              	.LBB194:
 171:src/../h/../h/../h/MemoryAllocation.hpp ****                 if (cur && cur->next) cur->next->prev = newfrgm;
 623              		.loc 3 171 22 is_stmt 1
 171:src/../h/../h/../h/MemoryAllocation.hpp ****                 if (cur && cur->next) cur->next->prev = newfrgm;
 624              		.loc 3 171 41 is_stmt 0
 625 0224 1386060C 		addi	a2,a3,192
 171:src/../h/../h/../h/MemoryAllocation.hpp ****                 if (cur && cur->next) cur->next->prev = newfrgm;
 626              		.loc 3 171 32
 627 0228 97050000 		la	a1,_ZN16MemoryAllocation9fmem_headE
 627      83B50500 
 628 0230 23B0C500 		sd	a2,0(a1)
 629 0234 6FF0DFF7 		j	.L13
 630              	.LVL33:
 631              	.L45:
 632              	.LBE194:
 633              	.LBE196:
 634              	.LBE198:
 635              	.LBE199:
 636              	.LBE200:
 637              	.LBE201:
 638              	.LBE202:
 639              	.LBB203:
 640              	.LBB159:
  46:src/RiscV.cpp ****             __asm__ volatile("mv %[ptr], a1" : [ptr] "=r"(ptr)); //promeni ovaj read, undefined ref
 641              		.loc 1 46 13 is_stmt 1
  46:src/RiscV.cpp ****             __asm__ volatile("mv %[ptr], a1" : [ptr] "=r"(ptr)); //promeni ovaj read, undefined ref
 642              		.loc 1 46 64 is_stmt 0
 643              	#APP
 644              	# 46 "src/RiscV.cpp" 1
 645              		mv a5, a1
 646              	# 0 "" 2
GAS LISTING /tmp/cc96Rsgi.s 			page 21


 647              	.LVL34:
 648              	#NO_APP
 649 023c 2334F4FC 		sd	a5,-56(s0)
  47:src/RiscV.cpp ****             int ret=MemoryAllocation::mem_free((void*)ptr);
 650              		.loc 1 47 13 is_stmt 1
  47:src/RiscV.cpp ****             int ret=MemoryAllocation::mem_free((void*)ptr);
 651              		.loc 1 47 47 is_stmt 0
 652 0240 033784FC 		ld	a4,-56(s0)
 653              	.LVL35:
 654              	.LBB160:
 655              	.LBB161:
  88:src/../h/../h/../h/MemoryAllocation.hpp ****         if(!fmem_head || ptr < (char*)fmem_head)
 656              		.loc 3 88 9 is_stmt 1
  89:src/../h/../h/../h/MemoryAllocation.hpp ****         {
 657              		.loc 3 89 9
  89:src/../h/../h/../h/MemoryAllocation.hpp ****         {
 658              		.loc 3 89 12 is_stmt 0
 659 0244 97070000 		la	a5,_ZN16MemoryAllocation9fmem_headE
 659      83B70700 
 660 024c 83B70700 		ld	a5,0(a5)
  89:src/../h/../h/../h/MemoryAllocation.hpp ****         {
 661              		.loc 3 89 9
 662 0250 638E0700 		beqz	a5,.L38
  89:src/../h/../h/../h/MemoryAllocation.hpp ****         {
 663              		.loc 3 89 23
 664 0254 6360F702 		bltu	a4,a5,.L39
 665              	.LVL36:
 666              	.L18:
  93:src/../h/../h/../h/MemoryAllocation.hpp ****             }
 667              		.loc 3 93 52 is_stmt 1
 668 0258 93860700 		mv	a3,a5
  93:src/../h/../h/../h/MemoryAllocation.hpp ****             }
 669              		.loc 3 93 42 is_stmt 0
 670 025c 83B70700 		ld	a5,0(a5)
 671              	.LVL37:
  93:src/../h/../h/../h/MemoryAllocation.hpp ****             }
 672              		.loc 3 93 52
 673 0260 630CF700 		beq	a4,a5,.L17
 674 0264 E3EAE7FE 		bgtu	a4,a5,.L18
 675 0268 6F000001 		j	.L17
 676              	.LVL38:
 677              	.L38:
  91:src/../h/../h/../h/MemoryAllocation.hpp ****         }else {
 678              		.loc 3 91 16
 679 026c 93860700 		mv	a3,a5
 680 0270 6F008000 		j	.L17
 681              	.L39:
 682 0274 93060000 		li	a3,0
 683              	.LVL39:
 684              	.L17:
  95:src/../h/../h/../h/MemoryAllocation.hpp ****                 newSeg->next=nullptr;
 685              		.loc 3 95 17 is_stmt 1
  96:src/../h/../h/../h/MemoryAllocation.hpp ****                 newSeg->prev=nullptr;
 686              		.loc 3 96 17
  96:src/../h/../h/../h/MemoryAllocation.hpp ****                 newSeg->prev=nullptr;
 687              		.loc 3 96 29 is_stmt 0
 688 0278 23300700 		sd	zero,0(a4)
GAS LISTING /tmp/cc96Rsgi.s 			page 22


  97:src/../h/../h/../h/MemoryAllocation.hpp ****                 newSeg->size=bytesToBlocks(sizeof(ptr))*MEM_BLOCK_SIZE;
 689              		.loc 3 97 17 is_stmt 1
  98:src/../h/../h/../h/MemoryAllocation.hpp ****                         //sizeof(ptr);
 690              		.loc 3 98 17
 691              	.LVL40:
 692              	.LBE161:
 693              	.LBE160:
 694              	.LBE159:
 695              	.LBE203:
 696              	.LBE218:
 697              	.LBE229:
 698              	.LBE243:
  69:src/../h/../h/../h/MemoryAllocation.hpp ****     }
 699              		.loc 3 69 9
 700              	.LBB244:
 701              	.LBB230:
 702              	.LBB219:
 703              	.LBB204:
 704              	.LBB174:
 705              	.LBB172:
 706              	.LBB170:
  98:src/../h/../h/../h/MemoryAllocation.hpp ****                         //sizeof(ptr);
 707              		.loc 3 98 29 is_stmt 0
 708 027c 93070004 		li	a5,64
 709 0280 2338F700 		sd	a5,16(a4)
 100:src/../h/../h/../h/MemoryAllocation.hpp ****                 if(cur) {
 710              		.loc 3 100 17 is_stmt 1
 100:src/../h/../h/../h/MemoryAllocation.hpp ****                 if(cur) {
 711              		.loc 3 100 29 is_stmt 0
 712 0284 2334D700 		sd	a3,8(a4)
 101:src/../h/../h/../h/MemoryAllocation.hpp ****                     newSeg->next = cur->next;
 713              		.loc 3 101 17 is_stmt 1
 714 0288 63820606 		beqz	a3,.L19
 102:src/../h/../h/../h/MemoryAllocation.hpp ****                 }
 715              		.loc 3 102 21
 102:src/../h/../h/../h/MemoryAllocation.hpp ****                 }
 716              		.loc 3 102 41 is_stmt 0
 717 028c 83B70600 		ld	a5,0(a3)
 102:src/../h/../h/../h/MemoryAllocation.hpp ****                 }
 718              		.loc 3 102 34
 719 0290 2330F700 		sd	a5,0(a4)
 720              	.L20:
 107:src/../h/../h/../h/MemoryAllocation.hpp ****                     newSeg->next->prev=newSeg;
 721              		.loc 3 107 17 is_stmt 1
 107:src/../h/../h/../h/MemoryAllocation.hpp ****                     newSeg->next->prev=newSeg;
 722              		.loc 3 107 28 is_stmt 0
 723 0294 83370700 		ld	a5,0(a4)
 107:src/../h/../h/../h/MemoryAllocation.hpp ****                     newSeg->next->prev=newSeg;
 724              		.loc 3 107 17
 725 0298 63840700 		beqz	a5,.L21
 108:src/../h/../h/../h/MemoryAllocation.hpp ****                 }
 726              		.loc 3 108 21 is_stmt 1
 108:src/../h/../h/../h/MemoryAllocation.hpp ****                 }
 727              		.loc 3 108 39 is_stmt 0
 728 029c 23B4E700 		sd	a4,8(a5)
 729              	.L21:
 110:src/../h/../h/../h/MemoryAllocation.hpp ****                     cur->next = newSeg; //zasto ovde odjednom uzme vrednost x8000 umesto x8000f...?
GAS LISTING /tmp/cc96Rsgi.s 			page 23


 730              		.loc 3 110 17 is_stmt 1
 731 02a0 63800606 		beqz	a3,.L22
 111:src/../h/../h/../h/MemoryAllocation.hpp ****                 }
 732              		.loc 3 111 21
 111:src/../h/../h/../h/MemoryAllocation.hpp ****                 }
 733              		.loc 3 111 31 is_stmt 0
 734 02a4 23B0E600 		sd	a4,0(a3)
 735              	.L23:
 117:src/../h/../h/../h/MemoryAllocation.hpp ****             tryToJoin(cur);
 736              		.loc 3 117 13 is_stmt 1
 737              	.LVL41:
 738              	.LBB162:
 739              	.LBB163:
  75:src/../h/../h/../h/MemoryAllocation.hpp ****         if (curr->next && (char*)curr+curr->size == (char*)(curr->next)) {
 740              		.loc 3 75 9
 741 02a8 630C0700 		beqz	a4,.L24
  76:src/../h/../h/../h/MemoryAllocation.hpp ****         // Remove the cur->next segment:
 742              		.loc 3 76 9
  76:src/../h/../h/../h/MemoryAllocation.hpp ****         // Remove the cur->next segment:
 743              		.loc 3 76 19 is_stmt 0
 744 02ac 83370700 		ld	a5,0(a4)
  76:src/../h/../h/../h/MemoryAllocation.hpp ****         // Remove the cur->next segment:
 745              		.loc 3 76 9
 746 02b0 63880700 		beqz	a5,.L24
  76:src/../h/../h/../h/MemoryAllocation.hpp ****         // Remove the cur->next segment:
 747              		.loc 3 76 45
 748 02b4 03360701 		ld	a2,16(a4)
 749              	.LVL42:
  76:src/../h/../h/../h/MemoryAllocation.hpp ****         // Remove the cur->next segment:
 750              		.loc 3 76 38
 751 02b8 B305C700 		add	a1,a4,a2
  76:src/../h/../h/../h/MemoryAllocation.hpp ****         // Remove the cur->next segment:
 752              		.loc 3 76 24
 753 02bc 638AB704 		beq	a5,a1,.L54
 754              	.L24:
 755              	.LVL43:
 756              	.LBE163:
 757              	.LBE162:
 118:src/../h/../h/../h/MemoryAllocation.hpp ****             //mozda da fmem_head nije jednako starom fmem_headu?
 758              		.loc 3 118 13 is_stmt 1
 759              	.LBB165:
 760              	.LBB166:
  75:src/../h/../h/../h/MemoryAllocation.hpp ****         if (curr->next && (char*)curr+curr->size == (char*)(curr->next)) {
 761              		.loc 3 75 9
 762 02c0 638C0600 		beqz	a3,.L25
  76:src/../h/../h/../h/MemoryAllocation.hpp ****         // Remove the cur->next segment:
 763              		.loc 3 76 9
  76:src/../h/../h/../h/MemoryAllocation.hpp ****         // Remove the cur->next segment:
 764              		.loc 3 76 19 is_stmt 0
 765 02c4 83B70600 		ld	a5,0(a3)
  76:src/../h/../h/../h/MemoryAllocation.hpp ****         // Remove the cur->next segment:
 766              		.loc 3 76 9
 767 02c8 63880700 		beqz	a5,.L25
  76:src/../h/../h/../h/MemoryAllocation.hpp ****         // Remove the cur->next segment:
 768              		.loc 3 76 45
 769 02cc 03B60601 		ld	a2,16(a3)
  76:src/../h/../h/../h/MemoryAllocation.hpp ****         // Remove the cur->next segment:
GAS LISTING /tmp/cc96Rsgi.s 			page 24


 770              		.loc 3 76 38
 771 02d0 B385C600 		add	a1,a3,a2
  76:src/../h/../h/../h/MemoryAllocation.hpp ****         // Remove the cur->next segment:
 772              		.loc 3 76 24
 773 02d4 638EB704 		beq	a5,a1,.L55
 774              	.L25:
 775              	.LVL44:
 776              	.LBE166:
 777              	.LBE165:
 120:src/../h/../h/../h/MemoryAllocation.hpp ****                 return -1;
 778              		.loc 3 120 13 is_stmt 1
 779 02d8 630C0706 		beqz	a4,.L56
 122:src/../h/../h/../h/MemoryAllocation.hpp **** 
 780              		.loc 3 122 26 is_stmt 0
 781 02dc 93070000 		li	a5,0
 782              	.L26:
 783              	.LVL45:
 784              	.LBE170:
 785              	.LBE172:
  48:src/RiscV.cpp ****             __asm__ volatile("mv a1, %0": : [ret] "r"(ret));
 786              		.loc 1 48 13 is_stmt 1
  48:src/RiscV.cpp ****             __asm__ volatile("mv a1, %0": : [ret] "r"(ret));
 787              		.loc 1 48 60 is_stmt 0
 788              	#APP
 789              	# 48 "src/RiscV.cpp" 1
  49:src/RiscV.cpp ****             __asm__ volatile("sd a1, 88(s0)"); //zasto je ovde bas 88
 790              		mv a1, a5
 791              	# 0 "" 2
 792              		.loc 1 49 13 is_stmt 1
  49:src/RiscV.cpp ****             __asm__ volatile("sd a1, 88(s0)"); //zasto je ovde bas 88
 793              		.loc 1 49 46 is_stmt 0
 794              	# 49 "src/RiscV.cpp" 1
 795              		sd a1, 88(s0)
 796              	# 0 "" 2
 797              	#NO_APP
 798              	.LBE174:
 799 02e8 6FF0DFF1 		j	.L15
 800              	.LVL46:
 801              	.L19:
 802              	.LBB175:
 803              	.LBB173:
 804              	.LBB171:
 105:src/../h/../h/../h/MemoryAllocation.hpp ****                 }
 805              		.loc 3 105 21 is_stmt 1
 105:src/../h/../h/../h/MemoryAllocation.hpp ****                 }
 806              		.loc 3 105 34 is_stmt 0
 807 02ec 97070000 		la	a5,_ZN16MemoryAllocation9fmem_headE
 807      83B70700 
 808 02f4 83B70700 		ld	a5,0(a5)
 809 02f8 2330F700 		sd	a5,0(a4)
 810 02fc 6FF09FF9 		j	.L20
 811              	.L22:
 114:src/../h/../h/../h/MemoryAllocation.hpp ****                 }
 812              		.loc 3 114 21 is_stmt 1
 114:src/../h/../h/../h/MemoryAllocation.hpp ****                 }
 813              		.loc 3 114 31 is_stmt 0
 814 0300 97070000 		la	a5,_ZN16MemoryAllocation9fmem_headE
GAS LISTING /tmp/cc96Rsgi.s 			page 25


 814      83B70700 
 815 0308 23B0E700 		sd	a4,0(a5)
 816 030c 6FF0DFF9 		j	.L23
 817              	.LVL47:
 818              	.L54:
 819              	.LBB168:
 820              	.LBB164:
  78:src/../h/../h/../h/MemoryAllocation.hpp ****             curr->next = curr->next->next;
 821              		.loc 3 78 13 is_stmt 1
  78:src/../h/../h/../h/MemoryAllocation.hpp ****             curr->next = curr->next->next;
 822              		.loc 3 78 39 is_stmt 0
 823 0310 83B50701 		ld	a1,16(a5)
  78:src/../h/../h/../h/MemoryAllocation.hpp ****             curr->next = curr->next->next;
 824              		.loc 3 78 24
 825 0314 3306B600 		add	a2,a2,a1
 826 0318 2338C700 		sd	a2,16(a4)
  79:src/../h/../h/../h/MemoryAllocation.hpp ****             if (curr->next) curr->next->prev = curr;
 827              		.loc 3 79 13 is_stmt 1
  79:src/../h/../h/../h/MemoryAllocation.hpp ****             if (curr->next) curr->next->prev = curr;
 828              		.loc 3 79 38 is_stmt 0
 829 031c 83B70700 		ld	a5,0(a5)
  79:src/../h/../h/../h/MemoryAllocation.hpp ****             if (curr->next) curr->next->prev = curr;
 830              		.loc 3 79 24
 831 0320 2330F700 		sd	a5,0(a4)
  80:src/../h/../h/../h/MemoryAllocation.hpp ****             return;
 832              		.loc 3 80 13 is_stmt 1
 833 0324 E38E07F8 		beqz	a5,.L24
  80:src/../h/../h/../h/MemoryAllocation.hpp ****             return;
 834              		.loc 3 80 29
  80:src/../h/../h/../h/MemoryAllocation.hpp ****             return;
 835              		.loc 3 80 46 is_stmt 0
 836 0328 23B4E700 		sd	a4,8(a5)
 837 032c 6FF05FF9 		j	.L24
 838              	.LVL48:
 839              	.L55:
 840              	.LBE164:
 841              	.LBE168:
 842              	.LBB169:
 843              	.LBB167:
  78:src/../h/../h/../h/MemoryAllocation.hpp ****             curr->next = curr->next->next;
 844              		.loc 3 78 13 is_stmt 1
  78:src/../h/../h/../h/MemoryAllocation.hpp ****             curr->next = curr->next->next;
 845              		.loc 3 78 39 is_stmt 0
 846 0330 83B50701 		ld	a1,16(a5)
  78:src/../h/../h/../h/MemoryAllocation.hpp ****             curr->next = curr->next->next;
 847              		.loc 3 78 24
 848 0334 3306B600 		add	a2,a2,a1
 849 0338 23B8C600 		sd	a2,16(a3)
  79:src/../h/../h/../h/MemoryAllocation.hpp ****             if (curr->next) curr->next->prev = curr;
 850              		.loc 3 79 13 is_stmt 1
  79:src/../h/../h/../h/MemoryAllocation.hpp ****             if (curr->next) curr->next->prev = curr;
 851              		.loc 3 79 38 is_stmt 0
 852 033c 83B70700 		ld	a5,0(a5)
  79:src/../h/../h/../h/MemoryAllocation.hpp ****             if (curr->next) curr->next->prev = curr;
 853              		.loc 3 79 24
 854 0340 23B0F600 		sd	a5,0(a3)
  80:src/../h/../h/../h/MemoryAllocation.hpp ****             return;
GAS LISTING /tmp/cc96Rsgi.s 			page 26


 855              		.loc 3 80 13 is_stmt 1
 856 0344 E38A07F8 		beqz	a5,.L25
  80:src/../h/../h/../h/MemoryAllocation.hpp ****             return;
 857              		.loc 3 80 29
  80:src/../h/../h/../h/MemoryAllocation.hpp ****             return;
 858              		.loc 3 80 46 is_stmt 0
 859 0348 23B4D700 		sd	a3,8(a5)
 860 034c 6FF0DFF8 		j	.L25
 861              	.LVL49:
 862              	.L56:
 863              	.LBE167:
 864              	.LBE169:
 121:src/../h/../h/../h/MemoryAllocation.hpp ****             }else{return 0;}
 865              		.loc 3 121 25
 866 0350 9307F0FF 		li	a5,-1
 867 0354 6FF0DFF8 		j	.L26
 868              	.LVL50:
 869              	.L46:
 870              	.LBE171:
 871              	.LBE173:
 872              	.LBE175:
 873              	.LBB176:
 874              	.LBB150:
  51:src/RiscV.cpp ****             int ret_val=TCB::createThread((TCB::Body)start_routine, (thread_t*) handle, (void*)arg)
 875              		.loc 1 51 13 is_stmt 1
  51:src/RiscV.cpp ****             int ret_val=TCB::createThread((TCB::Body)start_routine, (thread_t*) handle, (void*)arg)
 876              		.loc 1 51 42 is_stmt 0
 877 0358 033584FD 		ld	a0,-40(s0)
 878 035c 833504FE 		ld	a1,-32(s0)
 879 0360 033604FD 		ld	a2,-48(s0)
 880              	.LVL51:
 881 0364 97000000 		call	_ZN3TCB12createThreadEPFvPvEPPS_S0_@plt
 881      E7800000 
 882              	.LVL52:
  52:src/RiscV.cpp ****             __asm__ volatile("mv a1, %0": : [ret_val] "r"(ret_val));
 883              		.loc 1 52 13 is_stmt 1
  52:src/RiscV.cpp ****             __asm__ volatile("mv a1, %0": : [ret_val] "r"(ret_val));
 884              		.loc 1 52 68 is_stmt 0
 885              	#APP
 886              	# 52 "src/RiscV.cpp" 1
  53:src/RiscV.cpp ****             __asm__ volatile("sd a1, 88(s0)");
 887              		mv a1, a0
 888              	# 0 "" 2
 889              		.loc 1 53 13 is_stmt 1
  53:src/RiscV.cpp ****             __asm__ volatile("sd a1, 88(s0)");
 890              		.loc 1 53 46 is_stmt 0
 891              	# 53 "src/RiscV.cpp" 1
 892              		sd a1, 88(s0)
 893              	# 0 "" 2
 894              	#NO_APP
 895              	.LBE150:
 896 0374 6FF01FE9 		j	.L15
 897              	.LVL53:
 898              	.L47:
 899              	.LBB151:
  55:src/RiscV.cpp ****             ret_value_thr_exit=TCB::thread_exit();
 900              		.loc 1 55 13 is_stmt 1
GAS LISTING /tmp/cc96Rsgi.s 			page 27


 901              	.LBB141:
 902              	.LBB142:
 903              		.file 4 "src/../h/tcb.hpp"
   1:src/../h/tcb.hpp **** //
   2:src/../h/tcb.hpp **** // Created by os on 8/14/22.
   3:src/../h/tcb.hpp **** //
   4:src/../h/tcb.hpp **** 
   5:src/../h/tcb.hpp **** #ifndef PROJECT_BASE_TCB_HPP
   6:src/../h/tcb.hpp **** #define PROJECT_BASE_TCB_HPP
   7:src/../h/tcb.hpp **** #include "../lib/hw.h"
   8:src/../h/tcb.hpp **** #include "../h/Scheduler.hpp"
   9:src/../h/tcb.hpp **** #include "../h/MemoryAllocation.hpp"
  10:src/../h/tcb.hpp **** #include "../h/semaphore.hpp"
  11:src/../h/tcb.hpp **** 
  12:src/../h/tcb.hpp **** class TCB {
  13:src/../h/tcb.hpp **** 
  14:src/../h/tcb.hpp **** public:
  15:src/../h/tcb.hpp ****     void* operator new(uint64 n){//promenjeno uint64 u size_t
  16:src/../h/tcb.hpp ****         return MemoryAllocation::mem_alloc(MemoryAllocation::bytesToBlocks(n)); //njemu je samo __m
  17:src/../h/tcb.hpp ****         //return __mem_alloc(n);
  18:src/../h/tcb.hpp ****     }
  19:src/../h/tcb.hpp **** 
  20:src/../h/tcb.hpp ****     void* operator new[](uint64 n){
  21:src/../h/tcb.hpp ****         return MemoryAllocation::mem_alloc(MemoryAllocation::bytesToBlocks(n));
  22:src/../h/tcb.hpp ****         //return __mem_alloc(n);
  23:src/../h/tcb.hpp ****     }
  24:src/../h/tcb.hpp **** 
  25:src/../h/tcb.hpp ****     void operator delete(void *p) noexcept {
  26:src/../h/tcb.hpp ****         MemoryAllocation::mem_free(p);
  27:src/../h/tcb.hpp ****         //__mem_free(p);
  28:src/../h/tcb.hpp ****     }
  29:src/../h/tcb.hpp **** 
  30:src/../h/tcb.hpp ****     void operator delete[] (void *p) noexcept{
  31:src/../h/tcb.hpp ****         MemoryAllocation::mem_free(p);
  32:src/../h/tcb.hpp ****         //__mem_free(p);
  33:src/../h/tcb.hpp ****     }
  34:src/../h/tcb.hpp **** 
  35:src/../h/tcb.hpp ****     ~TCB() { delete[] stack; }
  36:src/../h/tcb.hpp **** 
  37:src/../h/tcb.hpp ****     using Body = void (*)(void*); //mislim da mora da se promeni ovaj body sa nekim argumentima, i 
  38:src/../h/tcb.hpp **** 
  39:src/../h/tcb.hpp ****     static int createThread(Body body, TCB** handle, void* arguments);
  40:src/../h/tcb.hpp **** 
  41:src/../h/tcb.hpp ****     static void thread_dispatch(){dispatch();}
  42:src/../h/tcb.hpp **** 
  43:src/../h/tcb.hpp ****     static int thread_exit(){
  44:src/../h/tcb.hpp ****         running->setFinished(true);
 904              		.loc 4 44 9
 905              		.loc 4 44 29 is_stmt 0
 906 0378 93051000 		li	a1,1
 907 037c 97070000 		la	a5,_ZN3TCB7runningE
 907      83B70700 
 908              	.LVL54:
 909 0384 03B50700 		ld	a0,0(a5)
 910 0388 97000000 		call	_ZN3TCB11setFinishedEb@plt
 910      E7800000 
 911              	.LVL55:
GAS LISTING /tmp/cc96Rsgi.s 			page 28


  45:src/../h/tcb.hpp ****         dispatch();
 912              		.loc 4 45 9 is_stmt 1
 913              		.loc 4 45 17 is_stmt 0
 914 0390 97000000 		call	_ZN3TCB8dispatchEv@plt
 914      E7800000 
 915              	.LVL56:
  46:src/../h/tcb.hpp ****         //running nullptr->negativna
  47:src/../h/tcb.hpp ****         return 0;
 916              		.loc 4 47 9 is_stmt 1
 917              	.LBE142:
 918              	.LBE141:
  56:src/RiscV.cpp ****             __asm__ volatile("mv a1, %0": : [ret_value_thr_exit] "r"(ret_value_thr_exit) );
 919              		.loc 1 56 13
  56:src/RiscV.cpp ****             __asm__ volatile("mv a1, %0": : [ret_value_thr_exit] "r"(ret_value_thr_exit) );
 920              		.loc 1 56 91 is_stmt 0
 921 0398 93070000 		li	a5,0
 922              	#APP
 923              	# 56 "src/RiscV.cpp" 1
  57:src/RiscV.cpp ****             __asm__ volatile("sd a1, 88(s0)");
 924              		mv a1, a5
 925              	# 0 "" 2
 926              		.loc 1 57 13 is_stmt 1
  57:src/RiscV.cpp ****             __asm__ volatile("sd a1, 88(s0)");
 927              		.loc 1 57 46 is_stmt 0
 928              	# 57 "src/RiscV.cpp" 1
 929              		sd a1, 88(s0)
 930              	# 0 "" 2
 931              	#NO_APP
 932 03a4 6FF01FE6 		j	.L15
 933              	.LVL57:
 934              	.L48:
 935              	.LBB143:
  59:src/RiscV.cpp ****             TCB::thread_dispatch();
 936              		.loc 1 59 13 is_stmt 1
 937              	.LBB133:
 938              	.LBB134:
  41:src/../h/tcb.hpp **** 
 939              		.loc 4 41 35
  41:src/../h/tcb.hpp **** 
 940              		.loc 4 41 43 is_stmt 0
 941 03a8 97000000 		call	_ZN3TCB8dispatchEv@plt
 941      E7800000 
 942              	.LVL58:
  41:src/../h/tcb.hpp **** 
 943              		.loc 4 41 46
 944 03b0 6FF05FE5 		j	.L15
 945              	.LVL59:
 946              	.L49:
 947              	.LBE134:
 948              	.LBE133:
 949              	.LBB135:
 950              	.LBB127:
  61:src/RiscV.cpp ****             int retval = semaphore::semOpen((sem_t*)handle, (unsigned)start_routine);
 951              		.loc 1 61 13 is_stmt 1
  61:src/RiscV.cpp ****             int retval = semaphore::semOpen((sem_t*)handle, (unsigned)start_routine);
 952              		.loc 1 61 44 is_stmt 0
 953 03b4 033504FE 		ld	a0,-32(s0)
GAS LISTING /tmp/cc96Rsgi.s 			page 29


 954 03b8 833584FD 		ld	a1,-40(s0)
 955 03bc 9B850500 		sext.w	a1,a1
 956 03c0 97000000 		call	_ZN9semaphore7semOpenEPPS_j@plt
 956      E7800000 
 957              	.LVL60:
  62:src/RiscV.cpp ****             __asm__ volatile("mv a1, %0": : [retval] "r"(retval) );
 958              		.loc 1 62 13 is_stmt 1
  62:src/RiscV.cpp ****             __asm__ volatile("mv a1, %0": : [retval] "r"(retval) );
 959              		.loc 1 62 67 is_stmt 0
 960              	#APP
 961              	# 62 "src/RiscV.cpp" 1
  63:src/RiscV.cpp ****             __asm__ volatile("sd a1, 88(s0)");
 962              		mv a1, a0
 963              	# 0 "" 2
 964              		.loc 1 63 13 is_stmt 1
  63:src/RiscV.cpp ****             __asm__ volatile("sd a1, 88(s0)");
 965              		.loc 1 63 46 is_stmt 0
 966              	# 63 "src/RiscV.cpp" 1
 967              		sd a1, 88(s0)
 968              	# 0 "" 2
 969              	#NO_APP
 970              	.LBE127:
 971 03d0 6FF05FE3 		j	.L15
 972              	.LVL61:
 973              	.L50:
 974              	.LBB128:
 975              	.LBB122:
  65:src/RiscV.cpp ****             int retval = semaphore::semClose((sem_t)handle);
 976              		.loc 1 65 13 is_stmt 1
  65:src/RiscV.cpp ****             int retval = semaphore::semClose((sem_t)handle);
 977              		.loc 1 65 45 is_stmt 0
 978 03d4 033504FE 		ld	a0,-32(s0)
 979 03d8 97000000 		call	_ZN9semaphore8semCloseEPS_@plt
 979      E7800000 
 980              	.LVL62:
  66:src/RiscV.cpp ****             __asm__ volatile("mv a1, %0": : [retval] "r"(retval) );
 981              		.loc 1 66 13 is_stmt 1
  66:src/RiscV.cpp ****             __asm__ volatile("mv a1, %0": : [retval] "r"(retval) );
 982              		.loc 1 66 67 is_stmt 0
 983              	#APP
 984              	# 66 "src/RiscV.cpp" 1
  67:src/RiscV.cpp ****             __asm__ volatile("sd a1, 88(s0)");
 985              		mv a1, a0
 986              	# 0 "" 2
 987              		.loc 1 67 13 is_stmt 1
  67:src/RiscV.cpp ****             __asm__ volatile("sd a1, 88(s0)");
 988              		.loc 1 67 46 is_stmt 0
 989              	# 67 "src/RiscV.cpp" 1
 990              		sd a1, 88(s0)
 991              	# 0 "" 2
 992              	#NO_APP
 993              	.LBE122:
 994 03e8 6FF0DFE1 		j	.L15
 995              	.LVL63:
 996              	.L51:
 997              	.LBB123:
 998              	.LBB118:
GAS LISTING /tmp/cc96Rsgi.s 			page 30


  69:src/RiscV.cpp ****             int retval = semaphore::semWait((sem_t)handle);
 999              		.loc 1 69 13 is_stmt 1
  69:src/RiscV.cpp ****             int retval = semaphore::semWait((sem_t)handle);
 1000              		.loc 1 69 44 is_stmt 0
 1001 03ec 033504FE 		ld	a0,-32(s0)
 1002 03f0 97000000 		call	_ZN9semaphore7semWaitEPS_@plt
 1002      E7800000 
 1003              	.LVL64:
  70:src/RiscV.cpp ****             __asm__ volatile("mv a1, %0": : [retval] "r"(retval) );
 1004              		.loc 1 70 13 is_stmt 1
  70:src/RiscV.cpp ****             __asm__ volatile("mv a1, %0": : [retval] "r"(retval) );
 1005              		.loc 1 70 67 is_stmt 0
 1006              	#APP
 1007              	# 70 "src/RiscV.cpp" 1
  71:src/RiscV.cpp ****             __asm__ volatile("sd a1, 88(s0)");
 1008              		mv a1, a0
 1009              	# 0 "" 2
 1010              		.loc 1 71 13 is_stmt 1
  71:src/RiscV.cpp ****             __asm__ volatile("sd a1, 88(s0)");
 1011              		.loc 1 71 46 is_stmt 0
 1012              	# 71 "src/RiscV.cpp" 1
 1013              		sd a1, 88(s0)
 1014              	# 0 "" 2
 1015              	#NO_APP
 1016              	.LBE118:
 1017 0400 6FF05FE0 		j	.L15
 1018              	.LVL65:
 1019              	.L52:
 1020              	.LBB119:
 1021              	.LBB115:
  73:src/RiscV.cpp ****             int retval = semaphore::semSignal((sem_t)handle);
 1022              		.loc 1 73 13 is_stmt 1
  73:src/RiscV.cpp ****             int retval = semaphore::semSignal((sem_t)handle);
 1023              		.loc 1 73 46 is_stmt 0
 1024 0404 033504FE 		ld	a0,-32(s0)
 1025 0408 97000000 		call	_ZN9semaphore9semSignalEPS_@plt
 1025      E7800000 
 1026              	.LVL66:
  74:src/RiscV.cpp ****             __asm__ volatile("mv a1, %0": : [retval] "r"(retval) );
 1027              		.loc 1 74 13 is_stmt 1
  74:src/RiscV.cpp ****             __asm__ volatile("mv a1, %0": : [retval] "r"(retval) );
 1028              		.loc 1 74 67 is_stmt 0
 1029              	#APP
 1030              	# 74 "src/RiscV.cpp" 1
  75:src/RiscV.cpp ****             __asm__ volatile("sd a1, 88(s0)");
 1031              		mv a1, a0
 1032              	# 0 "" 2
 1033              		.loc 1 75 13 is_stmt 1
  75:src/RiscV.cpp ****             __asm__ volatile("sd a1, 88(s0)");
 1034              		.loc 1 75 46 is_stmt 0
 1035              	# 75 "src/RiscV.cpp" 1
 1036              		sd a1, 88(s0)
 1037              	# 0 "" 2
 1038              	#NO_APP
 1039              	.LBE115:
 1040 0418 6FF0DFDE 		j	.L15
 1041              	.LVL67:
GAS LISTING /tmp/cc96Rsgi.s 			page 31


 1042              	.L53:
 1043              	.LBB116:
 1044              	.LBB114:
  77:src/RiscV.cpp ****             char retval = __getc();
 1045              		.loc 1 77 13 is_stmt 1
  77:src/RiscV.cpp ****             char retval = __getc();
 1046              		.loc 1 77 33 is_stmt 0
 1047 041c 97000000 		call	__getc@plt
 1047      E7800000 
 1048              	.LVL68:
  78:src/RiscV.cpp ****             __asm__ volatile("mv a1, %0": : [retval] "r"(retval) );
 1049              		.loc 1 78 13 is_stmt 1
  78:src/RiscV.cpp ****             __asm__ volatile("mv a1, %0": : [retval] "r"(retval) );
 1050              		.loc 1 78 67 is_stmt 0
 1051              	#APP
 1052              	# 78 "src/RiscV.cpp" 1
  79:src/RiscV.cpp ****             __asm__ volatile("sd a1, 88(s0)");
 1053              		mv a1, a0
 1054              	# 0 "" 2
 1055              		.loc 1 79 13 is_stmt 1
  79:src/RiscV.cpp ****             __asm__ volatile("sd a1, 88(s0)");
 1056              		.loc 1 79 46 is_stmt 0
 1057              	# 79 "src/RiscV.cpp" 1
 1058              		sd a1, 88(s0)
 1059              	# 0 "" 2
 1060              	#NO_APP
 1061              	.LBE114:
 1062 042c 6FF09FDD 		j	.L15
 1063              	.LVL69:
 1064              	.L43:
 1065              	.LBE116:
 1066              	.LBE119:
 1067              	.LBE123:
 1068              	.LBE128:
 1069              	.LBE135:
 1070              	.LBE143:
 1071              	.LBE151:
 1072              	.LBE176:
 1073              	.LBE204:
 1074              	.LBE219:
 1075              	.LBE230:
 100:src/RiscV.cpp ****         mc_sip(SIP_SSIP);
 1076              		.loc 1 100 9 is_stmt 1
 1077              	.LBB231:
 1078              	.LBB232:
 134:src/../h/RiscV.hpp **** }
 1079              		.loc 2 134 5
 134:src/../h/RiscV.hpp **** }
 1080              		.loc 2 134 63 is_stmt 0
 1081 0430 93072000 		li	a5,2
 1082              	#APP
 1083              	# 134 "src/../h/RiscV.hpp" 1
 135:src/../h/RiscV.hpp **** 
 1084              		csrc sip, a5
 1085              	# 0 "" 2
 1086              		.loc 2 135 1
 1087              	#NO_APP
GAS LISTING /tmp/cc96Rsgi.s 			page 32


 1088 0438 6FF0DFDD 		j	.L3
 1089              	.LBE232:
 1090              	.LBE231:
 1091              	.LBE244:
 1092              		.cfi_endproc
 1093              	.LFE47:
 1095              	.Letext0:
 1096              		.file 5 "src/../h/../lib/hw.h"
 1097              		.file 6 "src/../h/../h/semaphore.hpp"
 1098              		.file 7 "src/../lib/console.h"
GAS LISTING /tmp/cc96Rsgi.s 			page 33

