GAS LISTING /tmp/ccKgz6jM.s 			page 1


   1              		.file	"semaphore.cpp"
   2              		.option pic
   3              		.option norelax
   4              		.text
   5              	.Ltext0:
   6              		.align	2
   7              		.globl	_ZN9semaphore5blockEv
   9              	_ZN9semaphore5blockEv:
  10              	.LFB30:
  11              		.file 1 "src/semaphore.cpp"
   1:src/semaphore.cpp **** //
   2:src/semaphore.cpp **** // Created by os on 9/6/22.
   3:src/semaphore.cpp **** //
   4:src/semaphore.cpp **** 
   5:src/semaphore.cpp **** #include "../h/semaphore.hpp"
   6:src/semaphore.cpp **** #include "../h/tcb.hpp"
   7:src/semaphore.cpp **** 
   8:src/semaphore.cpp **** void semaphore::block() {
  12              		.loc 1 8 25
  13              		.cfi_startproc
  14              	.LVL0:
  15 0000 130101FE 		addi	sp,sp,-32
  16              		.cfi_def_cfa_offset 32
  17 0004 233C1100 		sd	ra,24(sp)
  18 0008 23388100 		sd	s0,16(sp)
  19 000c 23349100 		sd	s1,8(sp)
  20 0010 23302101 		sd	s2,0(sp)
  21              		.cfi_offset 1, -8
  22              		.cfi_offset 8, -16
  23              		.cfi_offset 9, -24
  24              		.cfi_offset 18, -32
  25 0014 13040102 		addi	s0,sp,32
  26              		.cfi_def_cfa 8, 0
  27 0018 13090500 		mv	s2,a0
   9:src/semaphore.cpp ****         //setjmp je linija old=running;
  10:src/semaphore.cpp ****         TCB *old = TCB::running;
  28              		.loc 1 10 9
  29              		.loc 1 10 14 is_stmt 0
  30 001c 97070000 		la	a5,_ZN3TCB7runningE
  30      83B70700 
  31 0024 83B40700 		ld	s1,0(a5)
  32              	.LVL1:
  11:src/semaphore.cpp ****         old->semBlocked=this;
  33              		.loc 1 11 9 is_stmt 1
  34              		.loc 1 11 24 is_stmt 0
  35 0028 23B8A402 		sd	a0,48(s1)
  12:src/semaphore.cpp ****         if (!old->isFinished()) {
  36              		.loc 1 12 9 is_stmt 1
  37              		.loc 1 12 29 is_stmt 0
  38 002c 13850400 		mv	a0,s1
  39              	.LVL2:
  40 0030 97000000 		call	_ZNK3TCB10isFinishedEv@plt
  40      E7800000 
  41              	.LVL3:
  42              		.loc 1 12 9
  43 0038 63000504 		beqz	a0,.L15
  44              	.L2:
GAS LISTING /tmp/ccKgz6jM.s 			page 2


  13:src/semaphore.cpp ****             blocked->addLast(old);
  14:src/semaphore.cpp ****         }
  15:src/semaphore.cpp ****         TCB::running = Scheduler::get();
  45              		.loc 1 15 9 is_stmt 1
  46              		.loc 1 15 38 is_stmt 0
  47 003c 97000000 		call	_ZN9Scheduler3getEv@plt
  47      E7800000 
  48              	.LVL4:
  49              		.loc 1 15 22
  50 0044 97070000 		la	a5,_ZN3TCB7runningE
  50      83B70700 
  51 004c 23B0A700 		sd	a0,0(a5)
  16:src/semaphore.cpp **** 
  17:src/semaphore.cpp **** 
  18:src/semaphore.cpp ****         TCB::contextSwitch(&old->context, &TCB::running->context);//TODO proveri ovaj dispatch da l
  52              		.loc 1 18 9 is_stmt 1
  53              		.loc 1 18 27 is_stmt 0
  54 0050 93050501 		addi	a1,a0,16
  55 0054 13850401 		addi	a0,s1,16
  56 0058 97000000 		call	_ZN3TCB13contextSwitchEPNS_7ContextES1_@plt
  56      E7800000 
  57              	.LVL5:
  19:src/semaphore.cpp ****         //longjmp je linija context switch
  20:src/semaphore.cpp ****         //mozda bi zapravo trebao ceo block da bude dispatch, jer pola blocka je slicno dispatchu, 
  21:src/semaphore.cpp ****         //TODO MILICEV JE SAM REKAO DA JE JEDINA RAZLIKA STO NE STAVLJAMO NIT U SCHEDULER NEGO JE S
  22:src/semaphore.cpp ****         //strana 261 u pdfu
  23:src/semaphore.cpp ****         //marinko kaze da je dobar ovaj block
  24:src/semaphore.cpp **** 
  25:src/semaphore.cpp ****         //TCB::running->semBlocked=this;
  26:src/semaphore.cpp ****         //this->blocked->put(TCB::running);
  27:src/semaphore.cpp ****         //TCB::dispatch();
  28:src/semaphore.cpp **** }
  58              		.loc 1 28 1
  59 0060 83308101 		ld	ra,24(sp)
  60              		.cfi_remember_state
  61              		.cfi_restore 1
  62 0064 03340101 		ld	s0,16(sp)
  63              		.cfi_restore 8
  64              		.cfi_def_cfa 2, 32
  65 0068 83348100 		ld	s1,8(sp)
  66              		.cfi_restore 9
  67              	.LVL6:
  68 006c 03390100 		ld	s2,0(sp)
  69              		.cfi_restore 18
  70              	.LVL7:
  71 0070 13010102 		addi	sp,sp,32
  72              		.cfi_def_cfa_offset 0
  73 0074 67800000 		jr	ra
  74              	.LVL8:
  75              	.L15:
  76              		.cfi_restore_state
  13:src/semaphore.cpp ****         }
  77              		.loc 1 13 13 is_stmt 1
  78 0078 83358900 		ld	a1,8(s2)
  79              	.LVL9:
  80              		.file 2 "src/../h/../h/../h/MemoryAllocation.hpp"
   1:src/../h/../h/../h/MemoryAllocation.hpp **** #include "../lib/hw.h"
GAS LISTING /tmp/ccKgz6jM.s 			page 3


   2:src/../h/../h/../h/MemoryAllocation.hpp **** 
   3:src/../h/../h/../h/MemoryAllocation.hpp **** 
   4:src/../h/../h/../h/MemoryAllocation.hpp **** #ifndef PROJECT_BASE_MEMORYALLOCATION_HPP
   5:src/../h/../h/../h/MemoryAllocation.hpp **** #define PROJECT_BASE_MEMORYALLOCATION_HPP
   6:src/../h/../h/../h/MemoryAllocation.hpp **** 
   7:src/../h/../h/../h/MemoryAllocation.hpp **** 
   8:src/../h/../h/../h/MemoryAllocation.hpp **** class MemoryAllocation {
   9:src/../h/../h/../h/MemoryAllocation.hpp **** 
  10:src/../h/../h/../h/MemoryAllocation.hpp ****     //===========================DEFINICIJA SINGLETON KLASE POCETAK=======================k
  11:src/../h/../h/../h/MemoryAllocation.hpp **** private:
  12:src/../h/../h/../h/MemoryAllocation.hpp **** 
  13:src/../h/../h/../h/MemoryAllocation.hpp ****     struct FreeMem {
  14:src/../h/../h/../h/MemoryAllocation.hpp ****         FreeMem *next;
  15:src/../h/../h/../h/MemoryAllocation.hpp ****         FreeMem *prev;
  16:src/../h/../h/../h/MemoryAllocation.hpp ****         size_t size;
  17:src/../h/../h/../h/MemoryAllocation.hpp ****     };
  18:src/../h/../h/../h/MemoryAllocation.hpp **** 
  19:src/../h/../h/../h/MemoryAllocation.hpp **** 
  20:src/../h/../h/../h/MemoryAllocation.hpp ****     static FreeMem *fmem_head; //koja pocetna vrednost?
  21:src/../h/../h/../h/MemoryAllocation.hpp **** 
  22:src/../h/../h/../h/MemoryAllocation.hpp **** 
  23:src/../h/../h/../h/MemoryAllocation.hpp **** 
  24:src/../h/../h/../h/MemoryAllocation.hpp ****     static MemoryAllocation *instance;
  25:src/../h/../h/../h/MemoryAllocation.hpp ****     int data;
  26:src/../h/../h/../h/MemoryAllocation.hpp **** 
  27:src/../h/../h/../h/MemoryAllocation.hpp **** 
  28:src/../h/../h/../h/MemoryAllocation.hpp ****     MemoryAllocation() { //OVO SE SADA NIGGDE
  29:src/../h/../h/../h/MemoryAllocation.hpp ****         fmem_head->size = (size_t) ((char *) HEAP_END_ADDR -
  30:src/../h/../h/../h/MemoryAllocation.hpp ****                                     (char *) HEAP_START_ADDR); //da li smem ovo da castujem u size_
  31:src/../h/../h/../h/MemoryAllocation.hpp ****         fmem_head->next = nullptr;
  32:src/../h/../h/../h/MemoryAllocation.hpp ****         fmem_head->prev = nullptr;
  33:src/../h/../h/../h/MemoryAllocation.hpp ****         data = 0;
  34:src/../h/../h/../h/MemoryAllocation.hpp ****     }
  35:src/../h/../h/../h/MemoryAllocation.hpp **** 
  36:src/../h/../h/../h/MemoryAllocation.hpp ****     MemoryAllocation(MemoryAllocation const &);
  37:src/../h/../h/../h/MemoryAllocation.hpp **** 
  38:src/../h/../h/../h/MemoryAllocation.hpp ****     void operator=(MemoryAllocation const &);
  39:src/../h/../h/../h/MemoryAllocation.hpp **** 
  40:src/../h/../h/../h/MemoryAllocation.hpp **** public:
  41:src/../h/../h/../h/MemoryAllocation.hpp **** 
  42:src/../h/../h/../h/MemoryAllocation.hpp **** 
  43:src/../h/../h/../h/MemoryAllocation.hpp ****     static MemoryAllocation *getInstance() {
  44:src/../h/../h/../h/MemoryAllocation.hpp ****         if (!instance) {
  45:src/../h/../h/../h/MemoryAllocation.hpp ****             fmem_head =  (FreeMem*) HEAP_START_ADDR;
  46:src/../h/../h/../h/MemoryAllocation.hpp ****             fmem_head->size = (size_t) ((char *) HEAP_END_ADDR -
  47:src/../h/../h/../h/MemoryAllocation.hpp ****                                         (char *) HEAP_START_ADDR); //da li smem ovo da castujem u s
  48:src/../h/../h/../h/MemoryAllocation.hpp ****             fmem_head->next = nullptr;
  49:src/../h/../h/../h/MemoryAllocation.hpp ****             fmem_head->prev = nullptr;
  50:src/../h/../h/../h/MemoryAllocation.hpp ****             static MemoryAllocation* instance;
  51:src/../h/../h/../h/MemoryAllocation.hpp ****             return instance;
  52:src/../h/../h/../h/MemoryAllocation.hpp ****         }
  53:src/../h/../h/../h/MemoryAllocation.hpp ****         return instance;
  54:src/../h/../h/../h/MemoryAllocation.hpp ****     }
  55:src/../h/../h/../h/MemoryAllocation.hpp **** 
  56:src/../h/../h/../h/MemoryAllocation.hpp **** 
  57:src/../h/../h/../h/MemoryAllocation.hpp ****     int getData() {
  58:src/../h/../h/../h/MemoryAllocation.hpp ****         return this->data;
GAS LISTING /tmp/ccKgz6jM.s 			page 4


  59:src/../h/../h/../h/MemoryAllocation.hpp ****     }
  60:src/../h/../h/../h/MemoryAllocation.hpp **** 
  61:src/../h/../h/../h/MemoryAllocation.hpp ****     void setData(int data) {
  62:src/../h/../h/../h/MemoryAllocation.hpp ****         this->data = data;
  63:src/../h/../h/../h/MemoryAllocation.hpp ****     }
  64:src/../h/../h/../h/MemoryAllocation.hpp **** 
  65:src/../h/../h/../h/MemoryAllocation.hpp ****     /*MemoryAllocation(MemoryAllocation const&) = delete;
  66:src/../h/../h/../h/MemoryAllocation.hpp ****     void operator=(MemoryAllocation const&)  = delete;*/
  67:src/../h/../h/../h/MemoryAllocation.hpp **** //===========================DEFINICIJA SINGLETON KLASE KRAJ========================
  68:src/../h/../h/../h/MemoryAllocation.hpp ****     static int bytesToBlocks(size_t size){
  69:src/../h/../h/../h/MemoryAllocation.hpp ****         return (size+sizeof(FreeMem)+MEM_BLOCK_SIZE-1)/MEM_BLOCK_SIZE;
  81              		.loc 2 69 9
  82              	.LBB32:
  83              	.LBB33:
  84              	.LBB34:
  85              	.LBB35:
  70:src/../h/../h/../h/MemoryAllocation.hpp ****     }
  71:src/../h/../h/../h/MemoryAllocation.hpp **** 
  72:src/../h/../h/../h/MemoryAllocation.hpp **** 
  73:src/../h/../h/../h/MemoryAllocation.hpp **** //===========================METODE ZA ALOKACIJU MEMORIJE===========================
  74:src/../h/../h/../h/MemoryAllocation.hpp ****     static void tryToJoin (FreeMem* curr) {
  75:src/../h/../h/../h/MemoryAllocation.hpp ****         if (!curr) return;
  76:src/../h/../h/../h/MemoryAllocation.hpp ****         if (curr->next && (char*)curr+curr->size == (char*)(curr->next)) {
  77:src/../h/../h/../h/MemoryAllocation.hpp ****         // Remove the cur->next segment:
  78:src/../h/../h/../h/MemoryAllocation.hpp ****             curr->size += curr->next->size;
  79:src/../h/../h/../h/MemoryAllocation.hpp ****             curr->next = curr->next->next;
  80:src/../h/../h/../h/MemoryAllocation.hpp ****             if (curr->next) curr->next->prev = curr;
  81:src/../h/../h/../h/MemoryAllocation.hpp ****             return;
  82:src/../h/../h/../h/MemoryAllocation.hpp ****         }
  83:src/../h/../h/../h/MemoryAllocation.hpp **** 
  84:src/../h/../h/../h/MemoryAllocation.hpp ****     }
  85:src/../h/../h/../h/MemoryAllocation.hpp **** 
  86:src/../h/../h/../h/MemoryAllocation.hpp ****     //===================================== mem_free, ali sa ptr ===============
  87:src/../h/../h/../h/MemoryAllocation.hpp ****         static int mem_free(void* ptr) { //radi i kada posaljem sa &
  88:src/../h/../h/../h/MemoryAllocation.hpp ****         FreeMem* cur=0;
  89:src/../h/../h/../h/MemoryAllocation.hpp ****         if(!fmem_head || ptr < (char*)fmem_head)
  90:src/../h/../h/../h/MemoryAllocation.hpp ****         {
  91:src/../h/../h/../h/MemoryAllocation.hpp ****             cur=nullptr;
  92:src/../h/../h/../h/MemoryAllocation.hpp ****         }else {
  93:src/../h/../h/../h/MemoryAllocation.hpp ****                 for (cur=fmem_head; cur->next!=ptr && ptr>(char*)(cur->next); cur=cur->next); //moz
  94:src/../h/../h/../h/MemoryAllocation.hpp ****             }
  95:src/../h/../h/../h/MemoryAllocation.hpp ****                 FreeMem* newSeg = (FreeMem*)ptr;
  96:src/../h/../h/../h/MemoryAllocation.hpp ****                 newSeg->next=nullptr;
  97:src/../h/../h/../h/MemoryAllocation.hpp ****                 newSeg->prev=nullptr;
  98:src/../h/../h/../h/MemoryAllocation.hpp ****                 newSeg->size=bytesToBlocks(sizeof(ptr))*MEM_BLOCK_SIZE;
  99:src/../h/../h/../h/MemoryAllocation.hpp ****                         //sizeof(ptr);
 100:src/../h/../h/../h/MemoryAllocation.hpp ****                 newSeg->prev=cur;
 101:src/../h/../h/../h/MemoryAllocation.hpp ****                 if(cur) {
 102:src/../h/../h/../h/MemoryAllocation.hpp ****                     newSeg->next = cur->next;
 103:src/../h/../h/../h/MemoryAllocation.hpp ****                 }
 104:src/../h/../h/../h/MemoryAllocation.hpp ****                 else {
 105:src/../h/../h/../h/MemoryAllocation.hpp ****                     newSeg->next = fmem_head;
 106:src/../h/../h/../h/MemoryAllocation.hpp ****                 }
 107:src/../h/../h/../h/MemoryAllocation.hpp ****                 if(newSeg->next) {
 108:src/../h/../h/../h/MemoryAllocation.hpp ****                     newSeg->next->prev=newSeg;
 109:src/../h/../h/../h/MemoryAllocation.hpp ****                 }
 110:src/../h/../h/../h/MemoryAllocation.hpp ****                 if (cur) {
GAS LISTING /tmp/ccKgz6jM.s 			page 5


 111:src/../h/../h/../h/MemoryAllocation.hpp ****                     cur->next = newSeg; //zasto ovde odjednom uzme vrednost x8000 umesto x8000f...?
 112:src/../h/../h/../h/MemoryAllocation.hpp ****                 }
 113:src/../h/../h/../h/MemoryAllocation.hpp ****                 else {
 114:src/../h/../h/../h/MemoryAllocation.hpp ****                     fmem_head = newSeg;
 115:src/../h/../h/../h/MemoryAllocation.hpp ****                 }
 116:src/../h/../h/../h/MemoryAllocation.hpp ****                 // Try to merge with the previous and next segments:
 117:src/../h/../h/../h/MemoryAllocation.hpp ****             tryToJoin(newSeg);
 118:src/../h/../h/../h/MemoryAllocation.hpp ****             tryToJoin(cur);
 119:src/../h/../h/../h/MemoryAllocation.hpp ****             //mozda da fmem_head nije jednako starom fmem_headu?
 120:src/../h/../h/../h/MemoryAllocation.hpp ****             if(newSeg==nullptr){
 121:src/../h/../h/../h/MemoryAllocation.hpp ****                 return -1;
 122:src/../h/../h/../h/MemoryAllocation.hpp ****             }else{return 0;}
 123:src/../h/../h/../h/MemoryAllocation.hpp **** 
 124:src/../h/../h/../h/MemoryAllocation.hpp **** 
 125:src/../h/../h/../h/MemoryAllocation.hpp ****     }
 126:src/../h/../h/../h/MemoryAllocation.hpp ****     //===================================== kraj probe ==========================
 127:src/../h/../h/../h/MemoryAllocation.hpp **** 
 128:src/../h/../h/../h/MemoryAllocation.hpp **** 
 129:src/../h/../h/../h/MemoryAllocation.hpp **** 
 130:src/../h/../h/../h/MemoryAllocation.hpp ****     /*int mem_free(char* addr, size_t size) {
 131:src/../h/../h/../h/MemoryAllocation.hpp ****         // Find the place where to insert the new free segment (just after cur):
 132:src/../h/../h/../h/MemoryAllocation.hpp ****         FreeMem* cur=0;
 133:src/../h/../h/../h/MemoryAllocation.hpp ****         if (!fmem_head || addr<(char*)fmem_head)
 134:src/../h/../h/../h/MemoryAllocation.hpp ****             cur = 0; // insert as the first
 135:src/../h/../h/../h/MemoryAllocation.hpp ****         else
 136:src/../h/../h/../h/MemoryAllocation.hpp ****             for (cur=fmem_head; cur->next!=0 && addr>(char*)(cur->next);
 137:src/../h/../h/../h/MemoryAllocation.hpp ****                  cur=cur->next);
 138:src/../h/../h/../h/MemoryAllocation.hpp ****             // Insert the new segment after cur:
 139:src/../h/../h/../h/MemoryAllocation.hpp ****         FreeMem* newSeg = (FreeMem*)addr;
 140:src/../h/../h/../h/MemoryAllocation.hpp ****         newSeg->size = size;
 141:src/../h/../h/../h/MemoryAllocation.hpp ****         newSeg->prev = cur;
 142:src/../h/../h/../h/MemoryAllocation.hpp ****         if (cur) newSeg->next = cur->next;
 143:src/../h/../h/../h/MemoryAllocation.hpp ****         else newSeg->next = fmem_head;
 144:src/../h/../h/../h/MemoryAllocation.hpp ****         if (newSeg->next) newSeg->next->prev = newSeg;
 145:src/../h/../h/../h/MemoryAllocation.hpp ****         if (cur) cur->next = newSeg;
 146:src/../h/../h/../h/MemoryAllocation.hpp ****         else fmem_head = newSeg;
 147:src/../h/../h/../h/MemoryAllocation.hpp ****             // Try to merge with the previous and next segments:
 148:src/../h/../h/../h/MemoryAllocation.hpp ****         tryToJoin(newSeg);
 149:src/../h/../h/../h/MemoryAllocation.hpp ****         tryToJoin(cur);
 150:src/../h/../h/../h/MemoryAllocation.hpp ****     }*/
 151:src/../h/../h/../h/MemoryAllocation.hpp **** 
 152:src/../h/../h/../h/MemoryAllocation.hpp ****     static void* mem_alloc(size_t size) {//uopste ne radi, iako u lotsofsmallmallocs pise da radi
 153:src/../h/../h/../h/MemoryAllocation.hpp ****         //size_t x=sizeof(fmem_head);
 154:src/../h/../h/../h/MemoryAllocation.hpp ****         //pozovi ovde samo bytes to blocks od size, da ne moras to da radis iz maina
 155:src/../h/../h/../h/MemoryAllocation.hpp ****         size=(size)*(size_t)MEM_BLOCK_SIZE; //kada je ovo ukljuceno, pravi problem u memfree, so il
  86              		.loc 2 155 9
 156:src/../h/../h/../h/MemoryAllocation.hpp ****         for (FreeMem* cur = fmem_head; cur != nullptr; cur=cur->next){ // U DRUGOJ ITERACIJI FMEM_H
  87              		.loc 2 156 9
  88              	.LBB36:
  89              		.loc 2 156 23 is_stmt 0
  90 007c 97070000 		la	a5,_ZN16MemoryAllocation9fmem_headE
  90      83B70700 
  91 0084 83B70700 		ld	a5,0(a5)
  92              	.LVL10:
  93              	.L4:
  94              		.loc 2 156 44 is_stmt 1
  95 0088 638A070C 		beqz	a5,.L3
GAS LISTING /tmp/ccKgz6jM.s 			page 6


  96              	.LBB37:
 157:src/../h/../h/../h/MemoryAllocation.hpp ****             cur->next=fmem_head->next;
  97              		.loc 2 157 13
  98              		.loc 2 157 34 is_stmt 0
  99 008c 17070000 		la	a4,_ZN16MemoryAllocation9fmem_headE
  99      03370700 
 100 0094 83360700 		ld	a3,0(a4)
 101 0098 83B60600 		ld	a3,0(a3)
 102              		.loc 2 157 22
 103 009c 23B0D700 		sd	a3,0(a5)
 158:src/../h/../h/../h/MemoryAllocation.hpp ****             cur->prev=fmem_head->prev;
 104              		.loc 2 158 13 is_stmt 1
 105              		.loc 2 158 34 is_stmt 0
 106 00a0 03370700 		ld	a4,0(a4)
 107 00a4 03368700 		ld	a2,8(a4)
 108              		.loc 2 158 22
 109 00a8 23B4C700 		sd	a2,8(a5)
 159:src/../h/../h/../h/MemoryAllocation.hpp ****             if (cur->size<size) continue;
 110              		.loc 2 159 13 is_stmt 1
 111              		.loc 2 159 22 is_stmt 0
 112 00ac 03B70701 		ld	a4,16(a5)
 113              		.loc 2 159 13
 114 00b0 1305F003 		li	a0,63
 115 00b4 6376E502 		bleu	a4,a0,.L13
 160:src/../h/../h/../h/MemoryAllocation.hpp ****             if (cur->size-size<=sizeof(FreeMem)){
 116              		.loc 2 160 13 is_stmt 1
 117              	.LBB38:
 118              		.loc 2 160 26 is_stmt 0
 119 00b8 130707FC 		addi	a4,a4,-64
 120              		.loc 2 160 13
 121 00bc 13058001 		li	a0,24
 122 00c0 636CE502 		bgtu	a4,a0,.L5
 161:src/../h/../h/../h/MemoryAllocation.hpp ****                 if (cur->prev) cur->prev->next = cur->next;
 123              		.loc 2 161 17 is_stmt 1
 124 00c4 63020602 		beqz	a2,.L6
 125              		.loc 2 161 32
 126              		.loc 2 161 48 is_stmt 0
 127 00c8 2330D600 		sd	a3,0(a2)
 128              	.L7:
 162:src/../h/../h/../h/MemoryAllocation.hpp ****                 else fmem_head = cur->next;
 163:src/../h/../h/../h/MemoryAllocation.hpp ****                 if (cur->next) cur->next->prev = cur->prev;
 129              		.loc 2 163 17 is_stmt 1
 130              		.loc 2 163 26 is_stmt 0
 131 00cc 03B70700 		ld	a4,0(a5)
 132              		.loc 2 163 17
 133 00d0 63060708 		beqz	a4,.L3
 134              		.loc 2 163 32 is_stmt 1
 135              		.loc 2 163 55 is_stmt 0
 136 00d4 83B68700 		ld	a3,8(a5)
 137              		.loc 2 163 48
 138 00d8 2334D700 		sd	a3,8(a4)
 164:src/../h/../h/../h/MemoryAllocation.hpp ****                 return cur;
 139              		.loc 2 164 17 is_stmt 1
 140              		.loc 2 164 24 is_stmt 0
 141 00dc 6F000008 		j	.L3
 142              	.L13:
 143              	.LBE38:
GAS LISTING /tmp/ccKgz6jM.s 			page 7


 144              	.LBE37:
 156:src/../h/../h/../h/MemoryAllocation.hpp ****             cur->next=fmem_head->next;
 145              		.loc 2 156 59
 146 00e0 93870600 		mv	a5,a3
 147              	.LVL11:
 148 00e4 6FF05FFA 		j	.L4
 149              	.LVL12:
 150              	.L6:
 151              	.LBB43:
 152              	.LBB41:
 162:src/../h/../h/../h/MemoryAllocation.hpp ****                 else fmem_head = cur->next;
 153              		.loc 2 162 22 is_stmt 1
 162:src/../h/../h/../h/MemoryAllocation.hpp ****                 else fmem_head = cur->next;
 154              		.loc 2 162 32 is_stmt 0
 155 00e8 17070000 		la	a4,_ZN16MemoryAllocation9fmem_headE
 155      03370700 
 156 00f0 2330D700 		sd	a3,0(a4)
 157 00f4 6FF09FFD 		j	.L7
 158              	.L5:
 159              	.LBB39:
 165:src/../h/../h/../h/MemoryAllocation.hpp ****             }else {
 166:src/../h/../h/../h/MemoryAllocation.hpp ****                 FreeMem* newfrgm = (FreeMem*)((char*)cur+size);
 160              		.loc 2 166 17 is_stmt 1
 161              		.loc 2 166 26 is_stmt 0
 162 00f8 13870704 		addi	a4,a5,64
 163              	.LVL13:
 167:src/../h/../h/../h/MemoryAllocation.hpp ****                 newfrgm->prev=nullptr;
 164              		.loc 2 167 17 is_stmt 1
 165              		.loc 2 167 30 is_stmt 0
 166 00fc 23340700 		sd	zero,8(a4)
 168:src/../h/../h/../h/MemoryAllocation.hpp ****                 newfrgm->next=nullptr;
 167              		.loc 2 168 17 is_stmt 1
 168              		.loc 2 168 30 is_stmt 0
 169 0100 23B00704 		sd	zero,64(a5)
 169:src/../h/../h/../h/MemoryAllocation.hpp ****                 //newfrgm->size=cur->size-size;// DODATO TOKOM PROBE NITI
 170:src/../h/../h/../h/MemoryAllocation.hpp ****                 if (cur && cur->prev) cur->prev->next = newfrgm;
 170              		.loc 2 170 17 is_stmt 1
 171              		.loc 2 170 33 is_stmt 0
 172 0104 83B68700 		ld	a3,8(a5)
 173              		.loc 2 170 25
 174 0108 63880606 		beqz	a3,.L9
 175              		.loc 2 170 39 is_stmt 1
 176              		.loc 2 170 55 is_stmt 0
 177 010c 23B0E600 		sd	a4,0(a3)
 178              	.L10:
 171:src/../h/../h/../h/MemoryAllocation.hpp ****                 else fmem_head = newfrgm+sizeof(fmem_head); // ovo sam dodao sizeof da bi mi radio 
 172:src/../h/../h/../h/MemoryAllocation.hpp ****                 if (cur && cur->next) cur->next->prev = newfrgm;
 179              		.loc 2 172 17 is_stmt 1
 180              		.loc 2 172 33 is_stmt 0
 181 0110 83B60700 		ld	a3,0(a5)
 182              		.loc 2 172 25
 183 0114 63840600 		beqz	a3,.L11
 184              		.loc 2 172 39 is_stmt 1
 185              		.loc 2 172 55 is_stmt 0
 186 0118 23B4E600 		sd	a4,8(a3)
 187              	.L11:
 173:src/../h/../h/../h/MemoryAllocation.hpp ****                 newfrgm->prev = cur->prev;
GAS LISTING /tmp/ccKgz6jM.s 			page 8


 188              		.loc 2 173 17 is_stmt 1
 189              		.loc 2 173 38 is_stmt 0
 190 011c 03B68700 		ld	a2,8(a5)
 191              		.loc 2 173 31
 192 0120 2334C700 		sd	a2,8(a4)
 174:src/../h/../h/../h/MemoryAllocation.hpp ****                 newfrgm->next = cur->next;
 193              		.loc 2 174 17 is_stmt 1
 194              		.loc 2 174 38 is_stmt 0
 195 0124 83B60700 		ld	a3,0(a5)
 196              		.loc 2 174 31
 197 0128 2330D700 		sd	a3,0(a4)
 175:src/../h/../h/../h/MemoryAllocation.hpp ****                 newfrgm->size = cur->size-size;
 198              		.loc 2 175 17 is_stmt 1
 199              		.loc 2 175 38 is_stmt 0
 200 012c 83B70701 		ld	a5,16(a5)
 201              	.LVL14:
 202              		.loc 2 175 42
 203 0130 938707FC 		addi	a5,a5,-64
 204              		.loc 2 175 31
 205 0134 2338F700 		sd	a5,16(a4)
 176:src/../h/../h/../h/MemoryAllocation.hpp ****                 fmem_head =newfrgm+sizeof(fmem_head);
 206              		.loc 2 176 17 is_stmt 1
 207              		.loc 2 176 35 is_stmt 0
 208 0138 9306070C 		addi	a3,a4,192
 209              		.loc 2 176 27
 210 013c 17050000 		la	a0,_ZN16MemoryAllocation9fmem_headE
 210      03350500 
 211 0144 2330D500 		sd	a3,0(a0)
 177:src/../h/../h/../h/MemoryAllocation.hpp ****                 fmem_head->next=newfrgm->next;
 212              		.loc 2 177 17 is_stmt 1
 213              		.loc 2 177 42 is_stmt 0
 214 0148 03350700 		ld	a0,0(a4)
 215              		.loc 2 177 32
 216 014c 2330A70C 		sd	a0,192(a4)
 178:src/../h/../h/../h/MemoryAllocation.hpp ****                 fmem_head->prev=newfrgm->prev;
 217              		.loc 2 178 17 is_stmt 1
 218              		.loc 2 178 32 is_stmt 0
 219 0150 2334C70C 		sd	a2,200(a4)
 179:src/../h/../h/../h/MemoryAllocation.hpp ****                 fmem_head->size=newfrgm->size;
 220              		.loc 2 179 17 is_stmt 1
 221              		.loc 2 179 32 is_stmt 0
 222 0154 2338F70C 		sd	a5,208(a4)
 180:src/../h/../h/../h/MemoryAllocation.hpp ****                 //fmem_head = (FreeMem*) (char*)newfrgm;
 181:src/../h/../h/../h/MemoryAllocation.hpp ****                 return newfrgm;
 223              		.loc 2 181 17 is_stmt 1
 224              		.loc 2 181 24 is_stmt 0
 225 0158 93070700 		mv	a5,a4
 226              	.LVL15:
 227              	.L3:
 228              	.LBE39:
 229              	.LBE41:
 230              	.LBE43:
 231              	.LBE36:
 232              	.LBE35:
 233              	.LBE34:
 234              		.file 3 "src/../h/../h/LinkedList.hpp"
   1:src/../h/../h/LinkedList.hpp **** 
GAS LISTING /tmp/ccKgz6jM.s 			page 9


   2:src/../h/../h/LinkedList.hpp **** 
   3:src/../h/../h/LinkedList.hpp **** #ifndef PROJECT_BASE_LINKEDLIST_HPP
   4:src/../h/../h/LinkedList.hpp **** #define PROJECT_BASE_LINKEDLIST_HPP
   5:src/../h/../h/LinkedList.hpp **** #include "../h/MemoryAllocation.hpp"
   6:src/../h/../h/LinkedList.hpp **** 
   7:src/../h/../h/LinkedList.hpp **** //uradi sutra kada te ne bi mrzelo, jer me sada mrzi da radim double linked, a vrv ce te i sutra mr
   8:src/../h/../h/LinkedList.hpp **** template<typename T>
   9:src/../h/../h/LinkedList.hpp **** class LinkedList{
  10:src/../h/../h/LinkedList.hpp ****     private:
  11:src/../h/../h/LinkedList.hpp ****     struct Elem{
  12:src/../h/../h/LinkedList.hpp ****         T* data;
  13:src/../h/../h/LinkedList.hpp ****         Elem* next;
  14:src/../h/../h/LinkedList.hpp **** 
  15:src/../h/../h/LinkedList.hpp ****         Elem(T* data, Elem * next) : data(data), next(next) {}
  16:src/../h/../h/LinkedList.hpp ****     };
  17:src/../h/../h/LinkedList.hpp **** 
  18:src/../h/../h/LinkedList.hpp ****     Elem *head, *tail;
  19:src/../h/../h/LinkedList.hpp ****     public:
  20:src/../h/../h/LinkedList.hpp ****     LinkedList() : head(0), tail(0) {}
  21:src/../h/../h/LinkedList.hpp **** 
  22:src/../h/../h/LinkedList.hpp ****     LinkedList(const LinkedList<T> &) = delete;
  23:src/../h/../h/LinkedList.hpp **** 
  24:src/../h/../h/LinkedList.hpp ****     LinkedList<T> &operator=(const LinkedList<T> &) = delete;
  25:src/../h/../h/LinkedList.hpp **** 
  26:src/../h/../h/LinkedList.hpp ****     void addFirst(T *data){
  27:src/../h/../h/LinkedList.hpp ****         Elem *elem = (Elem*) MemoryAllocation::mem_alloc(MemoryAllocation::bytesToBlocks(sizeof(Ele
  28:src/../h/../h/LinkedList.hpp ****         elem->data=data;
  29:src/../h/../h/LinkedList.hpp ****         elem->next=nullptr;
  30:src/../h/../h/LinkedList.hpp ****         head=elem;
  31:src/../h/../h/LinkedList.hpp ****         if(!tail) {tail=head;}
  32:src/../h/../h/LinkedList.hpp ****     }
  33:src/../h/../h/LinkedList.hpp **** 
  34:src/../h/../h/LinkedList.hpp ****     void addLast(T *data){
  35:src/../h/../h/LinkedList.hpp ****         Elem *elem = (Elem*) MemoryAllocation::mem_alloc(MemoryAllocation::bytesToBlocks(sizeof(Ele
  36:src/../h/../h/LinkedList.hpp ****         elem->data=data;
 235              		.loc 3 36 9
 236 015c 23B09700 		sd	s1,0(a5)
  37:src/../h/../h/LinkedList.hpp ****         elem->next=nullptr;
 237              		.loc 3 37 9
 238 0160 23B40700 		sd	zero,8(a5)
  38:src/../h/../h/LinkedList.hpp ****         if (tail){
 239              		.loc 3 38 13
 240 0164 03B78500 		ld	a4,8(a1)
 241              		.loc 3 38 9
 242 0168 63020702 		beqz	a4,.L12
  39:src/../h/../h/LinkedList.hpp ****             tail->next=elem;
 243              		.loc 3 39 13
 244 016c 2334F700 		sd	a5,8(a4)
  40:src/../h/../h/LinkedList.hpp ****             tail=elem;
 245              		.loc 3 40 13
 246 0170 23B4F500 		sd	a5,8(a1)
 247 0174 6FF09FEC 		j	.L2
 248              	.LVL16:
 249              	.L9:
 250              	.LBB47:
 251              	.LBB46:
 252              	.LBB45:
GAS LISTING /tmp/ccKgz6jM.s 			page 10


 253              	.LBB44:
 254              	.LBB42:
 255              	.LBB40:
 171:src/../h/../h/../h/MemoryAllocation.hpp ****                 if (cur && cur->next) cur->next->prev = newfrgm;
 256              		.loc 2 171 22 is_stmt 1
 171:src/../h/../h/../h/MemoryAllocation.hpp ****                 if (cur && cur->next) cur->next->prev = newfrgm;
 257              		.loc 2 171 41 is_stmt 0
 258 0178 9306070C 		addi	a3,a4,192
 171:src/../h/../h/../h/MemoryAllocation.hpp ****                 if (cur && cur->next) cur->next->prev = newfrgm;
 259              		.loc 2 171 32
 260 017c 17060000 		la	a2,_ZN16MemoryAllocation9fmem_headE
 260      03360600 
 261 0184 2330D600 		sd	a3,0(a2)
 262 0188 6FF09FF8 		j	.L10
 263              	.LVL17:
 264              	.L12:
 265              	.LBE40:
 266              	.LBE42:
 267              	.LBE44:
 268              	.LBE45:
 269              	.LBE46:
 270              	.LBE47:
  41:src/../h/../h/LinkedList.hpp ****         }else{
  42:src/../h/../h/LinkedList.hpp ****             head=tail=elem;
 271              		.loc 3 42 13
 272 018c 23B4F500 		sd	a5,8(a1)
 273 0190 23B0F500 		sd	a5,0(a1)
 274 0194 6FF09FEA 		j	.L2
 275              	.LBE33:
 276              	.LBE32:
 277              		.cfi_endproc
 278              	.LFE30:
 280              		.align	2
 281              		.globl	_ZN9semaphore7unblockEv
 283              	_ZN9semaphore7unblockEv:
 284              	.LFB31:
  29:src/semaphore.cpp **** 
  30:src/semaphore.cpp **** void semaphore::unblock() {
 285              		.loc 1 30 27 is_stmt 1
 286              		.cfi_startproc
 287              	.LVL18:
 288 0198 130101FE 		addi	sp,sp,-32
 289              		.cfi_def_cfa_offset 32
 290 019c 233C1100 		sd	ra,24(sp)
 291 01a0 23388100 		sd	s0,16(sp)
 292 01a4 23349100 		sd	s1,8(sp)
 293              		.cfi_offset 1, -8
 294              		.cfi_offset 8, -16
 295              		.cfi_offset 9, -24
 296 01a8 13040102 		addi	s0,sp,32
 297              		.cfi_def_cfa 8, 0
  31:src/semaphore.cpp ****     TCB* t = blocked->removeFirst();
 298              		.loc 1 31 5
 299              		.loc 1 31 14 is_stmt 0
 300 01ac 83378500 		ld	a5,8(a0)
 301              	.LVL19:
 302              	.LBB48:
GAS LISTING /tmp/ccKgz6jM.s 			page 11


 303              	.LBB49:
  43:src/../h/../h/LinkedList.hpp ****         }
  44:src/../h/../h/LinkedList.hpp ****     }
  45:src/../h/../h/LinkedList.hpp **** 
  46:src/../h/../h/LinkedList.hpp ****     T* removeFirst() {
  47:src/../h/../h/LinkedList.hpp ****         if (!head) {return 0;}
 304              		.loc 3 47 14
 305 01b0 03B50700 		ld	a0,0(a5)
 306              	.LVL20:
 307              		.loc 3 47 9
 308 01b4 63040504 		beqz	a0,.L19
 309              	.LVL21:
  48:src/../h/../h/LinkedList.hpp ****         Elem *elem = head;
  49:src/../h/../h/LinkedList.hpp ****         head = head->next;
 310              		.loc 3 49 22
 311 01b8 03378500 		ld	a4,8(a0)
 312              		.loc 3 49 9
 313 01bc 23B0E700 		sd	a4,0(a5)
  50:src/../h/../h/LinkedList.hpp ****         if(!head) {
 314              		.loc 3 50 9
 315 01c0 630A0702 		beqz	a4,.L21
 316              	.L18:
  51:src/../h/../h/LinkedList.hpp ****             tail = 0;
  52:src/../h/../h/LinkedList.hpp ****         }
  53:src/../h/../h/LinkedList.hpp ****         T* ret = elem->data;
 317              		.loc 3 53 12
 318 01c4 83340500 		ld	s1,0(a0)
 319              	.LVL22:
  54:src/../h/../h/LinkedList.hpp ****         delete elem;
 320              		.loc 3 54 9
 321 01c8 97000000 		call	_ZdlPv@plt
 321      E7800000 
 322              	.LVL23:
 323              	.L17:
 324              	.LBE49:
 325              	.LBE48:
  32:src/semaphore.cpp ****     t->semBlocked=nullptr;
 326              		.loc 1 32 5 is_stmt 1
 327              		.loc 1 32 18 is_stmt 0
 328 01d0 23B80402 		sd	zero,48(s1)
  33:src/semaphore.cpp ****     Scheduler::put(t);
 329              		.loc 1 33 5 is_stmt 1
 330              		.loc 1 33 19 is_stmt 0
 331 01d4 13850400 		mv	a0,s1
 332 01d8 97000000 		call	_ZN9Scheduler3putEP3TCB@plt
 332      E7800000 
 333              	.LVL24:
  34:src/semaphore.cpp **** }
 334              		.loc 1 34 1
 335 01e0 83308101 		ld	ra,24(sp)
 336              		.cfi_remember_state
 337              		.cfi_restore 1
 338 01e4 03340101 		ld	s0,16(sp)
 339              		.cfi_restore 8
 340              		.cfi_def_cfa 2, 32
 341 01e8 83348100 		ld	s1,8(sp)
 342              		.cfi_restore 9
GAS LISTING /tmp/ccKgz6jM.s 			page 12


 343              	.LVL25:
 344 01ec 13010102 		addi	sp,sp,32
 345              		.cfi_def_cfa_offset 0
 346 01f0 67800000 		jr	ra
 347              	.LVL26:
 348              	.L21:
 349              		.cfi_restore_state
 350              	.LBB51:
 351              	.LBB50:
  51:src/../h/../h/LinkedList.hpp ****         }
 352              		.loc 3 51 13
 353 01f4 23B40700 		sd	zero,8(a5)
 354 01f8 6FF0DFFC 		j	.L18
 355              	.LVL27:
 356              	.L19:
  47:src/../h/../h/LinkedList.hpp ****         Elem *elem = head;
 357              		.loc 3 47 28
 358 01fc 93040500 		mv	s1,a0
 359 0200 6FF01FFD 		j	.L17
 360              	.LBE50:
 361              	.LBE51:
 362              		.cfi_endproc
 363              	.LFE31:
 365              		.align	2
 366              		.globl	_ZN9semaphore7semOpenEPPS_j
 368              	_ZN9semaphore7semOpenEPPS_j:
 369              	.LFB32:
  35:src/semaphore.cpp **** 
  36:src/semaphore.cpp **** int semaphore::semOpen(semaphore **handle, unsigned init) {
 370              		.loc 1 36 59 is_stmt 1
 371              		.cfi_startproc
 372              	.LVL28:
 373 0204 130101FF 		addi	sp,sp,-16
 374              		.cfi_def_cfa_offset 16
 375 0208 23348100 		sd	s0,8(sp)
 376              		.cfi_offset 8, -8
 377 020c 13040101 		addi	s0,sp,16
 378              		.cfi_def_cfa 8, 0
  37:src/semaphore.cpp ****     *handle=(semaphore*)MemoryAllocation::mem_alloc(MemoryAllocation::bytesToBlocks(sizeof(semaphor
 379              		.loc 1 37 5
 380              	.LVL29:
  69:src/../h/../h/../h/MemoryAllocation.hpp ****     }
 381              		.loc 2 69 9
 382              	.LBB64:
 383              	.LBB65:
 155:src/../h/../h/../h/MemoryAllocation.hpp ****         for (FreeMem* cur = fmem_head; cur != nullptr; cur=cur->next){ // U DRUGOJ ITERACIJI FMEM_H
 384              		.loc 2 155 9
 156:src/../h/../h/../h/MemoryAllocation.hpp ****             cur->next=fmem_head->next;
 385              		.loc 2 156 9
 386              	.LBB66:
 156:src/../h/../h/../h/MemoryAllocation.hpp ****             cur->next=fmem_head->next;
 387              		.loc 2 156 23 is_stmt 0
 388 0210 97070000 		la	a5,_ZN16MemoryAllocation9fmem_headE
 388      83B70700 
 389 0218 83B70700 		ld	a5,0(a5)
 390              	.LVL30:
 391              	.L24:
GAS LISTING /tmp/ccKgz6jM.s 			page 13


 156:src/../h/../h/../h/MemoryAllocation.hpp ****             cur->next=fmem_head->next;
 392              		.loc 2 156 44 is_stmt 1
 393 021c 638A070C 		beqz	a5,.L23
 394              	.LBB67:
 157:src/../h/../h/../h/MemoryAllocation.hpp ****             cur->prev=fmem_head->prev;
 395              		.loc 2 157 13
 157:src/../h/../h/../h/MemoryAllocation.hpp ****             cur->prev=fmem_head->prev;
 396              		.loc 2 157 34 is_stmt 0
 397 0220 17070000 		la	a4,_ZN16MemoryAllocation9fmem_headE
 397      03370700 
 398 0228 83360700 		ld	a3,0(a4)
 399 022c 83B60600 		ld	a3,0(a3)
 157:src/../h/../h/../h/MemoryAllocation.hpp ****             cur->prev=fmem_head->prev;
 400              		.loc 2 157 22
 401 0230 23B0D700 		sd	a3,0(a5)
 158:src/../h/../h/../h/MemoryAllocation.hpp ****             if (cur->size<size) continue;
 402              		.loc 2 158 13 is_stmt 1
 158:src/../h/../h/../h/MemoryAllocation.hpp ****             if (cur->size<size) continue;
 403              		.loc 2 158 34 is_stmt 0
 404 0234 03370700 		ld	a4,0(a4)
 405 0238 03368700 		ld	a2,8(a4)
 158:src/../h/../h/../h/MemoryAllocation.hpp ****             if (cur->size<size) continue;
 406              		.loc 2 158 22
 407 023c 23B4C700 		sd	a2,8(a5)
 159:src/../h/../h/../h/MemoryAllocation.hpp ****             if (cur->size-size<=sizeof(FreeMem)){
 408              		.loc 2 159 13 is_stmt 1
 159:src/../h/../h/../h/MemoryAllocation.hpp ****             if (cur->size-size<=sizeof(FreeMem)){
 409              		.loc 2 159 22 is_stmt 0
 410 0240 03B70701 		ld	a4,16(a5)
 159:src/../h/../h/../h/MemoryAllocation.hpp ****             if (cur->size-size<=sizeof(FreeMem)){
 411              		.loc 2 159 13
 412 0244 1308F003 		li	a6,63
 413 0248 6376E802 		bleu	a4,a6,.L42
 160:src/../h/../h/../h/MemoryAllocation.hpp ****                 if (cur->prev) cur->prev->next = cur->next;
 414              		.loc 2 160 13 is_stmt 1
 415              	.LBB68:
 160:src/../h/../h/../h/MemoryAllocation.hpp ****                 if (cur->prev) cur->prev->next = cur->next;
 416              		.loc 2 160 26 is_stmt 0
 417 024c 130707FC 		addi	a4,a4,-64
 160:src/../h/../h/../h/MemoryAllocation.hpp ****                 if (cur->prev) cur->prev->next = cur->next;
 418              		.loc 2 160 13
 419 0250 13088001 		li	a6,24
 420 0254 636CE802 		bgtu	a4,a6,.L25
 161:src/../h/../h/../h/MemoryAllocation.hpp ****                 else fmem_head = cur->next;
 421              		.loc 2 161 17 is_stmt 1
 422 0258 63020602 		beqz	a2,.L26
 161:src/../h/../h/../h/MemoryAllocation.hpp ****                 else fmem_head = cur->next;
 423              		.loc 2 161 32
 161:src/../h/../h/../h/MemoryAllocation.hpp ****                 else fmem_head = cur->next;
 424              		.loc 2 161 48 is_stmt 0
 425 025c 2330D600 		sd	a3,0(a2)
 426              	.L27:
 163:src/../h/../h/../h/MemoryAllocation.hpp ****                 return cur;
 427              		.loc 2 163 17 is_stmt 1
 163:src/../h/../h/../h/MemoryAllocation.hpp ****                 return cur;
 428              		.loc 2 163 26 is_stmt 0
 429 0260 03B70700 		ld	a4,0(a5)
GAS LISTING /tmp/ccKgz6jM.s 			page 14


 163:src/../h/../h/../h/MemoryAllocation.hpp ****                 return cur;
 430              		.loc 2 163 17
 431 0264 63060708 		beqz	a4,.L23
 163:src/../h/../h/../h/MemoryAllocation.hpp ****                 return cur;
 432              		.loc 2 163 32 is_stmt 1
 163:src/../h/../h/../h/MemoryAllocation.hpp ****                 return cur;
 433              		.loc 2 163 55 is_stmt 0
 434 0268 83B68700 		ld	a3,8(a5)
 163:src/../h/../h/../h/MemoryAllocation.hpp ****                 return cur;
 435              		.loc 2 163 48
 436 026c 2334D700 		sd	a3,8(a4)
 164:src/../h/../h/../h/MemoryAllocation.hpp ****             }else {
 437              		.loc 2 164 17 is_stmt 1
 164:src/../h/../h/../h/MemoryAllocation.hpp ****             }else {
 438              		.loc 2 164 24 is_stmt 0
 439 0270 6F000008 		j	.L23
 440              	.L42:
 441              	.LBE68:
 442              	.LBE67:
 156:src/../h/../h/../h/MemoryAllocation.hpp ****             cur->next=fmem_head->next;
 443              		.loc 2 156 59
 444 0274 93870600 		mv	a5,a3
 445              	.LVL31:
 446 0278 6FF05FFA 		j	.L24
 447              	.LVL32:
 448              	.L26:
 449              	.LBB73:
 450              	.LBB71:
 162:src/../h/../h/../h/MemoryAllocation.hpp ****                 if (cur->next) cur->next->prev = cur->prev;
 451              		.loc 2 162 22 is_stmt 1
 162:src/../h/../h/../h/MemoryAllocation.hpp ****                 if (cur->next) cur->next->prev = cur->prev;
 452              		.loc 2 162 32 is_stmt 0
 453 027c 17070000 		la	a4,_ZN16MemoryAllocation9fmem_headE
 453      03370700 
 454 0284 2330D700 		sd	a3,0(a4)
 455 0288 6FF09FFD 		j	.L27
 456              	.L25:
 457              	.LBB69:
 166:src/../h/../h/../h/MemoryAllocation.hpp ****                 newfrgm->prev=nullptr;
 458              		.loc 2 166 17 is_stmt 1
 166:src/../h/../h/../h/MemoryAllocation.hpp ****                 newfrgm->prev=nullptr;
 459              		.loc 2 166 26 is_stmt 0
 460 028c 13870704 		addi	a4,a5,64
 461              	.LVL33:
 167:src/../h/../h/../h/MemoryAllocation.hpp ****                 newfrgm->next=nullptr;
 462              		.loc 2 167 17 is_stmt 1
 167:src/../h/../h/../h/MemoryAllocation.hpp ****                 newfrgm->next=nullptr;
 463              		.loc 2 167 30 is_stmt 0
 464 0290 23340700 		sd	zero,8(a4)
 168:src/../h/../h/../h/MemoryAllocation.hpp ****                 //newfrgm->size=cur->size-size;// DODATO TOKOM PROBE NITI
 465              		.loc 2 168 17 is_stmt 1
 168:src/../h/../h/../h/MemoryAllocation.hpp ****                 //newfrgm->size=cur->size-size;// DODATO TOKOM PROBE NITI
 466              		.loc 2 168 30 is_stmt 0
 467 0294 23B00704 		sd	zero,64(a5)
 170:src/../h/../h/../h/MemoryAllocation.hpp ****                 else fmem_head = newfrgm+sizeof(fmem_head); // ovo sam dodao sizeof da bi mi radio 
 468              		.loc 2 170 17 is_stmt 1
 170:src/../h/../h/../h/MemoryAllocation.hpp ****                 else fmem_head = newfrgm+sizeof(fmem_head); // ovo sam dodao sizeof da bi mi radio 
GAS LISTING /tmp/ccKgz6jM.s 			page 15


 469              		.loc 2 170 33 is_stmt 0
 470 0298 83B68700 		ld	a3,8(a5)
 170:src/../h/../h/../h/MemoryAllocation.hpp ****                 else fmem_head = newfrgm+sizeof(fmem_head); // ovo sam dodao sizeof da bi mi radio 
 471              		.loc 2 170 25
 472 029c 6384060C 		beqz	a3,.L29
 170:src/../h/../h/../h/MemoryAllocation.hpp ****                 else fmem_head = newfrgm+sizeof(fmem_head); // ovo sam dodao sizeof da bi mi radio 
 473              		.loc 2 170 39 is_stmt 1
 170:src/../h/../h/../h/MemoryAllocation.hpp ****                 else fmem_head = newfrgm+sizeof(fmem_head); // ovo sam dodao sizeof da bi mi radio 
 474              		.loc 2 170 55 is_stmt 0
 475 02a0 23B0E600 		sd	a4,0(a3)
 476              	.L30:
 172:src/../h/../h/../h/MemoryAllocation.hpp ****                 newfrgm->prev = cur->prev;
 477              		.loc 2 172 17 is_stmt 1
 172:src/../h/../h/../h/MemoryAllocation.hpp ****                 newfrgm->prev = cur->prev;
 478              		.loc 2 172 33 is_stmt 0
 479 02a4 83B60700 		ld	a3,0(a5)
 172:src/../h/../h/../h/MemoryAllocation.hpp ****                 newfrgm->prev = cur->prev;
 480              		.loc 2 172 25
 481 02a8 63840600 		beqz	a3,.L31
 172:src/../h/../h/../h/MemoryAllocation.hpp ****                 newfrgm->prev = cur->prev;
 482              		.loc 2 172 39 is_stmt 1
 172:src/../h/../h/../h/MemoryAllocation.hpp ****                 newfrgm->prev = cur->prev;
 483              		.loc 2 172 55 is_stmt 0
 484 02ac 23B4E600 		sd	a4,8(a3)
 485              	.L31:
 173:src/../h/../h/../h/MemoryAllocation.hpp ****                 newfrgm->next = cur->next;
 486              		.loc 2 173 17 is_stmt 1
 173:src/../h/../h/../h/MemoryAllocation.hpp ****                 newfrgm->next = cur->next;
 487              		.loc 2 173 38 is_stmt 0
 488 02b0 03B68700 		ld	a2,8(a5)
 173:src/../h/../h/../h/MemoryAllocation.hpp ****                 newfrgm->next = cur->next;
 489              		.loc 2 173 31
 490 02b4 2334C700 		sd	a2,8(a4)
 174:src/../h/../h/../h/MemoryAllocation.hpp ****                 newfrgm->size = cur->size-size;
 491              		.loc 2 174 17 is_stmt 1
 174:src/../h/../h/../h/MemoryAllocation.hpp ****                 newfrgm->size = cur->size-size;
 492              		.loc 2 174 38 is_stmt 0
 493 02b8 83B60700 		ld	a3,0(a5)
 174:src/../h/../h/../h/MemoryAllocation.hpp ****                 newfrgm->size = cur->size-size;
 494              		.loc 2 174 31
 495 02bc 2330D700 		sd	a3,0(a4)
 175:src/../h/../h/../h/MemoryAllocation.hpp ****                 fmem_head =newfrgm+sizeof(fmem_head);
 496              		.loc 2 175 17 is_stmt 1
 175:src/../h/../h/../h/MemoryAllocation.hpp ****                 fmem_head =newfrgm+sizeof(fmem_head);
 497              		.loc 2 175 38 is_stmt 0
 498 02c0 83B70701 		ld	a5,16(a5)
 499              	.LVL34:
 175:src/../h/../h/../h/MemoryAllocation.hpp ****                 fmem_head =newfrgm+sizeof(fmem_head);
 500              		.loc 2 175 42
 501 02c4 938707FC 		addi	a5,a5,-64
 175:src/../h/../h/../h/MemoryAllocation.hpp ****                 fmem_head =newfrgm+sizeof(fmem_head);
 502              		.loc 2 175 31
 503 02c8 2338F700 		sd	a5,16(a4)
 176:src/../h/../h/../h/MemoryAllocation.hpp ****                 fmem_head->next=newfrgm->next;
 504              		.loc 2 176 17 is_stmt 1
 176:src/../h/../h/../h/MemoryAllocation.hpp ****                 fmem_head->next=newfrgm->next;
 505              		.loc 2 176 35 is_stmt 0
GAS LISTING /tmp/ccKgz6jM.s 			page 16


 506 02cc 9306070C 		addi	a3,a4,192
 176:src/../h/../h/../h/MemoryAllocation.hpp ****                 fmem_head->next=newfrgm->next;
 507              		.loc 2 176 27
 508 02d0 17080000 		la	a6,_ZN16MemoryAllocation9fmem_headE
 508      03380800 
 509 02d8 2330D800 		sd	a3,0(a6)
 177:src/../h/../h/../h/MemoryAllocation.hpp ****                 fmem_head->prev=newfrgm->prev;
 510              		.loc 2 177 17 is_stmt 1
 177:src/../h/../h/../h/MemoryAllocation.hpp ****                 fmem_head->prev=newfrgm->prev;
 511              		.loc 2 177 42 is_stmt 0
 512 02dc 03380700 		ld	a6,0(a4)
 177:src/../h/../h/../h/MemoryAllocation.hpp ****                 fmem_head->prev=newfrgm->prev;
 513              		.loc 2 177 32
 514 02e0 2330070D 		sd	a6,192(a4)
 178:src/../h/../h/../h/MemoryAllocation.hpp ****                 fmem_head->size=newfrgm->size;
 515              		.loc 2 178 17 is_stmt 1
 178:src/../h/../h/../h/MemoryAllocation.hpp ****                 fmem_head->size=newfrgm->size;
 516              		.loc 2 178 32 is_stmt 0
 517 02e4 2334C70C 		sd	a2,200(a4)
 179:src/../h/../h/../h/MemoryAllocation.hpp ****                 //fmem_head = (FreeMem*) (char*)newfrgm;
 518              		.loc 2 179 17 is_stmt 1
 179:src/../h/../h/../h/MemoryAllocation.hpp ****                 //fmem_head = (FreeMem*) (char*)newfrgm;
 519              		.loc 2 179 32 is_stmt 0
 520 02e8 2338F70C 		sd	a5,208(a4)
 521              		.loc 2 181 17 is_stmt 1
 522              		.loc 2 181 24 is_stmt 0
 523 02ec 93070700 		mv	a5,a4
 524              	.LVL35:
 525              	.L23:
 526              	.LBE69:
 527              	.LBE71:
 528              	.LBE73:
 529              	.LBE66:
 530              	.LBE65:
 531              	.LBE64:
 532              		.loc 1 37 12
 533 02f0 2330F500 		sd	a5,0(a0)
  38:src/semaphore.cpp ****     if (*handle==nullptr){
 534              		.loc 1 38 5 is_stmt 1
 535 02f4 63840712 		beqz	a5,.L43
  39:src/semaphore.cpp ****         return -1;
  40:src/semaphore.cpp ****     }
  41:src/semaphore.cpp ****     (*handle)->val=init;
 536              		.loc 1 41 5
 537              		.loc 1 41 19 is_stmt 0
 538 02f8 23A0B700 		sw	a1,0(a5)
  42:src/semaphore.cpp ****     (*handle)->blocked=(LinkedList<TCB>*) MemoryAllocation::mem_alloc(MemoryAllocation::bytesToBloc
 539              		.loc 1 42 5 is_stmt 1
 540              	.LVL36:
  69:src/../h/../h/../h/MemoryAllocation.hpp ****     }
 541              		.loc 2 69 9
 542              		.loc 1 42 6 is_stmt 0
 543 02fc 03350500 		ld	a0,0(a0)
 544              	.LVL37:
 545              	.LBB77:
 546              	.LBB78:
 155:src/../h/../h/../h/MemoryAllocation.hpp ****         for (FreeMem* cur = fmem_head; cur != nullptr; cur=cur->next){ // U DRUGOJ ITERACIJI FMEM_H
GAS LISTING /tmp/ccKgz6jM.s 			page 17


 547              		.loc 2 155 9 is_stmt 1
 156:src/../h/../h/../h/MemoryAllocation.hpp ****             cur->next=fmem_head->next;
 548              		.loc 2 156 9
 549              	.LBB79:
 156:src/../h/../h/../h/MemoryAllocation.hpp ****             cur->next=fmem_head->next;
 550              		.loc 2 156 23 is_stmt 0
 551 0300 97070000 		la	a5,_ZN16MemoryAllocation9fmem_headE
 551      83B70700 
 552 0308 83B70700 		ld	a5,0(a5)
 553              	.LVL38:
 554              	.L34:
 156:src/../h/../h/../h/MemoryAllocation.hpp ****             cur->next=fmem_head->next;
 555              		.loc 2 156 44 is_stmt 1
 556 030c 6384070E 		beqz	a5,.L33
 557              	.LBB80:
 157:src/../h/../h/../h/MemoryAllocation.hpp ****             cur->prev=fmem_head->prev;
 558              		.loc 2 157 13
 157:src/../h/../h/../h/MemoryAllocation.hpp ****             cur->prev=fmem_head->prev;
 559              		.loc 2 157 34 is_stmt 0
 560 0310 17070000 		la	a4,_ZN16MemoryAllocation9fmem_headE
 560      03370700 
 561 0318 83360700 		ld	a3,0(a4)
 562 031c 83B60600 		ld	a3,0(a3)
 157:src/../h/../h/../h/MemoryAllocation.hpp ****             cur->prev=fmem_head->prev;
 563              		.loc 2 157 22
 564 0320 23B0D700 		sd	a3,0(a5)
 158:src/../h/../h/../h/MemoryAllocation.hpp ****             if (cur->size<size) continue;
 565              		.loc 2 158 13 is_stmt 1
 158:src/../h/../h/../h/MemoryAllocation.hpp ****             if (cur->size<size) continue;
 566              		.loc 2 158 34 is_stmt 0
 567 0324 03370700 		ld	a4,0(a4)
 568 0328 03368700 		ld	a2,8(a4)
 158:src/../h/../h/../h/MemoryAllocation.hpp ****             if (cur->size<size) continue;
 569              		.loc 2 158 22
 570 032c 23B4C700 		sd	a2,8(a5)
 159:src/../h/../h/../h/MemoryAllocation.hpp ****             if (cur->size-size<=sizeof(FreeMem)){
 571              		.loc 2 159 13 is_stmt 1
 159:src/../h/../h/../h/MemoryAllocation.hpp ****             if (cur->size-size<=sizeof(FreeMem)){
 572              		.loc 2 159 22 is_stmt 0
 573 0330 03B70701 		ld	a4,16(a5)
 159:src/../h/../h/../h/MemoryAllocation.hpp ****             if (cur->size-size<=sizeof(FreeMem)){
 574              		.loc 2 159 13
 575 0334 9305F003 		li	a1,63
 576 0338 63F0E504 		bleu	a4,a1,.L44
 160:src/../h/../h/../h/MemoryAllocation.hpp ****                 if (cur->prev) cur->prev->next = cur->next;
 577              		.loc 2 160 13 is_stmt 1
 578              	.LBB81:
 160:src/../h/../h/../h/MemoryAllocation.hpp ****                 if (cur->prev) cur->prev->next = cur->next;
 579              		.loc 2 160 26 is_stmt 0
 580 033c 130707FC 		addi	a4,a4,-64
 160:src/../h/../h/../h/MemoryAllocation.hpp ****                 if (cur->prev) cur->prev->next = cur->next;
 581              		.loc 2 160 13
 582 0340 93058001 		li	a1,24
 583 0344 63E6E504 		bgtu	a4,a1,.L35
 161:src/../h/../h/../h/MemoryAllocation.hpp ****                 else fmem_head = cur->next;
 584              		.loc 2 161 17 is_stmt 1
 585 0348 630C0602 		beqz	a2,.L36
GAS LISTING /tmp/ccKgz6jM.s 			page 18


 161:src/../h/../h/../h/MemoryAllocation.hpp ****                 else fmem_head = cur->next;
 586              		.loc 2 161 32
 161:src/../h/../h/../h/MemoryAllocation.hpp ****                 else fmem_head = cur->next;
 587              		.loc 2 161 48 is_stmt 0
 588 034c 2330D600 		sd	a3,0(a2)
 589              	.L37:
 163:src/../h/../h/../h/MemoryAllocation.hpp ****                 return cur;
 590              		.loc 2 163 17 is_stmt 1
 163:src/../h/../h/../h/MemoryAllocation.hpp ****                 return cur;
 591              		.loc 2 163 26 is_stmt 0
 592 0350 03B70700 		ld	a4,0(a5)
 163:src/../h/../h/../h/MemoryAllocation.hpp ****                 return cur;
 593              		.loc 2 163 17
 594 0354 6300070A 		beqz	a4,.L33
 163:src/../h/../h/../h/MemoryAllocation.hpp ****                 return cur;
 595              		.loc 2 163 32 is_stmt 1
 163:src/../h/../h/../h/MemoryAllocation.hpp ****                 return cur;
 596              		.loc 2 163 55 is_stmt 0
 597 0358 83B68700 		ld	a3,8(a5)
 163:src/../h/../h/../h/MemoryAllocation.hpp ****                 return cur;
 598              		.loc 2 163 48
 599 035c 2334D700 		sd	a3,8(a4)
 164:src/../h/../h/../h/MemoryAllocation.hpp ****             }else {
 600              		.loc 2 164 17 is_stmt 1
 164:src/../h/../h/../h/MemoryAllocation.hpp ****             }else {
 601              		.loc 2 164 24 is_stmt 0
 602 0360 6F004009 		j	.L33
 603              	.LVL39:
 604              	.L29:
 605              	.LBE81:
 606              	.LBE80:
 607              	.LBE79:
 608              	.LBE78:
 609              	.LBE77:
 610              	.LBB92:
 611              	.LBB76:
 612              	.LBB75:
 613              	.LBB74:
 614              	.LBB72:
 615              	.LBB70:
 171:src/../h/../h/../h/MemoryAllocation.hpp ****                 if (cur && cur->next) cur->next->prev = newfrgm;
 616              		.loc 2 171 22 is_stmt 1
 171:src/../h/../h/../h/MemoryAllocation.hpp ****                 if (cur && cur->next) cur->next->prev = newfrgm;
 617              		.loc 2 171 41 is_stmt 0
 618 0364 9306070C 		addi	a3,a4,192
 171:src/../h/../h/../h/MemoryAllocation.hpp ****                 if (cur && cur->next) cur->next->prev = newfrgm;
 619              		.loc 2 171 32
 620 0368 17060000 		la	a2,_ZN16MemoryAllocation9fmem_headE
 620      03360600 
 621 0370 2330D600 		sd	a3,0(a2)
 622 0374 6FF01FF3 		j	.L30
 623              	.LVL40:
 624              	.L44:
 625              	.LBE70:
 626              	.LBE72:
 627              	.LBE74:
 628              	.LBE75:
GAS LISTING /tmp/ccKgz6jM.s 			page 19


 629              	.LBE76:
 630              	.LBE92:
 631              	.LBB93:
 632              	.LBB90:
 633              	.LBB88:
 156:src/../h/../h/../h/MemoryAllocation.hpp ****             cur->next=fmem_head->next;
 634              		.loc 2 156 59
 635 0378 93870600 		mv	a5,a3
 636              	.LVL41:
 637 037c 6FF01FF9 		j	.L34
 638              	.LVL42:
 639              	.L36:
 640              	.LBB86:
 641              	.LBB84:
 162:src/../h/../h/../h/MemoryAllocation.hpp ****                 if (cur->next) cur->next->prev = cur->prev;
 642              		.loc 2 162 22 is_stmt 1
 162:src/../h/../h/../h/MemoryAllocation.hpp ****                 if (cur->next) cur->next->prev = cur->prev;
 643              		.loc 2 162 32 is_stmt 0
 644 0380 17070000 		la	a4,_ZN16MemoryAllocation9fmem_headE
 644      03370700 
 645 0388 2330D700 		sd	a3,0(a4)
 646 038c 6FF05FFC 		j	.L37
 647              	.L35:
 648              	.LBB82:
 166:src/../h/../h/../h/MemoryAllocation.hpp ****                 newfrgm->prev=nullptr;
 649              		.loc 2 166 17 is_stmt 1
 166:src/../h/../h/../h/MemoryAllocation.hpp ****                 newfrgm->prev=nullptr;
 650              		.loc 2 166 26 is_stmt 0
 651 0390 13870704 		addi	a4,a5,64
 652              	.LVL43:
 167:src/../h/../h/../h/MemoryAllocation.hpp ****                 newfrgm->next=nullptr;
 653              		.loc 2 167 17 is_stmt 1
 167:src/../h/../h/../h/MemoryAllocation.hpp ****                 newfrgm->next=nullptr;
 654              		.loc 2 167 30 is_stmt 0
 655 0394 23340700 		sd	zero,8(a4)
 168:src/../h/../h/../h/MemoryAllocation.hpp ****                 //newfrgm->size=cur->size-size;// DODATO TOKOM PROBE NITI
 656              		.loc 2 168 17 is_stmt 1
 168:src/../h/../h/../h/MemoryAllocation.hpp ****                 //newfrgm->size=cur->size-size;// DODATO TOKOM PROBE NITI
 657              		.loc 2 168 30 is_stmt 0
 658 0398 23B00704 		sd	zero,64(a5)
 170:src/../h/../h/../h/MemoryAllocation.hpp ****                 else fmem_head = newfrgm+sizeof(fmem_head); // ovo sam dodao sizeof da bi mi radio 
 659              		.loc 2 170 17 is_stmt 1
 170:src/../h/../h/../h/MemoryAllocation.hpp ****                 else fmem_head = newfrgm+sizeof(fmem_head); // ovo sam dodao sizeof da bi mi radio 
 660              		.loc 2 170 33 is_stmt 0
 661 039c 83B68700 		ld	a3,8(a5)
 170:src/../h/../h/../h/MemoryAllocation.hpp ****                 else fmem_head = newfrgm+sizeof(fmem_head); // ovo sam dodao sizeof da bi mi radio 
 662              		.loc 2 170 25
 663 03a0 63840606 		beqz	a3,.L39
 170:src/../h/../h/../h/MemoryAllocation.hpp ****                 else fmem_head = newfrgm+sizeof(fmem_head); // ovo sam dodao sizeof da bi mi radio 
 664              		.loc 2 170 39 is_stmt 1
 170:src/../h/../h/../h/MemoryAllocation.hpp ****                 else fmem_head = newfrgm+sizeof(fmem_head); // ovo sam dodao sizeof da bi mi radio 
 665              		.loc 2 170 55 is_stmt 0
 666 03a4 23B0E600 		sd	a4,0(a3)
 667              	.L40:
 172:src/../h/../h/../h/MemoryAllocation.hpp ****                 newfrgm->prev = cur->prev;
 668              		.loc 2 172 17 is_stmt 1
 172:src/../h/../h/../h/MemoryAllocation.hpp ****                 newfrgm->prev = cur->prev;
GAS LISTING /tmp/ccKgz6jM.s 			page 20


 669              		.loc 2 172 33 is_stmt 0
 670 03a8 83B60700 		ld	a3,0(a5)
 172:src/../h/../h/../h/MemoryAllocation.hpp ****                 newfrgm->prev = cur->prev;
 671              		.loc 2 172 25
 672 03ac 63840600 		beqz	a3,.L41
 172:src/../h/../h/../h/MemoryAllocation.hpp ****                 newfrgm->prev = cur->prev;
 673              		.loc 2 172 39 is_stmt 1
 172:src/../h/../h/../h/MemoryAllocation.hpp ****                 newfrgm->prev = cur->prev;
 674              		.loc 2 172 55 is_stmt 0
 675 03b0 23B4E600 		sd	a4,8(a3)
 676              	.L41:
 173:src/../h/../h/../h/MemoryAllocation.hpp ****                 newfrgm->next = cur->next;
 677              		.loc 2 173 17 is_stmt 1
 173:src/../h/../h/../h/MemoryAllocation.hpp ****                 newfrgm->next = cur->next;
 678              		.loc 2 173 38 is_stmt 0
 679 03b4 03B68700 		ld	a2,8(a5)
 173:src/../h/../h/../h/MemoryAllocation.hpp ****                 newfrgm->next = cur->next;
 680              		.loc 2 173 31
 681 03b8 2334C700 		sd	a2,8(a4)
 174:src/../h/../h/../h/MemoryAllocation.hpp ****                 newfrgm->size = cur->size-size;
 682              		.loc 2 174 17 is_stmt 1
 174:src/../h/../h/../h/MemoryAllocation.hpp ****                 newfrgm->size = cur->size-size;
 683              		.loc 2 174 38 is_stmt 0
 684 03bc 83B60700 		ld	a3,0(a5)
 174:src/../h/../h/../h/MemoryAllocation.hpp ****                 newfrgm->size = cur->size-size;
 685              		.loc 2 174 31
 686 03c0 2330D700 		sd	a3,0(a4)
 175:src/../h/../h/../h/MemoryAllocation.hpp ****                 fmem_head =newfrgm+sizeof(fmem_head);
 687              		.loc 2 175 17 is_stmt 1
 175:src/../h/../h/../h/MemoryAllocation.hpp ****                 fmem_head =newfrgm+sizeof(fmem_head);
 688              		.loc 2 175 38 is_stmt 0
 689 03c4 83B70701 		ld	a5,16(a5)
 690              	.LVL44:
 175:src/../h/../h/../h/MemoryAllocation.hpp ****                 fmem_head =newfrgm+sizeof(fmem_head);
 691              		.loc 2 175 42
 692 03c8 938707FC 		addi	a5,a5,-64
 175:src/../h/../h/../h/MemoryAllocation.hpp ****                 fmem_head =newfrgm+sizeof(fmem_head);
 693              		.loc 2 175 31
 694 03cc 2338F700 		sd	a5,16(a4)
 176:src/../h/../h/../h/MemoryAllocation.hpp ****                 fmem_head->next=newfrgm->next;
 695              		.loc 2 176 17 is_stmt 1
 176:src/../h/../h/../h/MemoryAllocation.hpp ****                 fmem_head->next=newfrgm->next;
 696              		.loc 2 176 35 is_stmt 0
 697 03d0 9306070C 		addi	a3,a4,192
 176:src/../h/../h/../h/MemoryAllocation.hpp ****                 fmem_head->next=newfrgm->next;
 698              		.loc 2 176 27
 699 03d4 97050000 		la	a1,_ZN16MemoryAllocation9fmem_headE
 699      83B50500 
 700 03dc 23B0D500 		sd	a3,0(a1)
 177:src/../h/../h/../h/MemoryAllocation.hpp ****                 fmem_head->prev=newfrgm->prev;
 701              		.loc 2 177 17 is_stmt 1
 177:src/../h/../h/../h/MemoryAllocation.hpp ****                 fmem_head->prev=newfrgm->prev;
 702              		.loc 2 177 42 is_stmt 0
 703 03e0 83350700 		ld	a1,0(a4)
 177:src/../h/../h/../h/MemoryAllocation.hpp ****                 fmem_head->prev=newfrgm->prev;
 704              		.loc 2 177 32
 705 03e4 2330B70C 		sd	a1,192(a4)
GAS LISTING /tmp/ccKgz6jM.s 			page 21


 178:src/../h/../h/../h/MemoryAllocation.hpp ****                 fmem_head->size=newfrgm->size;
 706              		.loc 2 178 17 is_stmt 1
 178:src/../h/../h/../h/MemoryAllocation.hpp ****                 fmem_head->size=newfrgm->size;
 707              		.loc 2 178 32 is_stmt 0
 708 03e8 2334C70C 		sd	a2,200(a4)
 179:src/../h/../h/../h/MemoryAllocation.hpp ****                 //fmem_head = (FreeMem*) (char*)newfrgm;
 709              		.loc 2 179 17 is_stmt 1
 179:src/../h/../h/../h/MemoryAllocation.hpp ****                 //fmem_head = (FreeMem*) (char*)newfrgm;
 710              		.loc 2 179 32 is_stmt 0
 711 03ec 2338F70C 		sd	a5,208(a4)
 712              		.loc 2 181 17 is_stmt 1
 713              		.loc 2 181 24 is_stmt 0
 714 03f0 93070700 		mv	a5,a4
 715              	.LVL45:
 716              	.L33:
 717              	.LBE82:
 718              	.LBE84:
 719              	.LBE86:
 720              	.LBE88:
 721              	.LBE90:
 722              	.LBE93:
 723              		.loc 1 42 23
 724 03f4 2334F500 		sd	a5,8(a0)
  43:src/semaphore.cpp ****     return  0;
 725              		.loc 1 43 5 is_stmt 1
 726              		.loc 1 43 13 is_stmt 0
 727 03f8 13050000 		li	a0,0
 728              	.L32:
  44:src/semaphore.cpp **** }
 729              		.loc 1 44 1
 730 03fc 03348100 		ld	s0,8(sp)
 731              		.cfi_remember_state
 732              		.cfi_restore 8
 733              		.cfi_def_cfa 2, 16
 734 0400 13010101 		addi	sp,sp,16
 735              		.cfi_def_cfa_offset 0
 736 0404 67800000 		jr	ra
 737              	.LVL46:
 738              	.L39:
 739              		.cfi_restore_state
 740              	.LBB94:
 741              	.LBB91:
 742              	.LBB89:
 743              	.LBB87:
 744              	.LBB85:
 745              	.LBB83:
 171:src/../h/../h/../h/MemoryAllocation.hpp ****                 if (cur && cur->next) cur->next->prev = newfrgm;
 746              		.loc 2 171 22 is_stmt 1
 171:src/../h/../h/../h/MemoryAllocation.hpp ****                 if (cur && cur->next) cur->next->prev = newfrgm;
 747              		.loc 2 171 41 is_stmt 0
 748 0408 9306070C 		addi	a3,a4,192
 171:src/../h/../h/../h/MemoryAllocation.hpp ****                 if (cur && cur->next) cur->next->prev = newfrgm;
 749              		.loc 2 171 32
 750 040c 17060000 		la	a2,_ZN16MemoryAllocation9fmem_headE
 750      03360600 
 751 0414 2330D600 		sd	a3,0(a2)
 752 0418 6FF01FF9 		j	.L40
GAS LISTING /tmp/ccKgz6jM.s 			page 22


 753              	.LVL47:
 754              	.L43:
 755              	.LBE83:
 756              	.LBE85:
 757              	.LBE87:
 758              	.LBE89:
 759              	.LBE91:
 760              	.LBE94:
  39:src/semaphore.cpp ****     }
 761              		.loc 1 39 17
 762 041c 1305F0FF 		li	a0,-1
 763              	.LVL48:
 764 0420 6FF0DFFD 		j	.L32
 765              		.cfi_endproc
 766              	.LFE32:
 768              		.align	2
 769              		.globl	_ZN9semaphore8semCloseEPS_
 771              	_ZN9semaphore8semCloseEPS_:
 772              	.LFB33:
  45:src/semaphore.cpp **** 
  46:src/semaphore.cpp **** int semaphore::semClose(semaphore *semID) {
 773              		.loc 1 46 43 is_stmt 1
 774              		.cfi_startproc
 775              	.LVL49:
 776 0424 130101FE 		addi	sp,sp,-32
 777              		.cfi_def_cfa_offset 32
 778 0428 233C1100 		sd	ra,24(sp)
 779 042c 23388100 		sd	s0,16(sp)
 780 0430 23349100 		sd	s1,8(sp)
 781              		.cfi_offset 1, -8
 782              		.cfi_offset 8, -16
 783              		.cfi_offset 9, -24
 784 0434 13040102 		addi	s0,sp,32
 785              		.cfi_def_cfa 8, 0
 786 0438 93040500 		mv	s1,a0
 787              	.LVL50:
 788              	.L48:
  47:src/semaphore.cpp ****     while(((semID)->blocked->listEmpty())==false){
 789              		.loc 1 47 5
 790              		.loc 1 47 42
 791              		.loc 1 47 21 is_stmt 0
 792 043c 83B78400 		ld	a5,8(s1)
 793              	.LVL51:
 794              	.LBB105:
 795              	.LBB106:
 796              	.LBB107:
 797              	.LBB108:
  55:src/../h/../h/LinkedList.hpp ****         return ret;
  56:src/../h/../h/LinkedList.hpp ****     }
  57:src/../h/../h/LinkedList.hpp **** 
  58:src/../h/../h/LinkedList.hpp ****     T* peekFirst(){
  59:src/../h/../h/LinkedList.hpp ****         if (!head) {return 0;}
 798              		.loc 3 59 14
 799 0440 83B70700 		ld	a5,0(a5)
 800              	.LVL52:
 801              		.loc 3 59 9
 802 0444 638E0700 		beqz	a5,.L47
GAS LISTING /tmp/ccKgz6jM.s 			page 23


  60:src/../h/../h/LinkedList.hpp ****         return head->data;
 803              		.loc 3 60 22
 804 0448 83B70700 		ld	a5,0(a5)
 805              	.LVL53:
 806              	.LBE108:
 807              	.LBE107:
  61:src/../h/../h/LinkedList.hpp ****     }
  62:src/../h/../h/LinkedList.hpp **** 
  63:src/../h/../h/LinkedList.hpp ****     T* removeLast() {
  64:src/../h/../h/LinkedList.hpp ****         if (!head) { return 0;}
  65:src/../h/../h/LinkedList.hpp ****         Elem *prev = 0;
  66:src/../h/../h/LinkedList.hpp **** 
  67:src/../h/../h/LinkedList.hpp ****         for (Elem* curr = head; curr && curr!=tail; curr=curr->next){prev-curr;}
  68:src/../h/../h/LinkedList.hpp **** 
  69:src/../h/../h/LinkedList.hpp ****         Elem *elem=tail;
  70:src/../h/../h/LinkedList.hpp ****         if(prev) {prev->next = 0;}
  71:src/../h/../h/LinkedList.hpp ****         else{head=0;}
  72:src/../h/../h/LinkedList.hpp ****         tail=prev;
  73:src/../h/../h/LinkedList.hpp **** 
  74:src/../h/../h/LinkedList.hpp ****         T* ret = elem->data;
  75:src/../h/../h/LinkedList.hpp ****         delete elem;
  76:src/../h/../h/LinkedList.hpp ****         return ret;
  77:src/../h/../h/LinkedList.hpp ****     }
  78:src/../h/../h/LinkedList.hpp **** 
  79:src/../h/../h/LinkedList.hpp ****     T* peekList(){
  80:src/../h/../h/LinkedList.hpp ****         if(!tail) {return 0;}
  81:src/../h/../h/LinkedList.hpp ****         return tail->data;
  82:src/../h/../h/LinkedList.hpp ****     }
  83:src/../h/../h/LinkedList.hpp **** 
  84:src/../h/../h/LinkedList.hpp ****     bool listEmpty(){
  85:src/../h/../h/LinkedList.hpp ****         if(peekFirst()==0){
 808              		.loc 3 85 9
 809 044c 638A0700 		beqz	a5,.L47
 810              	.LVL54:
 811              	.LBE106:
 812              	.LBE105:
  48:src/semaphore.cpp ****         (semID)->unblock();
 813              		.loc 1 48 9 is_stmt 1
 814              		.loc 1 48 25 is_stmt 0
 815 0450 13850400 		mv	a0,s1
 816 0454 97000000 		call	_ZN9semaphore7unblockEv
 816      E7800000 
 817              	.LVL55:
  47:src/semaphore.cpp ****         (semID)->unblock();
 818              		.loc 1 47 5
 819 045c 6FF01FFE 		j	.L48
 820              	.LVL56:
 821              	.L47:
  49:src/semaphore.cpp ****         //TODO wait treba da vrati gresku? Kako to?
  50:src/semaphore.cpp ****     }
  51:src/semaphore.cpp ****     MemoryAllocation::mem_free(semID); //TODO mozda moze i samo (*handle)=nullptr
 822              		.loc 1 51 5 is_stmt 1
 823              	.LBB109:
 824              	.LBB110:
  88:src/../h/../h/../h/MemoryAllocation.hpp ****         if(!fmem_head || ptr < (char*)fmem_head)
 825              		.loc 2 88 9
  89:src/../h/../h/../h/MemoryAllocation.hpp ****         {
GAS LISTING /tmp/ccKgz6jM.s 			page 24


 826              		.loc 2 89 9
  89:src/../h/../h/../h/MemoryAllocation.hpp ****         {
 827              		.loc 2 89 12 is_stmt 0
 828 0460 97070000 		la	a5,_ZN16MemoryAllocation9fmem_headE
 828      83B70700 
 829 0468 83B70700 		ld	a5,0(a5)
  89:src/../h/../h/../h/MemoryAllocation.hpp ****         {
 830              		.loc 2 89 9
 831 046c 638E0700 		beqz	a5,.L58
  89:src/../h/../h/../h/MemoryAllocation.hpp ****         {
 832              		.loc 2 89 23
 833 0470 63E0F402 		bltu	s1,a5,.L59
 834              	.LVL57:
 835              	.L50:
  93:src/../h/../h/../h/MemoryAllocation.hpp ****             }
 836              		.loc 2 93 52 is_stmt 1
 837 0474 13870700 		mv	a4,a5
  93:src/../h/../h/../h/MemoryAllocation.hpp ****             }
 838              		.loc 2 93 42 is_stmt 0
 839 0478 83B70700 		ld	a5,0(a5)
 840              	.LVL58:
  93:src/../h/../h/../h/MemoryAllocation.hpp ****             }
 841              		.loc 2 93 52
 842 047c 638CF400 		beq	s1,a5,.L49
 843 0480 E3EA97FE 		bgtu	s1,a5,.L50
 844 0484 6F000001 		j	.L49
 845              	.LVL59:
 846              	.L58:
  91:src/../h/../h/../h/MemoryAllocation.hpp ****         }else {
 847              		.loc 2 91 16
 848 0488 13870700 		mv	a4,a5
 849 048c 6F008000 		j	.L49
 850              	.L59:
 851 0490 13070000 		li	a4,0
 852              	.LVL60:
 853              	.L49:
  95:src/../h/../h/../h/MemoryAllocation.hpp ****                 newSeg->next=nullptr;
 854              		.loc 2 95 17 is_stmt 1
  96:src/../h/../h/../h/MemoryAllocation.hpp ****                 newSeg->prev=nullptr;
 855              		.loc 2 96 17
  96:src/../h/../h/../h/MemoryAllocation.hpp ****                 newSeg->prev=nullptr;
 856              		.loc 2 96 29 is_stmt 0
 857 0494 23B00400 		sd	zero,0(s1)
  97:src/../h/../h/../h/MemoryAllocation.hpp ****                 newSeg->size=bytesToBlocks(sizeof(ptr))*MEM_BLOCK_SIZE;
 858              		.loc 2 97 17 is_stmt 1
  98:src/../h/../h/../h/MemoryAllocation.hpp ****                         //sizeof(ptr);
 859              		.loc 2 98 17
 860              	.LVL61:
 861              	.LBE110:
 862              	.LBE109:
  69:src/../h/../h/../h/MemoryAllocation.hpp ****     }
 863              		.loc 2 69 9
 864              	.LBB121:
 865              	.LBB119:
  98:src/../h/../h/../h/MemoryAllocation.hpp ****                         //sizeof(ptr);
 866              		.loc 2 98 29 is_stmt 0
 867 0498 93070004 		li	a5,64
GAS LISTING /tmp/ccKgz6jM.s 			page 25


 868 049c 23B8F400 		sd	a5,16(s1)
 100:src/../h/../h/../h/MemoryAllocation.hpp ****                 if(cur) {
 869              		.loc 2 100 17 is_stmt 1
 100:src/../h/../h/../h/MemoryAllocation.hpp ****                 if(cur) {
 870              		.loc 2 100 29 is_stmt 0
 871 04a0 23B4E400 		sd	a4,8(s1)
 101:src/../h/../h/../h/MemoryAllocation.hpp ****                     newSeg->next = cur->next;
 872              		.loc 2 101 17 is_stmt 1
 873 04a4 63040706 		beqz	a4,.L51
 102:src/../h/../h/../h/MemoryAllocation.hpp ****                 }
 874              		.loc 2 102 21
 102:src/../h/../h/../h/MemoryAllocation.hpp ****                 }
 875              		.loc 2 102 41 is_stmt 0
 876 04a8 83370700 		ld	a5,0(a4)
 102:src/../h/../h/../h/MemoryAllocation.hpp ****                 }
 877              		.loc 2 102 34
 878 04ac 23B0F400 		sd	a5,0(s1)
 879              	.L52:
 107:src/../h/../h/../h/MemoryAllocation.hpp ****                     newSeg->next->prev=newSeg;
 880              		.loc 2 107 17 is_stmt 1
 107:src/../h/../h/../h/MemoryAllocation.hpp ****                     newSeg->next->prev=newSeg;
 881              		.loc 2 107 28 is_stmt 0
 882 04b0 83B70400 		ld	a5,0(s1)
 107:src/../h/../h/../h/MemoryAllocation.hpp ****                     newSeg->next->prev=newSeg;
 883              		.loc 2 107 17
 884 04b4 63840700 		beqz	a5,.L53
 108:src/../h/../h/../h/MemoryAllocation.hpp ****                 }
 885              		.loc 2 108 21 is_stmt 1
 108:src/../h/../h/../h/MemoryAllocation.hpp ****                 }
 886              		.loc 2 108 39 is_stmt 0
 887 04b8 23B49700 		sd	s1,8(a5)
 888              	.L53:
 110:src/../h/../h/../h/MemoryAllocation.hpp ****                     cur->next = newSeg; //zasto ovde odjednom uzme vrednost x8000 umesto x8000f...?
 889              		.loc 2 110 17 is_stmt 1
 890 04bc 63020706 		beqz	a4,.L54
 111:src/../h/../h/../h/MemoryAllocation.hpp ****                 }
 891              		.loc 2 111 21
 111:src/../h/../h/../h/MemoryAllocation.hpp ****                 }
 892              		.loc 2 111 31 is_stmt 0
 893 04c0 23309700 		sd	s1,0(a4)
 894              	.L55:
 117:src/../h/../h/../h/MemoryAllocation.hpp ****             tryToJoin(cur);
 895              		.loc 2 117 13 is_stmt 1
 896              	.LVL62:
 897              	.LBB111:
 898              	.LBB112:
  75:src/../h/../h/../h/MemoryAllocation.hpp ****         if (curr->next && (char*)curr+curr->size == (char*)(curr->next)) {
 899              		.loc 2 75 9
 900 04c4 638C0400 		beqz	s1,.L56
  76:src/../h/../h/../h/MemoryAllocation.hpp ****         // Remove the cur->next segment:
 901              		.loc 2 76 9
  76:src/../h/../h/../h/MemoryAllocation.hpp ****         // Remove the cur->next segment:
 902              		.loc 2 76 19 is_stmt 0
 903 04c8 83B70400 		ld	a5,0(s1)
  76:src/../h/../h/../h/MemoryAllocation.hpp ****         // Remove the cur->next segment:
 904              		.loc 2 76 9
 905 04cc 63880700 		beqz	a5,.L56
GAS LISTING /tmp/ccKgz6jM.s 			page 26


  76:src/../h/../h/../h/MemoryAllocation.hpp ****         // Remove the cur->next segment:
 906              		.loc 2 76 45
 907 04d0 83B60401 		ld	a3,16(s1)
  76:src/../h/../h/../h/MemoryAllocation.hpp ****         // Remove the cur->next segment:
 908              		.loc 2 76 38
 909 04d4 3386D400 		add	a2,s1,a3
  76:src/../h/../h/../h/MemoryAllocation.hpp ****         // Remove the cur->next segment:
 910              		.loc 2 76 24
 911 04d8 638CC704 		beq	a5,a2,.L61
 912              	.L56:
 913              	.LVL63:
 914              	.LBE112:
 915              	.LBE111:
 118:src/../h/../h/../h/MemoryAllocation.hpp ****             //mozda da fmem_head nije jednako starom fmem_headu?
 916              		.loc 2 118 13 is_stmt 1
 917              	.LBB114:
 918              	.LBB115:
  75:src/../h/../h/../h/MemoryAllocation.hpp ****         if (curr->next && (char*)curr+curr->size == (char*)(curr->next)) {
 919              		.loc 2 75 9
 920 04dc 630C0700 		beqz	a4,.L57
  76:src/../h/../h/../h/MemoryAllocation.hpp ****         // Remove the cur->next segment:
 921              		.loc 2 76 9
  76:src/../h/../h/../h/MemoryAllocation.hpp ****         // Remove the cur->next segment:
 922              		.loc 2 76 19 is_stmt 0
 923 04e0 83370700 		ld	a5,0(a4)
  76:src/../h/../h/../h/MemoryAllocation.hpp ****         // Remove the cur->next segment:
 924              		.loc 2 76 9
 925 04e4 63880700 		beqz	a5,.L57
  76:src/../h/../h/../h/MemoryAllocation.hpp ****         // Remove the cur->next segment:
 926              		.loc 2 76 45
 927 04e8 83360701 		ld	a3,16(a4)
  76:src/../h/../h/../h/MemoryAllocation.hpp ****         // Remove the cur->next segment:
 928              		.loc 2 76 38
 929 04ec 3306D700 		add	a2,a4,a3
  76:src/../h/../h/../h/MemoryAllocation.hpp ****         // Remove the cur->next segment:
 930              		.loc 2 76 24
 931 04f0 6380C706 		beq	a5,a2,.L62
 932              	.L57:
 933              	.LVL64:
 934              	.LBE115:
 935              	.LBE114:
 120:src/../h/../h/../h/MemoryAllocation.hpp ****                 return -1;
 936              		.loc 2 120 13 is_stmt 1
 937              	.LBE119:
 938              	.LBE121:
  52:src/semaphore.cpp ****     return 0;
 939              		.loc 1 52 5
  53:src/semaphore.cpp **** }
 940              		.loc 1 53 1 is_stmt 0
 941 04f4 13050000 		li	a0,0
 942 04f8 83308101 		ld	ra,24(sp)
 943              		.cfi_remember_state
 944              		.cfi_restore 1
 945 04fc 03340101 		ld	s0,16(sp)
 946              		.cfi_restore 8
 947              		.cfi_def_cfa 2, 32
 948 0500 83348100 		ld	s1,8(sp)
GAS LISTING /tmp/ccKgz6jM.s 			page 27


 949              		.cfi_restore 9
 950              	.LVL65:
 951 0504 13010102 		addi	sp,sp,32
 952              		.cfi_def_cfa_offset 0
 953 0508 67800000 		jr	ra
 954              	.LVL66:
 955              	.L51:
 956              		.cfi_restore_state
 957              	.LBB122:
 958              	.LBB120:
 105:src/../h/../h/../h/MemoryAllocation.hpp ****                 }
 959              		.loc 2 105 21 is_stmt 1
 105:src/../h/../h/../h/MemoryAllocation.hpp ****                 }
 960              		.loc 2 105 34 is_stmt 0
 961 050c 97070000 		la	a5,_ZN16MemoryAllocation9fmem_headE
 961      83B70700 
 962 0514 83B70700 		ld	a5,0(a5)
 963 0518 23B0F400 		sd	a5,0(s1)
 964 051c 6FF05FF9 		j	.L52
 965              	.L54:
 114:src/../h/../h/../h/MemoryAllocation.hpp ****                 }
 966              		.loc 2 114 21 is_stmt 1
 114:src/../h/../h/../h/MemoryAllocation.hpp ****                 }
 967              		.loc 2 114 31 is_stmt 0
 968 0520 97070000 		la	a5,_ZN16MemoryAllocation9fmem_headE
 968      83B70700 
 969 0528 23B09700 		sd	s1,0(a5)
 970 052c 6FF09FF9 		j	.L55
 971              	.LVL67:
 972              	.L61:
 973              	.LBB117:
 974              	.LBB113:
  78:src/../h/../h/../h/MemoryAllocation.hpp ****             curr->next = curr->next->next;
 975              		.loc 2 78 13 is_stmt 1
  78:src/../h/../h/../h/MemoryAllocation.hpp ****             curr->next = curr->next->next;
 976              		.loc 2 78 39 is_stmt 0
 977 0530 03B60701 		ld	a2,16(a5)
  78:src/../h/../h/../h/MemoryAllocation.hpp ****             curr->next = curr->next->next;
 978              		.loc 2 78 24
 979 0534 B386C600 		add	a3,a3,a2
 980 0538 23B8D400 		sd	a3,16(s1)
  79:src/../h/../h/../h/MemoryAllocation.hpp ****             if (curr->next) curr->next->prev = curr;
 981              		.loc 2 79 13 is_stmt 1
  79:src/../h/../h/../h/MemoryAllocation.hpp ****             if (curr->next) curr->next->prev = curr;
 982              		.loc 2 79 38 is_stmt 0
 983 053c 83B70700 		ld	a5,0(a5)
  79:src/../h/../h/../h/MemoryAllocation.hpp ****             if (curr->next) curr->next->prev = curr;
 984              		.loc 2 79 24
 985 0540 23B0F400 		sd	a5,0(s1)
  80:src/../h/../h/../h/MemoryAllocation.hpp ****             return;
 986              		.loc 2 80 13 is_stmt 1
 987 0544 E38C07F8 		beqz	a5,.L56
  80:src/../h/../h/../h/MemoryAllocation.hpp ****             return;
 988              		.loc 2 80 29
  80:src/../h/../h/../h/MemoryAllocation.hpp ****             return;
 989              		.loc 2 80 46 is_stmt 0
 990 0548 23B49700 		sd	s1,8(a5)
GAS LISTING /tmp/ccKgz6jM.s 			page 28


 991 054c 6FF01FF9 		j	.L56
 992              	.LVL68:
 993              	.L62:
 994              	.LBE113:
 995              	.LBE117:
 996              	.LBB118:
 997              	.LBB116:
  78:src/../h/../h/../h/MemoryAllocation.hpp ****             curr->next = curr->next->next;
 998              		.loc 2 78 13 is_stmt 1
  78:src/../h/../h/../h/MemoryAllocation.hpp ****             curr->next = curr->next->next;
 999              		.loc 2 78 39 is_stmt 0
 1000 0550 03B60701 		ld	a2,16(a5)
  78:src/../h/../h/../h/MemoryAllocation.hpp ****             curr->next = curr->next->next;
 1001              		.loc 2 78 24
 1002 0554 B386C600 		add	a3,a3,a2
 1003 0558 2338D700 		sd	a3,16(a4)
  79:src/../h/../h/../h/MemoryAllocation.hpp ****             if (curr->next) curr->next->prev = curr;
 1004              		.loc 2 79 13 is_stmt 1
  79:src/../h/../h/../h/MemoryAllocation.hpp ****             if (curr->next) curr->next->prev = curr;
 1005              		.loc 2 79 38 is_stmt 0
 1006 055c 83B70700 		ld	a5,0(a5)
  79:src/../h/../h/../h/MemoryAllocation.hpp ****             if (curr->next) curr->next->prev = curr;
 1007              		.loc 2 79 24
 1008 0560 2330F700 		sd	a5,0(a4)
  80:src/../h/../h/../h/MemoryAllocation.hpp ****             return;
 1009              		.loc 2 80 13 is_stmt 1
 1010 0564 E38807F8 		beqz	a5,.L57
  80:src/../h/../h/../h/MemoryAllocation.hpp ****             return;
 1011              		.loc 2 80 29
  80:src/../h/../h/../h/MemoryAllocation.hpp ****             return;
 1012              		.loc 2 80 46 is_stmt 0
 1013 0568 23B4E700 		sd	a4,8(a5)
 1014 056c 6FF09FF8 		j	.L57
 1015              	.LBE116:
 1016              	.LBE118:
 1017              	.LBE120:
 1018              	.LBE122:
 1019              		.cfi_endproc
 1020              	.LFE33:
 1022              		.align	2
 1023              		.globl	_ZN9semaphore7semWaitEPS_
 1025              	_ZN9semaphore7semWaitEPS_:
 1026              	.LFB34:
  54:src/semaphore.cpp **** 
  55:src/semaphore.cpp **** int semaphore::semWait(semaphore *semID) {
 1027              		.loc 1 55 42 is_stmt 1
 1028              		.cfi_startproc
 1029              	.LVL69:
  56:src/semaphore.cpp ****     if(semID == nullptr){return -1;}
 1030              		.loc 1 56 5
 1031 0570 63060504 		beqz	a0,.L65
  57:src/semaphore.cpp ****     if((--((semID)->val))<0) { (semID)->block(); }
 1032              		.loc 1 57 5
 1033              		.loc 1 57 21 is_stmt 0
 1034 0574 83270500 		lw	a5,0(a0)
 1035              		.loc 1 57 9
 1036 0578 9B87F7FF 		addiw	a5,a5,-1
GAS LISTING /tmp/ccKgz6jM.s 			page 29


 1037              		.loc 1 57 26
 1038 057c 2320F500 		sw	a5,0(a0)
 1039              		.loc 1 57 5
 1040 0580 13970702 		slli	a4,a5,32
 1041 0584 63460700 		bltz	a4,.L71
  58:src/semaphore.cpp ****     return 0;
 1042              		.loc 1 58 12
 1043 0588 13050000 		li	a0,0
 1044              	.LVL70:
  59:src/semaphore.cpp **** }
 1045              		.loc 1 59 1
 1046 058c 67800000 		ret
 1047              	.LVL71:
 1048              	.L71:
  55:src/semaphore.cpp ****     if(semID == nullptr){return -1;}
 1049              		.loc 1 55 42 discriminator 1
 1050 0590 130101FF 		addi	sp,sp,-16
 1051              		.cfi_def_cfa_offset 16
 1052 0594 23341100 		sd	ra,8(sp)
 1053 0598 23308100 		sd	s0,0(sp)
 1054              		.cfi_offset 1, -8
 1055              		.cfi_offset 8, -16
 1056 059c 13040101 		addi	s0,sp,16
 1057              		.cfi_def_cfa 8, 0
  57:src/semaphore.cpp ****     return 0;
 1058              		.loc 1 57 32 is_stmt 1 discriminator 1
  57:src/semaphore.cpp ****     return 0;
 1059              		.loc 1 57 46 is_stmt 0 discriminator 1
 1060 05a0 97000000 		call	_ZN9semaphore5blockEv
 1060      E7800000 
 1061              	.LVL72:
  58:src/semaphore.cpp **** }
 1062              		.loc 1 58 12 discriminator 1
 1063 05a8 13050000 		li	a0,0
 1064              		.loc 1 59 1 discriminator 1
 1065 05ac 83308100 		ld	ra,8(sp)
 1066              		.cfi_restore 1
 1067 05b0 03340100 		ld	s0,0(sp)
 1068              		.cfi_restore 8
 1069              		.cfi_def_cfa 2, 16
 1070 05b4 13010101 		addi	sp,sp,16
 1071              		.cfi_def_cfa_offset 0
 1072 05b8 67800000 		jr	ra
 1073              	.LVL73:
 1074              	.L65:
  56:src/semaphore.cpp ****     if((--((semID)->val))<0) { (semID)->block(); }
 1075              		.loc 1 56 34
 1076 05bc 1305F0FF 		li	a0,-1
 1077              	.LVL74:
 1078 05c0 67800000 		ret
 1079              		.cfi_endproc
 1080              	.LFE34:
 1082              		.align	2
 1083              		.globl	_ZN9semaphore9semSignalEPS_
 1085              	_ZN9semaphore9semSignalEPS_:
 1086              	.LFB35:
  60:src/semaphore.cpp **** 
GAS LISTING /tmp/ccKgz6jM.s 			page 30


  61:src/semaphore.cpp **** int semaphore::semSignal(semaphore *semID) {
 1087              		.loc 1 61 44 is_stmt 1
 1088              		.cfi_startproc
 1089              	.LVL75:
  62:src/semaphore.cpp ****     if((++((semID)->val))<=0) { (semID)->unblock(); }
 1090              		.loc 1 62 5
 1091              		.loc 1 62 21 is_stmt 0
 1092 05c4 83270500 		lw	a5,0(a0)
 1093              		.loc 1 62 9
 1094 05c8 9B871700 		addiw	a5,a5,1
 1095 05cc 1B870700 		sext.w	a4,a5
 1096              		.loc 1 62 26
 1097 05d0 2320F500 		sw	a5,0(a0)
 1098              		.loc 1 62 5
 1099 05d4 6356E000 		blez	a4,.L78
  63:src/semaphore.cpp ****     return 0;
 1100              		.loc 1 63 5 is_stmt 1
  64:src/semaphore.cpp **** }
 1101              		.loc 1 64 1 is_stmt 0
 1102 05d8 13050000 		li	a0,0
 1103              	.LVL76:
 1104 05dc 67800000 		ret
 1105              	.LVL77:
 1106              	.L78:
  61:src/semaphore.cpp ****     if((++((semID)->val))<=0) { (semID)->unblock(); }
 1107              		.loc 1 61 44 discriminator 1
 1108 05e0 130101FF 		addi	sp,sp,-16
 1109              		.cfi_def_cfa_offset 16
 1110 05e4 23341100 		sd	ra,8(sp)
 1111 05e8 23308100 		sd	s0,0(sp)
 1112              		.cfi_offset 1, -8
 1113              		.cfi_offset 8, -16
 1114 05ec 13040101 		addi	s0,sp,16
 1115              		.cfi_def_cfa 8, 0
  62:src/semaphore.cpp ****     return 0;
 1116              		.loc 1 62 33 is_stmt 1 discriminator 1
  62:src/semaphore.cpp ****     return 0;
 1117              		.loc 1 62 49 is_stmt 0 discriminator 1
 1118 05f0 97000000 		call	_ZN9semaphore7unblockEv
 1118      E7800000 
 1119              	.LVL78:
  63:src/semaphore.cpp **** }
 1120              		.loc 1 63 5 is_stmt 1 discriminator 1
 1121              		.loc 1 64 1 is_stmt 0 discriminator 1
 1122 05f8 13050000 		li	a0,0
 1123 05fc 83308100 		ld	ra,8(sp)
 1124              		.cfi_restore 1
 1125 0600 03340100 		ld	s0,0(sp)
 1126              		.cfi_restore 8
 1127              		.cfi_def_cfa 2, 16
 1128 0604 13010101 		addi	sp,sp,16
 1129              		.cfi_def_cfa_offset 0
 1130 0608 67800000 		jr	ra
 1131              		.cfi_endproc
 1132              	.LFE35:
 1134              	.Letext0:
 1135              		.file 4 "src/../h/../h/../h/../lib/hw.h"
GAS LISTING /tmp/ccKgz6jM.s 			page 31


 1136              		.file 5 "src/../h/tcb.hpp"
 1137              		.file 6 "src/../h/semaphore.hpp"
 1138              		.file 7 "src/../h/../h/Scheduler.hpp"
GAS LISTING /tmp/ccKgz6jM.s 			page 32

