GAS LISTING /tmp/ccP4iEQ4.s 			page 1


   1              		.file	"syscall_cpp.cpp"
   2              		.option pic
   3              		.option norelax
   4              		.text
   5              	.Ltext0:
   6              		.section	.text._ZN6Thread3runEv,"axG",@progbits,_ZN6Thread3runEv,comdat
   7              		.align	2
   8              		.weak	_ZN6Thread3runEv
  10              	_ZN6Thread3runEv:
  11              	.LFB35:
  12              		.file 1 "src/../h/syscall_cpp.hpp"
   1:src/../h/syscall_cpp.hpp **** //
   2:src/../h/syscall_cpp.hpp **** // Created by os on 9/11/22.
   3:src/../h/syscall_cpp.hpp **** //
   4:src/../h/syscall_cpp.hpp **** 
   5:src/../h/syscall_cpp.hpp **** #ifndef _syscall_cpp
   6:src/../h/syscall_cpp.hpp **** #define _syscall_cpp
   7:src/../h/syscall_cpp.hpp **** #include "syscall_c.hpp"
   8:src/../h/syscall_cpp.hpp **** #include "../h/printing.hpp"
   9:src/../h/syscall_cpp.hpp **** //void* ::operator new (size_t);
  10:src/../h/syscall_cpp.hpp **** //void ::operator delete (void*);
  11:src/../h/syscall_cpp.hpp **** class Thread {
  12:src/../h/syscall_cpp.hpp **** public:
  13:src/../h/syscall_cpp.hpp ****     Thread (void (*body)(void*), void* arg);
  14:src/../h/syscall_cpp.hpp ****     virtual ~Thread ();
  15:src/../h/syscall_cpp.hpp ****     int start ();
  16:src/../h/syscall_cpp.hpp ****     static void dispatch ();
  17:src/../h/syscall_cpp.hpp ****     static void threadWrapper(void* arg);
  18:src/../h/syscall_cpp.hpp **** protected:
  19:src/../h/syscall_cpp.hpp ****     Thread (){
  20:src/../h/syscall_cpp.hpp ****         //tu izleda da treba da dodas gornji konstruktor
  21:src/../h/syscall_cpp.hpp ****         //printString("pre wrappera");
  22:src/../h/syscall_cpp.hpp ****         //threadWrapper(this); //todo uopste mi ne napravi handle
  23:src/../h/syscall_cpp.hpp ****         //printString("posle wrappera");
  24:src/../h/syscall_cpp.hpp ****         //Thread(threadWrapper(this), this); //todo mozda treba & ispred threadWrapper
  25:src/../h/syscall_cpp.hpp ****         //thread_create_cpp_api(&myHandle, threadWrapper, this);
  26:src/../h/syscall_cpp.hpp ****         createWrapper(&myHandle, threadWrapper, this, false); //OVO RADI, ZNACI ILI NE RADI START I
  27:src/../h/syscall_cpp.hpp ****         //THREAD_CREATE RADI BEZ PROBLEMA, STAVLJAO FALSE ILI TRUE MODIFIKATOR, ZNACI I DA SVE OSTA
  28:src/../h/syscall_cpp.hpp ****     };
  29:src/../h/syscall_cpp.hpp ****     virtual void run () {} //on ovde zabaguje potpuno
  13              		.loc 1 29 18
  14              		.cfi_startproc
  15              	.LVL0:
  16 0000 130101FF 		addi	sp,sp,-16
  17              		.cfi_def_cfa_offset 16
  18 0004 23348100 		sd	s0,8(sp)
  19              		.cfi_offset 8, -8
  20 0008 13040101 		addi	s0,sp,16
  21              		.cfi_def_cfa 8, 0
  22              		.loc 1 29 26 is_stmt 0
  23 000c 03348100 		ld	s0,8(sp)
  24              		.cfi_restore 8
  25              		.cfi_def_cfa 2, 16
  26 0010 13010101 		addi	sp,sp,16
  27              		.cfi_def_cfa_offset 0
  28 0014 67800000 		jr	ra
  29              		.cfi_endproc
GAS LISTING /tmp/ccP4iEQ4.s 			page 2


  30              	.LFE35:
  32              		.text
  33              		.align	2
  34              		.globl	_ZN6Thread13threadWrapperEPv
  36              	_ZN6Thread13threadWrapperEPv:
  37              	.LFB45:
  38              		.file 2 "src/syscall_cpp.cpp"
   1:src/syscall_cpp.cpp **** //
   2:src/syscall_cpp.cpp **** // Created by os on 9/11/22.
   3:src/syscall_cpp.cpp **** //
   4:src/syscall_cpp.cpp **** 
   5:src/syscall_cpp.cpp **** #include "../h/syscall_cpp.hpp"
   6:src/syscall_cpp.cpp **** 
   7:src/syscall_cpp.cpp **** Thread::Thread(void (*body)(void *), void *arg) : myHandle(nullptr){ //todo nekako treba da inicija
   8:src/syscall_cpp.cpp ****     thread_create_cpp_api(&myHandle, body, arg);
   9:src/syscall_cpp.cpp **** }
  10:src/syscall_cpp.cpp **** 
  11:src/syscall_cpp.cpp **** void Thread::dispatch() {
  12:src/syscall_cpp.cpp ****     thread_dispatch();
  13:src/syscall_cpp.cpp **** }
  14:src/syscall_cpp.cpp **** 
  15:src/syscall_cpp.cpp **** Thread::~Thread() {
  16:src/syscall_cpp.cpp ****     mem_free(myHandle);//mozda cak i sizeof(Thread)
  17:src/syscall_cpp.cpp **** }
  18:src/syscall_cpp.cpp **** 
  19:src/syscall_cpp.cpp **** int Thread::start() {
  20:src/syscall_cpp.cpp ****     //printString("udje u start");
  21:src/syscall_cpp.cpp ****     thread_start(&myHandle, threadWrapper); //todo vrati na cast (thread_t*) ako ne bude radilo
  22:src/syscall_cpp.cpp ****     //printString("izadje iz starta");
  23:src/syscall_cpp.cpp ****     return 0;
  24:src/syscall_cpp.cpp **** }
  25:src/syscall_cpp.cpp **** 
  26:src/syscall_cpp.cpp **** void Thread::threadWrapper(void *arg) {
  39              		.loc 2 26 39 is_stmt 1
  40              		.cfi_startproc
  41              	.LVL1:
  42 0000 130101FF 		addi	sp,sp,-16
  43              		.cfi_def_cfa_offset 16
  44 0004 23341100 		sd	ra,8(sp)
  45 0008 23308100 		sd	s0,0(sp)
  46              		.cfi_offset 1, -8
  47              		.cfi_offset 8, -16
  48 000c 13040101 		addi	s0,sp,16
  49              		.cfi_def_cfa 8, 0
  27:src/syscall_cpp.cpp ****     ((Thread*)arg)->run();
  50              		.loc 2 27 5
  51              		.loc 2 27 25 is_stmt 0
  52 0010 83370500 		ld	a5,0(a0)
  53 0014 83B70701 		ld	a5,16(a5)
  54              		.loc 2 27 24
  55 0018 E7800700 		jalr	a5
  56              	.LVL2:
  28:src/syscall_cpp.cpp **** }
  57              		.loc 2 28 1
  58 001c 83308100 		ld	ra,8(sp)
  59              		.cfi_restore 1
  60 0020 03340100 		ld	s0,0(sp)
GAS LISTING /tmp/ccP4iEQ4.s 			page 3


  61              		.cfi_restore 8
  62              		.cfi_def_cfa 2, 16
  63 0024 13010101 		addi	sp,sp,16
  64              		.cfi_def_cfa_offset 0
  65 0028 67800000 		jr	ra
  66              		.cfi_endproc
  67              	.LFE45:
  69              		.align	2
  70              		.globl	_ZN6ThreadD2Ev
  72              	_ZN6ThreadD2Ev:
  73              	.LFB41:
  15:src/syscall_cpp.cpp ****     mem_free(myHandle);//mozda cak i sizeof(Thread)
  74              		.loc 2 15 1 is_stmt 1
  75              		.cfi_startproc
  76              		.cfi_personality 0x9b,DW.ref.__gxx_personality_v0
  77              		.cfi_lsda 0x1b,.LLSDA41
  78              	.LVL3:
  79 002c 130101FF 		addi	sp,sp,-16
  80              		.cfi_def_cfa_offset 16
  81 0030 23341100 		sd	ra,8(sp)
  82 0034 23308100 		sd	s0,0(sp)
  83              		.cfi_offset 1, -8
  84              		.cfi_offset 8, -16
  85 0038 13040101 		addi	s0,sp,16
  86              		.cfi_def_cfa 8, 0
  87              	.LBB2:
  15:src/syscall_cpp.cpp ****     mem_free(myHandle);//mozda cak i sizeof(Thread)
  88              		.loc 2 15 17 is_stmt 0
  89 003c 97070000 		lla	a5,_ZTV6Thread+16
  89      93870700 
  90 0044 2330F500 		sd	a5,0(a0)
  16:src/syscall_cpp.cpp **** }
  91              		.loc 2 16 5 is_stmt 1
  16:src/syscall_cpp.cpp **** }
  92              		.loc 2 16 13 is_stmt 0
  93 0048 03358500 		ld	a0,8(a0)
  94              	.LVL4:
  95 004c 97000000 		call	_Z8mem_freePv@plt
  95      E7800000 
  96              	.LVL5:
  97              	.LBE2:
  17:src/syscall_cpp.cpp **** 
  98              		.loc 2 17 1
  99 0054 83308100 		ld	ra,8(sp)
 100              		.cfi_restore 1
 101 0058 03340100 		ld	s0,0(sp)
 102              		.cfi_restore 8
 103              		.cfi_def_cfa 2, 16
 104 005c 13010101 		addi	sp,sp,16
 105              		.cfi_def_cfa_offset 0
 106 0060 67800000 		jr	ra
 107              		.cfi_endproc
 108              	.LFE41:
 109              		.globl	__gxx_personality_v0
 110              		.section	.gcc_except_table,"a",@progbits
 111              	.LLSDA41:
 112 0000 FF       		.byte	0xff
GAS LISTING /tmp/ccP4iEQ4.s 			page 4


 113 0001 FF       		.byte	0xff
 114 0002 03       		.byte	0x3
 115 0003 00       		.byte	0
 116              		.text
 118              		.globl	_ZN6ThreadD1Ev
 119              		.set	_ZN6ThreadD1Ev,_ZN6ThreadD2Ev
 120              		.align	2
 121              		.globl	_ZN9SemaphoreD2Ev
 123              	_ZN9SemaphoreD2Ev:
 124              	.LFB50:
  29:src/syscall_cpp.cpp **** 
  30:src/syscall_cpp.cpp **** Semaphore::Semaphore(unsigned int init) {
  31:src/syscall_cpp.cpp ****     sem_open(&myHandle, init);
  32:src/syscall_cpp.cpp **** }
  33:src/syscall_cpp.cpp **** 
  34:src/syscall_cpp.cpp **** Semaphore::~Semaphore() {
 125              		.loc 2 34 1 is_stmt 1
 126              		.cfi_startproc
 127              		.cfi_personality 0x9b,DW.ref.__gxx_personality_v0
 128              		.cfi_lsda 0x1b,.LLSDA50
 129              	.LVL6:
 130 0064 130101FF 		addi	sp,sp,-16
 131              		.cfi_def_cfa_offset 16
 132 0068 23341100 		sd	ra,8(sp)
 133 006c 23308100 		sd	s0,0(sp)
 134              		.cfi_offset 1, -8
 135              		.cfi_offset 8, -16
 136 0070 13040101 		addi	s0,sp,16
 137              		.cfi_def_cfa 8, 0
 138              	.LBB3:
 139              		.loc 2 34 23 is_stmt 0
 140 0074 97070000 		lla	a5,_ZTV9Semaphore+16
 140      93870700 
 141 007c 2330F500 		sd	a5,0(a0)
  35:src/syscall_cpp.cpp ****     mem_free(myHandle);
 142              		.loc 2 35 5 is_stmt 1
 143              		.loc 2 35 13 is_stmt 0
 144 0080 03358500 		ld	a0,8(a0)
 145              	.LVL7:
 146 0084 97000000 		call	_Z8mem_freePv@plt
 146      E7800000 
 147              	.LVL8:
 148              	.LBE3:
  36:src/syscall_cpp.cpp **** }
 149              		.loc 2 36 1
 150 008c 83308100 		ld	ra,8(sp)
 151              		.cfi_restore 1
 152 0090 03340100 		ld	s0,0(sp)
 153              		.cfi_restore 8
 154              		.cfi_def_cfa 2, 16
 155 0094 13010101 		addi	sp,sp,16
 156              		.cfi_def_cfa_offset 0
 157 0098 67800000 		jr	ra
 158              		.cfi_endproc
 159              	.LFE50:
 160              		.section	.gcc_except_table
 161              	.LLSDA50:
GAS LISTING /tmp/ccP4iEQ4.s 			page 5


 162 0004 FF       		.byte	0xff
 163 0005 FF       		.byte	0xff
 164 0006 03       		.byte	0x3
 165 0007 00       		.byte	0
 166              		.text
 168              		.globl	_ZN9SemaphoreD1Ev
 169              		.set	_ZN9SemaphoreD1Ev,_ZN9SemaphoreD2Ev
 170              		.align	2
 171              		.globl	_ZN6ThreadD0Ev
 173              	_ZN6ThreadD0Ev:
 174              	.LFB43:
  15:src/syscall_cpp.cpp ****     mem_free(myHandle);//mozda cak i sizeof(Thread)
 175              		.loc 2 15 1 is_stmt 1
 176              		.cfi_startproc
 177              	.LVL9:
 178 009c 130101FE 		addi	sp,sp,-32
 179              		.cfi_def_cfa_offset 32
 180 00a0 233C1100 		sd	ra,24(sp)
 181 00a4 23388100 		sd	s0,16(sp)
 182 00a8 23349100 		sd	s1,8(sp)
 183              		.cfi_offset 1, -8
 184              		.cfi_offset 8, -16
 185              		.cfi_offset 9, -24
 186 00ac 13040102 		addi	s0,sp,32
 187              		.cfi_def_cfa 8, 0
 188 00b0 93040500 		mv	s1,a0
  17:src/syscall_cpp.cpp **** 
 189              		.loc 2 17 1 is_stmt 0
 190 00b4 97000000 		call	_ZN6ThreadD1Ev
 190      E7800000 
 191              	.LVL10:
 192 00bc 13850400 		mv	a0,s1
 193 00c0 97000000 		call	_ZdlPv@plt
 193      E7800000 
 194              	.LVL11:
 195 00c8 83308101 		ld	ra,24(sp)
 196              		.cfi_restore 1
 197 00cc 03340101 		ld	s0,16(sp)
 198              		.cfi_restore 8
 199              		.cfi_def_cfa 2, 32
 200 00d0 83348100 		ld	s1,8(sp)
 201              		.cfi_restore 9
 202              	.LVL12:
 203 00d4 13010102 		addi	sp,sp,32
 204              		.cfi_def_cfa_offset 0
 205 00d8 67800000 		jr	ra
 206              		.cfi_endproc
 207              	.LFE43:
 209              		.align	2
 210              		.globl	_ZN9SemaphoreD0Ev
 212              	_ZN9SemaphoreD0Ev:
 213              	.LFB52:
  34:src/syscall_cpp.cpp ****     mem_free(myHandle);
 214              		.loc 2 34 1 is_stmt 1
 215              		.cfi_startproc
 216              	.LVL13:
 217 00dc 130101FE 		addi	sp,sp,-32
GAS LISTING /tmp/ccP4iEQ4.s 			page 6


 218              		.cfi_def_cfa_offset 32
 219 00e0 233C1100 		sd	ra,24(sp)
 220 00e4 23388100 		sd	s0,16(sp)
 221 00e8 23349100 		sd	s1,8(sp)
 222              		.cfi_offset 1, -8
 223              		.cfi_offset 8, -16
 224              		.cfi_offset 9, -24
 225 00ec 13040102 		addi	s0,sp,32
 226              		.cfi_def_cfa 8, 0
 227 00f0 93040500 		mv	s1,a0
 228              		.loc 2 36 1 is_stmt 0
 229 00f4 97000000 		call	_ZN9SemaphoreD1Ev
 229      E7800000 
 230              	.LVL14:
 231 00fc 13850400 		mv	a0,s1
 232 0100 97000000 		call	_ZdlPv@plt
 232      E7800000 
 233              	.LVL15:
 234 0108 83308101 		ld	ra,24(sp)
 235              		.cfi_restore 1
 236 010c 03340101 		ld	s0,16(sp)
 237              		.cfi_restore 8
 238              		.cfi_def_cfa 2, 32
 239 0110 83348100 		ld	s1,8(sp)
 240              		.cfi_restore 9
 241              	.LVL16:
 242 0114 13010102 		addi	sp,sp,32
 243              		.cfi_def_cfa_offset 0
 244 0118 67800000 		jr	ra
 245              		.cfi_endproc
 246              	.LFE52:
 248              		.align	2
 249              		.globl	_ZN6ThreadC2EPFvPvES0_
 251              	_ZN6ThreadC2EPFvPvES0_:
 252              	.LFB37:
   7:src/syscall_cpp.cpp ****     thread_create_cpp_api(&myHandle, body, arg);
 253              		.loc 2 7 1 is_stmt 1
 254              		.cfi_startproc
 255              	.LVL17:
 256 011c 130101FF 		addi	sp,sp,-16
 257              		.cfi_def_cfa_offset 16
 258 0120 23341100 		sd	ra,8(sp)
 259 0124 23308100 		sd	s0,0(sp)
 260              		.cfi_offset 1, -8
 261              		.cfi_offset 8, -16
 262 0128 13040101 		addi	s0,sp,16
 263              		.cfi_def_cfa 8, 0
 264              	.LBB4:
   7:src/syscall_cpp.cpp ****     thread_create_cpp_api(&myHandle, body, arg);
 265              		.loc 2 7 67 is_stmt 0
 266 012c 97070000 		lla	a5,_ZTV6Thread+16
 266      93870700 
 267 0134 2330F500 		sd	a5,0(a0)
 268 0138 23340500 		sd	zero,8(a0)
   8:src/syscall_cpp.cpp **** }
 269              		.loc 2 8 5 is_stmt 1
   8:src/syscall_cpp.cpp **** }
GAS LISTING /tmp/ccP4iEQ4.s 			page 7


 270              		.loc 2 8 26 is_stmt 0
 271 013c 13058500 		addi	a0,a0,8
 272              	.LVL18:
 273 0140 97000000 		call	_Z21thread_create_cpp_apiPP3TCBPFvPvES2_@plt
 273      E7800000 
 274              	.LVL19:
 275              	.LBE4:
   9:src/syscall_cpp.cpp **** 
 276              		.loc 2 9 1
 277 0148 83308100 		ld	ra,8(sp)
 278              		.cfi_restore 1
 279 014c 03340100 		ld	s0,0(sp)
 280              		.cfi_restore 8
 281              		.cfi_def_cfa 2, 16
 282 0150 13010101 		addi	sp,sp,16
 283              		.cfi_def_cfa_offset 0
 284 0154 67800000 		jr	ra
 285              		.cfi_endproc
 286              	.LFE37:
 288              		.globl	_ZN6ThreadC1EPFvPvES0_
 289              		.set	_ZN6ThreadC1EPFvPvES0_,_ZN6ThreadC2EPFvPvES0_
 290              		.align	2
 291              		.globl	_ZN6Thread8dispatchEv
 293              	_ZN6Thread8dispatchEv:
 294              	.LFB39:
  11:src/syscall_cpp.cpp ****     thread_dispatch();
 295              		.loc 2 11 25 is_stmt 1
 296              		.cfi_startproc
 297 0158 130101FF 		addi	sp,sp,-16
 298              		.cfi_def_cfa_offset 16
 299 015c 23341100 		sd	ra,8(sp)
 300 0160 23308100 		sd	s0,0(sp)
 301              		.cfi_offset 1, -8
 302              		.cfi_offset 8, -16
 303 0164 13040101 		addi	s0,sp,16
 304              		.cfi_def_cfa 8, 0
  12:src/syscall_cpp.cpp **** }
 305              		.loc 2 12 5
  12:src/syscall_cpp.cpp **** }
 306              		.loc 2 12 20 is_stmt 0
 307 0168 97000000 		call	_Z15thread_dispatchv@plt
 307      E7800000 
 308              	.LVL20:
  13:src/syscall_cpp.cpp **** 
 309              		.loc 2 13 1
 310 0170 83308100 		ld	ra,8(sp)
 311              		.cfi_restore 1
 312 0174 03340100 		ld	s0,0(sp)
 313              		.cfi_restore 8
 314              		.cfi_def_cfa 2, 16
 315 0178 13010101 		addi	sp,sp,16
 316              		.cfi_def_cfa_offset 0
 317 017c 67800000 		jr	ra
 318              		.cfi_endproc
 319              	.LFE39:
 321              		.align	2
 322              		.globl	_ZN6Thread5startEv
GAS LISTING /tmp/ccP4iEQ4.s 			page 8


 324              	_ZN6Thread5startEv:
 325              	.LFB44:
  19:src/syscall_cpp.cpp ****     //printString("udje u start");
 326              		.loc 2 19 21 is_stmt 1
 327              		.cfi_startproc
 328              	.LVL21:
 329 0180 130101FF 		addi	sp,sp,-16
 330              		.cfi_def_cfa_offset 16
 331 0184 23341100 		sd	ra,8(sp)
 332 0188 23308100 		sd	s0,0(sp)
 333              		.cfi_offset 1, -8
 334              		.cfi_offset 8, -16
 335 018c 13040101 		addi	s0,sp,16
 336              		.cfi_def_cfa 8, 0
  21:src/syscall_cpp.cpp ****     //printString("izadje iz starta");
 337              		.loc 2 21 5
  21:src/syscall_cpp.cpp ****     //printString("izadje iz starta");
 338              		.loc 2 21 17 is_stmt 0
 339 0190 97050000 		lla	a1,_ZN6Thread13threadWrapperEPv
 339      93850500 
 340 0198 13058500 		addi	a0,a0,8
 341              	.LVL22:
 342 019c 97000000 		call	_Z12thread_startPP3TCBPFvPvE@plt
 342      E7800000 
 343              	.LVL23:
  23:src/syscall_cpp.cpp **** }
 344              		.loc 2 23 5 is_stmt 1
  24:src/syscall_cpp.cpp **** 
 345              		.loc 2 24 1 is_stmt 0
 346 01a4 13050000 		li	a0,0
 347 01a8 83308100 		ld	ra,8(sp)
 348              		.cfi_restore 1
 349 01ac 03340100 		ld	s0,0(sp)
 350              		.cfi_restore 8
 351              		.cfi_def_cfa 2, 16
 352 01b0 13010101 		addi	sp,sp,16
 353              		.cfi_def_cfa_offset 0
 354 01b4 67800000 		jr	ra
 355              		.cfi_endproc
 356              	.LFE44:
 358              		.align	2
 359              		.globl	_ZN9SemaphoreC2Ej
 361              	_ZN9SemaphoreC2Ej:
 362              	.LFB47:
  30:src/syscall_cpp.cpp ****     sem_open(&myHandle, init);
 363              		.loc 2 30 1 is_stmt 1
 364              		.cfi_startproc
 365              	.LVL24:
 366 01b8 130101FF 		addi	sp,sp,-16
 367              		.cfi_def_cfa_offset 16
 368 01bc 23341100 		sd	ra,8(sp)
 369 01c0 23308100 		sd	s0,0(sp)
 370              		.cfi_offset 1, -8
 371              		.cfi_offset 8, -16
 372 01c4 13040101 		addi	s0,sp,16
 373              		.cfi_def_cfa 8, 0
 374              	.LBB5:
GAS LISTING /tmp/ccP4iEQ4.s 			page 9


  30:src/syscall_cpp.cpp ****     sem_open(&myHandle, init);
 375              		.loc 2 30 39 is_stmt 0
 376 01c8 97070000 		lla	a5,_ZTV9Semaphore+16
 376      93870700 
 377 01d0 2330F500 		sd	a5,0(a0)
  31:src/syscall_cpp.cpp **** }
 378              		.loc 2 31 5 is_stmt 1
  31:src/syscall_cpp.cpp **** }
 379              		.loc 2 31 13 is_stmt 0
 380 01d4 13058500 		addi	a0,a0,8
 381              	.LVL25:
 382 01d8 97000000 		call	_Z8sem_openPP9semaphorej@plt
 382      E7800000 
 383              	.LVL26:
 384              	.LBE5:
  32:src/syscall_cpp.cpp **** 
 385              		.loc 2 32 1
 386 01e0 83308100 		ld	ra,8(sp)
 387              		.cfi_restore 1
 388 01e4 03340100 		ld	s0,0(sp)
 389              		.cfi_restore 8
 390              		.cfi_def_cfa 2, 16
 391 01e8 13010101 		addi	sp,sp,16
 392              		.cfi_def_cfa_offset 0
 393 01ec 67800000 		jr	ra
 394              		.cfi_endproc
 395              	.LFE47:
 397              		.globl	_ZN9SemaphoreC1Ej
 398              		.set	_ZN9SemaphoreC1Ej,_ZN9SemaphoreC2Ej
 399              		.align	2
 400              		.globl	_ZN9Semaphore4waitEv
 402              	_ZN9Semaphore4waitEv:
 403              	.LFB53:
  37:src/syscall_cpp.cpp **** 
  38:src/syscall_cpp.cpp **** int Semaphore::wait() {
 404              		.loc 2 38 23 is_stmt 1
 405              		.cfi_startproc
 406              	.LVL27:
 407 01f0 130101FF 		addi	sp,sp,-16
 408              		.cfi_def_cfa_offset 16
 409 01f4 23341100 		sd	ra,8(sp)
 410 01f8 23308100 		sd	s0,0(sp)
 411              		.cfi_offset 1, -8
 412              		.cfi_offset 8, -16
 413 01fc 13040101 		addi	s0,sp,16
 414              		.cfi_def_cfa 8, 0
  39:src/syscall_cpp.cpp ****     int ret = sem_wait(myHandle);
 415              		.loc 2 39 5
 416              		.loc 2 39 23 is_stmt 0
 417 0200 03358500 		ld	a0,8(a0)
 418              	.LVL28:
 419 0204 97000000 		call	_Z8sem_waitP9semaphore@plt
 419      E7800000 
 420              	.LVL29:
  40:src/syscall_cpp.cpp ****     return ret;
 421              		.loc 2 40 5 is_stmt 1
  41:src/syscall_cpp.cpp **** }
GAS LISTING /tmp/ccP4iEQ4.s 			page 10


 422              		.loc 2 41 1 is_stmt 0
 423 020c 83308100 		ld	ra,8(sp)
 424              		.cfi_restore 1
 425 0210 03340100 		ld	s0,0(sp)
 426              		.cfi_restore 8
 427              		.cfi_def_cfa 2, 16
 428 0214 13010101 		addi	sp,sp,16
 429              		.cfi_def_cfa_offset 0
 430 0218 67800000 		jr	ra
 431              		.cfi_endproc
 432              	.LFE53:
 434              		.align	2
 435              		.globl	_ZN9Semaphore6signalEv
 437              	_ZN9Semaphore6signalEv:
 438              	.LFB54:
  42:src/syscall_cpp.cpp **** 
  43:src/syscall_cpp.cpp **** int Semaphore::signal() {
 439              		.loc 2 43 25 is_stmt 1
 440              		.cfi_startproc
 441              	.LVL30:
 442 021c 130101FF 		addi	sp,sp,-16
 443              		.cfi_def_cfa_offset 16
 444 0220 23341100 		sd	ra,8(sp)
 445 0224 23308100 		sd	s0,0(sp)
 446              		.cfi_offset 1, -8
 447              		.cfi_offset 8, -16
 448 0228 13040101 		addi	s0,sp,16
 449              		.cfi_def_cfa 8, 0
  44:src/syscall_cpp.cpp ****     int ret=sem_signal(myHandle);
 450              		.loc 2 44 5
 451              		.loc 2 44 23 is_stmt 0
 452 022c 03358500 		ld	a0,8(a0)
 453              	.LVL31:
 454 0230 97000000 		call	_Z10sem_signalP9semaphore@plt
 454      E7800000 
 455              	.LVL32:
  45:src/syscall_cpp.cpp ****     return ret;
 456              		.loc 2 45 5 is_stmt 1
  46:src/syscall_cpp.cpp **** }
 457              		.loc 2 46 1 is_stmt 0
 458 0238 83308100 		ld	ra,8(sp)
 459              		.cfi_restore 1
 460 023c 03340100 		ld	s0,0(sp)
 461              		.cfi_restore 8
 462              		.cfi_def_cfa 2, 16
 463 0240 13010101 		addi	sp,sp,16
 464              		.cfi_def_cfa_offset 0
 465 0244 67800000 		jr	ra
 466              		.cfi_endproc
 467              	.LFE54:
 469              		.align	2
 470              		.globl	_ZN7Console4getcEv
 472              	_ZN7Console4getcEv:
 473              	.LFB55:
  47:src/syscall_cpp.cpp **** 
  48:src/syscall_cpp.cpp **** char Console::getc() {
 474              		.loc 2 48 22 is_stmt 1
GAS LISTING /tmp/ccP4iEQ4.s 			page 11


 475              		.cfi_startproc
 476 0248 130101FF 		addi	sp,sp,-16
 477              		.cfi_def_cfa_offset 16
 478 024c 23341100 		sd	ra,8(sp)
 479 0250 23308100 		sd	s0,0(sp)
 480              		.cfi_offset 1, -8
 481              		.cfi_offset 8, -16
 482 0254 13040101 		addi	s0,sp,16
 483              		.cfi_def_cfa 8, 0
  49:src/syscall_cpp.cpp ****     char c=::getc();
 484              		.loc 2 49 5
 485              		.loc 2 49 18 is_stmt 0
 486 0258 97000000 		call	_Z4getcv@plt
 486      E7800000 
 487              	.LVL33:
  50:src/syscall_cpp.cpp ****     return c;
 488              		.loc 2 50 5 is_stmt 1
  51:src/syscall_cpp.cpp **** }
 489              		.loc 2 51 1 is_stmt 0
 490 0260 83308100 		ld	ra,8(sp)
 491              		.cfi_restore 1
 492 0264 03340100 		ld	s0,0(sp)
 493              		.cfi_restore 8
 494              		.cfi_def_cfa 2, 16
 495 0268 13010101 		addi	sp,sp,16
 496              		.cfi_def_cfa_offset 0
 497 026c 67800000 		jr	ra
 498              		.cfi_endproc
 499              	.LFE55:
 501              		.align	2
 502              		.globl	_ZN7Console4putcEc
 504              	_ZN7Console4putcEc:
 505              	.LFB56:
  52:src/syscall_cpp.cpp **** 
  53:src/syscall_cpp.cpp **** void Console::putc(char c) {
 506              		.loc 2 53 28 is_stmt 1
 507              		.cfi_startproc
 508              	.LVL34:
 509 0270 130101FF 		addi	sp,sp,-16
 510              		.cfi_def_cfa_offset 16
 511 0274 23341100 		sd	ra,8(sp)
 512 0278 23308100 		sd	s0,0(sp)
 513              		.cfi_offset 1, -8
 514              		.cfi_offset 8, -16
 515 027c 13040101 		addi	s0,sp,16
 516              		.cfi_def_cfa 8, 0
  54:src/syscall_cpp.cpp ****     ::putc(c);
 517              		.loc 2 54 5
 518              		.loc 2 54 11 is_stmt 0
 519 0280 97000000 		call	_Z4putcc@plt
 519      E7800000 
 520              	.LVL35:
  55:src/syscall_cpp.cpp **** }
 521              		.loc 2 55 1
 522 0288 83308100 		ld	ra,8(sp)
 523              		.cfi_restore 1
 524 028c 03340100 		ld	s0,0(sp)
GAS LISTING /tmp/ccP4iEQ4.s 			page 12


 525              		.cfi_restore 8
 526              		.cfi_def_cfa 2, 16
 527 0290 13010101 		addi	sp,sp,16
 528              		.cfi_def_cfa_offset 0
 529 0294 67800000 		jr	ra
 530              		.cfi_endproc
 531              	.LFE56:
 533              		.weak	_ZTV6Thread
 534              		.section	.data.rel.ro.local._ZTV6Thread,"awG",@progbits,_ZTV6Thread,comdat
 535              		.align	3
 538              	_ZTV6Thread:
 539 0000 00000000 		.dword	0
 539      00000000 
 540 0008 00000000 		.dword	0
 540      00000000 
 541 0010 00000000 		.dword	_ZN6ThreadD1Ev
 541      00000000 
 542 0018 00000000 		.dword	_ZN6ThreadD0Ev
 542      00000000 
 543 0020 00000000 		.dword	_ZN6Thread3runEv
 543      00000000 
 544              		.weak	_ZTV9Semaphore
 545              		.section	.data.rel.ro.local._ZTV9Semaphore,"awG",@progbits,_ZTV9Semaphore,comdat
 546              		.align	3
 549              	_ZTV9Semaphore:
 550 0000 00000000 		.dword	0
 550      00000000 
 551 0008 00000000 		.dword	0
 551      00000000 
 552 0010 00000000 		.dword	_ZN9SemaphoreD1Ev
 552      00000000 
 553 0018 00000000 		.dword	_ZN9SemaphoreD0Ev
 553      00000000 
 554              		.text
 555              	.Letext0:
 556              		.file 3 "src/../h/../h/../lib/hw.h"
 557              		.file 4 "src/../h/../h/tcb.hpp"
 558              		.file 5 "src/../h/../h/../h/semaphore.hpp"
 559              		.file 6 "src/../h/syscall_c.hpp"
 3444              		.align	3
 3447              	DW.ref.__gxx_personality_v0:
 3448 0000 00000000 		.dword	__gxx_personality_v0
 3448      00000000 
 3449              		.ident	"GCC: (Ubuntu 9.4.0-1ubuntu1~20.04) 9.4.0"
 3450              		.section	.note.GNU-stack,"",@progbits
GAS LISTING /tmp/ccP4iEQ4.s 			page 13


DEFINED SYMBOLS
                            *ABS*:0000000000000000 syscall_cpp.cpp
     /tmp/ccP4iEQ4.s:10     .text._ZN6Thread3runEv:0000000000000000 _ZN6Thread3runEv
     /tmp/ccP4iEQ4.s:14     .text._ZN6Thread3runEv:0000000000000000 .L0 
     /tmp/ccP4iEQ4.s:16     .text._ZN6Thread3runEv:0000000000000000 .L0 
     /tmp/ccP4iEQ4.s:17     .text._ZN6Thread3runEv:0000000000000004 .L0 
     /tmp/ccP4iEQ4.s:19     .text._ZN6Thread3runEv:0000000000000008 .L0 
     /tmp/ccP4iEQ4.s:21     .text._ZN6Thread3runEv:000000000000000c .L0 
     /tmp/ccP4iEQ4.s:23     .text._ZN6Thread3runEv:000000000000000c .L0 
     /tmp/ccP4iEQ4.s:24     .text._ZN6Thread3runEv:0000000000000010 .L0 
     /tmp/ccP4iEQ4.s:25     .text._ZN6Thread3runEv:0000000000000010 .L0 
     /tmp/ccP4iEQ4.s:27     .text._ZN6Thread3runEv:0000000000000014 .L0 
     /tmp/ccP4iEQ4.s:29     .text._ZN6Thread3runEv:0000000000000018 .L0 
     /tmp/ccP4iEQ4.s:36     .text:0000000000000000 _ZN6Thread13threadWrapperEPv
     /tmp/ccP4iEQ4.s:40     .text:0000000000000000 .L0 
     /tmp/ccP4iEQ4.s:42     .text:0000000000000000 .L0 
     /tmp/ccP4iEQ4.s:43     .text:0000000000000004 .L0 
     /tmp/ccP4iEQ4.s:46     .text:000000000000000c .L0 
     /tmp/ccP4iEQ4.s:47     .text:000000000000000c .L0 
     /tmp/ccP4iEQ4.s:49     .text:0000000000000010 .L0 
     /tmp/ccP4iEQ4.s:51     .text:0000000000000010 .L0 
     /tmp/ccP4iEQ4.s:52     .text:0000000000000010 .L0 
     /tmp/ccP4iEQ4.s:55     .text:0000000000000018 .L0 
     /tmp/ccP4iEQ4.s:58     .text:000000000000001c .L0 
     /tmp/ccP4iEQ4.s:59     .text:0000000000000020 .L0 
     /tmp/ccP4iEQ4.s:61     .text:0000000000000024 .L0 
     /tmp/ccP4iEQ4.s:62     .text:0000000000000024 .L0 
     /tmp/ccP4iEQ4.s:64     .text:0000000000000028 .L0 
     /tmp/ccP4iEQ4.s:66     .text:000000000000002c .L0 
     /tmp/ccP4iEQ4.s:72     .text:000000000000002c _ZN6ThreadD2Ev
     /tmp/ccP4iEQ4.s:75     .text:000000000000002c .L0 
     /tmp/ccP4iEQ4.s:3447   .data.rel.local.DW.ref.__gxx_personality_v0:0000000000000000 DW.ref.__gxx_personality_v0
     /tmp/ccP4iEQ4.s:79     .text:000000000000002c .L0 
     /tmp/ccP4iEQ4.s:80     .text:0000000000000030 .L0 
     /tmp/ccP4iEQ4.s:83     .text:0000000000000038 .L0 
     /tmp/ccP4iEQ4.s:84     .text:0000000000000038 .L0 
     /tmp/ccP4iEQ4.s:86     .text:000000000000003c .L0 
     /tmp/ccP4iEQ4.s:538    .data.rel.ro.local._ZTV6Thread:0000000000000000 _ZTV6Thread
     /tmp/ccP4iEQ4.s:89     .text:000000000000003c .L0 
     /tmp/ccP4iEQ4.s:92     .text:0000000000000048 .L0 
     /tmp/ccP4iEQ4.s:93     .text:0000000000000048 .L0 
     /tmp/ccP4iEQ4.s:99     .text:0000000000000054 .L0 
     /tmp/ccP4iEQ4.s:100    .text:0000000000000058 .L0 
     /tmp/ccP4iEQ4.s:102    .text:000000000000005c .L0 
     /tmp/ccP4iEQ4.s:103    .text:000000000000005c .L0 
     /tmp/ccP4iEQ4.s:105    .text:0000000000000060 .L0 
     /tmp/ccP4iEQ4.s:107    .text:0000000000000064 .L0 
     /tmp/ccP4iEQ4.s:72     .text:000000000000002c _ZN6ThreadD1Ev
     /tmp/ccP4iEQ4.s:123    .text:0000000000000064 _ZN9SemaphoreD2Ev
     /tmp/ccP4iEQ4.s:126    .text:0000000000000064 .L0 
     /tmp/ccP4iEQ4.s:130    .text:0000000000000064 .L0 
     /tmp/ccP4iEQ4.s:131    .text:0000000000000068 .L0 
     /tmp/ccP4iEQ4.s:134    .text:0000000000000070 .L0 
     /tmp/ccP4iEQ4.s:135    .text:0000000000000070 .L0 
     /tmp/ccP4iEQ4.s:137    .text:0000000000000074 .L0 
     /tmp/ccP4iEQ4.s:549    .data.rel.ro.local._ZTV9Semaphore:0000000000000000 _ZTV9Semaphore
     /tmp/ccP4iEQ4.s:140    .text:0000000000000074 .L0 
GAS LISTING /tmp/ccP4iEQ4.s 			page 14


     /tmp/ccP4iEQ4.s:143    .text:0000000000000080 .L0 
     /tmp/ccP4iEQ4.s:144    .text:0000000000000080 .L0 
     /tmp/ccP4iEQ4.s:150    .text:000000000000008c .L0 
     /tmp/ccP4iEQ4.s:151    .text:0000000000000090 .L0 
     /tmp/ccP4iEQ4.s:153    .text:0000000000000094 .L0 
     /tmp/ccP4iEQ4.s:154    .text:0000000000000094 .L0 
     /tmp/ccP4iEQ4.s:156    .text:0000000000000098 .L0 
     /tmp/ccP4iEQ4.s:158    .text:000000000000009c .L0 
     /tmp/ccP4iEQ4.s:123    .text:0000000000000064 _ZN9SemaphoreD1Ev
     /tmp/ccP4iEQ4.s:173    .text:000000000000009c _ZN6ThreadD0Ev
     /tmp/ccP4iEQ4.s:176    .text:000000000000009c .L0 
     /tmp/ccP4iEQ4.s:178    .text:000000000000009c .L0 
     /tmp/ccP4iEQ4.s:179    .text:00000000000000a0 .L0 
     /tmp/ccP4iEQ4.s:183    .text:00000000000000ac .L0 
     /tmp/ccP4iEQ4.s:184    .text:00000000000000ac .L0 
     /tmp/ccP4iEQ4.s:185    .text:00000000000000ac .L0 
     /tmp/ccP4iEQ4.s:187    .text:00000000000000b0 .L0 
     /tmp/ccP4iEQ4.s:190    .text:00000000000000b4 .L0 
     /tmp/ccP4iEQ4.s:196    .text:00000000000000cc .L0 
     /tmp/ccP4iEQ4.s:198    .text:00000000000000d0 .L0 
     /tmp/ccP4iEQ4.s:199    .text:00000000000000d0 .L0 
     /tmp/ccP4iEQ4.s:201    .text:00000000000000d4 .L0 
     /tmp/ccP4iEQ4.s:204    .text:00000000000000d8 .L0 
     /tmp/ccP4iEQ4.s:206    .text:00000000000000dc .L0 
     /tmp/ccP4iEQ4.s:212    .text:00000000000000dc _ZN9SemaphoreD0Ev
     /tmp/ccP4iEQ4.s:215    .text:00000000000000dc .L0 
     /tmp/ccP4iEQ4.s:217    .text:00000000000000dc .L0 
     /tmp/ccP4iEQ4.s:218    .text:00000000000000e0 .L0 
     /tmp/ccP4iEQ4.s:222    .text:00000000000000ec .L0 
     /tmp/ccP4iEQ4.s:223    .text:00000000000000ec .L0 
     /tmp/ccP4iEQ4.s:224    .text:00000000000000ec .L0 
     /tmp/ccP4iEQ4.s:226    .text:00000000000000f0 .L0 
     /tmp/ccP4iEQ4.s:229    .text:00000000000000f4 .L0 
     /tmp/ccP4iEQ4.s:235    .text:000000000000010c .L0 
     /tmp/ccP4iEQ4.s:237    .text:0000000000000110 .L0 
     /tmp/ccP4iEQ4.s:238    .text:0000000000000110 .L0 
     /tmp/ccP4iEQ4.s:240    .text:0000000000000114 .L0 
     /tmp/ccP4iEQ4.s:243    .text:0000000000000118 .L0 
     /tmp/ccP4iEQ4.s:245    .text:000000000000011c .L0 
     /tmp/ccP4iEQ4.s:251    .text:000000000000011c _ZN6ThreadC2EPFvPvES0_
     /tmp/ccP4iEQ4.s:254    .text:000000000000011c .L0 
     /tmp/ccP4iEQ4.s:256    .text:000000000000011c .L0 
     /tmp/ccP4iEQ4.s:257    .text:0000000000000120 .L0 
     /tmp/ccP4iEQ4.s:260    .text:0000000000000128 .L0 
     /tmp/ccP4iEQ4.s:261    .text:0000000000000128 .L0 
     /tmp/ccP4iEQ4.s:263    .text:000000000000012c .L0 
     /tmp/ccP4iEQ4.s:266    .text:000000000000012c .L0 
     /tmp/ccP4iEQ4.s:270    .text:000000000000013c .L0 
     /tmp/ccP4iEQ4.s:271    .text:000000000000013c .L0 
     /tmp/ccP4iEQ4.s:277    .text:0000000000000148 .L0 
     /tmp/ccP4iEQ4.s:278    .text:000000000000014c .L0 
     /tmp/ccP4iEQ4.s:280    .text:0000000000000150 .L0 
     /tmp/ccP4iEQ4.s:281    .text:0000000000000150 .L0 
     /tmp/ccP4iEQ4.s:283    .text:0000000000000154 .L0 
     /tmp/ccP4iEQ4.s:285    .text:0000000000000158 .L0 
     /tmp/ccP4iEQ4.s:251    .text:000000000000011c _ZN6ThreadC1EPFvPvES0_
     /tmp/ccP4iEQ4.s:293    .text:0000000000000158 _ZN6Thread8dispatchEv
GAS LISTING /tmp/ccP4iEQ4.s 			page 15


     /tmp/ccP4iEQ4.s:296    .text:0000000000000158 .L0 
     /tmp/ccP4iEQ4.s:297    .text:0000000000000158 .L0 
     /tmp/ccP4iEQ4.s:298    .text:000000000000015c .L0 
     /tmp/ccP4iEQ4.s:301    .text:0000000000000164 .L0 
     /tmp/ccP4iEQ4.s:302    .text:0000000000000164 .L0 
     /tmp/ccP4iEQ4.s:304    .text:0000000000000168 .L0 
     /tmp/ccP4iEQ4.s:306    .text:0000000000000168 .L0 
     /tmp/ccP4iEQ4.s:307    .text:0000000000000168 .L0 
     /tmp/ccP4iEQ4.s:310    .text:0000000000000170 .L0 
     /tmp/ccP4iEQ4.s:311    .text:0000000000000174 .L0 
     /tmp/ccP4iEQ4.s:313    .text:0000000000000178 .L0 
     /tmp/ccP4iEQ4.s:314    .text:0000000000000178 .L0 
     /tmp/ccP4iEQ4.s:316    .text:000000000000017c .L0 
     /tmp/ccP4iEQ4.s:318    .text:0000000000000180 .L0 
     /tmp/ccP4iEQ4.s:324    .text:0000000000000180 _ZN6Thread5startEv
     /tmp/ccP4iEQ4.s:327    .text:0000000000000180 .L0 
     /tmp/ccP4iEQ4.s:329    .text:0000000000000180 .L0 
     /tmp/ccP4iEQ4.s:330    .text:0000000000000184 .L0 
     /tmp/ccP4iEQ4.s:333    .text:000000000000018c .L0 
     /tmp/ccP4iEQ4.s:334    .text:000000000000018c .L0 
     /tmp/ccP4iEQ4.s:336    .text:0000000000000190 .L0 
     /tmp/ccP4iEQ4.s:338    .text:0000000000000190 .L0 
     /tmp/ccP4iEQ4.s:339    .text:0000000000000190 .L0 
     /tmp/ccP4iEQ4.s:345    .text:00000000000001a4 .L0 
     /tmp/ccP4iEQ4.s:346    .text:00000000000001a4 .L0 
     /tmp/ccP4iEQ4.s:348    .text:00000000000001ac .L0 
     /tmp/ccP4iEQ4.s:350    .text:00000000000001b0 .L0 
     /tmp/ccP4iEQ4.s:351    .text:00000000000001b0 .L0 
     /tmp/ccP4iEQ4.s:353    .text:00000000000001b4 .L0 
     /tmp/ccP4iEQ4.s:355    .text:00000000000001b8 .L0 
     /tmp/ccP4iEQ4.s:361    .text:00000000000001b8 _ZN9SemaphoreC2Ej
     /tmp/ccP4iEQ4.s:364    .text:00000000000001b8 .L0 
     /tmp/ccP4iEQ4.s:366    .text:00000000000001b8 .L0 
     /tmp/ccP4iEQ4.s:367    .text:00000000000001bc .L0 
     /tmp/ccP4iEQ4.s:370    .text:00000000000001c4 .L0 
     /tmp/ccP4iEQ4.s:371    .text:00000000000001c4 .L0 
     /tmp/ccP4iEQ4.s:373    .text:00000000000001c8 .L0 
     /tmp/ccP4iEQ4.s:376    .text:00000000000001c8 .L0 
     /tmp/ccP4iEQ4.s:379    .text:00000000000001d4 .L0 
     /tmp/ccP4iEQ4.s:380    .text:00000000000001d4 .L0 
     /tmp/ccP4iEQ4.s:386    .text:00000000000001e0 .L0 
     /tmp/ccP4iEQ4.s:387    .text:00000000000001e4 .L0 
     /tmp/ccP4iEQ4.s:389    .text:00000000000001e8 .L0 
     /tmp/ccP4iEQ4.s:390    .text:00000000000001e8 .L0 
     /tmp/ccP4iEQ4.s:392    .text:00000000000001ec .L0 
     /tmp/ccP4iEQ4.s:394    .text:00000000000001f0 .L0 
     /tmp/ccP4iEQ4.s:361    .text:00000000000001b8 _ZN9SemaphoreC1Ej
     /tmp/ccP4iEQ4.s:402    .text:00000000000001f0 _ZN9Semaphore4waitEv
     /tmp/ccP4iEQ4.s:405    .text:00000000000001f0 .L0 
     /tmp/ccP4iEQ4.s:407    .text:00000000000001f0 .L0 
     /tmp/ccP4iEQ4.s:408    .text:00000000000001f4 .L0 
     /tmp/ccP4iEQ4.s:411    .text:00000000000001fc .L0 
     /tmp/ccP4iEQ4.s:412    .text:00000000000001fc .L0 
     /tmp/ccP4iEQ4.s:414    .text:0000000000000200 .L0 
     /tmp/ccP4iEQ4.s:416    .text:0000000000000200 .L0 
     /tmp/ccP4iEQ4.s:417    .text:0000000000000200 .L0 
     /tmp/ccP4iEQ4.s:422    .text:000000000000020c .L0 
GAS LISTING /tmp/ccP4iEQ4.s 			page 16


     /tmp/ccP4iEQ4.s:423    .text:000000000000020c .L0 
     /tmp/ccP4iEQ4.s:424    .text:0000000000000210 .L0 
     /tmp/ccP4iEQ4.s:426    .text:0000000000000214 .L0 
     /tmp/ccP4iEQ4.s:427    .text:0000000000000214 .L0 
     /tmp/ccP4iEQ4.s:429    .text:0000000000000218 .L0 
     /tmp/ccP4iEQ4.s:431    .text:000000000000021c .L0 
     /tmp/ccP4iEQ4.s:437    .text:000000000000021c _ZN9Semaphore6signalEv
     /tmp/ccP4iEQ4.s:440    .text:000000000000021c .L0 
     /tmp/ccP4iEQ4.s:442    .text:000000000000021c .L0 
     /tmp/ccP4iEQ4.s:443    .text:0000000000000220 .L0 
     /tmp/ccP4iEQ4.s:446    .text:0000000000000228 .L0 
     /tmp/ccP4iEQ4.s:447    .text:0000000000000228 .L0 
     /tmp/ccP4iEQ4.s:449    .text:000000000000022c .L0 
     /tmp/ccP4iEQ4.s:451    .text:000000000000022c .L0 
     /tmp/ccP4iEQ4.s:452    .text:000000000000022c .L0 
     /tmp/ccP4iEQ4.s:457    .text:0000000000000238 .L0 
     /tmp/ccP4iEQ4.s:458    .text:0000000000000238 .L0 
     /tmp/ccP4iEQ4.s:459    .text:000000000000023c .L0 
     /tmp/ccP4iEQ4.s:461    .text:0000000000000240 .L0 
     /tmp/ccP4iEQ4.s:462    .text:0000000000000240 .L0 
     /tmp/ccP4iEQ4.s:464    .text:0000000000000244 .L0 
     /tmp/ccP4iEQ4.s:466    .text:0000000000000248 .L0 
     /tmp/ccP4iEQ4.s:472    .text:0000000000000248 _ZN7Console4getcEv
     /tmp/ccP4iEQ4.s:475    .text:0000000000000248 .L0 
     /tmp/ccP4iEQ4.s:476    .text:0000000000000248 .L0 
     /tmp/ccP4iEQ4.s:477    .text:000000000000024c .L0 
     /tmp/ccP4iEQ4.s:480    .text:0000000000000254 .L0 
     /tmp/ccP4iEQ4.s:481    .text:0000000000000254 .L0 
     /tmp/ccP4iEQ4.s:483    .text:0000000000000258 .L0 
     /tmp/ccP4iEQ4.s:485    .text:0000000000000258 .L0 
     /tmp/ccP4iEQ4.s:486    .text:0000000000000258 .L0 
     /tmp/ccP4iEQ4.s:489    .text:0000000000000260 .L0 
     /tmp/ccP4iEQ4.s:490    .text:0000000000000260 .L0 
     /tmp/ccP4iEQ4.s:491    .text:0000000000000264 .L0 
     /tmp/ccP4iEQ4.s:493    .text:0000000000000268 .L0 
     /tmp/ccP4iEQ4.s:494    .text:0000000000000268 .L0 
     /tmp/ccP4iEQ4.s:496    .text:000000000000026c .L0 
     /tmp/ccP4iEQ4.s:498    .text:0000000000000270 .L0 
     /tmp/ccP4iEQ4.s:504    .text:0000000000000270 _ZN7Console4putcEc
     /tmp/ccP4iEQ4.s:507    .text:0000000000000270 .L0 
     /tmp/ccP4iEQ4.s:509    .text:0000000000000270 .L0 
     /tmp/ccP4iEQ4.s:510    .text:0000000000000274 .L0 
     /tmp/ccP4iEQ4.s:513    .text:000000000000027c .L0 
     /tmp/ccP4iEQ4.s:514    .text:000000000000027c .L0 
     /tmp/ccP4iEQ4.s:516    .text:0000000000000280 .L0 
     /tmp/ccP4iEQ4.s:518    .text:0000000000000280 .L0 
     /tmp/ccP4iEQ4.s:519    .text:0000000000000280 .L0 
     /tmp/ccP4iEQ4.s:522    .text:0000000000000288 .L0 
     /tmp/ccP4iEQ4.s:523    .text:000000000000028c .L0 
     /tmp/ccP4iEQ4.s:525    .text:0000000000000290 .L0 
     /tmp/ccP4iEQ4.s:526    .text:0000000000000290 .L0 
     /tmp/ccP4iEQ4.s:528    .text:0000000000000294 .L0 
     /tmp/ccP4iEQ4.s:530    .text:0000000000000298 .L0 
     /tmp/ccP4iEQ4.s:32     .text._ZN6Thread3runEv:0000000000000018 .L0 
     /tmp/ccP4iEQ4.s:560    .text:0000000000000298 .L0 
     /tmp/ccP4iEQ4.s:89     .text:000000000000003c .L0 
     /tmp/ccP4iEQ4.s:140    .text:0000000000000074 .L0 
GAS LISTING /tmp/ccP4iEQ4.s 			page 17


     /tmp/ccP4iEQ4.s:266    .text:000000000000012c .L0 
     /tmp/ccP4iEQ4.s:339    .text:0000000000000190 .L0 
     /tmp/ccP4iEQ4.s:376    .text:00000000000001c8 .L0 
     /tmp/ccP4iEQ4.s:1919   .debug_abbrev:0000000000000000 .Ldebug_abbrev0
     /tmp/ccP4iEQ4.s:3397   .debug_str:0000000000000735 .LASF132
     /tmp/ccP4iEQ4.s:3373   .debug_str:0000000000000679 .LASF133
     /tmp/ccP4iEQ4.s:3249   .debug_str:00000000000002e9 .LASF134
     /tmp/ccP4iEQ4.s:3143   .debug_ranges:0000000000000000 .Ldebug_ranges0
     /tmp/ccP4iEQ4.s:3151   .debug_line:0000000000000000 .Ldebug_line0
     /tmp/ccP4iEQ4.s:3325   .debug_str:000000000000054a .LASF0
     /tmp/ccP4iEQ4.s:3335   .debug_str:0000000000000576 .LASF1
     /tmp/ccP4iEQ4.s:3305   .debug_str:00000000000004cd .LASF2
     /tmp/ccP4iEQ4.s:3281   .debug_str:0000000000000431 .LASF4
     /tmp/ccP4iEQ4.s:3381   .debug_str:00000000000006b2 .LASF3
     /tmp/ccP4iEQ4.s:3185   .debug_str:00000000000000fc .LASF5
     /tmp/ccP4iEQ4.s:3339   .debug_str:00000000000005a2 .LASF6
     /tmp/ccP4iEQ4.s:3323   .debug_str:0000000000000537 .LASF7
     /tmp/ccP4iEQ4.s:3409   .debug_str:000000000000084d .LASF8
     /tmp/ccP4iEQ4.s:3263   .debug_str:0000000000000372 .LASF9
     /tmp/ccP4iEQ4.s:3353   .debug_str:00000000000005f6 .LASF10
     /tmp/ccP4iEQ4.s:3399   .debug_str:00000000000007f9 .LASF11
     /tmp/ccP4iEQ4.s:3189   .debug_str:000000000000010b .LASF12
     /tmp/ccP4iEQ4.s:3161   .debug_str:0000000000000041 .LASF13
     /tmp/ccP4iEQ4.s:3205   .debug_str:000000000000017c .LASF14
     /tmp/ccP4iEQ4.s:3377   .debug_str:0000000000000693 .LASF15
     /tmp/ccP4iEQ4.s:3219   .debug_str:00000000000001f0 .LASF16
     /tmp/ccP4iEQ4.s:3383   .debug_str:00000000000006c4 .LASF135
     /tmp/ccP4iEQ4.s:3167   .debug_str:0000000000000073 .LASF136
     /tmp/ccP4iEQ4.s:3421   .debug_str:00000000000008b0 .LASF17
     /tmp/ccP4iEQ4.s:3393   .debug_str:000000000000071a .LASF19
     /tmp/ccP4iEQ4.s:3257   .debug_str:0000000000000338 .LASF18
     /tmp/ccP4iEQ4.s:3265   .debug_str:0000000000000380 .LASF20
     /tmp/ccP4iEQ4.s:3389   .debug_str:00000000000006f7 .LASF21
     /tmp/ccP4iEQ4.s:3367   .debug_str:000000000000064a .LASF23
     /tmp/ccP4iEQ4.s:3391   .debug_str:0000000000000707 .LASF22
     /tmp/ccP4iEQ4.s:3199   .debug_str:0000000000000153 .LASF24
     /tmp/ccP4iEQ4.s:3233   .debug_str:000000000000027c .LASF25
     /tmp/ccP4iEQ4.s:3363   .debug_str:0000000000000639 .LASF26
     /tmp/ccP4iEQ4.s:3289   .debug_str:000000000000044e .LASF27
     /tmp/ccP4iEQ4.s:3431   .debug_str:0000000000000902 .LASF28
     /tmp/ccP4iEQ4.s:3365   .debug_str:0000000000000645 .LASF137
     /tmp/ccP4iEQ4.s:3209   .debug_str:00000000000001a2 .LASF39
     /tmp/ccP4iEQ4.s:3301   .debug_str:00000000000004a5 .LASF41
     /tmp/ccP4iEQ4.s:3171   .debug_str:0000000000000080 .LASF77
     /tmp/ccP4iEQ4.s:3215   .debug_str:00000000000001d4 .LASF79
     /tmp/ccP4iEQ4.s:3213   .debug_str:00000000000001c9 .LASF29
     /tmp/ccP4iEQ4.s:3337   .debug_str:0000000000000589 .LASF30
     /tmp/ccP4iEQ4.s:3203   .debug_str:0000000000000172 .LASF33
     /tmp/ccP4iEQ4.s:3299   .debug_str:0000000000000491 .LASF35
     /tmp/ccP4iEQ4.s:3387   .debug_str:00000000000006eb .LASF31
     /tmp/ccP4iEQ4.s:3159   .debug_str:0000000000000021 .LASF32
     /tmp/ccP4iEQ4.s:3341   .debug_str:00000000000005b5 .LASF34
     /tmp/ccP4iEQ4.s:3261   .debug_str:000000000000035b .LASF36
     /tmp/ccP4iEQ4.s:3307   .debug_str:00000000000004db .LASF37
     /tmp/ccP4iEQ4.s:3275   .debug_str:00000000000003e0 .LASF38
     /tmp/ccP4iEQ4.s:3375   .debug_str:000000000000068d .LASF40
     /tmp/ccP4iEQ4.s:3311   .debug_str:00000000000004f0 .LASF42
GAS LISTING /tmp/ccP4iEQ4.s 			page 18


     /tmp/ccP4iEQ4.s:3297   .debug_str:0000000000000484 .LASF43
     /tmp/ccP4iEQ4.s:3351   .debug_str:00000000000005de .LASF44
     /tmp/ccP4iEQ4.s:3239   .debug_str:000000000000028d .LASF138
     /tmp/ccP4iEQ4.s:3285   .debug_str:0000000000000441 .LASF45
     /tmp/ccP4iEQ4.s:3329   .debug_str:0000000000000560 .LASF46
     /tmp/ccP4iEQ4.s:3287   .debug_str:0000000000000446 .LASF47
     /tmp/ccP4iEQ4.s:3283   .debug_str:0000000000000438 .LASF48
     /tmp/ccP4iEQ4.s:3427   .debug_str:00000000000008e3 .LASF49
     /tmp/ccP4iEQ4.s:3197   .debug_str:0000000000000148 .LASF50
     /tmp/ccP4iEQ4.s:3331   .debug_str:0000000000000566 .LASF51
     /tmp/ccP4iEQ4.s:3247   .debug_str:00000000000002db .LASF52
     /tmp/ccP4iEQ4.s:3291   .debug_str:000000000000045b .LASF53
     /tmp/ccP4iEQ4.s:3269   .debug_str:0000000000000393 .LASF55
     /tmp/ccP4iEQ4.s:3419   .debug_str:00000000000008a2 .LASF81
     /tmp/ccP4iEQ4.s:3277   .debug_str:00000000000003f7 .LASF83
     /tmp/ccP4iEQ4.s:3327   .debug_str:0000000000000557 .LASF54
     /tmp/ccP4iEQ4.s:3245   .debug_str:00000000000002c8 .LASF56
     /tmp/ccP4iEQ4.s:3195   .debug_str:0000000000000137 .LASF139
     /tmp/ccP4iEQ4.s:3273   .debug_str:00000000000003d5 .LASF140
     /tmp/ccP4iEQ4.s:3169   .debug_str:000000000000007b .LASF57
     /tmp/ccP4iEQ4.s:3361   .debug_str:000000000000062f .LASF58
     /tmp/ccP4iEQ4.s:3221   .debug_str:0000000000000206 .LASF59
     /tmp/ccP4iEQ4.s:3411   .debug_str:000000000000085d .LASF60
     /tmp/ccP4iEQ4.s:3405   .debug_str:0000000000000836 .LASF61
     /tmp/ccP4iEQ4.s:3223   .debug_str:000000000000020c .LASF62
     /tmp/ccP4iEQ4.s:3309   .debug_str:00000000000004e7 .LASF63
     /tmp/ccP4iEQ4.s:3225   .debug_str:0000000000000228 .LASF64
     /tmp/ccP4iEQ4.s:3317   .debug_str:0000000000000517 .LASF65
     /tmp/ccP4iEQ4.s:3177   .debug_str:00000000000000a9 .LASF66
     /tmp/ccP4iEQ4.s:3343   .debug_str:00000000000005c0 .LASF67
     /tmp/ccP4iEQ4.s:3401   .debug_str:0000000000000808 .LASF68
     /tmp/ccP4iEQ4.s:3235   .debug_str:0000000000000281 .LASF69
     /tmp/ccP4iEQ4.s:3243   .debug_str:00000000000002b2 .LASF70
     /tmp/ccP4iEQ4.s:3187   .debug_str:0000000000000103 .LASF71
     /tmp/ccP4iEQ4.s:3423   .debug_str:00000000000008bd .LASF72
     /tmp/ccP4iEQ4.s:3155   .debug_str:0000000000000009 .LASF73
     /tmp/ccP4iEQ4.s:3153   .debug_str:0000000000000000 .LASF74
     /tmp/ccP4iEQ4.s:3237   .debug_str:0000000000000287 .LASF75
     /tmp/ccP4iEQ4.s:3349   .debug_str:00000000000005d6 .LASF76
     /tmp/ccP4iEQ4.s:3163   .debug_str:0000000000000051 .LASF78
     /tmp/ccP4iEQ4.s:3181   .debug_str:00000000000000d9 .LASF80
     /tmp/ccP4iEQ4.s:3313   .debug_str:0000000000000500 .LASF82
     /tmp/ccP4iEQ4.s:3417   .debug_str:000000000000088f .LASF84
     /tmp/ccP4iEQ4.s:3345   .debug_str:00000000000005ca .LASF85
     /tmp/ccP4iEQ4.s:3293   .debug_str:0000000000000469 .LASF86
     /tmp/ccP4iEQ4.s:3429   .debug_str:00000000000008ed .LASF94
     /tmp/ccP4iEQ4.s:3183   .debug_str:00000000000000ec .LASF96
     /tmp/ccP4iEQ4.s:3403   .debug_str:0000000000000824 .LASF87
     /tmp/ccP4iEQ4.s:3371   .debug_str:000000000000066e .LASF99
     /tmp/ccP4iEQ4.s:3201   .debug_str:0000000000000160 .LASF101
     /tmp/ccP4iEQ4.s:3435   .debug_str:0000000000000930 .LASF88
     /tmp/ccP4iEQ4.s:3227   .debug_str:0000000000000243 .LASF89
     /tmp/ccP4iEQ4.s:3347   .debug_str:00000000000005cf .LASF90
     /tmp/ccP4iEQ4.s:3369   .debug_str:0000000000000657 .LASF91
     /tmp/ccP4iEQ4.s:3433   .debug_str:0000000000000927 .LASF92
     /tmp/ccP4iEQ4.s:3157   .debug_str:0000000000000011 .LASF141
     /tmp/ccP4iEQ4.s:3267   .debug_str:000000000000038c .LASF93
GAS LISTING /tmp/ccP4iEQ4.s 			page 19


     /tmp/ccP4iEQ4.s:3315   .debug_str:0000000000000505 .LASF95
     /tmp/ccP4iEQ4.s:3303   .debug_str:00000000000004c0 .LASF97
     /tmp/ccP4iEQ4.s:3357   .debug_str:000000000000060f .LASF98
     /tmp/ccP4iEQ4.s:3175   .debug_str:00000000000000a1 .LASF100
     /tmp/ccP4iEQ4.s:3193   .debug_str:0000000000000128 .LASF102
     /tmp/ccP4iEQ4.s:3333   .debug_str:0000000000000570 .LASF103
     /tmp/ccP4iEQ4.s:3259   .debug_str:0000000000000348 .LASF104
     /tmp/ccP4iEQ4.s:3255   .debug_str:0000000000000322 .LASF105
     /tmp/ccP4iEQ4.s:3241   .debug_str:0000000000000295 .LASF106
     /tmp/ccP4iEQ4.s:3407   .debug_str:000000000000083e .LASF107
     /tmp/ccP4iEQ4.s:3295   .debug_str:0000000000000473 .LASF142
     /tmp/ccP4iEQ4.s:505    .text:0000000000000270 .LFB56
     /tmp/ccP4iEQ4.s:531    .text:0000000000000298 .LFE56
     /tmp/ccP4iEQ4.s:2906   .debug_loc:0000000000000000 .LLST13
     /tmp/ccP4iEQ4.s:520    .text:0000000000000288 .LVL35
     /tmp/ccP4iEQ4.s:473    .text:0000000000000248 .LFB55
     /tmp/ccP4iEQ4.s:499    .text:0000000000000270 .LFE55
     /tmp/ccP4iEQ4.s:487    .text:0000000000000260 .LVL33
     /tmp/ccP4iEQ4.s:438    .text:000000000000021c .LFB54
     /tmp/ccP4iEQ4.s:467    .text:0000000000000248 .LFE54
     /tmp/ccP4iEQ4.s:3217   .debug_str:00000000000001eb .LASF108
     /tmp/ccP4iEQ4.s:2920   .debug_loc:0000000000000039 .LLST12
     /tmp/ccP4iEQ4.s:455    .text:0000000000000238 .LVL32
     /tmp/ccP4iEQ4.s:403    .text:00000000000001f0 .LFB53
     /tmp/ccP4iEQ4.s:432    .text:000000000000021c .LFE53
     /tmp/ccP4iEQ4.s:2934   .debug_loc:0000000000000072 .LLST11
     /tmp/ccP4iEQ4.s:420    .text:000000000000020c .LVL29
     /tmp/ccP4iEQ4.s:3355   .debug_str:0000000000000605 .LASF109
     /tmp/ccP4iEQ4.s:3253   .debug_str:0000000000000310 .LASF110
     /tmp/ccP4iEQ4.s:213    .text:00000000000000dc .LFB52
     /tmp/ccP4iEQ4.s:246    .text:000000000000011c .LFE52
     /tmp/ccP4iEQ4.s:2948   .debug_loc:00000000000000ab .LLST4
     /tmp/ccP4iEQ4.s:230    .text:00000000000000fc .LVL14
     /tmp/ccP4iEQ4.s:233    .text:0000000000000108 .LVL15
     /tmp/ccP4iEQ4.s:3279   .debug_str:000000000000041f .LASF111
     /tmp/ccP4iEQ4.s:124    .text:0000000000000064 .LFB50
     /tmp/ccP4iEQ4.s:159    .text:000000000000009c .LFE50
     /tmp/ccP4iEQ4.s:2966   .debug_loc:00000000000000f7 .LLST2
     /tmp/ccP4iEQ4.s:147    .text:000000000000008c .LVL8
     /tmp/ccP4iEQ4.s:3437   .debug_str:0000000000000935 .LASF115
     /tmp/ccP4iEQ4.s:3413   .debug_str:0000000000000874 .LASF112
     /tmp/ccP4iEQ4.s:362    .text:00000000000001b8 .LFB47
     /tmp/ccP4iEQ4.s:395    .text:00000000000001f0 .LFE47
     /tmp/ccP4iEQ4.s:2980   .debug_loc:0000000000000130 .LLST9
     /tmp/ccP4iEQ4.s:3000   .debug_loc:000000000000017e .LLST10
     /tmp/ccP4iEQ4.s:383    .text:00000000000001e0 .LVL26
     /tmp/ccP4iEQ4.s:37     .text:0000000000000000 .LFB45
     /tmp/ccP4iEQ4.s:67     .text:000000000000002c .LFE45
     /tmp/ccP4iEQ4.s:3014   .debug_loc:00000000000001b7 .LLST0
     /tmp/ccP4iEQ4.s:56     .text:000000000000001c .LVL2
     /tmp/ccP4iEQ4.s:325    .text:0000000000000180 .LFB44
     /tmp/ccP4iEQ4.s:356    .text:00000000000001b8 .LFE44
     /tmp/ccP4iEQ4.s:3028   .debug_loc:00000000000001f0 .LLST8
     /tmp/ccP4iEQ4.s:343    .text:00000000000001a4 .LVL23
     /tmp/ccP4iEQ4.s:3319   .debug_str:000000000000051f .LASF113
     /tmp/ccP4iEQ4.s:174    .text:000000000000009c .LFB43
     /tmp/ccP4iEQ4.s:207    .text:00000000000000dc .LFE43
GAS LISTING /tmp/ccP4iEQ4.s 			page 20


     /tmp/ccP4iEQ4.s:3048   .debug_loc:000000000000023e .LLST3
     /tmp/ccP4iEQ4.s:191    .text:00000000000000bc .LVL10
     /tmp/ccP4iEQ4.s:194    .text:00000000000000c8 .LVL11
     /tmp/ccP4iEQ4.s:3395   .debug_str:0000000000000726 .LASF114
     /tmp/ccP4iEQ4.s:73     .text:000000000000002c .LFB41
     /tmp/ccP4iEQ4.s:108    .text:0000000000000064 .LFE41
     /tmp/ccP4iEQ4.s:3066   .debug_loc:000000000000028a .LLST1
     /tmp/ccP4iEQ4.s:96     .text:0000000000000054 .LVL5
     /tmp/ccP4iEQ4.s:294    .text:0000000000000158 .LFB39
     /tmp/ccP4iEQ4.s:319    .text:0000000000000180 .LFE39
     /tmp/ccP4iEQ4.s:308    .text:0000000000000170 .LVL20
     /tmp/ccP4iEQ4.s:3211   .debug_str:00000000000001b2 .LASF116
     /tmp/ccP4iEQ4.s:252    .text:000000000000011c .LFB37
     /tmp/ccP4iEQ4.s:286    .text:0000000000000158 .LFE37
     /tmp/ccP4iEQ4.s:3080   .debug_loc:00000000000002c3 .LLST5
     /tmp/ccP4iEQ4.s:3100   .debug_loc:0000000000000311 .LLST6
     /tmp/ccP4iEQ4.s:3114   .debug_loc:000000000000034a .LLST7
     /tmp/ccP4iEQ4.s:274    .text:0000000000000148 .LVL19
     /tmp/ccP4iEQ4.s:11     .text._ZN6Thread3runEv:0000000000000000 .LFB35
     /tmp/ccP4iEQ4.s:30     .text._ZN6Thread3runEv:0000000000000018 .LFE35
     /tmp/ccP4iEQ4.s:3251   .debug_str:0000000000000307 .LASF117
     /tmp/ccP4iEQ4.s:3379   .debug_str:00000000000006a9 .LASF118
     /tmp/ccP4iEQ4.s:3207   .debug_str:0000000000000188 .LASF119
     /tmp/ccP4iEQ4.s:3229   .debug_str:0000000000000258 .LASF120
     /tmp/ccP4iEQ4.s:3385   .debug_str:00000000000006d4 .LASF121
     /tmp/ccP4iEQ4.s:3321   .debug_str:000000000000052e .LASF122
     /tmp/ccP4iEQ4.s:3439   .debug_str:000000000000093a .LASF143
     /tmp/ccP4iEQ4.s:3425   .debug_str:00000000000008d5 .LASF123
     /tmp/ccP4iEQ4.s:3359   .debug_str:0000000000000626 .LASF124
     /tmp/ccP4iEQ4.s:3231   .debug_str:0000000000000263 .LASF125
     /tmp/ccP4iEQ4.s:3415   .debug_str:0000000000000886 .LASF126
     /tmp/ccP4iEQ4.s:3165   .debug_str:0000000000000056 .LASF127
     /tmp/ccP4iEQ4.s:3191   .debug_str:000000000000011b .LASF128
     /tmp/ccP4iEQ4.s:3173   .debug_str:000000000000008c .LASF129
     /tmp/ccP4iEQ4.s:3271   .debug_str:00000000000003ac .LASF130
     /tmp/ccP4iEQ4.s:3179   .debug_str:00000000000000c3 .LASF131
     /tmp/ccP4iEQ4.s:508    .text:0000000000000270 .LVL34
     /tmp/ccP4iEQ4.s:441    .text:000000000000021c .LVL30
     /tmp/ccP4iEQ4.s:453    .text:0000000000000230 .LVL31
     /tmp/ccP4iEQ4.s:406    .text:00000000000001f0 .LVL27
     /tmp/ccP4iEQ4.s:418    .text:0000000000000204 .LVL28
     /tmp/ccP4iEQ4.s:216    .text:00000000000000dc .LVL13
     /tmp/ccP4iEQ4.s:241    .text:0000000000000114 .LVL16
     /tmp/ccP4iEQ4.s:129    .text:0000000000000064 .LVL6
     /tmp/ccP4iEQ4.s:145    .text:0000000000000084 .LVL7
     /tmp/ccP4iEQ4.s:365    .text:00000000000001b8 .LVL24
     /tmp/ccP4iEQ4.s:381    .text:00000000000001d8 .LVL25
     /tmp/ccP4iEQ4.s:41     .text:0000000000000000 .LVL1
     /tmp/ccP4iEQ4.s:328    .text:0000000000000180 .LVL21
     /tmp/ccP4iEQ4.s:341    .text:000000000000019c .LVL22
     /tmp/ccP4iEQ4.s:177    .text:000000000000009c .LVL9
     /tmp/ccP4iEQ4.s:202    .text:00000000000000d4 .LVL12
     /tmp/ccP4iEQ4.s:78     .text:000000000000002c .LVL3
     /tmp/ccP4iEQ4.s:94     .text:000000000000004c .LVL4
     /tmp/ccP4iEQ4.s:255    .text:000000000000011c .LVL17
     /tmp/ccP4iEQ4.s:272    .text:0000000000000140 .LVL18
     /tmp/ccP4iEQ4.s:561    .debug_info:0000000000000000 .Ldebug_info0
GAS LISTING /tmp/ccP4iEQ4.s 			page 21


     /tmp/ccP4iEQ4.s:5      .text:0000000000000000 .Ltext0
     /tmp/ccP4iEQ4.s:555    .text:0000000000000298 .Letext0
     /tmp/ccP4iEQ4.s:111    .gcc_except_table:0000000000000000 .LLSDA41
     /tmp/ccP4iEQ4.s:161    .gcc_except_table:0000000000000004 .LLSDA50

UNDEFINED SYMBOLS
_Z8mem_freePv
__gxx_personality_v0
_ZdlPv
_Z21thread_create_cpp_apiPP3TCBPFvPvES2_
_Z15thread_dispatchv
_Z12thread_startPP3TCBPFvPvE
_Z8sem_openPP9semaphorej
_Z8sem_waitP9semaphore
_Z10sem_signalP9semaphore
_Z4getcv
_Z4putcc
