GAS LISTING /tmp/ccetdYcC.s 			page 1


   1              		.file	"syscall_cpp.cpp"
   2              		.option pic
   3              		.option norelax
   4              		.text
   5              	.Ltext0:
   6              		.section	.text._ZN6Thread3runEv,"axG",@progbits,_ZN6Thread3runEv,comdat
   7              		.align	2
   8              		.weak	_ZN6Thread3runEv
  10              	_ZN6Thread3runEv:
  11              	.LFB33:
  12              		.file 1 "src/../h/syscall_cpp.hpp"
   1:src/../h/syscall_cpp.hpp **** //
   2:src/../h/syscall_cpp.hpp **** // Created by os on 9/11/22.
   3:src/../h/syscall_cpp.hpp **** //
   4:src/../h/syscall_cpp.hpp **** 
   5:src/../h/syscall_cpp.hpp **** #ifndef _syscall_cpp
   6:src/../h/syscall_cpp.hpp **** #define _syscall_cpp
   7:src/../h/syscall_cpp.hpp **** #include "syscall_c.hpp"
   8:src/../h/syscall_cpp.hpp **** //void* ::operator new (size_t);
   9:src/../h/syscall_cpp.hpp **** //void ::operator delete (void*);
  10:src/../h/syscall_cpp.hpp **** class Thread {
  11:src/../h/syscall_cpp.hpp **** public:
  12:src/../h/syscall_cpp.hpp ****     Thread (void (*body)(void*), void* arg);
  13:src/../h/syscall_cpp.hpp ****     virtual ~Thread ();
  14:src/../h/syscall_cpp.hpp ****     int start ();
  15:src/../h/syscall_cpp.hpp ****     static void dispatch ();
  16:src/../h/syscall_cpp.hpp **** protected:
  17:src/../h/syscall_cpp.hpp ****     Thread ();
  18:src/../h/syscall_cpp.hpp ****     virtual void run () {}
  13              		.loc 1 18 18
  14              		.cfi_startproc
  15              	.LVL0:
  16 0000 130101FF 		addi	sp,sp,-16
  17              		.cfi_def_cfa_offset 16
  18 0004 23348100 		sd	s0,8(sp)
  19              		.cfi_offset 8, -8
  20 0008 13040101 		addi	s0,sp,16
  21              		.cfi_def_cfa 8, 0
  22              		.loc 1 18 26 is_stmt 0
  23 000c 03348100 		ld	s0,8(sp)
  24              		.cfi_restore 8
  25              		.cfi_def_cfa 2, 16
  26 0010 13010101 		addi	sp,sp,16
  27              		.cfi_def_cfa_offset 0
  28 0014 67800000 		jr	ra
  29              		.cfi_endproc
  30              	.LFE33:
  32              		.text
  33              		.align	2
  34              		.globl	_ZN6ThreadD2Ev
  36              	_ZN6ThreadD2Ev:
  37              	.LFB39:
  38              		.file 2 "src/syscall_cpp.cpp"
   1:src/syscall_cpp.cpp **** //
   2:src/syscall_cpp.cpp **** // Created by os on 9/11/22.
   3:src/syscall_cpp.cpp **** //
   4:src/syscall_cpp.cpp **** 
GAS LISTING /tmp/ccetdYcC.s 			page 2


   5:src/syscall_cpp.cpp **** #include "../h/syscall_cpp.hpp"
   6:src/syscall_cpp.cpp **** 
   7:src/syscall_cpp.cpp **** Thread::Thread(void (*body)(void *), void *arg) : myHandle(nullptr) {
   8:src/syscall_cpp.cpp ****     thread_create_cpp_api((thread_t*)myHandle, body, arg);
   9:src/syscall_cpp.cpp **** }
  10:src/syscall_cpp.cpp **** 
  11:src/syscall_cpp.cpp **** void Thread::dispatch() {
  12:src/syscall_cpp.cpp ****     thread_dispatch();
  13:src/syscall_cpp.cpp **** }
  14:src/syscall_cpp.cpp **** 
  15:src/syscall_cpp.cpp **** Thread::~Thread() {
  39              		.loc 2 15 1 is_stmt 1
  40              		.cfi_startproc
  41              		.cfi_personality 0x9b,DW.ref.__gxx_personality_v0
  42              		.cfi_lsda 0x1b,.LLSDA39
  43              	.LVL1:
  44 0000 130101FF 		addi	sp,sp,-16
  45              		.cfi_def_cfa_offset 16
  46 0004 23341100 		sd	ra,8(sp)
  47 0008 23308100 		sd	s0,0(sp)
  48              		.cfi_offset 1, -8
  49              		.cfi_offset 8, -16
  50 000c 13040101 		addi	s0,sp,16
  51              		.cfi_def_cfa 8, 0
  52              	.LBB2:
  53              		.loc 2 15 17 is_stmt 0
  54 0010 97070000 		lla	a5,_ZTV6Thread+16
  54      93870700 
  55 0018 2330F500 		sd	a5,0(a0)
  16:src/syscall_cpp.cpp ****     mem_free(myHandle);
  56              		.loc 2 16 5 is_stmt 1
  57              		.loc 2 16 13 is_stmt 0
  58 001c 03358500 		ld	a0,8(a0)
  59              	.LVL2:
  60 0020 97000000 		call	_Z8mem_freePv@plt
  60      E7800000 
  61              	.LVL3:
  62              	.LBE2:
  17:src/syscall_cpp.cpp **** }
  63              		.loc 2 17 1
  64 0028 83308100 		ld	ra,8(sp)
  65              		.cfi_restore 1
  66 002c 03340100 		ld	s0,0(sp)
  67              		.cfi_restore 8
  68              		.cfi_def_cfa 2, 16
  69 0030 13010101 		addi	sp,sp,16
  70              		.cfi_def_cfa_offset 0
  71 0034 67800000 		jr	ra
  72              		.cfi_endproc
  73              	.LFE39:
  74              		.globl	__gxx_personality_v0
  75              		.section	.gcc_except_table,"a",@progbits
  76              	.LLSDA39:
  77 0000 FF       		.byte	0xff
  78 0001 FF       		.byte	0xff
  79 0002 03       		.byte	0x3
  80 0003 00       		.byte	0
GAS LISTING /tmp/ccetdYcC.s 			page 3


  81              		.text
  83              		.globl	_ZN6ThreadD1Ev
  84              		.set	_ZN6ThreadD1Ev,_ZN6ThreadD2Ev
  85              		.align	2
  86              		.globl	_ZN6ThreadD0Ev
  88              	_ZN6ThreadD0Ev:
  89              	.LFB41:
  15:src/syscall_cpp.cpp ****     mem_free(myHandle);
  90              		.loc 2 15 1 is_stmt 1
  91              		.cfi_startproc
  92              	.LVL4:
  93 0038 130101FE 		addi	sp,sp,-32
  94              		.cfi_def_cfa_offset 32
  95 003c 233C1100 		sd	ra,24(sp)
  96 0040 23388100 		sd	s0,16(sp)
  97 0044 23349100 		sd	s1,8(sp)
  98              		.cfi_offset 1, -8
  99              		.cfi_offset 8, -16
 100              		.cfi_offset 9, -24
 101 0048 13040102 		addi	s0,sp,32
 102              		.cfi_def_cfa 8, 0
 103 004c 93040500 		mv	s1,a0
 104              		.loc 2 17 1 is_stmt 0
 105 0050 97000000 		call	_ZN6ThreadD1Ev
 105      E7800000 
 106              	.LVL5:
 107 0058 13850400 		mv	a0,s1
 108 005c 97000000 		call	_ZdlPv@plt
 108      E7800000 
 109              	.LVL6:
 110 0064 83308101 		ld	ra,24(sp)
 111              		.cfi_restore 1
 112 0068 03340101 		ld	s0,16(sp)
 113              		.cfi_restore 8
 114              		.cfi_def_cfa 2, 32
 115 006c 83348100 		ld	s1,8(sp)
 116              		.cfi_restore 9
 117              	.LVL7:
 118 0070 13010102 		addi	sp,sp,32
 119              		.cfi_def_cfa_offset 0
 120 0074 67800000 		jr	ra
 121              		.cfi_endproc
 122              	.LFE41:
 124              		.align	2
 125              		.globl	_ZN6ThreadC2EPFvPvES0_
 127              	_ZN6ThreadC2EPFvPvES0_:
 128              	.LFB35:
   7:src/syscall_cpp.cpp ****     thread_create_cpp_api((thread_t*)myHandle, body, arg);
 129              		.loc 2 7 1 is_stmt 1
 130              		.cfi_startproc
 131              	.LVL8:
 132 0078 130101FF 		addi	sp,sp,-16
 133              		.cfi_def_cfa_offset 16
 134 007c 23341100 		sd	ra,8(sp)
 135 0080 23308100 		sd	s0,0(sp)
 136              		.cfi_offset 1, -8
 137              		.cfi_offset 8, -16
GAS LISTING /tmp/ccetdYcC.s 			page 4


 138 0084 13040101 		addi	s0,sp,16
 139              		.cfi_def_cfa 8, 0
 140              	.LBB3:
   7:src/syscall_cpp.cpp ****     thread_create_cpp_api((thread_t*)myHandle, body, arg);
 141              		.loc 2 7 67 is_stmt 0
 142 0088 97070000 		lla	a5,_ZTV6Thread+16
 142      93870700 
 143 0090 2330F500 		sd	a5,0(a0)
 144 0094 23340500 		sd	zero,8(a0)
   8:src/syscall_cpp.cpp **** }
 145              		.loc 2 8 5 is_stmt 1
   8:src/syscall_cpp.cpp **** }
 146              		.loc 2 8 26 is_stmt 0
 147 0098 13050000 		li	a0,0
 148              	.LVL9:
 149 009c 97000000 		call	_Z21thread_create_cpp_apiPP3TCBPFvPvES2_@plt
 149      E7800000 
 150              	.LVL10:
 151              	.LBE3:
   9:src/syscall_cpp.cpp **** 
 152              		.loc 2 9 1
 153 00a4 83308100 		ld	ra,8(sp)
 154              		.cfi_restore 1
 155 00a8 03340100 		ld	s0,0(sp)
 156              		.cfi_restore 8
 157              		.cfi_def_cfa 2, 16
 158 00ac 13010101 		addi	sp,sp,16
 159              		.cfi_def_cfa_offset 0
 160 00b0 67800000 		jr	ra
 161              		.cfi_endproc
 162              	.LFE35:
 164              		.globl	_ZN6ThreadC1EPFvPvES0_
 165              		.set	_ZN6ThreadC1EPFvPvES0_,_ZN6ThreadC2EPFvPvES0_
 166              		.align	2
 167              		.globl	_ZN6Thread8dispatchEv
 169              	_ZN6Thread8dispatchEv:
 170              	.LFB37:
  11:src/syscall_cpp.cpp ****     thread_dispatch();
 171              		.loc 2 11 25 is_stmt 1
 172              		.cfi_startproc
 173 00b4 130101FF 		addi	sp,sp,-16
 174              		.cfi_def_cfa_offset 16
 175 00b8 23341100 		sd	ra,8(sp)
 176 00bc 23308100 		sd	s0,0(sp)
 177              		.cfi_offset 1, -8
 178              		.cfi_offset 8, -16
 179 00c0 13040101 		addi	s0,sp,16
 180              		.cfi_def_cfa 8, 0
  12:src/syscall_cpp.cpp **** }
 181              		.loc 2 12 5
  12:src/syscall_cpp.cpp **** }
 182              		.loc 2 12 20 is_stmt 0
 183 00c4 97000000 		call	_Z15thread_dispatchv@plt
 183      E7800000 
 184              	.LVL11:
  13:src/syscall_cpp.cpp **** 
 185              		.loc 2 13 1
GAS LISTING /tmp/ccetdYcC.s 			page 5


 186 00cc 83308100 		ld	ra,8(sp)
 187              		.cfi_restore 1
 188 00d0 03340100 		ld	s0,0(sp)
 189              		.cfi_restore 8
 190              		.cfi_def_cfa 2, 16
 191 00d4 13010101 		addi	sp,sp,16
 192              		.cfi_def_cfa_offset 0
 193 00d8 67800000 		jr	ra
 194              		.cfi_endproc
 195              	.LFE37:
 197              		.align	2
 198              		.globl	_ZN6Thread5startEv
 200              	_ZN6Thread5startEv:
 201              	.LFB42:
  18:src/syscall_cpp.cpp **** 
  19:src/syscall_cpp.cpp **** int Thread::start() {
 202              		.loc 2 19 21 is_stmt 1
 203              		.cfi_startproc
 204              	.LVL12:
 205 00dc 130101FF 		addi	sp,sp,-16
 206              		.cfi_def_cfa_offset 16
 207 00e0 23341100 		sd	ra,8(sp)
 208 00e4 23308100 		sd	s0,0(sp)
 209              		.cfi_offset 1, -8
 210              		.cfi_offset 8, -16
 211 00e8 13040101 		addi	s0,sp,16
 212              		.cfi_def_cfa 8, 0
  20:src/syscall_cpp.cpp ****     thread_start((thread_t*)myHandle);
 213              		.loc 2 20 5
 214              		.loc 2 20 17 is_stmt 0
 215 00ec 03358500 		ld	a0,8(a0)
 216              	.LVL13:
 217 00f0 97000000 		call	_Z12thread_startPP3TCB@plt
 217      E7800000 
 218              	.LVL14:
  21:src/syscall_cpp.cpp ****     return 0;
 219              		.loc 2 21 5 is_stmt 1
  22:src/syscall_cpp.cpp **** }
 220              		.loc 2 22 1 is_stmt 0
 221 00f8 13050000 		li	a0,0
 222 00fc 83308100 		ld	ra,8(sp)
 223              		.cfi_restore 1
 224 0100 03340100 		ld	s0,0(sp)
 225              		.cfi_restore 8
 226              		.cfi_def_cfa 2, 16
 227 0104 13010101 		addi	sp,sp,16
 228              		.cfi_def_cfa_offset 0
 229 0108 67800000 		jr	ra
 230              		.cfi_endproc
 231              	.LFE42:
 233              		.weak	_ZTV6Thread
 234              		.section	.data.rel.ro.local._ZTV6Thread,"awG",@progbits,_ZTV6Thread,comdat
 235              		.align	3
 238              	_ZTV6Thread:
 239 0000 00000000 		.dword	0
 239      00000000 
 240 0008 00000000 		.dword	0
GAS LISTING /tmp/ccetdYcC.s 			page 6


 240      00000000 
 241 0010 00000000 		.dword	_ZN6ThreadD1Ev
 241      00000000 
 242 0018 00000000 		.dword	_ZN6ThreadD0Ev
 242      00000000 
 243 0020 00000000 		.dword	_ZN6Thread3runEv
 243      00000000 
 244              		.text
 245              	.Letext0:
 246              		.file 3 "src/../h/../h/../lib/hw.h"
 247              		.file 4 "src/../h/../h/tcb.hpp"
 248              		.file 5 "src/../h/../h/../h/semaphore.hpp"
 249              		.file 6 "src/../h/syscall_c.hpp"
 2443              		.align	3
 2446              	DW.ref.__gxx_personality_v0:
 2447 0000 00000000 		.dword	__gxx_personality_v0
 2447      00000000 
 2448              		.ident	"GCC: (Ubuntu 9.4.0-1ubuntu1~20.04) 9.4.0"
 2449              		.section	.note.GNU-stack,"",@progbits
GAS LISTING /tmp/ccetdYcC.s 			page 7

