GAS LISTING /tmp/ccR5YHA0.s 			page 1


   1              		.file	"syscall_c.cpp"
   2              		.option pic
   3              		.option norelax
   4              		.text
   5              	.Ltext0:
   6              		.align	2
   7              		.globl	_Z9mem_allocm
   9              	_Z9mem_allocm:
  10              	.LFB48:
  11              		.file 1 "src/syscall_c.cpp"
   1:src/syscall_c.cpp **** //
   2:src/syscall_c.cpp **** // Created by os on 8/18/22.
   3:src/syscall_c.cpp **** //
   4:src/syscall_c.cpp **** 
   5:src/syscall_c.cpp **** #include "../h/syscall_c.hpp"
   6:src/syscall_c.cpp **** #include "../h/RiscV.hpp"
   7:src/syscall_c.cpp **** //#include "../h/MemoryAllocation.hpp"
   8:src/syscall_c.cpp **** 
   9:src/syscall_c.cpp **** 
  10:src/syscall_c.cpp **** 
  11:src/syscall_c.cpp **** void *mem_alloc(size_t  size) {
  12              		.loc 1 11 31
  13              		.cfi_startproc
  14              	.LVL0:
  15 0000 130101FF 		addi	sp,sp,-16
  16              		.cfi_def_cfa_offset 16
  17 0004 23348100 		sd	s0,8(sp)
  18              		.cfi_offset 8, -8
  19 0008 13040101 		addi	s0,sp,16
  20              		.cfi_def_cfa 8, 0
  12:src/syscall_c.cpp ****     void* pointer = nullptr;
  21              		.loc 1 12 5
  22              	.LVL1:
  13:src/syscall_c.cpp ****     uint64 sysCallNr=0x01UL;
  23              		.loc 1 13 5
  14:src/syscall_c.cpp ****     //size=MemoryAllocation::bytesToBlocks(size);
  15:src/syscall_c.cpp ****     //mozda ovde mozes da koristis privremeni registar "scratch", da bi koristio sd
  16:src/syscall_c.cpp ****     __asm__ volatile("mv a1, %0" : : [size] "r" (size)); //izgleda da ipak mora sd, jer ne prepozna
  24              		.loc 1 16 5
  25              		.loc 1 16 56 is_stmt 0
  26              	#APP
  27              	# 16 "src/syscall_c.cpp" 1
  17              	    __asm__ volatile("mv a0, %0" : : [sysCallNr] "r" (sysCallNr));
  28              		mv a1, a0
  29              	# 0 "" 2
  30              		.loc 1 17 5 is_stmt 1
  31              		.loc 1 17 66 is_stmt 0
  32              	#NO_APP
  33 0010 93071000 		li	a5,1
  34              	#APP
  35              	# 17 "src/syscall_c.cpp" 1
  18              	     //ovo bi trebalo u mainu, ali kom mainu, gde ja uopste smem da deklarisem trap??????? izgleda 
  19:src/syscall_c.cpp ****     __asm__ volatile("ecall");
  36              		mv a0, a5
  37              	# 0 "" 2
  38              		.loc 1 19 5 is_stmt 1
  39              		.loc 1 19 30 is_stmt 0
GAS LISTING /tmp/ccR5YHA0.s 			page 2


  40              	# 19 "src/syscall_c.cpp" 1
  20              	    __asm__ volatile("mv %[pointer], a1" : [pointer] "=r"(pointer));
  41              		ecall
  42              	# 0 "" 2
  43              		.loc 1 20 5 is_stmt 1
  44              		.loc 1 20 68 is_stmt 0
  45              	# 20 "src/syscall_c.cpp" 1
  21              	    return pointer;
  46              		mv a0, a1
  47              	# 0 "" 2
  48              	.LVL2:
  49              		.loc 1 21 5 is_stmt 1
  22:src/syscall_c.cpp **** }
  50              		.loc 1 22 1 is_stmt 0
  51              	#NO_APP
  52 0020 03348100 		ld	s0,8(sp)
  53              		.cfi_restore 8
  54              		.cfi_def_cfa 2, 16
  55 0024 13010101 		addi	sp,sp,16
  56              		.cfi_def_cfa_offset 0
  57 0028 67800000 		jr	ra
  58              		.cfi_endproc
  59              	.LFE48:
  61              		.align	2
  62              		.globl	_Z8mem_freePv
  64              	_Z8mem_freePv:
  65              	.LFB49:
  23:src/syscall_c.cpp **** 
  24:src/syscall_c.cpp **** int mem_free(void * ptr) {
  66              		.loc 1 24 26 is_stmt 1
  67              		.cfi_startproc
  68              	.LVL3:
  69 002c 130101FF 		addi	sp,sp,-16
  70              		.cfi_def_cfa_offset 16
  71 0030 23348100 		sd	s0,8(sp)
  72              		.cfi_offset 8, -8
  73 0034 13040101 		addi	s0,sp,16
  74              		.cfi_def_cfa 8, 0
  25:src/syscall_c.cpp ****     int ret=0;
  75              		.loc 1 25 5
  76              	.LVL4:
  26:src/syscall_c.cpp ****     uint64 sysCallNr=0x02UL;
  77              		.loc 1 26 5
  27:src/syscall_c.cpp ****     __asm__ volatile("mv a1, %0" : : [ptr] "r" (ptr));
  78              		.loc 1 27 5
  79              		.loc 1 27 54 is_stmt 0
  80              	#APP
  81              	# 27 "src/syscall_c.cpp" 1
  28              	    __asm__ volatile("mv a0, %0" : : [sysCallNr] "r" (sysCallNr));
  82              		mv a1, a0
  83              	# 0 "" 2
  84              		.loc 1 28 5 is_stmt 1
  85              		.loc 1 28 66 is_stmt 0
  86              	#NO_APP
  87 003c 93072000 		li	a5,2
  88              	#APP
  89              	# 28 "src/syscall_c.cpp" 1
GAS LISTING /tmp/ccR5YHA0.s 			page 3


  29              	    //RiscV::w_stvec((uint64) &Trap());
  30:src/syscall_c.cpp ****     __asm__ volatile("ecall");
  90              		mv a0, a5
  91              	# 0 "" 2
  92              		.loc 1 30 5 is_stmt 1
  93              		.loc 1 30 30 is_stmt 0
  94              	# 30 "src/syscall_c.cpp" 1
  31              	    __asm__ volatile("mv %[ret], a1" : [ret] "=r"(ret)); //kaze undefined reference
  95              		ecall
  96              	# 0 "" 2
  97              		.loc 1 31 5 is_stmt 1
  98              		.loc 1 31 56 is_stmt 0
  99              	# 31 "src/syscall_c.cpp" 1
  32              	    return ret;
 100              		mv a0, a1
 101              	# 0 "" 2
 102              	.LVL5:
 103              		.loc 1 32 5 is_stmt 1
  33:src/syscall_c.cpp **** }
 104              		.loc 1 33 1 is_stmt 0
 105              	#NO_APP
 106 004c 1B050500 		sext.w	a0,a0
 107 0050 03348100 		ld	s0,8(sp)
 108              		.cfi_restore 8
 109              		.cfi_def_cfa 2, 16
 110 0054 13010101 		addi	sp,sp,16
 111              		.cfi_def_cfa_offset 0
 112 0058 67800000 		jr	ra
 113              		.cfi_endproc
 114              	.LFE49:
 116              		.align	2
 117              		.globl	_Z13thread_createPP3TCBPFvPvES2_
 119              	_Z13thread_createPP3TCBPFvPvES2_:
 120              	.LFB50:
  34:src/syscall_c.cpp **** 
  35:src/syscall_c.cpp **** int thread_create (
  36:src/syscall_c.cpp ****         thread_t* handle,
  37:src/syscall_c.cpp ****         void(*start_routine)(void*),
  38:src/syscall_c.cpp ****         void* arg
  39:src/syscall_c.cpp **** ){
 121              		.loc 1 39 2 is_stmt 1
 122              		.cfi_startproc
 123              	.LVL6:
 124 005c 130101FF 		addi	sp,sp,-16
 125              		.cfi_def_cfa_offset 16
 126 0060 23348100 		sd	s0,8(sp)
 127              		.cfi_offset 8, -8
 128 0064 13040101 		addi	s0,sp,16
 129              		.cfi_def_cfa 8, 0
  40:src/syscall_c.cpp ****     TCB* ret_value_thread;
 130              		.loc 1 40 5
  41:src/syscall_c.cpp ****     uint64 sysCallNr=0x11UL;
 131              		.loc 1 41 5
 132              	.LVL7:
  42:src/syscall_c.cpp ****     //neki stack_space alokacija se pominje????
  43:src/syscall_c.cpp ****     __asm__ volatile("mv a0, %0" : : [sysCallNr] "r" (sysCallNr));
 133              		.loc 1 43 5
GAS LISTING /tmp/ccR5YHA0.s 			page 4


 134              		.loc 1 43 66 is_stmt 0
 135 0068 93071001 		li	a5,17
 136              	#APP
 137              	# 43 "src/syscall_c.cpp" 1
  44              	    __asm__ volatile("mv a1, %0" : : [handle] "r" (handle));
 138              		mv a0, a5
 139              	# 0 "" 2
 140              		.loc 1 44 5 is_stmt 1
 141              		.loc 1 44 60 is_stmt 0
 142              	# 44 "src/syscall_c.cpp" 1
  45              	    __asm__ volatile("mv a2, %0" : : [start_routine] "r" (start_routine));
 143              		mv a1, a0
 144              	# 0 "" 2
 145              		.loc 1 45 5 is_stmt 1
 146              		.loc 1 45 74 is_stmt 0
 147              	# 45 "src/syscall_c.cpp" 1
  46              	    __asm__ volatile("mv a3, %0" : : [arg] "r" (arg));
 148              		mv a2, a1
 149              	# 0 "" 2
 150              		.loc 1 46 5 is_stmt 1
 151              		.loc 1 46 54 is_stmt 0
 152              	# 46 "src/syscall_c.cpp" 1
  47              	    __asm__ volatile("ecall");
 153              		mv a3, a2
 154              	# 0 "" 2
 155              		.loc 1 47 5 is_stmt 1
 156              		.loc 1 47 30 is_stmt 0
 157              	# 47 "src/syscall_c.cpp" 1
  48              	    __asm__ volatile("mv %[ret_value_thread], a1" : [ret_value_thread] "=r"(ret_value_thread)); //k
 158              		ecall
 159              	# 0 "" 2
 160              		.loc 1 48 5 is_stmt 1
 161              		.loc 1 48 95 is_stmt 0
 162              	# 48 "src/syscall_c.cpp" 1
  49              	    return 0;
 163              		mv a5, a1
 164              	# 0 "" 2
 165              	.LVL8:
 166              		.loc 1 49 5 is_stmt 1
  50:src/syscall_c.cpp ****     //moras da vidis sta ovde treba da se vrati
  51:src/syscall_c.cpp **** }
 167              		.loc 1 51 1 is_stmt 0
 168              	#NO_APP
 169 0084 13050000 		li	a0,0
 170              	.LVL9:
 171 0088 03348100 		ld	s0,8(sp)
 172              		.cfi_restore 8
 173              		.cfi_def_cfa 2, 16
 174 008c 13010101 		addi	sp,sp,16
 175              		.cfi_def_cfa_offset 0
 176 0090 67800000 		jr	ra
 177              		.cfi_endproc
 178              	.LFE50:
 180              		.align	2
 181              		.globl	_Z11thread_exitv
 183              	_Z11thread_exitv:
 184              	.LFB51:
GAS LISTING /tmp/ccR5YHA0.s 			page 5


  52:src/syscall_c.cpp **** 
  53:src/syscall_c.cpp **** int thread_exit (){
 185              		.loc 1 53 19 is_stmt 1
 186              		.cfi_startproc
 187 0094 130101FF 		addi	sp,sp,-16
 188              		.cfi_def_cfa_offset 16
 189 0098 23348100 		sd	s0,8(sp)
 190              		.cfi_offset 8, -8
 191 009c 13040101 		addi	s0,sp,16
 192              		.cfi_def_cfa 8, 0
  54:src/syscall_c.cpp ****     int ret=0;
 193              		.loc 1 54 5
 194              	.LVL10:
  55:src/syscall_c.cpp ****     uint64 sysCallNr=0x12UL;
 195              		.loc 1 55 5
  56:src/syscall_c.cpp ****     __asm__ volatile("mv a0, %0" : : [sysCallNr] "r" (sysCallNr));
 196              		.loc 1 56 5
 197              		.loc 1 56 66 is_stmt 0
 198 00a0 93072001 		li	a5,18
 199              	#APP
 200              	# 56 "src/syscall_c.cpp" 1
  57              	    __asm__ volatile("ecall");
 201              		mv a0, a5
 202              	# 0 "" 2
 203              		.loc 1 57 5 is_stmt 1
 204              		.loc 1 57 30 is_stmt 0
 205              	# 57 "src/syscall_c.cpp" 1
  58              	    //sta treba ovde da se vrati, verovatno da li je uspelo ili nije uspelo, PREBACI THREAD_EXIT U 
  59:src/syscall_c.cpp ****     __asm__ volatile("mv %[ret], a1" : [ret] "=r"(ret)); //kaze undefined reference
 206              		ecall
 207              	# 0 "" 2
 208              		.loc 1 59 5 is_stmt 1
 209              		.loc 1 59 56 is_stmt 0
 210              	# 59 "src/syscall_c.cpp" 1
  60              	    return ret;
 211              		mv a0, a1
 212              	# 0 "" 2
 213              	.LVL11:
 214              		.loc 1 60 5 is_stmt 1
  61:src/syscall_c.cpp **** }
 215              		.loc 1 61 1 is_stmt 0
 216              	#NO_APP
 217 00b0 1B050500 		sext.w	a0,a0
 218 00b4 03348100 		ld	s0,8(sp)
 219              		.cfi_restore 8
 220              		.cfi_def_cfa 2, 16
 221 00b8 13010101 		addi	sp,sp,16
 222              		.cfi_def_cfa_offset 0
 223 00bc 67800000 		jr	ra
 224              		.cfi_endproc
 225              	.LFE51:
 227              		.align	2
 228              		.globl	_Z15thread_dispatchv
 230              	_Z15thread_dispatchv:
 231              	.LFB52:
  62:src/syscall_c.cpp **** 
  63:src/syscall_c.cpp **** void thread_dispatch (){
GAS LISTING /tmp/ccR5YHA0.s 			page 6


 232              		.loc 1 63 24 is_stmt 1
 233              		.cfi_startproc
 234 00c0 130101FF 		addi	sp,sp,-16
 235              		.cfi_def_cfa_offset 16
 236 00c4 23348100 		sd	s0,8(sp)
 237              		.cfi_offset 8, -8
 238 00c8 13040101 		addi	s0,sp,16
 239              		.cfi_def_cfa 8, 0
  64:src/syscall_c.cpp ****     uint64 sysCallNr=0x13UL;
 240              		.loc 1 64 5
 241              	.LVL12:
  65:src/syscall_c.cpp ****     __asm__ volatile("mv a0, %0" : : [sysCallNr] "r" (sysCallNr));
 242              		.loc 1 65 5
 243              		.loc 1 65 66 is_stmt 0
 244 00cc 93073001 		li	a5,19
 245              	#APP
 246              	# 65 "src/syscall_c.cpp" 1
  66              	    __asm__ volatile("ecall");
 247              		mv a0, a5
 248              	# 0 "" 2
 249              		.loc 1 66 5 is_stmt 1
 250              		.loc 1 66 30 is_stmt 0
 251              	# 66 "src/syscall_c.cpp" 1
  67              	}
 252              		ecall
 253              	# 0 "" 2
 254              		.loc 1 67 1
 255              	#NO_APP
 256 00d8 03348100 		ld	s0,8(sp)
 257              		.cfi_restore 8
 258              		.cfi_def_cfa 2, 16
 259 00dc 13010101 		addi	sp,sp,16
 260              		.cfi_def_cfa_offset 0
 261 00e0 67800000 		jr	ra
 262              		.cfi_endproc
 263              	.LFE52:
 265              	.Letext0:
 266              		.file 2 "src/../h/../h/../lib/hw.h"
 267              		.file 3 "src/../h/../h/tcb.hpp"
 268              		.file 4 "src/../h/syscall_c.hpp"
GAS LISTING /tmp/ccR5YHA0.s 			page 7


DEFINED SYMBOLS
                            *ABS*:0000000000000000 syscall_c.cpp
     /tmp/ccR5YHA0.s:9      .text:0000000000000000 _Z9mem_allocm
     /tmp/ccR5YHA0.s:13     .text:0000000000000000 .L0 
     /tmp/ccR5YHA0.s:15     .text:0000000000000000 .L0 
     /tmp/ccR5YHA0.s:16     .text:0000000000000004 .L0 
     /tmp/ccR5YHA0.s:18     .text:0000000000000008 .L0 
     /tmp/ccR5YHA0.s:20     .text:000000000000000c .L0 
     /tmp/ccR5YHA0.s:23     .text:000000000000000c .L0 
     /tmp/ccR5YHA0.s:24     .text:000000000000000c .L0 
     /tmp/ccR5YHA0.s:25     .text:000000000000000c .L0 
   src/syscall_c.cpp:16     .text:000000000000000c .L0 
     /tmp/ccR5YHA0.s:31     .text:0000000000000010 .L0 
     /tmp/ccR5YHA0.s:33     .text:0000000000000010 .L0 
     /tmp/ccR5YHA0.s:39     .text:0000000000000018 .L0 
   src/syscall_c.cpp:19     .text:0000000000000018 .L0 
     /tmp/ccR5YHA0.s:44     .text:000000000000001c .L0 
   src/syscall_c.cpp:20     .text:000000000000001c .L0 
     /tmp/ccR5YHA0.s:50     .text:0000000000000020 .L0 
     /tmp/ccR5YHA0.s:52     .text:0000000000000020 .L0 
     /tmp/ccR5YHA0.s:53     .text:0000000000000024 .L0 
     /tmp/ccR5YHA0.s:54     .text:0000000000000024 .L0 
     /tmp/ccR5YHA0.s:56     .text:0000000000000028 .L0 
     /tmp/ccR5YHA0.s:58     .text:000000000000002c .L0 
     /tmp/ccR5YHA0.s:64     .text:000000000000002c _Z8mem_freePv
     /tmp/ccR5YHA0.s:67     .text:000000000000002c .L0 
     /tmp/ccR5YHA0.s:69     .text:000000000000002c .L0 
     /tmp/ccR5YHA0.s:70     .text:0000000000000030 .L0 
     /tmp/ccR5YHA0.s:72     .text:0000000000000034 .L0 
     /tmp/ccR5YHA0.s:74     .text:0000000000000038 .L0 
     /tmp/ccR5YHA0.s:77     .text:0000000000000038 .L0 
     /tmp/ccR5YHA0.s:78     .text:0000000000000038 .L0 
     /tmp/ccR5YHA0.s:79     .text:0000000000000038 .L0 
   src/syscall_c.cpp:27     .text:0000000000000038 .L0 
     /tmp/ccR5YHA0.s:85     .text:000000000000003c .L0 
     /tmp/ccR5YHA0.s:87     .text:000000000000003c .L0 
     /tmp/ccR5YHA0.s:93     .text:0000000000000044 .L0 
   src/syscall_c.cpp:30     .text:0000000000000044 .L0 
     /tmp/ccR5YHA0.s:98     .text:0000000000000048 .L0 
   src/syscall_c.cpp:31     .text:0000000000000048 .L0 
     /tmp/ccR5YHA0.s:104    .text:000000000000004c .L0 
     /tmp/ccR5YHA0.s:106    .text:000000000000004c .L0 
     /tmp/ccR5YHA0.s:108    .text:0000000000000054 .L0 
     /tmp/ccR5YHA0.s:109    .text:0000000000000054 .L0 
     /tmp/ccR5YHA0.s:111    .text:0000000000000058 .L0 
     /tmp/ccR5YHA0.s:113    .text:000000000000005c .L0 
     /tmp/ccR5YHA0.s:119    .text:000000000000005c _Z13thread_createPP3TCBPFvPvES2_
     /tmp/ccR5YHA0.s:122    .text:000000000000005c .L0 
     /tmp/ccR5YHA0.s:124    .text:000000000000005c .L0 
     /tmp/ccR5YHA0.s:125    .text:0000000000000060 .L0 
     /tmp/ccR5YHA0.s:127    .text:0000000000000064 .L0 
     /tmp/ccR5YHA0.s:129    .text:0000000000000068 .L0 
     /tmp/ccR5YHA0.s:131    .text:0000000000000068 .L0 
     /tmp/ccR5YHA0.s:133    .text:0000000000000068 .L0 
     /tmp/ccR5YHA0.s:134    .text:0000000000000068 .L0 
     /tmp/ccR5YHA0.s:135    .text:0000000000000068 .L0 
     /tmp/ccR5YHA0.s:141    .text:0000000000000070 .L0 
GAS LISTING /tmp/ccR5YHA0.s 			page 8


   src/syscall_c.cpp:44     .text:0000000000000070 .L0 
     /tmp/ccR5YHA0.s:146    .text:0000000000000074 .L0 
   src/syscall_c.cpp:45     .text:0000000000000074 .L0 
     /tmp/ccR5YHA0.s:151    .text:0000000000000078 .L0 
   src/syscall_c.cpp:46     .text:0000000000000078 .L0 
     /tmp/ccR5YHA0.s:156    .text:000000000000007c .L0 
   src/syscall_c.cpp:47     .text:000000000000007c .L0 
     /tmp/ccR5YHA0.s:161    .text:0000000000000080 .L0 
   src/syscall_c.cpp:48     .text:0000000000000080 .L0 
     /tmp/ccR5YHA0.s:167    .text:0000000000000084 .L0 
     /tmp/ccR5YHA0.s:169    .text:0000000000000084 .L0 
     /tmp/ccR5YHA0.s:172    .text:000000000000008c .L0 
     /tmp/ccR5YHA0.s:173    .text:000000000000008c .L0 
     /tmp/ccR5YHA0.s:175    .text:0000000000000090 .L0 
     /tmp/ccR5YHA0.s:177    .text:0000000000000094 .L0 
     /tmp/ccR5YHA0.s:183    .text:0000000000000094 _Z11thread_exitv
     /tmp/ccR5YHA0.s:186    .text:0000000000000094 .L0 
     /tmp/ccR5YHA0.s:187    .text:0000000000000094 .L0 
     /tmp/ccR5YHA0.s:188    .text:0000000000000098 .L0 
     /tmp/ccR5YHA0.s:190    .text:000000000000009c .L0 
     /tmp/ccR5YHA0.s:192    .text:00000000000000a0 .L0 
     /tmp/ccR5YHA0.s:195    .text:00000000000000a0 .L0 
     /tmp/ccR5YHA0.s:196    .text:00000000000000a0 .L0 
     /tmp/ccR5YHA0.s:197    .text:00000000000000a0 .L0 
     /tmp/ccR5YHA0.s:198    .text:00000000000000a0 .L0 
     /tmp/ccR5YHA0.s:204    .text:00000000000000a8 .L0 
   src/syscall_c.cpp:57     .text:00000000000000a8 .L0 
     /tmp/ccR5YHA0.s:209    .text:00000000000000ac .L0 
   src/syscall_c.cpp:59     .text:00000000000000ac .L0 
     /tmp/ccR5YHA0.s:215    .text:00000000000000b0 .L0 
     /tmp/ccR5YHA0.s:217    .text:00000000000000b0 .L0 
     /tmp/ccR5YHA0.s:219    .text:00000000000000b8 .L0 
     /tmp/ccR5YHA0.s:220    .text:00000000000000b8 .L0 
     /tmp/ccR5YHA0.s:222    .text:00000000000000bc .L0 
     /tmp/ccR5YHA0.s:224    .text:00000000000000c0 .L0 
     /tmp/ccR5YHA0.s:230    .text:00000000000000c0 _Z15thread_dispatchv
     /tmp/ccR5YHA0.s:233    .text:00000000000000c0 .L0 
     /tmp/ccR5YHA0.s:234    .text:00000000000000c0 .L0 
     /tmp/ccR5YHA0.s:235    .text:00000000000000c4 .L0 
     /tmp/ccR5YHA0.s:237    .text:00000000000000c8 .L0 
     /tmp/ccR5YHA0.s:239    .text:00000000000000cc .L0 
     /tmp/ccR5YHA0.s:242    .text:00000000000000cc .L0 
     /tmp/ccR5YHA0.s:243    .text:00000000000000cc .L0 
     /tmp/ccR5YHA0.s:244    .text:00000000000000cc .L0 
     /tmp/ccR5YHA0.s:250    .text:00000000000000d4 .L0 
   src/syscall_c.cpp:66     .text:00000000000000d4 .L0 
     /tmp/ccR5YHA0.s:256    .text:00000000000000d8 .L0 
     /tmp/ccR5YHA0.s:257    .text:00000000000000dc .L0 
     /tmp/ccR5YHA0.s:258    .text:00000000000000dc .L0 
     /tmp/ccR5YHA0.s:260    .text:00000000000000e0 .L0 
     /tmp/ccR5YHA0.s:262    .text:00000000000000e4 .L0 
     /tmp/ccR5YHA0.s:269    .text:00000000000000e4 .L0 
     /tmp/ccR5YHA0.s:877    .debug_abbrev:0000000000000000 .Ldebug_abbrev0
     /tmp/ccR5YHA0.s:1829   .debug_str:0000000000000407 .LASF65
     /tmp/ccR5YHA0.s:1755   .debug_str:00000000000001f8 .LASF66
     /tmp/ccR5YHA0.s:1729   .debug_str:00000000000000fe .LASF67
     /tmp/ccR5YHA0.s:5      .text:0000000000000000 .Ltext0
GAS LISTING /tmp/ccR5YHA0.s 			page 9


     /tmp/ccR5YHA0.s:265    .text:00000000000000e4 .Letext0
     /tmp/ccR5YHA0.s:1689   .debug_line:0000000000000000 .Ldebug_line0
     /tmp/ccR5YHA0.s:1781   .debug_str:00000000000002c4 .LASF0
     /tmp/ccR5YHA0.s:1789   .debug_str:00000000000002ea .LASF1
     /tmp/ccR5YHA0.s:1773   .debug_str:0000000000000287 .LASF2
     /tmp/ccR5YHA0.s:1753   .debug_str:00000000000001f1 .LASF4
     /tmp/ccR5YHA0.s:1815   .debug_str:00000000000003a4 .LASF3
     /tmp/ccR5YHA0.s:1701   .debug_str:0000000000000046 .LASF5
     /tmp/ccR5YHA0.s:1793   .debug_str:000000000000030e .LASF6
     /tmp/ccR5YHA0.s:1779   .debug_str:00000000000002b1 .LASF7
     /tmp/ccR5YHA0.s:1835   .debug_str:00000000000004e2 .LASF8
     /tmp/ccR5YHA0.s:1741   .debug_str:0000000000000174 .LASF9
     /tmp/ccR5YHA0.s:1799   .debug_str:000000000000034d .LASF10
     /tmp/ccR5YHA0.s:1831   .debug_str:00000000000004cb .LASF11
     /tmp/ccR5YHA0.s:1703   .debug_str:000000000000004d .LASF12
     /tmp/ccR5YHA0.s:1693   .debug_str:0000000000000009 .LASF13
     /tmp/ccR5YHA0.s:1707   .debug_str:000000000000006a .LASF14
     /tmp/ccR5YHA0.s:1811   .debug_str:0000000000000388 .LASF15
     /tmp/ccR5YHA0.s:1717   .debug_str:00000000000000b5 .LASF16
     /tmp/ccR5YHA0.s:1695   .debug_str:0000000000000019 .LASF68
     /tmp/ccR5YHA0.s:1841   .debug_str:0000000000000515 .LASF17
     /tmp/ccR5YHA0.s:1827   .debug_str:00000000000003fb .LASF19
     /tmp/ccR5YHA0.s:1737   .debug_str:000000000000014d .LASF18
     /tmp/ccR5YHA0.s:1743   .debug_str:0000000000000182 .LASF20
     /tmp/ccR5YHA0.s:1821   .debug_str:00000000000003d1 .LASF21
     /tmp/ccR5YHA0.s:1809   .debug_str:000000000000037b .LASF23
     /tmp/ccR5YHA0.s:1823   .debug_str:00000000000003e1 .LASF22
     /tmp/ccR5YHA0.s:1705   .debug_str:000000000000005d .LASF24
     /tmp/ccR5YHA0.s:1721   .debug_str:00000000000000d9 .LASF25
     /tmp/ccR5YHA0.s:1803   .debug_str:0000000000000365 .LASF26
     /tmp/ccR5YHA0.s:1761   .debug_str:0000000000000217 .LASF27
     /tmp/ccR5YHA0.s:1765   .debug_str:0000000000000232 .LASF28
     /tmp/ccR5YHA0.s:1805   .debug_str:0000000000000371 .LASF69
     /tmp/ccR5YHA0.s:1709   .debug_str:0000000000000076 .LASF31
     /tmp/ccR5YHA0.s:1771   .debug_str:000000000000026c .LASF33
     /tmp/ccR5YHA0.s:1697   .debug_str:0000000000000021 .LASF53
     /tmp/ccR5YHA0.s:1713   .debug_str:0000000000000094 .LASF70
     /tmp/ccR5YHA0.s:1795   .debug_str:0000000000000321 .LASF35
     /tmp/ccR5YHA0.s:1739   .debug_str:000000000000015d .LASF37
     /tmp/ccR5YHA0.s:1775   .debug_str:0000000000000295 .LASF29
     /tmp/ccR5YHA0.s:1749   .debug_str:00000000000001b2 .LASF30
     /tmp/ccR5YHA0.s:1813   .debug_str:000000000000039e .LASF32
     /tmp/ccR5YHA0.s:1777   .debug_str:00000000000002a1 .LASF34
     /tmp/ccR5YHA0.s:1723   .debug_str:00000000000000de .LASF71
     /tmp/ccR5YHA0.s:1767   .debug_str:0000000000000256 .LASF36
     /tmp/ccR5YHA0.s:1699   .debug_str:000000000000002d .LASF38
     /tmp/ccR5YHA0.s:1837   .debug_str:00000000000004f2 .LASF72
     /tmp/ccR5YHA0.s:1757   .debug_str:000000000000020a .LASF39
     /tmp/ccR5YHA0.s:1785   .debug_str:00000000000002da .LASF40
     /tmp/ccR5YHA0.s:1759   .debug_str:000000000000020f .LASF41
     /tmp/ccR5YHA0.s:1787   .debug_str:00000000000002e0 .LASF42
     /tmp/ccR5YHA0.s:1769   .debug_str:0000000000000263 .LASF43
     /tmp/ccR5YHA0.s:1843   .debug_str:0000000000000522 .LASF44
     /tmp/ccR5YHA0.s:1763   .debug_str:0000000000000224 .LASF45
     /tmp/ccR5YHA0.s:1745   .debug_str:000000000000018e .LASF47
     /tmp/ccR5YHA0.s:1839   .debug_str:0000000000000507 .LASF73
     /tmp/ccR5YHA0.s:1751   .debug_str:00000000000001c9 .LASF74
GAS LISTING /tmp/ccR5YHA0.s 			page 10


     /tmp/ccR5YHA0.s:1783   .debug_str:00000000000002d1 .LASF46
     /tmp/ccR5YHA0.s:1725   .debug_str:00000000000000e6 .LASF48
     /tmp/ccR5YHA0.s:1817   .debug_str:00000000000003b6 .LASF75
     /tmp/ccR5YHA0.s:1747   .debug_str:00000000000001a7 .LASF76
     /tmp/ccR5YHA0.s:1727   .debug_str:00000000000000f9 .LASF49
     /tmp/ccR5YHA0.s:1691   .debug_str:0000000000000000 .LASF50
     /tmp/ccR5YHA0.s:1731   .debug_str:000000000000011c .LASF51
     /tmp/ccR5YHA0.s:231    .text:00000000000000c0 .LFB52
     /tmp/ccR5YHA0.s:263    .text:00000000000000e4 .LFE52
     /tmp/ccR5YHA0.s:1715   .debug_str:00000000000000ab .LASF52
     /tmp/ccR5YHA0.s:1791   .debug_str:00000000000002fd .LASF55
     /tmp/ccR5YHA0.s:184    .text:0000000000000094 .LFB51
     /tmp/ccR5YHA0.s:225    .text:00000000000000c0 .LFE51
     /tmp/ccR5YHA0.s:1598   .debug_loc:0000000000000000 .LLST5
     /tmp/ccR5YHA0.s:1719   .debug_str:00000000000000cb .LASF54
     /tmp/ccR5YHA0.s:1797   .debug_str:000000000000032c .LASF56
     /tmp/ccR5YHA0.s:120    .text:000000000000005c .LFB50
     /tmp/ccR5YHA0.s:178    .text:0000000000000094 .LFE50
     /tmp/ccR5YHA0.s:1825   .debug_str:00000000000003f4 .LASF57
     /tmp/ccR5YHA0.s:1610   .debug_loc:0000000000000037 .LLST4
     /tmp/ccR5YHA0.s:1735   .debug_str:000000000000013f .LASF58
     /tmp/ccR5YHA0.s:1845   .debug_str:000000000000052c .LASF77
     /tmp/ccR5YHA0.s:1801   .debug_str:000000000000035c .LASF59
     /tmp/ccR5YHA0.s:1733   .debug_str:0000000000000131 .LASF60
     /tmp/ccR5YHA0.s:65     .text:000000000000002c .LFB49
     /tmp/ccR5YHA0.s:114    .text:000000000000005c .LFE49
     /tmp/ccR5YHA0.s:1624   .debug_loc:0000000000000070 .LLST2
     /tmp/ccR5YHA0.s:1638   .debug_loc:00000000000000a9 .LLST3
     /tmp/ccR5YHA0.s:1819   .debug_str:00000000000003c7 .LASF61
     /tmp/ccR5YHA0.s:1711   .debug_str:0000000000000086 .LASF62
     /tmp/ccR5YHA0.s:10     .text:0000000000000000 .LFB48
     /tmp/ccR5YHA0.s:59     .text:000000000000002c .LFE48
     /tmp/ccR5YHA0.s:1807   .debug_str:0000000000000376 .LASF63
     /tmp/ccR5YHA0.s:1650   .debug_loc:00000000000000e0 .LLST0
     /tmp/ccR5YHA0.s:1833   .debug_str:00000000000004da .LASF64
     /tmp/ccR5YHA0.s:1664   .debug_loc:0000000000000119 .LLST1
     /tmp/ccR5YHA0.s:194    .text:00000000000000a0 .LVL10
     /tmp/ccR5YHA0.s:213    .text:00000000000000b0 .LVL11
     /tmp/ccR5YHA0.s:123    .text:000000000000005c .LVL6
     /tmp/ccR5YHA0.s:170    .text:0000000000000088 .LVL9
     /tmp/ccR5YHA0.s:68     .text:000000000000002c .LVL3
     /tmp/ccR5YHA0.s:102    .text:000000000000004c .LVL5
     /tmp/ccR5YHA0.s:76     .text:0000000000000038 .LVL4
     /tmp/ccR5YHA0.s:14     .text:0000000000000000 .LVL0
     /tmp/ccR5YHA0.s:48     .text:0000000000000020 .LVL2
     /tmp/ccR5YHA0.s:22     .text:000000000000000c .LVL1
     /tmp/ccR5YHA0.s:270    .debug_info:0000000000000000 .Ldebug_info0

NO UNDEFINED SYMBOLS
