GAS LISTING /tmp/ccAwjkbU.s 			page 1


   1              		.file	"syscall_cpp.cpp"
   2              		.option pic
   3              		.option norelax
   4              		.text
   5              	.Ltext0:
   6              		.section	.text._ZN6Thread3runEv,"axG",@progbits,_ZN6Thread3runEv,comdat
   7              		.align	2
   8              		.weak	_ZN6Thread3runEv
  10              	_ZN6Thread3runEv:
  11              	.LFB35:
  12              		.file 1 "src/../h/syscall_cpp.hpp"
   1:src/../h/syscall_cpp.hpp **** //
   2:src/../h/syscall_cpp.hpp **** // Created by os on 9/11/22.
   3:src/../h/syscall_cpp.hpp **** //
   4:src/../h/syscall_cpp.hpp **** 
   5:src/../h/syscall_cpp.hpp **** #ifndef _syscall_cpp
   6:src/../h/syscall_cpp.hpp **** #define _syscall_cpp
   7:src/../h/syscall_cpp.hpp **** #include "syscall_c.hpp"
   8:src/../h/syscall_cpp.hpp **** #include "../h/printing.hpp"
   9:src/../h/syscall_cpp.hpp **** //void* ::operator new (size_t);
  10:src/../h/syscall_cpp.hpp **** //void ::operator delete (void*);
  11:src/../h/syscall_cpp.hpp **** class Thread {
  12:src/../h/syscall_cpp.hpp **** public:
  13:src/../h/syscall_cpp.hpp ****     Thread (void (*body)(void*), void* arg);
  14:src/../h/syscall_cpp.hpp ****     virtual ~Thread ();
  15:src/../h/syscall_cpp.hpp ****     int start ();
  16:src/../h/syscall_cpp.hpp ****     static void dispatch ();
  17:src/../h/syscall_cpp.hpp ****     static void threadWrapper(void* arg);
  18:src/../h/syscall_cpp.hpp **** protected:
  19:src/../h/syscall_cpp.hpp ****     Thread (){
  20:src/../h/syscall_cpp.hpp ****         //tu izleda da treba da dodas gornji konstruktor
  21:src/../h/syscall_cpp.hpp ****         printString("pre wrappera");
  22:src/../h/syscall_cpp.hpp ****         //threadWrapper(this); //todo uopste mi ne napravi handle
  23:src/../h/syscall_cpp.hpp ****         //printString("posle wrappera");
  24:src/../h/syscall_cpp.hpp ****         //Thread(threadWrapper(this), this); //todo mozda treba & ispred threadWrapper
  25:src/../h/syscall_cpp.hpp ****         //thread_create_cpp_api(&myHandle, threadWrapper, this);
  26:src/../h/syscall_cpp.hpp ****         thread_create(&myHandle,nullptr, this); //OVO RADI, ZNACI ILI NE RADI START ILI NESTO SJEBE
  27:src/../h/syscall_cpp.hpp ****         //THREAD_CREATE RADI BEZ PROBLEMA, STAVLJAO FALSE ILI TRUE MODIFIKATOR, ZNACI I DA SVE OSTA
  28:src/../h/syscall_cpp.hpp ****     };
  29:src/../h/syscall_cpp.hpp ****     virtual void run () {} //on ovde zabaguje potpuno
  13              		.loc 1 29 18
  14              		.cfi_startproc
  15              	.LVL0:
  16 0000 130101FF 		addi	sp,sp,-16
  17              		.cfi_def_cfa_offset 16
  18 0004 23348100 		sd	s0,8(sp)
  19              		.cfi_offset 8, -8
  20 0008 13040101 		addi	s0,sp,16
  21              		.cfi_def_cfa 8, 0
  22              		.loc 1 29 26 is_stmt 0
  23 000c 03348100 		ld	s0,8(sp)
  24              		.cfi_restore 8
  25              		.cfi_def_cfa 2, 16
  26 0010 13010101 		addi	sp,sp,16
  27              		.cfi_def_cfa_offset 0
  28 0014 67800000 		jr	ra
  29              		.cfi_endproc
GAS LISTING /tmp/ccAwjkbU.s 			page 2


  30              	.LFE35:
  32              		.text
  33              		.align	2
  34              		.globl	_ZN6Thread13threadWrapperEPv
  36              	_ZN6Thread13threadWrapperEPv:
  37              	.LFB45:
  38              		.file 2 "src/syscall_cpp.cpp"
   1:src/syscall_cpp.cpp **** //
   2:src/syscall_cpp.cpp **** // Created by os on 9/11/22.
   3:src/syscall_cpp.cpp **** //
   4:src/syscall_cpp.cpp **** 
   5:src/syscall_cpp.cpp **** #include "../h/syscall_cpp.hpp"
   6:src/syscall_cpp.cpp **** 
   7:src/syscall_cpp.cpp **** Thread::Thread(void (*body)(void *), void *arg) : myHandle(nullptr){ //todo nekako treba da inicija
   8:src/syscall_cpp.cpp ****     thread_create_cpp_api(&myHandle, body, arg);
   9:src/syscall_cpp.cpp **** }
  10:src/syscall_cpp.cpp **** 
  11:src/syscall_cpp.cpp **** void Thread::dispatch() {
  12:src/syscall_cpp.cpp ****     thread_dispatch();
  13:src/syscall_cpp.cpp **** }
  14:src/syscall_cpp.cpp **** 
  15:src/syscall_cpp.cpp **** Thread::~Thread() {
  16:src/syscall_cpp.cpp ****     mem_free(myHandle);//mozda cak i sizeof(Thread)
  17:src/syscall_cpp.cpp **** }
  18:src/syscall_cpp.cpp **** 
  19:src/syscall_cpp.cpp **** int Thread::start() {
  20:src/syscall_cpp.cpp ****     printString("udje u start");
  21:src/syscall_cpp.cpp ****     thread_start(&myHandle, threadWrapper); //todo vrati na cast (thread_t*) ako ne bude radilo
  22:src/syscall_cpp.cpp ****     printString("izadje iz starta");
  23:src/syscall_cpp.cpp ****     return 0;
  24:src/syscall_cpp.cpp **** }
  25:src/syscall_cpp.cpp **** 
  26:src/syscall_cpp.cpp **** void Thread::threadWrapper(void *arg) {
  39              		.loc 2 26 39 is_stmt 1
  40              		.cfi_startproc
  41              	.LVL1:
  42 0000 130101FF 		addi	sp,sp,-16
  43              		.cfi_def_cfa_offset 16
  44 0004 23341100 		sd	ra,8(sp)
  45 0008 23308100 		sd	s0,0(sp)
  46              		.cfi_offset 1, -8
  47              		.cfi_offset 8, -16
  48 000c 13040101 		addi	s0,sp,16
  49              		.cfi_def_cfa 8, 0
  27:src/syscall_cpp.cpp ****     ((Thread*)arg)->run();
  50              		.loc 2 27 5
  51              		.loc 2 27 25 is_stmt 0
  52 0010 83370500 		ld	a5,0(a0)
  53 0014 83B70701 		ld	a5,16(a5)
  54              		.loc 2 27 24
  55 0018 E7800700 		jalr	a5
  56              	.LVL2:
  28:src/syscall_cpp.cpp **** }
  57              		.loc 2 28 1
  58 001c 83308100 		ld	ra,8(sp)
  59              		.cfi_restore 1
  60 0020 03340100 		ld	s0,0(sp)
GAS LISTING /tmp/ccAwjkbU.s 			page 3


  61              		.cfi_restore 8
  62              		.cfi_def_cfa 2, 16
  63 0024 13010101 		addi	sp,sp,16
  64              		.cfi_def_cfa_offset 0
  65 0028 67800000 		jr	ra
  66              		.cfi_endproc
  67              	.LFE45:
  69              		.align	2
  70              		.globl	_ZN6ThreadD2Ev
  72              	_ZN6ThreadD2Ev:
  73              	.LFB41:
  15:src/syscall_cpp.cpp ****     mem_free(myHandle);//mozda cak i sizeof(Thread)
  74              		.loc 2 15 1 is_stmt 1
  75              		.cfi_startproc
  76              		.cfi_personality 0x9b,DW.ref.__gxx_personality_v0
  77              		.cfi_lsda 0x1b,.LLSDA41
  78              	.LVL3:
  79 002c 130101FF 		addi	sp,sp,-16
  80              		.cfi_def_cfa_offset 16
  81 0030 23341100 		sd	ra,8(sp)
  82 0034 23308100 		sd	s0,0(sp)
  83              		.cfi_offset 1, -8
  84              		.cfi_offset 8, -16
  85 0038 13040101 		addi	s0,sp,16
  86              		.cfi_def_cfa 8, 0
  87              	.LBB2:
  15:src/syscall_cpp.cpp ****     mem_free(myHandle);//mozda cak i sizeof(Thread)
  88              		.loc 2 15 17 is_stmt 0
  89 003c 97070000 		lla	a5,_ZTV6Thread+16
  89      93870700 
  90 0044 2330F500 		sd	a5,0(a0)
  16:src/syscall_cpp.cpp **** }
  91              		.loc 2 16 5 is_stmt 1
  16:src/syscall_cpp.cpp **** }
  92              		.loc 2 16 13 is_stmt 0
  93 0048 03358500 		ld	a0,8(a0)
  94              	.LVL4:
  95 004c 97000000 		call	_Z8mem_freePv@plt
  95      E7800000 
  96              	.LVL5:
  97              	.LBE2:
  17:src/syscall_cpp.cpp **** 
  98              		.loc 2 17 1
  99 0054 83308100 		ld	ra,8(sp)
 100              		.cfi_restore 1
 101 0058 03340100 		ld	s0,0(sp)
 102              		.cfi_restore 8
 103              		.cfi_def_cfa 2, 16
 104 005c 13010101 		addi	sp,sp,16
 105              		.cfi_def_cfa_offset 0
 106 0060 67800000 		jr	ra
 107              		.cfi_endproc
 108              	.LFE41:
 109              		.globl	__gxx_personality_v0
 110              		.section	.gcc_except_table,"a",@progbits
 111              	.LLSDA41:
 112 0000 FF       		.byte	0xff
GAS LISTING /tmp/ccAwjkbU.s 			page 4


 113 0001 FF       		.byte	0xff
 114 0002 03       		.byte	0x3
 115 0003 00       		.byte	0
 116              		.text
 118              		.globl	_ZN6ThreadD1Ev
 119              		.set	_ZN6ThreadD1Ev,_ZN6ThreadD2Ev
 120              		.align	2
 121              		.globl	_ZN6ThreadD0Ev
 123              	_ZN6ThreadD0Ev:
 124              	.LFB43:
  15:src/syscall_cpp.cpp ****     mem_free(myHandle);//mozda cak i sizeof(Thread)
 125              		.loc 2 15 1 is_stmt 1
 126              		.cfi_startproc
 127              	.LVL6:
 128 0064 130101FE 		addi	sp,sp,-32
 129              		.cfi_def_cfa_offset 32
 130 0068 233C1100 		sd	ra,24(sp)
 131 006c 23388100 		sd	s0,16(sp)
 132 0070 23349100 		sd	s1,8(sp)
 133              		.cfi_offset 1, -8
 134              		.cfi_offset 8, -16
 135              		.cfi_offset 9, -24
 136 0074 13040102 		addi	s0,sp,32
 137              		.cfi_def_cfa 8, 0
 138 0078 93040500 		mv	s1,a0
  17:src/syscall_cpp.cpp **** 
 139              		.loc 2 17 1 is_stmt 0
 140 007c 97000000 		call	_ZN6ThreadD1Ev
 140      E7800000 
 141              	.LVL7:
 142 0084 13850400 		mv	a0,s1
 143 0088 97000000 		call	_ZdlPv@plt
 143      E7800000 
 144              	.LVL8:
 145 0090 83308101 		ld	ra,24(sp)
 146              		.cfi_restore 1
 147 0094 03340101 		ld	s0,16(sp)
 148              		.cfi_restore 8
 149              		.cfi_def_cfa 2, 32
 150 0098 83348100 		ld	s1,8(sp)
 151              		.cfi_restore 9
 152              	.LVL9:
 153 009c 13010102 		addi	sp,sp,32
 154              		.cfi_def_cfa_offset 0
 155 00a0 67800000 		jr	ra
 156              		.cfi_endproc
 157              	.LFE43:
 159              		.align	2
 160              		.globl	_ZN6ThreadC2EPFvPvES0_
 162              	_ZN6ThreadC2EPFvPvES0_:
 163              	.LFB37:
   7:src/syscall_cpp.cpp ****     thread_create_cpp_api(&myHandle, body, arg);
 164              		.loc 2 7 1 is_stmt 1
 165              		.cfi_startproc
 166              	.LVL10:
 167 00a4 130101FF 		addi	sp,sp,-16
 168              		.cfi_def_cfa_offset 16
GAS LISTING /tmp/ccAwjkbU.s 			page 5


 169 00a8 23341100 		sd	ra,8(sp)
 170 00ac 23308100 		sd	s0,0(sp)
 171              		.cfi_offset 1, -8
 172              		.cfi_offset 8, -16
 173 00b0 13040101 		addi	s0,sp,16
 174              		.cfi_def_cfa 8, 0
 175              	.LBB3:
   7:src/syscall_cpp.cpp ****     thread_create_cpp_api(&myHandle, body, arg);
 176              		.loc 2 7 67 is_stmt 0
 177 00b4 97070000 		lla	a5,_ZTV6Thread+16
 177      93870700 
 178 00bc 2330F500 		sd	a5,0(a0)
 179 00c0 23340500 		sd	zero,8(a0)
   8:src/syscall_cpp.cpp **** }
 180              		.loc 2 8 5 is_stmt 1
   8:src/syscall_cpp.cpp **** }
 181              		.loc 2 8 26 is_stmt 0
 182 00c4 13058500 		addi	a0,a0,8
 183              	.LVL11:
 184 00c8 97000000 		call	_Z21thread_create_cpp_apiPP3TCBPFvPvES2_@plt
 184      E7800000 
 185              	.LVL12:
 186              	.LBE3:
   9:src/syscall_cpp.cpp **** 
 187              		.loc 2 9 1
 188 00d0 83308100 		ld	ra,8(sp)
 189              		.cfi_restore 1
 190 00d4 03340100 		ld	s0,0(sp)
 191              		.cfi_restore 8
 192              		.cfi_def_cfa 2, 16
 193 00d8 13010101 		addi	sp,sp,16
 194              		.cfi_def_cfa_offset 0
 195 00dc 67800000 		jr	ra
 196              		.cfi_endproc
 197              	.LFE37:
 199              		.globl	_ZN6ThreadC1EPFvPvES0_
 200              		.set	_ZN6ThreadC1EPFvPvES0_,_ZN6ThreadC2EPFvPvES0_
 201              		.align	2
 202              		.globl	_ZN6Thread8dispatchEv
 204              	_ZN6Thread8dispatchEv:
 205              	.LFB39:
  11:src/syscall_cpp.cpp ****     thread_dispatch();
 206              		.loc 2 11 25 is_stmt 1
 207              		.cfi_startproc
 208 00e0 130101FF 		addi	sp,sp,-16
 209              		.cfi_def_cfa_offset 16
 210 00e4 23341100 		sd	ra,8(sp)
 211 00e8 23308100 		sd	s0,0(sp)
 212              		.cfi_offset 1, -8
 213              		.cfi_offset 8, -16
 214 00ec 13040101 		addi	s0,sp,16
 215              		.cfi_def_cfa 8, 0
  12:src/syscall_cpp.cpp **** }
 216              		.loc 2 12 5
  12:src/syscall_cpp.cpp **** }
 217              		.loc 2 12 20 is_stmt 0
 218 00f0 97000000 		call	_Z15thread_dispatchv@plt
GAS LISTING /tmp/ccAwjkbU.s 			page 6


 218      E7800000 
 219              	.LVL13:
  13:src/syscall_cpp.cpp **** 
 220              		.loc 2 13 1
 221 00f8 83308100 		ld	ra,8(sp)
 222              		.cfi_restore 1
 223 00fc 03340100 		ld	s0,0(sp)
 224              		.cfi_restore 8
 225              		.cfi_def_cfa 2, 16
 226 0100 13010101 		addi	sp,sp,16
 227              		.cfi_def_cfa_offset 0
 228 0104 67800000 		jr	ra
 229              		.cfi_endproc
 230              	.LFE39:
 232              		.section	.rodata.str1.8,"aMS",@progbits,1
 233              		.align	3
 234              	.LC0:
 235 0000 75646A65 		.string	"udje u start"
 235      20752073 
 235      74617274 
 235      00
 236 000d 000000   		.align	3
 237              	.LC1:
 238 0010 697A6164 		.string	"izadje iz starta"
 238      6A652069 
 238      7A207374 
 238      61727461 
 238      00
 239              		.text
 240              		.align	2
 241              		.globl	_ZN6Thread5startEv
 243              	_ZN6Thread5startEv:
 244              	.LFB44:
  19:src/syscall_cpp.cpp ****     printString("udje u start");
 245              		.loc 2 19 21 is_stmt 1
 246              		.cfi_startproc
 247              	.LVL14:
 248 0108 130101FE 		addi	sp,sp,-32
 249              		.cfi_def_cfa_offset 32
 250 010c 233C1100 		sd	ra,24(sp)
 251 0110 23388100 		sd	s0,16(sp)
 252 0114 23349100 		sd	s1,8(sp)
 253              		.cfi_offset 1, -8
 254              		.cfi_offset 8, -16
 255              		.cfi_offset 9, -24
 256 0118 13040102 		addi	s0,sp,32
 257              		.cfi_def_cfa 8, 0
 258 011c 93040500 		mv	s1,a0
  20:src/syscall_cpp.cpp ****     thread_start(&myHandle, threadWrapper); //todo vrati na cast (thread_t*) ako ne bude radilo
 259              		.loc 2 20 5
  20:src/syscall_cpp.cpp ****     thread_start(&myHandle, threadWrapper); //todo vrati na cast (thread_t*) ako ne bude radilo
 260              		.loc 2 20 16 is_stmt 0
 261 0120 17050000 		lla	a0,.LC0
 261      13050500 
 262              	.LVL15:
 263 0128 97000000 		call	_Z11printStringPKc@plt
 263      E7800000 
GAS LISTING /tmp/ccAwjkbU.s 			page 7


 264              	.LVL16:
  21:src/syscall_cpp.cpp ****     printString("izadje iz starta");
 265              		.loc 2 21 5 is_stmt 1
  21:src/syscall_cpp.cpp ****     printString("izadje iz starta");
 266              		.loc 2 21 17 is_stmt 0
 267 0130 97050000 		lla	a1,_ZN6Thread13threadWrapperEPv
 267      93850500 
 268 0138 13858400 		addi	a0,s1,8
 269 013c 97000000 		call	_Z12thread_startPP3TCBPFvPvE@plt
 269      E7800000 
 270              	.LVL17:
  22:src/syscall_cpp.cpp ****     return 0;
 271              		.loc 2 22 5 is_stmt 1
  22:src/syscall_cpp.cpp ****     return 0;
 272              		.loc 2 22 16 is_stmt 0
 273 0144 17050000 		lla	a0,.LC1
 273      13050500 
 274 014c 97000000 		call	_Z11printStringPKc@plt
 274      E7800000 
 275              	.LVL18:
  23:src/syscall_cpp.cpp **** }
 276              		.loc 2 23 5 is_stmt 1
  24:src/syscall_cpp.cpp **** 
 277              		.loc 2 24 1 is_stmt 0
 278 0154 13050000 		li	a0,0
 279 0158 83308101 		ld	ra,24(sp)
 280              		.cfi_restore 1
 281 015c 03340101 		ld	s0,16(sp)
 282              		.cfi_restore 8
 283              		.cfi_def_cfa 2, 32
 284 0160 83348100 		ld	s1,8(sp)
 285              		.cfi_restore 9
 286              	.LVL19:
 287 0164 13010102 		addi	sp,sp,32
 288              		.cfi_def_cfa_offset 0
 289 0168 67800000 		jr	ra
 290              		.cfi_endproc
 291              	.LFE44:
 293              		.weak	_ZTV6Thread
 294              		.section	.data.rel.ro.local._ZTV6Thread,"awG",@progbits,_ZTV6Thread,comdat
 295              		.align	3
 298              	_ZTV6Thread:
 299 0000 00000000 		.dword	0
 299      00000000 
 300 0008 00000000 		.dword	0
 300      00000000 
 301 0010 00000000 		.dword	_ZN6ThreadD1Ev
 301      00000000 
 302 0018 00000000 		.dword	_ZN6ThreadD0Ev
 302      00000000 
 303 0020 00000000 		.dword	_ZN6Thread3runEv
 303      00000000 
 304              		.text
 305              	.Letext0:
 306              		.file 3 "src/../h/../h/../lib/hw.h"
 307              		.file 4 "src/../h/../h/tcb.hpp"
 308              		.file 5 "src/../h/../h/../h/semaphore.hpp"
GAS LISTING /tmp/ccAwjkbU.s 			page 8


 309              		.file 6 "src/../h/syscall_c.hpp"
 310              		.file 7 "src/../h/../h/../h/printing.hpp"
 2652              		.align	3
 2655              	DW.ref.__gxx_personality_v0:
 2656 0000 00000000 		.dword	__gxx_personality_v0
 2656      00000000 
 2657              		.ident	"GCC: (Ubuntu 9.4.0-1ubuntu1~20.04) 9.4.0"
 2658              		.section	.note.GNU-stack,"",@progbits
GAS LISTING /tmp/ccAwjkbU.s 			page 9


DEFINED SYMBOLS
                            *ABS*:0000000000000000 syscall_cpp.cpp
     /tmp/ccAwjkbU.s:10     .text._ZN6Thread3runEv:0000000000000000 _ZN6Thread3runEv
     /tmp/ccAwjkbU.s:14     .text._ZN6Thread3runEv:0000000000000000 .L0 
     /tmp/ccAwjkbU.s:16     .text._ZN6Thread3runEv:0000000000000000 .L0 
     /tmp/ccAwjkbU.s:17     .text._ZN6Thread3runEv:0000000000000004 .L0 
     /tmp/ccAwjkbU.s:19     .text._ZN6Thread3runEv:0000000000000008 .L0 
     /tmp/ccAwjkbU.s:21     .text._ZN6Thread3runEv:000000000000000c .L0 
     /tmp/ccAwjkbU.s:23     .text._ZN6Thread3runEv:000000000000000c .L0 
     /tmp/ccAwjkbU.s:24     .text._ZN6Thread3runEv:0000000000000010 .L0 
     /tmp/ccAwjkbU.s:25     .text._ZN6Thread3runEv:0000000000000010 .L0 
     /tmp/ccAwjkbU.s:27     .text._ZN6Thread3runEv:0000000000000014 .L0 
     /tmp/ccAwjkbU.s:29     .text._ZN6Thread3runEv:0000000000000018 .L0 
     /tmp/ccAwjkbU.s:36     .text:0000000000000000 _ZN6Thread13threadWrapperEPv
     /tmp/ccAwjkbU.s:40     .text:0000000000000000 .L0 
     /tmp/ccAwjkbU.s:42     .text:0000000000000000 .L0 
     /tmp/ccAwjkbU.s:43     .text:0000000000000004 .L0 
     /tmp/ccAwjkbU.s:46     .text:000000000000000c .L0 
     /tmp/ccAwjkbU.s:47     .text:000000000000000c .L0 
     /tmp/ccAwjkbU.s:49     .text:0000000000000010 .L0 
     /tmp/ccAwjkbU.s:51     .text:0000000000000010 .L0 
     /tmp/ccAwjkbU.s:52     .text:0000000000000010 .L0 
     /tmp/ccAwjkbU.s:55     .text:0000000000000018 .L0 
     /tmp/ccAwjkbU.s:58     .text:000000000000001c .L0 
     /tmp/ccAwjkbU.s:59     .text:0000000000000020 .L0 
     /tmp/ccAwjkbU.s:61     .text:0000000000000024 .L0 
     /tmp/ccAwjkbU.s:62     .text:0000000000000024 .L0 
     /tmp/ccAwjkbU.s:64     .text:0000000000000028 .L0 
     /tmp/ccAwjkbU.s:66     .text:000000000000002c .L0 
     /tmp/ccAwjkbU.s:72     .text:000000000000002c _ZN6ThreadD2Ev
     /tmp/ccAwjkbU.s:75     .text:000000000000002c .L0 
     /tmp/ccAwjkbU.s:2655   .data.rel.local.DW.ref.__gxx_personality_v0:0000000000000000 DW.ref.__gxx_personality_v0
     /tmp/ccAwjkbU.s:79     .text:000000000000002c .L0 
     /tmp/ccAwjkbU.s:80     .text:0000000000000030 .L0 
     /tmp/ccAwjkbU.s:83     .text:0000000000000038 .L0 
     /tmp/ccAwjkbU.s:84     .text:0000000000000038 .L0 
     /tmp/ccAwjkbU.s:86     .text:000000000000003c .L0 
     /tmp/ccAwjkbU.s:298    .data.rel.ro.local._ZTV6Thread:0000000000000000 _ZTV6Thread
     /tmp/ccAwjkbU.s:89     .text:000000000000003c .L0 
     /tmp/ccAwjkbU.s:92     .text:0000000000000048 .L0 
     /tmp/ccAwjkbU.s:93     .text:0000000000000048 .L0 
     /tmp/ccAwjkbU.s:99     .text:0000000000000054 .L0 
     /tmp/ccAwjkbU.s:100    .text:0000000000000058 .L0 
     /tmp/ccAwjkbU.s:102    .text:000000000000005c .L0 
     /tmp/ccAwjkbU.s:103    .text:000000000000005c .L0 
     /tmp/ccAwjkbU.s:105    .text:0000000000000060 .L0 
     /tmp/ccAwjkbU.s:107    .text:0000000000000064 .L0 
     /tmp/ccAwjkbU.s:72     .text:000000000000002c _ZN6ThreadD1Ev
     /tmp/ccAwjkbU.s:123    .text:0000000000000064 _ZN6ThreadD0Ev
     /tmp/ccAwjkbU.s:126    .text:0000000000000064 .L0 
     /tmp/ccAwjkbU.s:128    .text:0000000000000064 .L0 
     /tmp/ccAwjkbU.s:129    .text:0000000000000068 .L0 
     /tmp/ccAwjkbU.s:133    .text:0000000000000074 .L0 
     /tmp/ccAwjkbU.s:134    .text:0000000000000074 .L0 
     /tmp/ccAwjkbU.s:135    .text:0000000000000074 .L0 
     /tmp/ccAwjkbU.s:137    .text:0000000000000078 .L0 
     /tmp/ccAwjkbU.s:140    .text:000000000000007c .L0 
GAS LISTING /tmp/ccAwjkbU.s 			page 10


     /tmp/ccAwjkbU.s:146    .text:0000000000000094 .L0 
     /tmp/ccAwjkbU.s:148    .text:0000000000000098 .L0 
     /tmp/ccAwjkbU.s:149    .text:0000000000000098 .L0 
     /tmp/ccAwjkbU.s:151    .text:000000000000009c .L0 
     /tmp/ccAwjkbU.s:154    .text:00000000000000a0 .L0 
     /tmp/ccAwjkbU.s:156    .text:00000000000000a4 .L0 
     /tmp/ccAwjkbU.s:162    .text:00000000000000a4 _ZN6ThreadC2EPFvPvES0_
     /tmp/ccAwjkbU.s:165    .text:00000000000000a4 .L0 
     /tmp/ccAwjkbU.s:167    .text:00000000000000a4 .L0 
     /tmp/ccAwjkbU.s:168    .text:00000000000000a8 .L0 
     /tmp/ccAwjkbU.s:171    .text:00000000000000b0 .L0 
     /tmp/ccAwjkbU.s:172    .text:00000000000000b0 .L0 
     /tmp/ccAwjkbU.s:174    .text:00000000000000b4 .L0 
     /tmp/ccAwjkbU.s:177    .text:00000000000000b4 .L0 
     /tmp/ccAwjkbU.s:181    .text:00000000000000c4 .L0 
     /tmp/ccAwjkbU.s:182    .text:00000000000000c4 .L0 
     /tmp/ccAwjkbU.s:188    .text:00000000000000d0 .L0 
     /tmp/ccAwjkbU.s:189    .text:00000000000000d4 .L0 
     /tmp/ccAwjkbU.s:191    .text:00000000000000d8 .L0 
     /tmp/ccAwjkbU.s:192    .text:00000000000000d8 .L0 
     /tmp/ccAwjkbU.s:194    .text:00000000000000dc .L0 
     /tmp/ccAwjkbU.s:196    .text:00000000000000e0 .L0 
     /tmp/ccAwjkbU.s:162    .text:00000000000000a4 _ZN6ThreadC1EPFvPvES0_
     /tmp/ccAwjkbU.s:204    .text:00000000000000e0 _ZN6Thread8dispatchEv
     /tmp/ccAwjkbU.s:207    .text:00000000000000e0 .L0 
     /tmp/ccAwjkbU.s:208    .text:00000000000000e0 .L0 
     /tmp/ccAwjkbU.s:209    .text:00000000000000e4 .L0 
     /tmp/ccAwjkbU.s:212    .text:00000000000000ec .L0 
     /tmp/ccAwjkbU.s:213    .text:00000000000000ec .L0 
     /tmp/ccAwjkbU.s:215    .text:00000000000000f0 .L0 
     /tmp/ccAwjkbU.s:217    .text:00000000000000f0 .L0 
     /tmp/ccAwjkbU.s:218    .text:00000000000000f0 .L0 
     /tmp/ccAwjkbU.s:221    .text:00000000000000f8 .L0 
     /tmp/ccAwjkbU.s:222    .text:00000000000000fc .L0 
     /tmp/ccAwjkbU.s:224    .text:0000000000000100 .L0 
     /tmp/ccAwjkbU.s:225    .text:0000000000000100 .L0 
     /tmp/ccAwjkbU.s:227    .text:0000000000000104 .L0 
     /tmp/ccAwjkbU.s:229    .text:0000000000000108 .L0 
     /tmp/ccAwjkbU.s:243    .text:0000000000000108 _ZN6Thread5startEv
     /tmp/ccAwjkbU.s:246    .text:0000000000000108 .L0 
     /tmp/ccAwjkbU.s:248    .text:0000000000000108 .L0 
     /tmp/ccAwjkbU.s:249    .text:000000000000010c .L0 
     /tmp/ccAwjkbU.s:253    .text:0000000000000118 .L0 
     /tmp/ccAwjkbU.s:254    .text:0000000000000118 .L0 
     /tmp/ccAwjkbU.s:255    .text:0000000000000118 .L0 
     /tmp/ccAwjkbU.s:257    .text:000000000000011c .L0 
     /tmp/ccAwjkbU.s:260    .text:0000000000000120 .L0 
     /tmp/ccAwjkbU.s:261    .text:0000000000000120 .L0 
     /tmp/ccAwjkbU.s:266    .text:0000000000000130 .L0 
     /tmp/ccAwjkbU.s:267    .text:0000000000000130 .L0 
     /tmp/ccAwjkbU.s:272    .text:0000000000000144 .L0 
     /tmp/ccAwjkbU.s:273    .text:0000000000000144 .L0 
     /tmp/ccAwjkbU.s:277    .text:0000000000000154 .L0 
     /tmp/ccAwjkbU.s:278    .text:0000000000000154 .L0 
     /tmp/ccAwjkbU.s:280    .text:000000000000015c .L0 
     /tmp/ccAwjkbU.s:282    .text:0000000000000160 .L0 
     /tmp/ccAwjkbU.s:283    .text:0000000000000160 .L0 
GAS LISTING /tmp/ccAwjkbU.s 			page 11


     /tmp/ccAwjkbU.s:285    .text:0000000000000164 .L0 
     /tmp/ccAwjkbU.s:288    .text:0000000000000168 .L0 
     /tmp/ccAwjkbU.s:290    .text:000000000000016c .L0 
     /tmp/ccAwjkbU.s:32     .text._ZN6Thread3runEv:0000000000000018 .L0 
     /tmp/ccAwjkbU.s:311    .text:000000000000016c .L0 
     /tmp/ccAwjkbU.s:89     .text:000000000000003c .L0 
     /tmp/ccAwjkbU.s:177    .text:00000000000000b4 .L0 
     /tmp/ccAwjkbU.s:234    .rodata.str1.8:0000000000000000 .LC0
     /tmp/ccAwjkbU.s:261    .text:0000000000000120 .L0 
     /tmp/ccAwjkbU.s:267    .text:0000000000000130 .L0 
     /tmp/ccAwjkbU.s:237    .rodata.str1.8:0000000000000010 .LC1
     /tmp/ccAwjkbU.s:273    .text:0000000000000144 .L0 
     /tmp/ccAwjkbU.s:1339   .debug_abbrev:0000000000000000 .Ldebug_abbrev0
     /tmp/ccAwjkbU.s:2619   .debug_str:0000000000000626 .LASF99
     /tmp/ccAwjkbU.s:2599   .debug_str:000000000000058a .LASF100
     /tmp/ccAwjkbU.s:2491   .debug_str:000000000000024d .LASF101
     /tmp/ccAwjkbU.s:2403   .debug_ranges:0000000000000000 .Ldebug_ranges0
     /tmp/ccAwjkbU.s:2411   .debug_line:0000000000000000 .Ldebug_line0
     /tmp/ccAwjkbU.s:2557   .debug_str:000000000000047e .LASF0
     /tmp/ccAwjkbU.s:2567   .debug_str:00000000000004aa .LASF1
     /tmp/ccAwjkbU.s:2541   .debug_str:000000000000040f .LASF2
     /tmp/ccAwjkbU.s:2519   .debug_str:000000000000037d .LASF4
     /tmp/ccAwjkbU.s:2605   .debug_str:00000000000005ba .LASF3
     /tmp/ccAwjkbU.s:2439   .debug_str:00000000000000cb .LASF5
     /tmp/ccAwjkbU.s:2571   .debug_str:00000000000004d6 .LASF6
     /tmp/ccAwjkbU.s:2555   .debug_str:000000000000046b .LASF7
     /tmp/ccAwjkbU.s:2629   .debug_str:000000000000072c .LASF8
     /tmp/ccAwjkbU.s:2503   .debug_str:00000000000002d0 .LASF9
     /tmp/ccAwjkbU.s:2583   .debug_str:0000000000000529 .LASF10
     /tmp/ccAwjkbU.s:2621   .debug_str:00000000000006ea .LASF11
     /tmp/ccAwjkbU.s:2443   .debug_str:00000000000000da .LASF12
     /tmp/ccAwjkbU.s:2421   .debug_str:0000000000000041 .LASF13
     /tmp/ccAwjkbU.s:2457   .debug_str:0000000000000139 .LASF14
     /tmp/ccAwjkbU.s:2603   .debug_str:00000000000005a4 .LASF15
     /tmp/ccAwjkbU.s:2467   .debug_str:000000000000017c .LASF16
     /tmp/ccAwjkbU.s:2607   .debug_str:00000000000005cc .LASF102
     /tmp/ccAwjkbU.s:2427   .debug_str:000000000000007a .LASF103
     /tmp/ccAwjkbU.s:2635   .debug_str:0000000000000761 .LASF17
     /tmp/ccAwjkbU.s:2615   .debug_str:000000000000060b .LASF19
     /tmp/ccAwjkbU.s:2497   .debug_str:0000000000000296 .LASF18
     /tmp/ccAwjkbU.s:2505   .debug_str:00000000000002de .LASF20
     /tmp/ccAwjkbU.s:2611   .debug_str:00000000000005e8 .LASF21
     /tmp/ccAwjkbU.s:2597   .debug_str:000000000000057d .LASF23
     /tmp/ccAwjkbU.s:2613   .debug_str:00000000000005f8 .LASF22
     /tmp/ccAwjkbU.s:2453   .debug_str:0000000000000122 .LASF24
     /tmp/ccAwjkbU.s:2477   .debug_str:00000000000001e6 .LASF25
     /tmp/ccAwjkbU.s:2593   .debug_str:000000000000056c .LASF26
     /tmp/ccAwjkbU.s:2527   .debug_str:000000000000039a .LASF27
     /tmp/ccAwjkbU.s:2643   .debug_str:00000000000007a3 .LASF28
     /tmp/ccAwjkbU.s:2595   .debug_str:0000000000000578 .LASF104
     /tmp/ccAwjkbU.s:2459   .debug_str:0000000000000145 .LASF39
     /tmp/ccAwjkbU.s:2537   .debug_str:00000000000003e7 .LASF41
     /tmp/ccAwjkbU.s:2431   .debug_str:0000000000000087 .LASF105
     /tmp/ccAwjkbU.s:2463   .debug_str:0000000000000160 .LASF106
     /tmp/ccAwjkbU.s:2461   .debug_str:0000000000000155 .LASF29
     /tmp/ccAwjkbU.s:2569   .debug_str:00000000000004bd .LASF30
     /tmp/ccAwjkbU.s:2455   .debug_str:000000000000012f .LASF33
GAS LISTING /tmp/ccAwjkbU.s 			page 12


     /tmp/ccAwjkbU.s:2535   .debug_str:00000000000003d3 .LASF35
     /tmp/ccAwjkbU.s:2609   .debug_str:00000000000005dc .LASF31
     /tmp/ccAwjkbU.s:2419   .debug_str:0000000000000021 .LASF32
     /tmp/ccAwjkbU.s:2573   .debug_str:00000000000004e9 .LASF34
     /tmp/ccAwjkbU.s:2501   .debug_str:00000000000002b9 .LASF36
     /tmp/ccAwjkbU.s:2543   .debug_str:000000000000041d .LASF37
     /tmp/ccAwjkbU.s:2515   .debug_str:000000000000033e .LASF38
     /tmp/ccAwjkbU.s:2601   .debug_str:000000000000059e .LASF40
     /tmp/ccAwjkbU.s:2547   .debug_str:0000000000000432 .LASF42
     /tmp/ccAwjkbU.s:2533   .debug_str:00000000000003c6 .LASF43
     /tmp/ccAwjkbU.s:2581   .debug_str:0000000000000511 .LASF44
     /tmp/ccAwjkbU.s:2481   .debug_str:00000000000001f1 .LASF107
     /tmp/ccAwjkbU.s:2523   .debug_str:000000000000038d .LASF45
     /tmp/ccAwjkbU.s:2561   .debug_str:0000000000000494 .LASF46
     /tmp/ccAwjkbU.s:2525   .debug_str:0000000000000392 .LASF47
     /tmp/ccAwjkbU.s:2521   .debug_str:0000000000000384 .LASF48
     /tmp/ccAwjkbU.s:2641   .debug_str:0000000000000799 .LASF49
     /tmp/ccAwjkbU.s:2451   .debug_str:0000000000000117 .LASF50
     /tmp/ccAwjkbU.s:2563   .debug_str:000000000000049a .LASF51
     /tmp/ccAwjkbU.s:2489   .debug_str:000000000000023f .LASF52
     /tmp/ccAwjkbU.s:2529   .debug_str:00000000000003a7 .LASF53
     /tmp/ccAwjkbU.s:2509   .debug_str:00000000000002f1 .LASF55
     /tmp/ccAwjkbU.s:2633   .debug_str:0000000000000753 .LASF76
     /tmp/ccAwjkbU.s:2517   .debug_str:0000000000000355 .LASF108
     /tmp/ccAwjkbU.s:2559   .debug_str:000000000000048b .LASF54
     /tmp/ccAwjkbU.s:2487   .debug_str:000000000000022c .LASF56
     /tmp/ccAwjkbU.s:2449   .debug_str:0000000000000106 .LASF109
     /tmp/ccAwjkbU.s:2513   .debug_str:0000000000000333 .LASF110
     /tmp/ccAwjkbU.s:2429   .debug_str:0000000000000082 .LASF57
     /tmp/ccAwjkbU.s:2591   .debug_str:0000000000000562 .LASF58
     /tmp/ccAwjkbU.s:2469   .debug_str:0000000000000192 .LASF59
     /tmp/ccAwjkbU.s:2631   .debug_str:000000000000073c .LASF60
     /tmp/ccAwjkbU.s:2625   .debug_str:0000000000000715 .LASF61
     /tmp/ccAwjkbU.s:2471   .debug_str:0000000000000198 .LASF62
     /tmp/ccAwjkbU.s:2545   .debug_str:0000000000000429 .LASF63
     /tmp/ccAwjkbU.s:2473   .debug_str:00000000000001b4 .LASF64
     /tmp/ccAwjkbU.s:2551   .debug_str:0000000000000454 .LASF65
     /tmp/ccAwjkbU.s:2435   .debug_str:000000000000009b .LASF66
     /tmp/ccAwjkbU.s:2575   .debug_str:00000000000004f4 .LASF67
     /tmp/ccAwjkbU.s:2623   .debug_str:00000000000006f9 .LASF68
     /tmp/ccAwjkbU.s:2479   .debug_str:00000000000001eb .LASF69
     /tmp/ccAwjkbU.s:2485   .debug_str:0000000000000216 .LASF70
     /tmp/ccAwjkbU.s:2441   .debug_str:00000000000000d2 .LASF71
     /tmp/ccAwjkbU.s:2637   .debug_str:000000000000076e .LASF72
     /tmp/ccAwjkbU.s:2415   .debug_str:0000000000000009 .LASF73
     /tmp/ccAwjkbU.s:2413   .debug_str:0000000000000000 .LASF74
     /tmp/ccAwjkbU.s:2577   .debug_str:00000000000004fe .LASF75
     /tmp/ccAwjkbU.s:2507   .debug_str:00000000000002ea .LASF77
     /tmp/ccAwjkbU.s:2549   .debug_str:0000000000000442 .LASF111
     /tmp/ccAwjkbU.s:2539   .debug_str:0000000000000402 .LASF112
     /tmp/ccAwjkbU.s:2587   .debug_str:0000000000000542 .LASF78
     /tmp/ccAwjkbU.s:2433   .debug_str:0000000000000093 .LASF113
     /tmp/ccAwjkbU.s:2447   .debug_str:00000000000000f7 .LASF114
     /tmp/ccAwjkbU.s:2565   .debug_str:00000000000004a4 .LASF79
     /tmp/ccAwjkbU.s:2499   .debug_str:00000000000002a6 .LASF80
     /tmp/ccAwjkbU.s:2495   .debug_str:0000000000000280 .LASF81
     /tmp/ccAwjkbU.s:2483   .debug_str:00000000000001f9 .LASF82
GAS LISTING /tmp/ccAwjkbU.s 			page 13


     /tmp/ccAwjkbU.s:2627   .debug_str:000000000000071d .LASF83
     /tmp/ccAwjkbU.s:2531   .debug_str:00000000000003b5 .LASF115
     /tmp/ccAwjkbU.s:2645   .debug_str:00000000000007c8 .LASF84
     /tmp/ccAwjkbU.s:2417   .debug_str:0000000000000011 .LASF116
     /tmp/ccAwjkbU.s:37     .text:0000000000000000 .LFB45
     /tmp/ccAwjkbU.s:67     .text:000000000000002c .LFE45
     /tmp/ccAwjkbU.s:2276   .debug_loc:0000000000000000 .LLST0
     /tmp/ccAwjkbU.s:56     .text:000000000000001c .LVL2
     /tmp/ccAwjkbU.s:244    .text:0000000000000108 .LFB44
     /tmp/ccAwjkbU.s:291    .text:000000000000016c .LFE44
     /tmp/ccAwjkbU.s:2465   .debug_str:0000000000000177 .LASF85
     /tmp/ccAwjkbU.s:2290   .debug_loc:0000000000000039 .LLST6
     /tmp/ccAwjkbU.s:264    .text:0000000000000130 .LVL16
     /tmp/ccAwjkbU.s:270    .text:0000000000000144 .LVL17
     /tmp/ccAwjkbU.s:275    .text:0000000000000154 .LVL18
     /tmp/ccAwjkbU.s:2585   .debug_str:0000000000000538 .LASF86
     /tmp/ccAwjkbU.s:2553   .debug_str:000000000000045c .LASF87
     /tmp/ccAwjkbU.s:124    .text:0000000000000064 .LFB43
     /tmp/ccAwjkbU.s:157    .text:00000000000000a4 .LFE43
     /tmp/ccAwjkbU.s:2308   .debug_loc:0000000000000085 .LLST2
     /tmp/ccAwjkbU.s:141    .text:0000000000000084 .LVL7
     /tmp/ccAwjkbU.s:144    .text:0000000000000090 .LVL8
     /tmp/ccAwjkbU.s:2617   .debug_str:0000000000000617 .LASF88
     /tmp/ccAwjkbU.s:73     .text:000000000000002c .LFB41
     /tmp/ccAwjkbU.s:108    .text:0000000000000064 .LFE41
     /tmp/ccAwjkbU.s:2326   .debug_loc:00000000000000d1 .LLST1
     /tmp/ccAwjkbU.s:96     .text:0000000000000054 .LVL5
     /tmp/ccAwjkbU.s:205    .text:00000000000000e0 .LFB39
     /tmp/ccAwjkbU.s:230    .text:0000000000000108 .LFE39
     /tmp/ccAwjkbU.s:219    .text:00000000000000f8 .LVL13
     /tmp/ccAwjkbU.s:2475   .debug_str:00000000000001cf .LASF89
     /tmp/ccAwjkbU.s:163    .text:00000000000000a4 .LFB37
     /tmp/ccAwjkbU.s:197    .text:00000000000000e0 .LFE37
     /tmp/ccAwjkbU.s:2340   .debug_loc:000000000000010a .LLST3
     /tmp/ccAwjkbU.s:2360   .debug_loc:0000000000000158 .LLST4
     /tmp/ccAwjkbU.s:2374   .debug_loc:0000000000000191 .LLST5
     /tmp/ccAwjkbU.s:185    .text:00000000000000d0 .LVL12
     /tmp/ccAwjkbU.s:11     .text._ZN6Thread3runEv:0000000000000000 .LFB35
     /tmp/ccAwjkbU.s:30     .text._ZN6Thread3runEv:0000000000000018 .LFE35
     /tmp/ccAwjkbU.s:2639   .debug_str:0000000000000786 .LASF90
     /tmp/ccAwjkbU.s:2425   .debug_str:000000000000006e .LASF92
     /tmp/ccAwjkbU.s:2423   .debug_str:0000000000000051 .LASF91
     /tmp/ccAwjkbU.s:2445   .debug_str:00000000000000ea .LASF93
     /tmp/ccAwjkbU.s:2647   .debug_str:00000000000007d1 .LASF117
     /tmp/ccAwjkbU.s:2579   .debug_str:0000000000000503 .LASF94
     /tmp/ccAwjkbU.s:2589   .debug_str:0000000000000559 .LASF95
     /tmp/ccAwjkbU.s:2493   .debug_str:000000000000026b .LASF96
     /tmp/ccAwjkbU.s:2511   .debug_str:000000000000030a .LASF97
     /tmp/ccAwjkbU.s:2437   .debug_str:00000000000000b5 .LASF98
     /tmp/ccAwjkbU.s:41     .text:0000000000000000 .LVL1
     /tmp/ccAwjkbU.s:247    .text:0000000000000108 .LVL14
     /tmp/ccAwjkbU.s:262    .text:0000000000000128 .LVL15
     /tmp/ccAwjkbU.s:286    .text:0000000000000164 .LVL19
     /tmp/ccAwjkbU.s:127    .text:0000000000000064 .LVL6
     /tmp/ccAwjkbU.s:152    .text:000000000000009c .LVL9
     /tmp/ccAwjkbU.s:78     .text:000000000000002c .LVL3
     /tmp/ccAwjkbU.s:94     .text:000000000000004c .LVL4
GAS LISTING /tmp/ccAwjkbU.s 			page 14


     /tmp/ccAwjkbU.s:166    .text:00000000000000a4 .LVL10
     /tmp/ccAwjkbU.s:183    .text:00000000000000c8 .LVL11
     /tmp/ccAwjkbU.s:312    .debug_info:0000000000000000 .Ldebug_info0
     /tmp/ccAwjkbU.s:5      .text:0000000000000000 .Ltext0
     /tmp/ccAwjkbU.s:305    .text:000000000000016c .Letext0
     /tmp/ccAwjkbU.s:111    .gcc_except_table:0000000000000000 .LLSDA41

UNDEFINED SYMBOLS
_Z8mem_freePv
__gxx_personality_v0
_ZdlPv
_Z21thread_create_cpp_apiPP3TCBPFvPvES2_
_Z15thread_dispatchv
_Z11printStringPKc
_Z12thread_startPP3TCBPFvPvE
