GAS LISTING /tmp/ccnffsWl.s 			page 1


   1              		.file	"syscall_c.cpp"
   2              		.option pic
   3              		.option norelax
   4              		.text
   5              	.Ltext0:
   6              		.align	2
   7              		.globl	_Z9mem_allocm
   9              	_Z9mem_allocm:
  10              	.LFB46:
  11              		.file 1 "src/syscall_c.cpp"
   1:src/syscall_c.cpp **** //
   2:src/syscall_c.cpp **** // Created by os on 8/18/22.
   3:src/syscall_c.cpp **** //
   4:src/syscall_c.cpp **** 
   5:src/syscall_c.cpp **** #include "../h/syscall_c.hpp"
   6:src/syscall_c.cpp **** #include "../h/RiscV.hpp"
   7:src/syscall_c.cpp **** #include "../lib/console.h"
   8:src/syscall_c.cpp **** //#include "../h/MemoryAllocation.hpp"
   9:src/syscall_c.cpp **** 
  10:src/syscall_c.cpp **** 
  11:src/syscall_c.cpp **** 
  12:src/syscall_c.cpp **** void *mem_alloc(size_t  size) {
  12              		.loc 1 12 31
  13              		.cfi_startproc
  14              	.LVL0:
  15 0000 130101FF 		addi	sp,sp,-16
  16              		.cfi_def_cfa_offset 16
  17 0004 23348100 		sd	s0,8(sp)
  18              		.cfi_offset 8, -8
  19 0008 13040101 		addi	s0,sp,16
  20              		.cfi_def_cfa 8, 0
  13:src/syscall_c.cpp ****     void* pointer = nullptr;
  21              		.loc 1 13 5
  22              	.LVL1:
  14:src/syscall_c.cpp ****     uint64 sysCallNr=0x01UL;
  23              		.loc 1 14 5
  15:src/syscall_c.cpp ****     //size=MemoryAllocation::bytesToBlocks(size);
  16:src/syscall_c.cpp ****     //mozda ovde mozes da koristis privremeni registar "scratch", da bi koristio sd
  17:src/syscall_c.cpp ****     __asm__ volatile("mv a1, %0" : : [size] "r" (size)); //izgleda da ipak mora sd, jer ne prepozna
  24              		.loc 1 17 5
  25              		.loc 1 17 56 is_stmt 0
  26              	#APP
  27              	# 17 "src/syscall_c.cpp" 1
  18              	    __asm__ volatile("mv a0, %0" : : [sysCallNr] "r" (sysCallNr));
  28              		mv a1, a0
  29              	# 0 "" 2
  30              		.loc 1 18 5 is_stmt 1
  31              		.loc 1 18 66 is_stmt 0
  32              	#NO_APP
  33 0010 93071000 		li	a5,1
  34              	#APP
  35              	# 18 "src/syscall_c.cpp" 1
  19              	     //ovo bi trebalo u mainu, ali kom mainu, gde ja uopste smem da deklarisem trap??????? izgleda 
  20:src/syscall_c.cpp ****     __asm__ volatile("ecall");
  36              		mv a0, a5
  37              	# 0 "" 2
  38              		.loc 1 20 5 is_stmt 1
GAS LISTING /tmp/ccnffsWl.s 			page 2


  39              		.loc 1 20 30 is_stmt 0
  40              	# 20 "src/syscall_c.cpp" 1
  21              	    __asm__ volatile("mv %[pointer], a1" : [pointer] "=r"(pointer));
  41              		ecall
  42              	# 0 "" 2
  43              		.loc 1 21 5 is_stmt 1
  44              		.loc 1 21 68 is_stmt 0
  45              	# 21 "src/syscall_c.cpp" 1
  22              	    return pointer;
  46              		mv a0, a1
  47              	# 0 "" 2
  48              	.LVL2:
  49              		.loc 1 22 5 is_stmt 1
  23:src/syscall_c.cpp **** }
  50              		.loc 1 23 1 is_stmt 0
  51              	#NO_APP
  52 0020 03348100 		ld	s0,8(sp)
  53              		.cfi_restore 8
  54              		.cfi_def_cfa 2, 16
  55 0024 13010101 		addi	sp,sp,16
  56              		.cfi_def_cfa_offset 0
  57 0028 67800000 		jr	ra
  58              		.cfi_endproc
  59              	.LFE46:
  61              		.align	2
  62              		.globl	_Z8mem_freePv
  64              	_Z8mem_freePv:
  65              	.LFB47:
  24:src/syscall_c.cpp **** 
  25:src/syscall_c.cpp **** int mem_free(void * ptr) {
  66              		.loc 1 25 26 is_stmt 1
  67              		.cfi_startproc
  68              	.LVL3:
  69 002c 130101FF 		addi	sp,sp,-16
  70              		.cfi_def_cfa_offset 16
  71 0030 23348100 		sd	s0,8(sp)
  72              		.cfi_offset 8, -8
  73 0034 13040101 		addi	s0,sp,16
  74              		.cfi_def_cfa 8, 0
  26:src/syscall_c.cpp ****     int ret=0;
  75              		.loc 1 26 5
  76              	.LVL4:
  27:src/syscall_c.cpp ****     uint64 sysCallNr=0x02UL;
  77              		.loc 1 27 5
  28:src/syscall_c.cpp ****     __asm__ volatile("mv a1, %0" : : [ptr] "r" (ptr));
  78              		.loc 1 28 5
  79              		.loc 1 28 54 is_stmt 0
  80              	#APP
  81              	# 28 "src/syscall_c.cpp" 1
  29              	    __asm__ volatile("mv a0, %0" : : [sysCallNr] "r" (sysCallNr));
  82              		mv a1, a0
  83              	# 0 "" 2
  84              		.loc 1 29 5 is_stmt 1
  85              		.loc 1 29 66 is_stmt 0
  86              	#NO_APP
  87 003c 93072000 		li	a5,2
  88              	#APP
GAS LISTING /tmp/ccnffsWl.s 			page 3


  89              	# 29 "src/syscall_c.cpp" 1
  30              	    //RiscV::w_stvec((uint64) &Trap());
  31:src/syscall_c.cpp ****     __asm__ volatile("ecall");
  90              		mv a0, a5
  91              	# 0 "" 2
  92              		.loc 1 31 5 is_stmt 1
  93              		.loc 1 31 30 is_stmt 0
  94              	# 31 "src/syscall_c.cpp" 1
  32              	    __asm__ volatile("mv %[ret], a1" : [ret] "=r"(ret)); //kaze undefined reference
  95              		ecall
  96              	# 0 "" 2
  97              		.loc 1 32 5 is_stmt 1
  98              		.loc 1 32 56 is_stmt 0
  99              	# 32 "src/syscall_c.cpp" 1
  33              	    return ret;
 100              		mv a0, a1
 101              	# 0 "" 2
 102              	.LVL5:
 103              		.loc 1 33 5 is_stmt 1
  34:src/syscall_c.cpp **** }
 104              		.loc 1 34 1 is_stmt 0
 105              	#NO_APP
 106 004c 1B050500 		sext.w	a0,a0
 107 0050 03348100 		ld	s0,8(sp)
 108              		.cfi_restore 8
 109              		.cfi_def_cfa 2, 16
 110 0054 13010101 		addi	sp,sp,16
 111              		.cfi_def_cfa_offset 0
 112 0058 67800000 		jr	ra
 113              		.cfi_endproc
 114              	.LFE47:
 116              		.align	2
 117              		.globl	_Z13thread_createPP3TCBPFvPvES2_
 119              	_Z13thread_createPP3TCBPFvPvES2_:
 120              	.LFB48:
  35:src/syscall_c.cpp **** 
  36:src/syscall_c.cpp **** int thread_create (
  37:src/syscall_c.cpp ****         thread_t* handle,
  38:src/syscall_c.cpp ****         void(*start_routine)(void*),
  39:src/syscall_c.cpp ****         void* arg
  40:src/syscall_c.cpp **** ){
 121              		.loc 1 40 2 is_stmt 1
 122              		.cfi_startproc
 123              	.LVL6:
 124 005c 130101FF 		addi	sp,sp,-16
 125              		.cfi_def_cfa_offset 16
 126 0060 23348100 		sd	s0,8(sp)
 127              		.cfi_offset 8, -8
 128 0064 13040101 		addi	s0,sp,16
 129              		.cfi_def_cfa 8, 0
  41:src/syscall_c.cpp ****     TCB* ret_value_thread;
 130              		.loc 1 41 5
  42:src/syscall_c.cpp ****     uint64 sysCallNr=0x11UL;
 131              		.loc 1 42 5
 132              	.LVL7:
  43:src/syscall_c.cpp ****     //neki stack_space alokacija se pominje????
  44:src/syscall_c.cpp ****     __asm__ volatile("mv a3, %0" : : [arg] "r" (arg));
GAS LISTING /tmp/ccnffsWl.s 			page 4


 133              		.loc 1 44 5
 134              		.loc 1 44 54 is_stmt 0
 135              	#APP
 136              	# 44 "src/syscall_c.cpp" 1
  45              	    __asm__ volatile("mv a2, %0" : : [start_routine] "r" (start_routine));
 137              		mv a3, a2
 138              	# 0 "" 2
 139              		.loc 1 45 5 is_stmt 1
 140              		.loc 1 45 74 is_stmt 0
 141              	# 45 "src/syscall_c.cpp" 1
  46              	    __asm__ volatile("mv a1, %0" : : [handle] "r" (handle));
 142              		mv a2, a1
 143              	# 0 "" 2
 144              		.loc 1 46 5 is_stmt 1
 145              		.loc 1 46 60 is_stmt 0
 146              	# 46 "src/syscall_c.cpp" 1
  47              	    __asm__ volatile("mv a0, %0" : : [sysCallNr] "r" (sysCallNr));
 147              		mv a1, a0
 148              	# 0 "" 2
 149              		.loc 1 47 5 is_stmt 1
 150              		.loc 1 47 66 is_stmt 0
 151              	#NO_APP
 152 0074 93071001 		li	a5,17
 153              	#APP
 154              	# 47 "src/syscall_c.cpp" 1
  48              	    __asm__ volatile("ecall");
 155              		mv a0, a5
 156              	# 0 "" 2
 157              		.loc 1 48 5 is_stmt 1
 158              		.loc 1 48 30 is_stmt 0
 159              	# 48 "src/syscall_c.cpp" 1
  49              	    __asm__ volatile("mv %[ret_value_thread], a1" : [ret_value_thread] "=r"(ret_value_thread)); //k
 160              		ecall
 161              	# 0 "" 2
 162              		.loc 1 49 5 is_stmt 1
 163              		.loc 1 49 95 is_stmt 0
 164              	# 49 "src/syscall_c.cpp" 1
  50              	    return 0;//todo
 165              		mv a5, a1
 166              	# 0 "" 2
 167              	.LVL8:
 168              		.loc 1 50 5 is_stmt 1
  51:src/syscall_c.cpp ****     //moras da vidis sta ovde treba da se vrati
  52:src/syscall_c.cpp **** }
 169              		.loc 1 52 1 is_stmt 0
 170              	#NO_APP
 171 0084 13050000 		li	a0,0
 172              	.LVL9:
 173 0088 03348100 		ld	s0,8(sp)
 174              		.cfi_restore 8
 175              		.cfi_def_cfa 2, 16
 176 008c 13010101 		addi	sp,sp,16
 177              		.cfi_def_cfa_offset 0
 178 0090 67800000 		jr	ra
 179              		.cfi_endproc
 180              	.LFE48:
 182              		.align	2
GAS LISTING /tmp/ccnffsWl.s 			page 5


 183              		.globl	_Z11thread_exitv
 185              	_Z11thread_exitv:
 186              	.LFB49:
  53:src/syscall_c.cpp **** 
  54:src/syscall_c.cpp **** int thread_exit (){
 187              		.loc 1 54 19 is_stmt 1
 188              		.cfi_startproc
 189 0094 130101FF 		addi	sp,sp,-16
 190              		.cfi_def_cfa_offset 16
 191 0098 23348100 		sd	s0,8(sp)
 192              		.cfi_offset 8, -8
 193 009c 13040101 		addi	s0,sp,16
 194              		.cfi_def_cfa 8, 0
  55:src/syscall_c.cpp ****     int ret=0;
 195              		.loc 1 55 5
 196              	.LVL10:
  56:src/syscall_c.cpp ****     uint64 sysCallNr=0x12UL;
 197              		.loc 1 56 5
  57:src/syscall_c.cpp ****     __asm__ volatile("mv a0, %0" : : [sysCallNr] "r" (sysCallNr));
 198              		.loc 1 57 5
 199              		.loc 1 57 66 is_stmt 0
 200 00a0 93072001 		li	a5,18
 201              	#APP
 202              	# 57 "src/syscall_c.cpp" 1
  58              	    __asm__ volatile("ecall");
 203              		mv a0, a5
 204              	# 0 "" 2
 205              		.loc 1 58 5 is_stmt 1
 206              		.loc 1 58 30 is_stmt 0
 207              	# 58 "src/syscall_c.cpp" 1
  59              	    //sta treba ovde da se vrati, verovatno da li je uspelo ili nije uspelo, PREBACI THREAD_EXIT U 
  60:src/syscall_c.cpp ****     __asm__ volatile("mv %[ret], a1" : [ret] "=r"(ret)); //kaze undefined reference
 208              		ecall
 209              	# 0 "" 2
 210              		.loc 1 60 5 is_stmt 1
 211              		.loc 1 60 56 is_stmt 0
 212              	# 60 "src/syscall_c.cpp" 1
  61              	    return ret;
 213              		mv a0, a1
 214              	# 0 "" 2
 215              	.LVL11:
 216              		.loc 1 61 5 is_stmt 1
  62:src/syscall_c.cpp **** }
 217              		.loc 1 62 1 is_stmt 0
 218              	#NO_APP
 219 00b0 1B050500 		sext.w	a0,a0
 220 00b4 03348100 		ld	s0,8(sp)
 221              		.cfi_restore 8
 222              		.cfi_def_cfa 2, 16
 223 00b8 13010101 		addi	sp,sp,16
 224              		.cfi_def_cfa_offset 0
 225 00bc 67800000 		jr	ra
 226              		.cfi_endproc
 227              	.LFE49:
 229              		.align	2
 230              		.globl	_Z15thread_dispatchv
 232              	_Z15thread_dispatchv:
GAS LISTING /tmp/ccnffsWl.s 			page 6


 233              	.LFB50:
  63:src/syscall_c.cpp **** 
  64:src/syscall_c.cpp **** void thread_dispatch (){
 234              		.loc 1 64 24 is_stmt 1
 235              		.cfi_startproc
 236 00c0 130101FF 		addi	sp,sp,-16
 237              		.cfi_def_cfa_offset 16
 238 00c4 23348100 		sd	s0,8(sp)
 239              		.cfi_offset 8, -8
 240 00c8 13040101 		addi	s0,sp,16
 241              		.cfi_def_cfa 8, 0
  65:src/syscall_c.cpp ****     uint64 sysCallNr=0x13UL;
 242              		.loc 1 65 5
 243              	.LVL12:
  66:src/syscall_c.cpp ****     __asm__ volatile("mv a0, %0" : : [sysCallNr] "r" (sysCallNr));
 244              		.loc 1 66 5
 245              		.loc 1 66 66 is_stmt 0
 246 00cc 93073001 		li	a5,19
 247              	#APP
 248              	# 66 "src/syscall_c.cpp" 1
  67              	    __asm__ volatile("ecall");
 249              		mv a0, a5
 250              	# 0 "" 2
 251              		.loc 1 67 5 is_stmt 1
 252              		.loc 1 67 30 is_stmt 0
 253              	# 67 "src/syscall_c.cpp" 1
  68              	}
 254              		ecall
 255              	# 0 "" 2
 256              		.loc 1 68 1
 257              	#NO_APP
 258 00d8 03348100 		ld	s0,8(sp)
 259              		.cfi_restore 8
 260              		.cfi_def_cfa 2, 16
 261 00dc 13010101 		addi	sp,sp,16
 262              		.cfi_def_cfa_offset 0
 263 00e0 67800000 		jr	ra
 264              		.cfi_endproc
 265              	.LFE50:
 267              		.align	2
 268              		.globl	_Z8sem_openPP9semaphorej
 270              	_Z8sem_openPP9semaphorej:
 271              	.LFB51:
  69:src/syscall_c.cpp **** 
  70:src/syscall_c.cpp **** int sem_open (
  71:src/syscall_c.cpp ****         sem_t* handle,
  72:src/syscall_c.cpp ****         unsigned init
  73:src/syscall_c.cpp **** ){
 272              		.loc 1 73 2 is_stmt 1
 273              		.cfi_startproc
 274              	.LVL13:
 275 00e4 130101FF 		addi	sp,sp,-16
 276              		.cfi_def_cfa_offset 16
 277 00e8 23348100 		sd	s0,8(sp)
 278              		.cfi_offset 8, -8
 279 00ec 13040101 		addi	s0,sp,16
 280              		.cfi_def_cfa 8, 0
GAS LISTING /tmp/ccnffsWl.s 			page 7


  74:src/syscall_c.cpp ****     uint64 sysCallNr=0x21UL;
 281              		.loc 1 74 5
 282              	.LVL14:
  75:src/syscall_c.cpp ****     int retval;
 283              		.loc 1 75 5
  76:src/syscall_c.cpp ****     __asm__ volatile("mv a2, %0": : [init] "r" (init));
 284              		.loc 1 76 5
 285              		.loc 1 76 55 is_stmt 0
 286              	#APP
 287              	# 76 "src/syscall_c.cpp" 1
  77              	    __asm__ volatile("mv a1, %0": : [handle] "r" (handle));
 288              		mv a2, a1
 289              	# 0 "" 2
 290              		.loc 1 77 5 is_stmt 1
 291              		.loc 1 77 59 is_stmt 0
 292              	# 77 "src/syscall_c.cpp" 1
  78              	    __asm__ volatile("mv a0, %0" : : [sysCallNr] "r" (sysCallNr));
 293              		mv a1, a0
 294              	# 0 "" 2
 295              		.loc 1 78 5 is_stmt 1
 296              		.loc 1 78 66 is_stmt 0
 297              	#NO_APP
 298 00f8 93071002 		li	a5,33
 299              	#APP
 300              	# 78 "src/syscall_c.cpp" 1
  79              	    __asm__ volatile("ecall");
 301              		mv a0, a5
 302              	# 0 "" 2
 303              		.loc 1 79 5 is_stmt 1
 304              		.loc 1 79 30 is_stmt 0
 305              	# 79 "src/syscall_c.cpp" 1
  80              	    __asm__ volatile("mv %[retval], a1" : [retval] "=r"(retval));
 306              		ecall
 307              	# 0 "" 2
 308              		.loc 1 80 5 is_stmt 1
 309              		.loc 1 80 65 is_stmt 0
 310              	# 80 "src/syscall_c.cpp" 1
  81              	    return retval;
 311              		mv a0, a1
 312              	# 0 "" 2
 313              	.LVL15:
 314              		.loc 1 81 5 is_stmt 1
  82:src/syscall_c.cpp **** }
 315              		.loc 1 82 1 is_stmt 0
 316              	#NO_APP
 317 0108 1B050500 		sext.w	a0,a0
 318 010c 03348100 		ld	s0,8(sp)
 319              		.cfi_restore 8
 320              		.cfi_def_cfa 2, 16
 321 0110 13010101 		addi	sp,sp,16
 322              		.cfi_def_cfa_offset 0
 323 0114 67800000 		jr	ra
 324              		.cfi_endproc
 325              	.LFE51:
 327              		.align	2
 328              		.globl	_Z9sem_closeP9semaphore
 330              	_Z9sem_closeP9semaphore:
GAS LISTING /tmp/ccnffsWl.s 			page 8


 331              	.LFB52:
  83:src/syscall_c.cpp **** 
  84:src/syscall_c.cpp **** int sem_close (sem_t handle){
 332              		.loc 1 84 29 is_stmt 1
 333              		.cfi_startproc
 334              	.LVL16:
 335 0118 130101FF 		addi	sp,sp,-16
 336              		.cfi_def_cfa_offset 16
 337 011c 23348100 		sd	s0,8(sp)
 338              		.cfi_offset 8, -8
 339 0120 13040101 		addi	s0,sp,16
 340              		.cfi_def_cfa 8, 0
  85:src/syscall_c.cpp ****     uint64 sysCallNr=0x22UL;
 341              		.loc 1 85 5
 342              	.LVL17:
  86:src/syscall_c.cpp ****     int retval;
 343              		.loc 1 86 5
  87:src/syscall_c.cpp ****     __asm__ volatile("mv a1, %0": : [handle] "r" (handle));
 344              		.loc 1 87 5
 345              		.loc 1 87 59 is_stmt 0
 346              	#APP
 347              	# 87 "src/syscall_c.cpp" 1
  88              	    __asm__ volatile("mv a0, %0" : : [sysCallNr] "r" (sysCallNr));
 348              		mv a1, a0
 349              	# 0 "" 2
 350              		.loc 1 88 5 is_stmt 1
 351              		.loc 1 88 66 is_stmt 0
 352              	#NO_APP
 353 0128 93072002 		li	a5,34
 354              	#APP
 355              	# 88 "src/syscall_c.cpp" 1
  89              	    __asm__ volatile("ecall");
 356              		mv a0, a5
 357              	# 0 "" 2
 358              		.loc 1 89 5 is_stmt 1
 359              		.loc 1 89 30 is_stmt 0
 360              	# 89 "src/syscall_c.cpp" 1
  90              	    __asm__ volatile("mv %[retval], a1" : [retval] "=r"(retval));
 361              		ecall
 362              	# 0 "" 2
 363              		.loc 1 90 5 is_stmt 1
 364              		.loc 1 90 65 is_stmt 0
 365              	# 90 "src/syscall_c.cpp" 1
  91              	    return retval;
 366              		mv a0, a1
 367              	# 0 "" 2
 368              	.LVL18:
 369              		.loc 1 91 5 is_stmt 1
  92:src/syscall_c.cpp **** }
 370              		.loc 1 92 1 is_stmt 0
 371              	#NO_APP
 372 0138 1B050500 		sext.w	a0,a0
 373 013c 03348100 		ld	s0,8(sp)
 374              		.cfi_restore 8
 375              		.cfi_def_cfa 2, 16
 376 0140 13010101 		addi	sp,sp,16
 377              		.cfi_def_cfa_offset 0
GAS LISTING /tmp/ccnffsWl.s 			page 9


 378 0144 67800000 		jr	ra
 379              		.cfi_endproc
 380              	.LFE52:
 382              		.align	2
 383              		.globl	_Z8sem_waitP9semaphore
 385              	_Z8sem_waitP9semaphore:
 386              	.LFB53:
  93:src/syscall_c.cpp **** 
  94:src/syscall_c.cpp **** int sem_wait (sem_t id){
 387              		.loc 1 94 24 is_stmt 1
 388              		.cfi_startproc
 389              	.LVL19:
 390 0148 130101FF 		addi	sp,sp,-16
 391              		.cfi_def_cfa_offset 16
 392 014c 23348100 		sd	s0,8(sp)
 393              		.cfi_offset 8, -8
 394 0150 13040101 		addi	s0,sp,16
 395              		.cfi_def_cfa 8, 0
  95:src/syscall_c.cpp ****     uint64 sysCallNr=0x23UL;
 396              		.loc 1 95 5
 397              	.LVL20:
  96:src/syscall_c.cpp ****     int retval;
 398              		.loc 1 96 5
  97:src/syscall_c.cpp ****     __asm__ volatile("mv a1, %0": : [id] "r" (id));
 399              		.loc 1 97 5
 400              		.loc 1 97 51 is_stmt 0
 401              	#APP
 402              	# 97 "src/syscall_c.cpp" 1
  98              	    __asm__ volatile("mv a0, %0" : : [sysCallNr] "r" (sysCallNr));
 403              		mv a1, a0
 404              	# 0 "" 2
 405              		.loc 1 98 5 is_stmt 1
 406              		.loc 1 98 66 is_stmt 0
 407              	#NO_APP
 408 0158 93073002 		li	a5,35
 409              	#APP
 410              	# 98 "src/syscall_c.cpp" 1
  99              	    __asm__ volatile("ecall");
 411              		mv a0, a5
 412              	# 0 "" 2
 413              		.loc 1 99 5 is_stmt 1
 414              		.loc 1 99 30 is_stmt 0
 415              	# 99 "src/syscall_c.cpp" 1
 100              	    __asm__ volatile("mv %[retval], a1" : [retval] "=r"(retval));
 416              		ecall
 417              	# 0 "" 2
 418              		.loc 1 100 5 is_stmt 1
 419              		.loc 1 100 65 is_stmt 0
 420              	# 100 "src/syscall_c.cpp" 1
 101              	    return retval;
 421              		mv a0, a1
 422              	# 0 "" 2
 423              	.LVL21:
 424              		.loc 1 101 5 is_stmt 1
 102:src/syscall_c.cpp **** }
 425              		.loc 1 102 1 is_stmt 0
 426              	#NO_APP
GAS LISTING /tmp/ccnffsWl.s 			page 10


 427 0168 1B050500 		sext.w	a0,a0
 428 016c 03348100 		ld	s0,8(sp)
 429              		.cfi_restore 8
 430              		.cfi_def_cfa 2, 16
 431 0170 13010101 		addi	sp,sp,16
 432              		.cfi_def_cfa_offset 0
 433 0174 67800000 		jr	ra
 434              		.cfi_endproc
 435              	.LFE53:
 437              		.align	2
 438              		.globl	_Z10sem_signalP9semaphore
 440              	_Z10sem_signalP9semaphore:
 441              	.LFB54:
 103:src/syscall_c.cpp **** 
 104:src/syscall_c.cpp **** int sem_signal (sem_t id){
 442              		.loc 1 104 26 is_stmt 1
 443              		.cfi_startproc
 444              	.LVL22:
 445 0178 130101FF 		addi	sp,sp,-16
 446              		.cfi_def_cfa_offset 16
 447 017c 23348100 		sd	s0,8(sp)
 448              		.cfi_offset 8, -8
 449 0180 13040101 		addi	s0,sp,16
 450              		.cfi_def_cfa 8, 0
 105:src/syscall_c.cpp ****     uint64 sysCallNr=0x24UL;
 451              		.loc 1 105 5
 452              	.LVL23:
 106:src/syscall_c.cpp ****     int retval;
 453              		.loc 1 106 5
 107:src/syscall_c.cpp ****     __asm__ volatile("mv a1, %0": : [id] "r" (id));
 454              		.loc 1 107 5
 455              		.loc 1 107 51 is_stmt 0
 456              	#APP
 457              	# 107 "src/syscall_c.cpp" 1
 108              	    __asm__ volatile("mv a0, %0" : : [sysCallNr] "r" (sysCallNr));
 458              		mv a1, a0
 459              	# 0 "" 2
 460              		.loc 1 108 5 is_stmt 1
 461              		.loc 1 108 66 is_stmt 0
 462              	#NO_APP
 463 0188 93074002 		li	a5,36
 464              	#APP
 465              	# 108 "src/syscall_c.cpp" 1
 109              	    __asm__ volatile("ecall");
 466              		mv a0, a5
 467              	# 0 "" 2
 468              		.loc 1 109 5 is_stmt 1
 469              		.loc 1 109 30 is_stmt 0
 470              	# 109 "src/syscall_c.cpp" 1
 110              	    __asm__ volatile("mv %[retval], a1" : [retval] "=r"(retval));
 471              		ecall
 472              	# 0 "" 2
 473              		.loc 1 110 5 is_stmt 1
 474              		.loc 1 110 65 is_stmt 0
 475              	# 110 "src/syscall_c.cpp" 1
 111              	    return retval;
 476              		mv a0, a1
GAS LISTING /tmp/ccnffsWl.s 			page 11


 477              	# 0 "" 2
 478              	.LVL24:
 479              		.loc 1 111 5 is_stmt 1
 112:src/syscall_c.cpp **** }
 480              		.loc 1 112 1 is_stmt 0
 481              	#NO_APP
 482 0198 1B050500 		sext.w	a0,a0
 483 019c 03348100 		ld	s0,8(sp)
 484              		.cfi_restore 8
 485              		.cfi_def_cfa 2, 16
 486 01a0 13010101 		addi	sp,sp,16
 487              		.cfi_def_cfa_offset 0
 488 01a4 67800000 		jr	ra
 489              		.cfi_endproc
 490              	.LFE54:
 492              		.align	2
 493              		.globl	_Z4getcv
 495              	_Z4getcv:
 496              	.LFB55:
 113:src/syscall_c.cpp **** 
 114:src/syscall_c.cpp **** char getc (){
 497              		.loc 1 114 13 is_stmt 1
 498              		.cfi_startproc
 499 01a8 130101FF 		addi	sp,sp,-16
 500              		.cfi_def_cfa_offset 16
 501 01ac 23348100 		sd	s0,8(sp)
 502              		.cfi_offset 8, -8
 503 01b0 13040101 		addi	s0,sp,16
 504              		.cfi_def_cfa 8, 0
 115:src/syscall_c.cpp ****    uint64 sysCallNr=0x41UL;
 505              		.loc 1 115 4
 506              	.LVL25:
 116:src/syscall_c.cpp ****    char retval;
 507              		.loc 1 116 4
 117:src/syscall_c.cpp ****    __asm__ volatile("mv a0, %0" : : [sysCallNr] "r" (sysCallNr));
 508              		.loc 1 117 4
 509              		.loc 1 117 65 is_stmt 0
 510 01b4 93071004 		li	a5,65
 511              	#APP
 512              	# 117 "src/syscall_c.cpp" 1
 118              	   __asm__ volatile("ecall");
 513              		mv a0, a5
 514              	# 0 "" 2
 515              		.loc 1 118 4 is_stmt 1
 516              		.loc 1 118 29 is_stmt 0
 517              	# 118 "src/syscall_c.cpp" 1
 119              	   __asm__ volatile("mv %[retval], a1" : [retval] "=r"(retval));
 518              		ecall
 519              	# 0 "" 2
 520              		.loc 1 119 4 is_stmt 1
 521              		.loc 1 119 64 is_stmt 0
 522              	# 119 "src/syscall_c.cpp" 1
 120              	   return retval;
 523              		mv a0, a1
 524              	# 0 "" 2
 525              	.LVL26:
 526              		.loc 1 120 4 is_stmt 1
GAS LISTING /tmp/ccnffsWl.s 			page 12


 121:src/syscall_c.cpp **** //   char c=__getc();
 122:src/syscall_c.cpp **** //   return c;
 123:src/syscall_c.cpp **** }
 527              		.loc 1 123 1 is_stmt 0
 528              	#NO_APP
 529 01c4 1375F50F 		andi	a0,a0,0xff
 530 01c8 03348100 		ld	s0,8(sp)
 531              		.cfi_restore 8
 532              		.cfi_def_cfa 2, 16
 533 01cc 13010101 		addi	sp,sp,16
 534              		.cfi_def_cfa_offset 0
 535 01d0 67800000 		jr	ra
 536              		.cfi_endproc
 537              	.LFE55:
 539              		.align	2
 540              		.globl	_Z4putcc
 542              	_Z4putcc:
 543              	.LFB56:
 124:src/syscall_c.cpp **** 
 125:src/syscall_c.cpp **** void putc (char c){
 544              		.loc 1 125 19 is_stmt 1
 545              		.cfi_startproc
 546              	.LVL27:
 547 01d4 130101FF 		addi	sp,sp,-16
 548              		.cfi_def_cfa_offset 16
 549 01d8 23348100 		sd	s0,8(sp)
 550              		.cfi_offset 8, -8
 551 01dc 13040101 		addi	s0,sp,16
 552              		.cfi_def_cfa 8, 0
 126:src/syscall_c.cpp ****     uint64 sysCallNr=0x42UL;
 553              		.loc 1 126 5
 554              	.LVL28:
 127:src/syscall_c.cpp ****     __asm__ volatile("mv a1, %0": : [c] "r" (c));
 555              		.loc 1 127 5
 556              		.loc 1 127 49 is_stmt 0
 557              	#APP
 558              	# 127 "src/syscall_c.cpp" 1
 128              	    __asm__ volatile("mv a0, %0" : : [sysCallNr] "r" (sysCallNr));
 559              		mv a1, a0
 560              	# 0 "" 2
 561              		.loc 1 128 5 is_stmt 1
 562              		.loc 1 128 66 is_stmt 0
 563              	#NO_APP
 564 01e4 93072004 		li	a5,66
 565              	#APP
 566              	# 128 "src/syscall_c.cpp" 1
 129              	    __asm__ volatile("ecall");
 567              		mv a0, a5
 568              	# 0 "" 2
 569              		.loc 1 129 5 is_stmt 1
 570              		.loc 1 129 30 is_stmt 0
 571              	# 129 "src/syscall_c.cpp" 1
 130              	//    __putc(c);
 131:src/syscall_c.cpp **** }
 572              		ecall
 573              	# 0 "" 2
 574              		.loc 1 131 1
GAS LISTING /tmp/ccnffsWl.s 			page 13


 575              	#NO_APP
 576 01f0 03348100 		ld	s0,8(sp)
 577              		.cfi_restore 8
 578              		.cfi_def_cfa 2, 16
 579 01f4 13010101 		addi	sp,sp,16
 580              		.cfi_def_cfa_offset 0
 581 01f8 67800000 		jr	ra
 582              		.cfi_endproc
 583              	.LFE56:
 585              	.Letext0:
 586              		.file 2 "src/../h/../h/../lib/hw.h"
 587              		.file 3 "src/../h/../h/tcb.hpp"
 588              		.file 4 "src/../h/../h/../h/semaphore.hpp"
 589              		.file 5 "src/../h/syscall_c.hpp"
GAS LISTING /tmp/ccnffsWl.s 			page 14


DEFINED SYMBOLS
                            *ABS*:0000000000000000 syscall_c.cpp
     /tmp/ccnffsWl.s:9      .text:0000000000000000 _Z9mem_allocm
     /tmp/ccnffsWl.s:13     .text:0000000000000000 .L0 
     /tmp/ccnffsWl.s:15     .text:0000000000000000 .L0 
     /tmp/ccnffsWl.s:16     .text:0000000000000004 .L0 
     /tmp/ccnffsWl.s:18     .text:0000000000000008 .L0 
     /tmp/ccnffsWl.s:20     .text:000000000000000c .L0 
     /tmp/ccnffsWl.s:23     .text:000000000000000c .L0 
     /tmp/ccnffsWl.s:24     .text:000000000000000c .L0 
     /tmp/ccnffsWl.s:25     .text:000000000000000c .L0 
   src/syscall_c.cpp:17     .text:000000000000000c .L0 
     /tmp/ccnffsWl.s:31     .text:0000000000000010 .L0 
     /tmp/ccnffsWl.s:33     .text:0000000000000010 .L0 
     /tmp/ccnffsWl.s:39     .text:0000000000000018 .L0 
   src/syscall_c.cpp:20     .text:0000000000000018 .L0 
     /tmp/ccnffsWl.s:44     .text:000000000000001c .L0 
   src/syscall_c.cpp:21     .text:000000000000001c .L0 
     /tmp/ccnffsWl.s:50     .text:0000000000000020 .L0 
     /tmp/ccnffsWl.s:52     .text:0000000000000020 .L0 
     /tmp/ccnffsWl.s:53     .text:0000000000000024 .L0 
     /tmp/ccnffsWl.s:54     .text:0000000000000024 .L0 
     /tmp/ccnffsWl.s:56     .text:0000000000000028 .L0 
     /tmp/ccnffsWl.s:58     .text:000000000000002c .L0 
     /tmp/ccnffsWl.s:64     .text:000000000000002c _Z8mem_freePv
     /tmp/ccnffsWl.s:67     .text:000000000000002c .L0 
     /tmp/ccnffsWl.s:69     .text:000000000000002c .L0 
     /tmp/ccnffsWl.s:70     .text:0000000000000030 .L0 
     /tmp/ccnffsWl.s:72     .text:0000000000000034 .L0 
     /tmp/ccnffsWl.s:74     .text:0000000000000038 .L0 
     /tmp/ccnffsWl.s:77     .text:0000000000000038 .L0 
     /tmp/ccnffsWl.s:78     .text:0000000000000038 .L0 
     /tmp/ccnffsWl.s:79     .text:0000000000000038 .L0 
   src/syscall_c.cpp:28     .text:0000000000000038 .L0 
     /tmp/ccnffsWl.s:85     .text:000000000000003c .L0 
     /tmp/ccnffsWl.s:87     .text:000000000000003c .L0 
     /tmp/ccnffsWl.s:93     .text:0000000000000044 .L0 
   src/syscall_c.cpp:31     .text:0000000000000044 .L0 
     /tmp/ccnffsWl.s:98     .text:0000000000000048 .L0 
   src/syscall_c.cpp:32     .text:0000000000000048 .L0 
     /tmp/ccnffsWl.s:104    .text:000000000000004c .L0 
     /tmp/ccnffsWl.s:106    .text:000000000000004c .L0 
     /tmp/ccnffsWl.s:108    .text:0000000000000054 .L0 
     /tmp/ccnffsWl.s:109    .text:0000000000000054 .L0 
     /tmp/ccnffsWl.s:111    .text:0000000000000058 .L0 
     /tmp/ccnffsWl.s:113    .text:000000000000005c .L0 
     /tmp/ccnffsWl.s:119    .text:000000000000005c _Z13thread_createPP3TCBPFvPvES2_
     /tmp/ccnffsWl.s:122    .text:000000000000005c .L0 
     /tmp/ccnffsWl.s:124    .text:000000000000005c .L0 
     /tmp/ccnffsWl.s:125    .text:0000000000000060 .L0 
     /tmp/ccnffsWl.s:127    .text:0000000000000064 .L0 
     /tmp/ccnffsWl.s:129    .text:0000000000000068 .L0 
     /tmp/ccnffsWl.s:131    .text:0000000000000068 .L0 
     /tmp/ccnffsWl.s:133    .text:0000000000000068 .L0 
     /tmp/ccnffsWl.s:134    .text:0000000000000068 .L0 
   src/syscall_c.cpp:44     .text:0000000000000068 .L0 
     /tmp/ccnffsWl.s:140    .text:000000000000006c .L0 
GAS LISTING /tmp/ccnffsWl.s 			page 15


   src/syscall_c.cpp:45     .text:000000000000006c .L0 
     /tmp/ccnffsWl.s:145    .text:0000000000000070 .L0 
   src/syscall_c.cpp:46     .text:0000000000000070 .L0 
     /tmp/ccnffsWl.s:150    .text:0000000000000074 .L0 
     /tmp/ccnffsWl.s:152    .text:0000000000000074 .L0 
     /tmp/ccnffsWl.s:158    .text:000000000000007c .L0 
   src/syscall_c.cpp:48     .text:000000000000007c .L0 
     /tmp/ccnffsWl.s:163    .text:0000000000000080 .L0 
   src/syscall_c.cpp:49     .text:0000000000000080 .L0 
     /tmp/ccnffsWl.s:169    .text:0000000000000084 .L0 
     /tmp/ccnffsWl.s:171    .text:0000000000000084 .L0 
     /tmp/ccnffsWl.s:174    .text:000000000000008c .L0 
     /tmp/ccnffsWl.s:175    .text:000000000000008c .L0 
     /tmp/ccnffsWl.s:177    .text:0000000000000090 .L0 
     /tmp/ccnffsWl.s:179    .text:0000000000000094 .L0 
     /tmp/ccnffsWl.s:185    .text:0000000000000094 _Z11thread_exitv
     /tmp/ccnffsWl.s:188    .text:0000000000000094 .L0 
     /tmp/ccnffsWl.s:189    .text:0000000000000094 .L0 
     /tmp/ccnffsWl.s:190    .text:0000000000000098 .L0 
     /tmp/ccnffsWl.s:192    .text:000000000000009c .L0 
     /tmp/ccnffsWl.s:194    .text:00000000000000a0 .L0 
     /tmp/ccnffsWl.s:197    .text:00000000000000a0 .L0 
     /tmp/ccnffsWl.s:198    .text:00000000000000a0 .L0 
     /tmp/ccnffsWl.s:199    .text:00000000000000a0 .L0 
     /tmp/ccnffsWl.s:200    .text:00000000000000a0 .L0 
     /tmp/ccnffsWl.s:206    .text:00000000000000a8 .L0 
   src/syscall_c.cpp:58     .text:00000000000000a8 .L0 
     /tmp/ccnffsWl.s:211    .text:00000000000000ac .L0 
   src/syscall_c.cpp:60     .text:00000000000000ac .L0 
     /tmp/ccnffsWl.s:217    .text:00000000000000b0 .L0 
     /tmp/ccnffsWl.s:219    .text:00000000000000b0 .L0 
     /tmp/ccnffsWl.s:221    .text:00000000000000b8 .L0 
     /tmp/ccnffsWl.s:222    .text:00000000000000b8 .L0 
     /tmp/ccnffsWl.s:224    .text:00000000000000bc .L0 
     /tmp/ccnffsWl.s:226    .text:00000000000000c0 .L0 
     /tmp/ccnffsWl.s:232    .text:00000000000000c0 _Z15thread_dispatchv
     /tmp/ccnffsWl.s:235    .text:00000000000000c0 .L0 
     /tmp/ccnffsWl.s:236    .text:00000000000000c0 .L0 
     /tmp/ccnffsWl.s:237    .text:00000000000000c4 .L0 
     /tmp/ccnffsWl.s:239    .text:00000000000000c8 .L0 
     /tmp/ccnffsWl.s:241    .text:00000000000000cc .L0 
     /tmp/ccnffsWl.s:244    .text:00000000000000cc .L0 
     /tmp/ccnffsWl.s:245    .text:00000000000000cc .L0 
     /tmp/ccnffsWl.s:246    .text:00000000000000cc .L0 
     /tmp/ccnffsWl.s:252    .text:00000000000000d4 .L0 
   src/syscall_c.cpp:67     .text:00000000000000d4 .L0 
     /tmp/ccnffsWl.s:258    .text:00000000000000d8 .L0 
     /tmp/ccnffsWl.s:259    .text:00000000000000dc .L0 
     /tmp/ccnffsWl.s:260    .text:00000000000000dc .L0 
     /tmp/ccnffsWl.s:262    .text:00000000000000e0 .L0 
     /tmp/ccnffsWl.s:264    .text:00000000000000e4 .L0 
     /tmp/ccnffsWl.s:270    .text:00000000000000e4 _Z8sem_openPP9semaphorej
     /tmp/ccnffsWl.s:273    .text:00000000000000e4 .L0 
     /tmp/ccnffsWl.s:275    .text:00000000000000e4 .L0 
     /tmp/ccnffsWl.s:276    .text:00000000000000e8 .L0 
     /tmp/ccnffsWl.s:278    .text:00000000000000ec .L0 
     /tmp/ccnffsWl.s:280    .text:00000000000000f0 .L0 
GAS LISTING /tmp/ccnffsWl.s 			page 16


     /tmp/ccnffsWl.s:283    .text:00000000000000f0 .L0 
     /tmp/ccnffsWl.s:284    .text:00000000000000f0 .L0 
     /tmp/ccnffsWl.s:285    .text:00000000000000f0 .L0 
   src/syscall_c.cpp:76     .text:00000000000000f0 .L0 
     /tmp/ccnffsWl.s:291    .text:00000000000000f4 .L0 
   src/syscall_c.cpp:77     .text:00000000000000f4 .L0 
     /tmp/ccnffsWl.s:296    .text:00000000000000f8 .L0 
     /tmp/ccnffsWl.s:298    .text:00000000000000f8 .L0 
     /tmp/ccnffsWl.s:304    .text:0000000000000100 .L0 
   src/syscall_c.cpp:79     .text:0000000000000100 .L0 
     /tmp/ccnffsWl.s:309    .text:0000000000000104 .L0 
   src/syscall_c.cpp:80     .text:0000000000000104 .L0 
     /tmp/ccnffsWl.s:315    .text:0000000000000108 .L0 
     /tmp/ccnffsWl.s:317    .text:0000000000000108 .L0 
     /tmp/ccnffsWl.s:319    .text:0000000000000110 .L0 
     /tmp/ccnffsWl.s:320    .text:0000000000000110 .L0 
     /tmp/ccnffsWl.s:322    .text:0000000000000114 .L0 
     /tmp/ccnffsWl.s:324    .text:0000000000000118 .L0 
     /tmp/ccnffsWl.s:330    .text:0000000000000118 _Z9sem_closeP9semaphore
     /tmp/ccnffsWl.s:333    .text:0000000000000118 .L0 
     /tmp/ccnffsWl.s:335    .text:0000000000000118 .L0 
     /tmp/ccnffsWl.s:336    .text:000000000000011c .L0 
     /tmp/ccnffsWl.s:338    .text:0000000000000120 .L0 
     /tmp/ccnffsWl.s:340    .text:0000000000000124 .L0 
     /tmp/ccnffsWl.s:343    .text:0000000000000124 .L0 
     /tmp/ccnffsWl.s:344    .text:0000000000000124 .L0 
     /tmp/ccnffsWl.s:345    .text:0000000000000124 .L0 
   src/syscall_c.cpp:87     .text:0000000000000124 .L0 
     /tmp/ccnffsWl.s:351    .text:0000000000000128 .L0 
     /tmp/ccnffsWl.s:353    .text:0000000000000128 .L0 
     /tmp/ccnffsWl.s:359    .text:0000000000000130 .L0 
   src/syscall_c.cpp:89     .text:0000000000000130 .L0 
     /tmp/ccnffsWl.s:364    .text:0000000000000134 .L0 
   src/syscall_c.cpp:90     .text:0000000000000134 .L0 
     /tmp/ccnffsWl.s:370    .text:0000000000000138 .L0 
     /tmp/ccnffsWl.s:372    .text:0000000000000138 .L0 
     /tmp/ccnffsWl.s:374    .text:0000000000000140 .L0 
     /tmp/ccnffsWl.s:375    .text:0000000000000140 .L0 
     /tmp/ccnffsWl.s:377    .text:0000000000000144 .L0 
     /tmp/ccnffsWl.s:379    .text:0000000000000148 .L0 
     /tmp/ccnffsWl.s:385    .text:0000000000000148 _Z8sem_waitP9semaphore
     /tmp/ccnffsWl.s:388    .text:0000000000000148 .L0 
     /tmp/ccnffsWl.s:390    .text:0000000000000148 .L0 
     /tmp/ccnffsWl.s:391    .text:000000000000014c .L0 
     /tmp/ccnffsWl.s:393    .text:0000000000000150 .L0 
     /tmp/ccnffsWl.s:395    .text:0000000000000154 .L0 
     /tmp/ccnffsWl.s:398    .text:0000000000000154 .L0 
     /tmp/ccnffsWl.s:399    .text:0000000000000154 .L0 
     /tmp/ccnffsWl.s:400    .text:0000000000000154 .L0 
   src/syscall_c.cpp:97     .text:0000000000000154 .L0 
     /tmp/ccnffsWl.s:406    .text:0000000000000158 .L0 
     /tmp/ccnffsWl.s:408    .text:0000000000000158 .L0 
     /tmp/ccnffsWl.s:414    .text:0000000000000160 .L0 
   src/syscall_c.cpp:99     .text:0000000000000160 .L0 
     /tmp/ccnffsWl.s:419    .text:0000000000000164 .L0 
   src/syscall_c.cpp:100    .text:0000000000000164 .L0 
     /tmp/ccnffsWl.s:425    .text:0000000000000168 .L0 
GAS LISTING /tmp/ccnffsWl.s 			page 17


     /tmp/ccnffsWl.s:427    .text:0000000000000168 .L0 
     /tmp/ccnffsWl.s:429    .text:0000000000000170 .L0 
     /tmp/ccnffsWl.s:430    .text:0000000000000170 .L0 
     /tmp/ccnffsWl.s:432    .text:0000000000000174 .L0 
     /tmp/ccnffsWl.s:434    .text:0000000000000178 .L0 
     /tmp/ccnffsWl.s:440    .text:0000000000000178 _Z10sem_signalP9semaphore
     /tmp/ccnffsWl.s:443    .text:0000000000000178 .L0 
     /tmp/ccnffsWl.s:445    .text:0000000000000178 .L0 
     /tmp/ccnffsWl.s:446    .text:000000000000017c .L0 
     /tmp/ccnffsWl.s:448    .text:0000000000000180 .L0 
     /tmp/ccnffsWl.s:450    .text:0000000000000184 .L0 
     /tmp/ccnffsWl.s:453    .text:0000000000000184 .L0 
     /tmp/ccnffsWl.s:454    .text:0000000000000184 .L0 
     /tmp/ccnffsWl.s:455    .text:0000000000000184 .L0 
   src/syscall_c.cpp:107    .text:0000000000000184 .L0 
     /tmp/ccnffsWl.s:461    .text:0000000000000188 .L0 
     /tmp/ccnffsWl.s:463    .text:0000000000000188 .L0 
     /tmp/ccnffsWl.s:469    .text:0000000000000190 .L0 
   src/syscall_c.cpp:109    .text:0000000000000190 .L0 
     /tmp/ccnffsWl.s:474    .text:0000000000000194 .L0 
   src/syscall_c.cpp:110    .text:0000000000000194 .L0 
     /tmp/ccnffsWl.s:480    .text:0000000000000198 .L0 
     /tmp/ccnffsWl.s:482    .text:0000000000000198 .L0 
     /tmp/ccnffsWl.s:484    .text:00000000000001a0 .L0 
     /tmp/ccnffsWl.s:485    .text:00000000000001a0 .L0 
     /tmp/ccnffsWl.s:487    .text:00000000000001a4 .L0 
     /tmp/ccnffsWl.s:489    .text:00000000000001a8 .L0 
     /tmp/ccnffsWl.s:495    .text:00000000000001a8 _Z4getcv
     /tmp/ccnffsWl.s:498    .text:00000000000001a8 .L0 
     /tmp/ccnffsWl.s:499    .text:00000000000001a8 .L0 
     /tmp/ccnffsWl.s:500    .text:00000000000001ac .L0 
     /tmp/ccnffsWl.s:502    .text:00000000000001b0 .L0 
     /tmp/ccnffsWl.s:504    .text:00000000000001b4 .L0 
     /tmp/ccnffsWl.s:507    .text:00000000000001b4 .L0 
     /tmp/ccnffsWl.s:508    .text:00000000000001b4 .L0 
     /tmp/ccnffsWl.s:509    .text:00000000000001b4 .L0 
     /tmp/ccnffsWl.s:510    .text:00000000000001b4 .L0 
     /tmp/ccnffsWl.s:516    .text:00000000000001bc .L0 
   src/syscall_c.cpp:118    .text:00000000000001bc .L0 
     /tmp/ccnffsWl.s:521    .text:00000000000001c0 .L0 
   src/syscall_c.cpp:119    .text:00000000000001c0 .L0 
     /tmp/ccnffsWl.s:527    .text:00000000000001c4 .L0 
     /tmp/ccnffsWl.s:529    .text:00000000000001c4 .L0 
     /tmp/ccnffsWl.s:531    .text:00000000000001cc .L0 
     /tmp/ccnffsWl.s:532    .text:00000000000001cc .L0 
     /tmp/ccnffsWl.s:534    .text:00000000000001d0 .L0 
     /tmp/ccnffsWl.s:536    .text:00000000000001d4 .L0 
     /tmp/ccnffsWl.s:542    .text:00000000000001d4 _Z4putcc
     /tmp/ccnffsWl.s:545    .text:00000000000001d4 .L0 
     /tmp/ccnffsWl.s:547    .text:00000000000001d4 .L0 
     /tmp/ccnffsWl.s:548    .text:00000000000001d8 .L0 
     /tmp/ccnffsWl.s:550    .text:00000000000001dc .L0 
     /tmp/ccnffsWl.s:552    .text:00000000000001e0 .L0 
     /tmp/ccnffsWl.s:555    .text:00000000000001e0 .L0 
     /tmp/ccnffsWl.s:556    .text:00000000000001e0 .L0 
   src/syscall_c.cpp:127    .text:00000000000001e0 .L0 
     /tmp/ccnffsWl.s:562    .text:00000000000001e4 .L0 
GAS LISTING /tmp/ccnffsWl.s 			page 18


     /tmp/ccnffsWl.s:564    .text:00000000000001e4 .L0 
     /tmp/ccnffsWl.s:570    .text:00000000000001ec .L0 
   src/syscall_c.cpp:129    .text:00000000000001ec .L0 
     /tmp/ccnffsWl.s:576    .text:00000000000001f0 .L0 
     /tmp/ccnffsWl.s:577    .text:00000000000001f4 .L0 
     /tmp/ccnffsWl.s:578    .text:00000000000001f4 .L0 
     /tmp/ccnffsWl.s:580    .text:00000000000001f8 .L0 
     /tmp/ccnffsWl.s:582    .text:00000000000001fc .L0 
     /tmp/ccnffsWl.s:590    .text:00000000000001fc .L0 
     /tmp/ccnffsWl.s:1538   .debug_abbrev:0000000000000000 .Ldebug_abbrev0
     /tmp/ccnffsWl.s:2631   .debug_str:0000000000000571 .LASF98
     /tmp/ccnffsWl.s:2549   .debug_str:0000000000000309 .LASF99
     /tmp/ccnffsWl.s:2503   .debug_str:00000000000001d8 .LASF100
     /tmp/ccnffsWl.s:5      .text:0000000000000000 .Ltext0
     /tmp/ccnffsWl.s:585    .text:00000000000001fc .Letext0
     /tmp/ccnffsWl.s:2441   .debug_line:0000000000000000 .Ldebug_line0
     /tmp/ccnffsWl.s:2519   .debug_str:000000000000023e .LASF0
     /tmp/ccnffsWl.s:2533   .debug_str:0000000000000291 .LASF1
     /tmp/ccnffsWl.s:2599   .debug_str:00000000000004b4 .LASF2
     /tmp/ccnffsWl.s:2603   .debug_str:00000000000004cf .LASF4
     /tmp/ccnffsWl.s:2523   .debug_str:0000000000000250 .LASF3
     /tmp/ccnffsWl.s:2453   .debug_str:0000000000000051 .LASF5
     /tmp/ccnffsWl.s:2577   .debug_str:00000000000003f4 .LASF6
     /tmp/ccnffsWl.s:2527   .debug_str:000000000000026b .LASF7
     /tmp/ccnffsWl.s:2501   .debug_str:00000000000001c8 .LASF8
     /tmp/ccnffsWl.s:2507   .debug_str:0000000000000202 .LASF9
     /tmp/ccnffsWl.s:2473   .debug_str:00000000000000e2 .LASF10
     /tmp/ccnffsWl.s:2497   .debug_str:00000000000001ad .LASF11
     /tmp/ccnffsWl.s:2477   .debug_str:0000000000000104 .LASF12
     /tmp/ccnffsWl.s:2471   .debug_str:00000000000000d2 .LASF13
     /tmp/ccnffsWl.s:2617   .debug_str:0000000000000533 .LASF14
     /tmp/ccnffsWl.s:2489   .debug_str:0000000000000161 .LASF15
     /tmp/ccnffsWl.s:2611   .debug_str:00000000000004ff .LASF16
     /tmp/ccnffsWl.s:2563   .debug_str:000000000000039c .LASF101
     /tmp/ccnffsWl.s:2623   .debug_str:0000000000000551 .LASF102
     /tmp/ccnffsWl.s:2661   .debug_str:00000000000006e3 .LASF17
     /tmp/ccnffsWl.s:2505   .debug_str:00000000000001f6 .LASF19
     /tmp/ccnffsWl.s:2467   .debug_str:00000000000000a7 .LASF18
     /tmp/ccnffsWl.s:2499   .debug_str:00000000000001bc .LASF20
     /tmp/ccnffsWl.s:2445   .debug_str:0000000000000005 .LASF21
     /tmp/ccnffsWl.s:2543   .debug_str:00000000000002eb .LASF23
     /tmp/ccnffsWl.s:2609   .debug_str:00000000000004ec .LASF22
     /tmp/ccnffsWl.s:2601   .debug_str:00000000000004c2 .LASF24
     /tmp/ccnffsWl.s:2605   .debug_str:00000000000004d6 .LASF25
     /tmp/ccnffsWl.s:2451   .debug_str:0000000000000045 .LASF26
     /tmp/ccnffsWl.s:2615   .debug_str:0000000000000526 .LASF27
     /tmp/ccnffsWl.s:2591   .debug_str:0000000000000478 .LASF28
     /tmp/ccnffsWl.s:2569   .debug_str:00000000000003d5 .LASF103
     /tmp/ccnffsWl.s:2589   .debug_str:0000000000000468 .LASF31
     /tmp/ccnffsWl.s:2541   .debug_str:00000000000002d0 .LASF33
     /tmp/ccnffsWl.s:2545   .debug_str:00000000000002f8 .LASF87
     /tmp/ccnffsWl.s:2495   .debug_str:0000000000000196 .LASF104
     /tmp/ccnffsWl.s:2625   .debug_str:0000000000000559 .LASF35
     /tmp/ccnffsWl.s:2557   .debug_str:0000000000000352 .LASF37
     /tmp/ccnffsWl.s:2461   .debug_str:0000000000000083 .LASF29
     /tmp/ccnffsWl.s:2643   .debug_str:000000000000067d .LASF30
     /tmp/ccnffsWl.s:2535   .debug_str:00000000000002a4 .LASF32
GAS LISTING /tmp/ccnffsWl.s 			page 19


     /tmp/ccnffsWl.s:2633   .debug_str:0000000000000635 .LASF34
     /tmp/ccnffsWl.s:2537   .debug_str:00000000000002aa .LASF36
     /tmp/ccnffsWl.s:2585   .debug_str:0000000000000436 .LASF38
     /tmp/ccnffsWl.s:2629   .debug_str:0000000000000569 .LASF105
     /tmp/ccnffsWl.s:2443   .debug_str:0000000000000000 .LASF39
     /tmp/ccnffsWl.s:2659   .debug_str:00000000000006dd .LASF40
     /tmp/ccnffsWl.s:2641   .debug_str:0000000000000675 .LASF41
     /tmp/ccnffsWl.s:2621   .debug_str:0000000000000548 .LASF42
     /tmp/ccnffsWl.s:2573   .debug_str:00000000000003e2 .LASF43
     /tmp/ccnffsWl.s:2581   .debug_str:0000000000000421 .LASF44
     /tmp/ccnffsWl.s:2635   .debug_str:0000000000000645 .LASF45
     /tmp/ccnffsWl.s:2465   .debug_str:0000000000000099 .LASF46
     /tmp/ccnffsWl.s:2539   .debug_str:00000000000002b7 .LASF48
     /tmp/ccnffsWl.s:2479   .debug_str:0000000000000114 .LASF106
     /tmp/ccnffsWl.s:2449   .debug_str:000000000000001d .LASF107
     /tmp/ccnffsWl.s:2485   .debug_str:0000000000000142 .LASF47
     /tmp/ccnffsWl.s:2475   .debug_str:00000000000000f1 .LASF49
     /tmp/ccnffsWl.s:2607   .debug_str:00000000000004db .LASF108
     /tmp/ccnffsWl.s:2653   .debug_str:00000000000006be .LASF109
     /tmp/ccnffsWl.s:2593   .debug_str:000000000000049c .LASF50
     /tmp/ccnffsWl.s:2597   .debug_str:00000000000004aa .LASF51
     /tmp/ccnffsWl.s:2513   .debug_str:0000000000000229 .LASF52
     /tmp/ccnffsWl.s:2561   .debug_str:0000000000000385 .LASF53
     /tmp/ccnffsWl.s:2483   .debug_str:000000000000013a .LASF54
     /tmp/ccnffsWl.s:2559   .debug_str:0000000000000369 .LASF55
     /tmp/ccnffsWl.s:2525   .debug_str:0000000000000262 .LASF56
     /tmp/ccnffsWl.s:2469   .debug_str:00000000000000b7 .LASF57
     /tmp/ccnffsWl.s:2571   .debug_str:00000000000003da .LASF58
     /tmp/ccnffsWl.s:2587   .debug_str:000000000000044e .LASF59
     /tmp/ccnffsWl.s:2463   .debug_str:000000000000008f .LASF60
     /tmp/ccnffsWl.s:2639   .debug_str:0000000000000659 .LASF61
     /tmp/ccnffsWl.s:2517   .debug_str:0000000000000238 .LASF62
     /tmp/ccnffsWl.s:2487   .debug_str:000000000000014b .LASF63
     /tmp/ccnffsWl.s:2447   .debug_str:0000000000000015 .LASF64
     /tmp/ccnffsWl.s:2481   .debug_str:0000000000000122 .LASF65
     /tmp/ccnffsWl.s:2565   .debug_str:00000000000003ac .LASF66
     /tmp/ccnffsWl.s:2649   .debug_str:00000000000006a7 .LASF67
     /tmp/ccnffsWl.s:2655   .debug_str:00000000000006c9 .LASF68
     /tmp/ccnffsWl.s:2547   .debug_str:0000000000000304 .LASF69
     /tmp/ccnffsWl.s:2619   .debug_str:000000000000053f .LASF70
     /tmp/ccnffsWl.s:543    .text:00000000000001d4 .LFB56
     /tmp/ccnffsWl.s:583    .text:00000000000001fc .LFE56
     /tmp/ccnffsWl.s:2645   .debug_str:0000000000000694 .LASF71
     /tmp/ccnffsWl.s:2627   .debug_str:0000000000000564 .LASF72
     /tmp/ccnffsWl.s:2521   .debug_str:000000000000024b .LASF74
     /tmp/ccnffsWl.s:2647   .debug_str:000000000000069e .LASF76
     /tmp/ccnffsWl.s:496    .text:00000000000001a8 .LFB55
     /tmp/ccnffsWl.s:537    .text:00000000000001d4 .LFE55
     /tmp/ccnffsWl.s:2493   .debug_str:000000000000018f .LASF73
     /tmp/ccnffsWl.s:2511   .debug_str:000000000000021e .LASF75
     /tmp/ccnffsWl.s:2579   .debug_str:0000000000000407 .LASF77
     /tmp/ccnffsWl.s:441    .text:0000000000000178 .LFB54
     /tmp/ccnffsWl.s:490    .text:00000000000001a8 .LFE54
     /tmp/ccnffsWl.s:2294   .debug_loc:0000000000000000 .LLST9
     /tmp/ccnffsWl.s:2663   .debug_str:00000000000006f0 .LASF78
     /tmp/ccnffsWl.s:2551   .debug_str:000000000000031b .LASF79
     /tmp/ccnffsWl.s:386    .text:0000000000000148 .LFB53
GAS LISTING /tmp/ccnffsWl.s 			page 20


     /tmp/ccnffsWl.s:435    .text:0000000000000178 .LFE53
     /tmp/ccnffsWl.s:2308   .debug_loc:0000000000000039 .LLST8
     /tmp/ccnffsWl.s:2583   .debug_str:000000000000042c .LASF80
     /tmp/ccnffsWl.s:2491   .debug_str:0000000000000177 .LASF81
     /tmp/ccnffsWl.s:331    .text:0000000000000118 .LFB52
     /tmp/ccnffsWl.s:380    .text:0000000000000148 .LFE52
     /tmp/ccnffsWl.s:2555   .debug_str:000000000000034b .LASF82
     /tmp/ccnffsWl.s:2322   .debug_loc:0000000000000072 .LLST7
     /tmp/ccnffsWl.s:2595   .debug_str:00000000000004a1 .LASF83
     /tmp/ccnffsWl.s:2553   .debug_str:0000000000000332 .LASF84
     /tmp/ccnffsWl.s:271    .text:00000000000000e4 .LFB51
     /tmp/ccnffsWl.s:325    .text:0000000000000118 .LFE51
     /tmp/ccnffsWl.s:2336   .debug_loc:00000000000000ab .LLST6
     /tmp/ccnffsWl.s:2457   .debug_str:000000000000006d .LASF85
     /tmp/ccnffsWl.s:2455   .debug_str:0000000000000058 .LASF86
     /tmp/ccnffsWl.s:233    .text:00000000000000c0 .LFB50
     /tmp/ccnffsWl.s:265    .text:00000000000000e4 .LFE50
     /tmp/ccnffsWl.s:2613   .debug_str:0000000000000515 .LASF88
     /tmp/ccnffsWl.s:186    .text:0000000000000094 .LFB49
     /tmp/ccnffsWl.s:227    .text:00000000000000c0 .LFE49
     /tmp/ccnffsWl.s:2350   .debug_loc:00000000000000e4 .LLST5
     /tmp/ccnffsWl.s:2651   .debug_str:00000000000006b0 .LASF89
     /tmp/ccnffsWl.s:2567   .debug_str:00000000000003b4 .LASF90
     /tmp/ccnffsWl.s:120    .text:000000000000005c .LFB48
     /tmp/ccnffsWl.s:180    .text:0000000000000094 .LFE48
     /tmp/ccnffsWl.s:2362   .debug_loc:000000000000011b .LLST4
     /tmp/ccnffsWl.s:2529   .debug_str:000000000000027e .LASF91
     /tmp/ccnffsWl.s:2459   .debug_str:0000000000000072 .LASF110
     /tmp/ccnffsWl.s:2515   .debug_str:000000000000022f .LASF92
     /tmp/ccnffsWl.s:2657   .debug_str:00000000000006cf .LASF93
     /tmp/ccnffsWl.s:65     .text:000000000000002c .LFB47
     /tmp/ccnffsWl.s:114    .text:000000000000005c .LFE47
     /tmp/ccnffsWl.s:2376   .debug_loc:0000000000000154 .LLST2
     /tmp/ccnffsWl.s:2390   .debug_loc:000000000000018d .LLST3
     /tmp/ccnffsWl.s:2637   .debug_str:000000000000064f .LASF94
     /tmp/ccnffsWl.s:2509   .debug_str:0000000000000210 .LASF95
     /tmp/ccnffsWl.s:10     .text:0000000000000000 .LFB46
     /tmp/ccnffsWl.s:59     .text:000000000000002c .LFE46
     /tmp/ccnffsWl.s:2531   .debug_str:000000000000028c .LASF96
     /tmp/ccnffsWl.s:2402   .debug_loc:00000000000001c4 .LLST0
     /tmp/ccnffsWl.s:2575   .debug_str:00000000000003ec .LASF97
     /tmp/ccnffsWl.s:2416   .debug_loc:00000000000001fd .LLST1
     /tmp/ccnffsWl.s:444    .text:0000000000000178 .LVL22
     /tmp/ccnffsWl.s:478    .text:0000000000000198 .LVL24
     /tmp/ccnffsWl.s:389    .text:0000000000000148 .LVL19
     /tmp/ccnffsWl.s:423    .text:0000000000000168 .LVL21
     /tmp/ccnffsWl.s:334    .text:0000000000000118 .LVL16
     /tmp/ccnffsWl.s:368    .text:0000000000000138 .LVL18
     /tmp/ccnffsWl.s:274    .text:00000000000000e4 .LVL13
     /tmp/ccnffsWl.s:313    .text:0000000000000108 .LVL15
     /tmp/ccnffsWl.s:196    .text:00000000000000a0 .LVL10
     /tmp/ccnffsWl.s:215    .text:00000000000000b0 .LVL11
     /tmp/ccnffsWl.s:123    .text:000000000000005c .LVL6
     /tmp/ccnffsWl.s:172    .text:0000000000000088 .LVL9
     /tmp/ccnffsWl.s:68     .text:000000000000002c .LVL3
     /tmp/ccnffsWl.s:102    .text:000000000000004c .LVL5
     /tmp/ccnffsWl.s:76     .text:0000000000000038 .LVL4
GAS LISTING /tmp/ccnffsWl.s 			page 21


     /tmp/ccnffsWl.s:14     .text:0000000000000000 .LVL0
     /tmp/ccnffsWl.s:48     .text:0000000000000020 .LVL2
     /tmp/ccnffsWl.s:22     .text:000000000000000c .LVL1
     /tmp/ccnffsWl.s:591    .debug_info:0000000000000000 .Ldebug_info0

NO UNDEFINED SYMBOLS
