GAS LISTING /tmp/ccdnxwNR.s 			page 1


   1              		.file	"syscall_c.cpp"
   2              		.option pic
   3              		.option norelax
   4              		.text
   5              	.Ltext0:
   6              		.align	2
   7              		.globl	_Z9mem_allocm
   9              	_Z9mem_allocm:
  10              	.LFB45:
  11              		.file 1 "src/syscall_c.cpp"
   1:src/syscall_c.cpp **** //
   2:src/syscall_c.cpp **** // Created by os on 8/18/22.
   3:src/syscall_c.cpp **** //
   4:src/syscall_c.cpp **** 
   5:src/syscall_c.cpp **** #include "../h/syscall_c.hpp"
   6:src/syscall_c.cpp **** #include "../h/RiscV.hpp"
   7:src/syscall_c.cpp **** //#include "../h/MemoryAllocation.hpp"
   8:src/syscall_c.cpp **** 
   9:src/syscall_c.cpp **** 
  10:src/syscall_c.cpp **** 
  11:src/syscall_c.cpp **** void *mem_alloc(size_t  size) {
  12              		.loc 1 11 31
  13              		.cfi_startproc
  14              	.LVL0:
  15 0000 130101FF 		addi	sp,sp,-16
  16              		.cfi_def_cfa_offset 16
  17 0004 23348100 		sd	s0,8(sp)
  18              		.cfi_offset 8, -8
  19 0008 13040101 		addi	s0,sp,16
  20              		.cfi_def_cfa 8, 0
  12:src/syscall_c.cpp ****     void* pointer = nullptr;
  21              		.loc 1 12 5
  22              	.LVL1:
  13:src/syscall_c.cpp ****     uint64 sysCallNr=0x01UL;
  23              		.loc 1 13 5
  14:src/syscall_c.cpp ****     //size=MemoryAllocation::bytesToBlocks(size);
  15:src/syscall_c.cpp ****     //mozda ovde mozes da koristis privremeni registar "scratch", da bi koristio sd
  16:src/syscall_c.cpp ****     __asm__ volatile("mv a1, %0" : : [size] "r" (size)); //izgleda da ipak mora sd, jer ne prepozna
  24              		.loc 1 16 5
  25              		.loc 1 16 56 is_stmt 0
  26              	#APP
  27              	# 16 "src/syscall_c.cpp" 1
  17              	    __asm__ volatile("mv a0, %0" : : [sysCallNr] "r" (sysCallNr));
  28              		mv a1, a0
  29              	# 0 "" 2
  30              		.loc 1 17 5 is_stmt 1
  31              		.loc 1 17 66 is_stmt 0
  32              	#NO_APP
  33 0010 93071000 		li	a5,1
  34              	#APP
  35              	# 17 "src/syscall_c.cpp" 1
  18              	     //ovo bi trebalo u mainu, ali kom mainu, gde ja uopste smem da deklarisem trap??????? izgleda 
  19:src/syscall_c.cpp ****     __asm__ volatile("ecall");
  36              		mv a0, a5
  37              	# 0 "" 2
  38              		.loc 1 19 5 is_stmt 1
  39              		.loc 1 19 30 is_stmt 0
GAS LISTING /tmp/ccdnxwNR.s 			page 2


  40              	# 19 "src/syscall_c.cpp" 1
  20              	    __asm__ volatile("mv %[pointer], a1" : [pointer] "=r"(pointer));
  41              		ecall
  42              	# 0 "" 2
  43              		.loc 1 20 5 is_stmt 1
  44              		.loc 1 20 68 is_stmt 0
  45              	# 20 "src/syscall_c.cpp" 1
  21              	    return pointer;
  46              		mv a0, a1
  47              	# 0 "" 2
  48              	.LVL2:
  49              		.loc 1 21 5 is_stmt 1
  22:src/syscall_c.cpp **** }
  50              		.loc 1 22 1 is_stmt 0
  51              	#NO_APP
  52 0020 03348100 		ld	s0,8(sp)
  53              		.cfi_restore 8
  54              		.cfi_def_cfa 2, 16
  55 0024 13010101 		addi	sp,sp,16
  56              		.cfi_def_cfa_offset 0
  57 0028 67800000 		jr	ra
  58              		.cfi_endproc
  59              	.LFE45:
  61              		.align	2
  62              		.globl	_Z8mem_freePv
  64              	_Z8mem_freePv:
  65              	.LFB46:
  23:src/syscall_c.cpp **** 
  24:src/syscall_c.cpp **** int mem_free(void * ptr) {
  66              		.loc 1 24 26 is_stmt 1
  67              		.cfi_startproc
  68              	.LVL3:
  69 002c 130101FF 		addi	sp,sp,-16
  70              		.cfi_def_cfa_offset 16
  71 0030 23348100 		sd	s0,8(sp)
  72              		.cfi_offset 8, -8
  73 0034 13040101 		addi	s0,sp,16
  74              		.cfi_def_cfa 8, 0
  25:src/syscall_c.cpp ****     int ret=0;
  75              		.loc 1 25 5
  76              	.LVL4:
  26:src/syscall_c.cpp ****     uint64 sysCallNr=0x02UL;
  77              		.loc 1 26 5
  27:src/syscall_c.cpp ****     __asm__ volatile("mv a1, %0" : : [ptr] "r" (ptr));
  78              		.loc 1 27 5
  79              		.loc 1 27 54 is_stmt 0
  80              	#APP
  81              	# 27 "src/syscall_c.cpp" 1
  28              	    __asm__ volatile("mv a0, %0" : : [sysCallNr] "r" (sysCallNr));
  82              		mv a1, a0
  83              	# 0 "" 2
  84              		.loc 1 28 5 is_stmt 1
  85              		.loc 1 28 66 is_stmt 0
  86              	#NO_APP
  87 003c 93072000 		li	a5,2
  88              	#APP
  89              	# 28 "src/syscall_c.cpp" 1
GAS LISTING /tmp/ccdnxwNR.s 			page 3


  29              	    //RiscV::w_stvec((uint64) &Trap());
  30:src/syscall_c.cpp ****     __asm__ volatile("ecall");
  90              		mv a0, a5
  91              	# 0 "" 2
  92              		.loc 1 30 5 is_stmt 1
  93              		.loc 1 30 30 is_stmt 0
  94              	# 30 "src/syscall_c.cpp" 1
  31              	    __asm__ volatile("mv %[ret], a1" : [ret] "=r"(ret)); //kaze undefined reference
  95              		ecall
  96              	# 0 "" 2
  97              		.loc 1 31 5 is_stmt 1
  98              		.loc 1 31 56 is_stmt 0
  99              	# 31 "src/syscall_c.cpp" 1
  32              	    return ret;
 100              		mv a0, a1
 101              	# 0 "" 2
 102              	.LVL5:
 103              		.loc 1 32 5 is_stmt 1
  33:src/syscall_c.cpp **** }
 104              		.loc 1 33 1 is_stmt 0
 105              	#NO_APP
 106 004c 1B050500 		sext.w	a0,a0
 107 0050 03348100 		ld	s0,8(sp)
 108              		.cfi_restore 8
 109              		.cfi_def_cfa 2, 16
 110 0054 13010101 		addi	sp,sp,16
 111              		.cfi_def_cfa_offset 0
 112 0058 67800000 		jr	ra
 113              		.cfi_endproc
 114              	.LFE46:
 116              		.align	2
 117              		.globl	_Z13thread_createPP3TCBPFvPvES2_
 119              	_Z13thread_createPP3TCBPFvPvES2_:
 120              	.LFB47:
  34:src/syscall_c.cpp **** 
  35:src/syscall_c.cpp **** int thread_create (
  36:src/syscall_c.cpp ****         thread_t* handle,
  37:src/syscall_c.cpp ****         void(*start_routine)(void*),
  38:src/syscall_c.cpp ****         void* arg
  39:src/syscall_c.cpp **** ){
 121              		.loc 1 39 2 is_stmt 1
 122              		.cfi_startproc
 123              	.LVL6:
 124 005c 130101FF 		addi	sp,sp,-16
 125              		.cfi_def_cfa_offset 16
 126 0060 23348100 		sd	s0,8(sp)
 127              		.cfi_offset 8, -8
 128 0064 13040101 		addi	s0,sp,16
 129              		.cfi_def_cfa 8, 0
  40:src/syscall_c.cpp ****     TCB* ret_value_thread;
 130              		.loc 1 40 5
  41:src/syscall_c.cpp ****     uint64 sysCallNr=0x11UL;
 131              		.loc 1 41 5
 132              	.LVL7:
  42:src/syscall_c.cpp ****     //neki stack_space alokacija se pominje????
  43:src/syscall_c.cpp ****     __asm__ volatile("mv a3, %0" : : [arg] "r" (arg));
 133              		.loc 1 43 5
GAS LISTING /tmp/ccdnxwNR.s 			page 4


 134              		.loc 1 43 54 is_stmt 0
 135              	#APP
 136              	# 43 "src/syscall_c.cpp" 1
  44              	    __asm__ volatile("mv a2, %0" : : [start_routine] "r" (start_routine));
 137              		mv a3, a2
 138              	# 0 "" 2
 139              		.loc 1 44 5 is_stmt 1
 140              		.loc 1 44 74 is_stmt 0
 141              	# 44 "src/syscall_c.cpp" 1
  45              	    __asm__ volatile("mv a1, %0" : : [handle] "r" (handle));
 142              		mv a2, a1
 143              	# 0 "" 2
 144              		.loc 1 45 5 is_stmt 1
 145              		.loc 1 45 60 is_stmt 0
 146              	# 45 "src/syscall_c.cpp" 1
  46              	    __asm__ volatile("mv a0, %0" : : [sysCallNr] "r" (sysCallNr));
 147              		mv a1, a0
 148              	# 0 "" 2
 149              		.loc 1 46 5 is_stmt 1
 150              		.loc 1 46 66 is_stmt 0
 151              	#NO_APP
 152 0074 93071001 		li	a5,17
 153              	#APP
 154              	# 46 "src/syscall_c.cpp" 1
  47              	    __asm__ volatile("ecall");
 155              		mv a0, a5
 156              	# 0 "" 2
 157              		.loc 1 47 5 is_stmt 1
 158              		.loc 1 47 30 is_stmt 0
 159              	# 47 "src/syscall_c.cpp" 1
  48              	    __asm__ volatile("mv %[ret_value_thread], a1" : [ret_value_thread] "=r"(ret_value_thread)); //k
 160              		ecall
 161              	# 0 "" 2
 162              		.loc 1 48 5 is_stmt 1
 163              		.loc 1 48 95 is_stmt 0
 164              	# 48 "src/syscall_c.cpp" 1
  49              	    return 0;//todo
 165              		mv a5, a1
 166              	# 0 "" 2
 167              	.LVL8:
 168              		.loc 1 49 5 is_stmt 1
  50:src/syscall_c.cpp ****     //moras da vidis sta ovde treba da se vrati
  51:src/syscall_c.cpp **** }
 169              		.loc 1 51 1 is_stmt 0
 170              	#NO_APP
 171 0084 13050000 		li	a0,0
 172              	.LVL9:
 173 0088 03348100 		ld	s0,8(sp)
 174              		.cfi_restore 8
 175              		.cfi_def_cfa 2, 16
 176 008c 13010101 		addi	sp,sp,16
 177              		.cfi_def_cfa_offset 0
 178 0090 67800000 		jr	ra
 179              		.cfi_endproc
 180              	.LFE47:
 182              		.align	2
 183              		.globl	_Z11thread_exitv
GAS LISTING /tmp/ccdnxwNR.s 			page 5


 185              	_Z11thread_exitv:
 186              	.LFB48:
  52:src/syscall_c.cpp **** 
  53:src/syscall_c.cpp **** int thread_exit (){
 187              		.loc 1 53 19 is_stmt 1
 188              		.cfi_startproc
 189 0094 130101FF 		addi	sp,sp,-16
 190              		.cfi_def_cfa_offset 16
 191 0098 23348100 		sd	s0,8(sp)
 192              		.cfi_offset 8, -8
 193 009c 13040101 		addi	s0,sp,16
 194              		.cfi_def_cfa 8, 0
  54:src/syscall_c.cpp ****     int ret=0;
 195              		.loc 1 54 5
 196              	.LVL10:
  55:src/syscall_c.cpp ****     uint64 sysCallNr=0x12UL;
 197              		.loc 1 55 5
  56:src/syscall_c.cpp ****     __asm__ volatile("mv a0, %0" : : [sysCallNr] "r" (sysCallNr));
 198              		.loc 1 56 5
 199              		.loc 1 56 66 is_stmt 0
 200 00a0 93072001 		li	a5,18
 201              	#APP
 202              	# 56 "src/syscall_c.cpp" 1
  57              	    __asm__ volatile("ecall");
 203              		mv a0, a5
 204              	# 0 "" 2
 205              		.loc 1 57 5 is_stmt 1
 206              		.loc 1 57 30 is_stmt 0
 207              	# 57 "src/syscall_c.cpp" 1
  58              	    //sta treba ovde da se vrati, verovatno da li je uspelo ili nije uspelo, PREBACI THREAD_EXIT U 
  59:src/syscall_c.cpp ****     __asm__ volatile("mv %[ret], a1" : [ret] "=r"(ret)); //kaze undefined reference
 208              		ecall
 209              	# 0 "" 2
 210              		.loc 1 59 5 is_stmt 1
 211              		.loc 1 59 56 is_stmt 0
 212              	# 59 "src/syscall_c.cpp" 1
  60              	    return ret;
 213              		mv a0, a1
 214              	# 0 "" 2
 215              	.LVL11:
 216              		.loc 1 60 5 is_stmt 1
  61:src/syscall_c.cpp **** }
 217              		.loc 1 61 1 is_stmt 0
 218              	#NO_APP
 219 00b0 1B050500 		sext.w	a0,a0
 220 00b4 03348100 		ld	s0,8(sp)
 221              		.cfi_restore 8
 222              		.cfi_def_cfa 2, 16
 223 00b8 13010101 		addi	sp,sp,16
 224              		.cfi_def_cfa_offset 0
 225 00bc 67800000 		jr	ra
 226              		.cfi_endproc
 227              	.LFE48:
 229              		.align	2
 230              		.globl	_Z15thread_dispatchv
 232              	_Z15thread_dispatchv:
 233              	.LFB49:
GAS LISTING /tmp/ccdnxwNR.s 			page 6


  62:src/syscall_c.cpp **** 
  63:src/syscall_c.cpp **** void thread_dispatch (){
 234              		.loc 1 63 24 is_stmt 1
 235              		.cfi_startproc
 236 00c0 130101FF 		addi	sp,sp,-16
 237              		.cfi_def_cfa_offset 16
 238 00c4 23348100 		sd	s0,8(sp)
 239              		.cfi_offset 8, -8
 240 00c8 13040101 		addi	s0,sp,16
 241              		.cfi_def_cfa 8, 0
  64:src/syscall_c.cpp ****     uint64 sysCallNr=0x13UL;
 242              		.loc 1 64 5
 243              	.LVL12:
  65:src/syscall_c.cpp ****     __asm__ volatile("mv a0, %0" : : [sysCallNr] "r" (sysCallNr));
 244              		.loc 1 65 5
 245              		.loc 1 65 66 is_stmt 0
 246 00cc 93073001 		li	a5,19
 247              	#APP
 248              	# 65 "src/syscall_c.cpp" 1
  66              	    __asm__ volatile("ecall");
 249              		mv a0, a5
 250              	# 0 "" 2
 251              		.loc 1 66 5 is_stmt 1
 252              		.loc 1 66 30 is_stmt 0
 253              	# 66 "src/syscall_c.cpp" 1
  67              	}
 254              		ecall
 255              	# 0 "" 2
 256              		.loc 1 67 1
 257              	#NO_APP
 258 00d8 03348100 		ld	s0,8(sp)
 259              		.cfi_restore 8
 260              		.cfi_def_cfa 2, 16
 261 00dc 13010101 		addi	sp,sp,16
 262              		.cfi_def_cfa_offset 0
 263 00e0 67800000 		jr	ra
 264              		.cfi_endproc
 265              	.LFE49:
 267              		.align	2
 268              		.globl	_Z8sem_openPP9semaphorej
 270              	_Z8sem_openPP9semaphorej:
 271              	.LFB50:
  68:src/syscall_c.cpp **** 
  69:src/syscall_c.cpp **** int sem_open (
  70:src/syscall_c.cpp ****         sem_t* handle,
  71:src/syscall_c.cpp ****         unsigned init
  72:src/syscall_c.cpp **** ){
 272              		.loc 1 72 2 is_stmt 1
 273              		.cfi_startproc
 274              	.LVL13:
 275 00e4 130101FF 		addi	sp,sp,-16
 276              		.cfi_def_cfa_offset 16
 277 00e8 23348100 		sd	s0,8(sp)
 278              		.cfi_offset 8, -8
 279 00ec 13040101 		addi	s0,sp,16
 280              		.cfi_def_cfa 8, 0
  73:src/syscall_c.cpp ****     uint64 sysCallNr=0x21UL;
GAS LISTING /tmp/ccdnxwNR.s 			page 7


 281              		.loc 1 73 5
 282              	.LVL14:
  74:src/syscall_c.cpp ****     int retval;
 283              		.loc 1 74 5
  75:src/syscall_c.cpp ****     __asm__ volatile("mv a2, %0": : [init] "r" (init));
 284              		.loc 1 75 5
 285              		.loc 1 75 55 is_stmt 0
 286              	#APP
 287              	# 75 "src/syscall_c.cpp" 1
  76              	    __asm__ volatile("mv a1, %0": : [handle] "r" (handle));
 288              		mv a2, a1
 289              	# 0 "" 2
 290              		.loc 1 76 5 is_stmt 1
 291              		.loc 1 76 59 is_stmt 0
 292              	# 76 "src/syscall_c.cpp" 1
  77              	    __asm__ volatile("mv a0, %0" : : [sysCallNr] "r" (sysCallNr));
 293              		mv a1, a0
 294              	# 0 "" 2
 295              		.loc 1 77 5 is_stmt 1
 296              		.loc 1 77 66 is_stmt 0
 297              	#NO_APP
 298 00f8 93071002 		li	a5,33
 299              	#APP
 300              	# 77 "src/syscall_c.cpp" 1
  78              	    __asm__ volatile("ecall");
 301              		mv a0, a5
 302              	# 0 "" 2
 303              		.loc 1 78 5 is_stmt 1
 304              		.loc 1 78 30 is_stmt 0
 305              	# 78 "src/syscall_c.cpp" 1
  79              	    __asm__ volatile("mv %[retval], a1" : [retval] "=r"(retval));
 306              		ecall
 307              	# 0 "" 2
 308              		.loc 1 79 5 is_stmt 1
 309              		.loc 1 79 65 is_stmt 0
 310              	# 79 "src/syscall_c.cpp" 1
  80              	    return retval;
 311              		mv a0, a1
 312              	# 0 "" 2
 313              	.LVL15:
 314              		.loc 1 80 5 is_stmt 1
  81:src/syscall_c.cpp **** }
 315              		.loc 1 81 1 is_stmt 0
 316              	#NO_APP
 317 0108 1B050500 		sext.w	a0,a0
 318 010c 03348100 		ld	s0,8(sp)
 319              		.cfi_restore 8
 320              		.cfi_def_cfa 2, 16
 321 0110 13010101 		addi	sp,sp,16
 322              		.cfi_def_cfa_offset 0
 323 0114 67800000 		jr	ra
 324              		.cfi_endproc
 325              	.LFE50:
 327              		.align	2
 328              		.globl	_Z9sem_closeP9semaphore
 330              	_Z9sem_closeP9semaphore:
 331              	.LFB51:
GAS LISTING /tmp/ccdnxwNR.s 			page 8


  82:src/syscall_c.cpp **** 
  83:src/syscall_c.cpp **** int sem_close (sem_t handle){
 332              		.loc 1 83 29 is_stmt 1
 333              		.cfi_startproc
 334              	.LVL16:
 335 0118 130101FF 		addi	sp,sp,-16
 336              		.cfi_def_cfa_offset 16
 337 011c 23348100 		sd	s0,8(sp)
 338              		.cfi_offset 8, -8
 339 0120 13040101 		addi	s0,sp,16
 340              		.cfi_def_cfa 8, 0
  84:src/syscall_c.cpp ****     uint64 sysCallNr=0x22UL;
 341              		.loc 1 84 5
 342              	.LVL17:
  85:src/syscall_c.cpp ****     int retval;
 343              		.loc 1 85 5
  86:src/syscall_c.cpp ****     __asm__ volatile("mv a1, %0": : [handle] "r" (handle));
 344              		.loc 1 86 5
 345              		.loc 1 86 59 is_stmt 0
 346              	#APP
 347              	# 86 "src/syscall_c.cpp" 1
  87              	    __asm__ volatile("mv a0, %0" : : [sysCallNr] "r" (sysCallNr));
 348              		mv a1, a0
 349              	# 0 "" 2
 350              		.loc 1 87 5 is_stmt 1
 351              		.loc 1 87 66 is_stmt 0
 352              	#NO_APP
 353 0128 93072002 		li	a5,34
 354              	#APP
 355              	# 87 "src/syscall_c.cpp" 1
  88              	    __asm__ volatile("ecall");
 356              		mv a0, a5
 357              	# 0 "" 2
 358              		.loc 1 88 5 is_stmt 1
 359              		.loc 1 88 30 is_stmt 0
 360              	# 88 "src/syscall_c.cpp" 1
  89              	    __asm__ volatile("mv %[retval], a1" : [retval] "=r"(retval));
 361              		ecall
 362              	# 0 "" 2
 363              		.loc 1 89 5 is_stmt 1
 364              		.loc 1 89 65 is_stmt 0
 365              	# 89 "src/syscall_c.cpp" 1
  90              	    return retval;
 366              		mv a0, a1
 367              	# 0 "" 2
 368              	.LVL18:
 369              		.loc 1 90 5 is_stmt 1
  91:src/syscall_c.cpp **** }
 370              		.loc 1 91 1 is_stmt 0
 371              	#NO_APP
 372 0138 1B050500 		sext.w	a0,a0
 373 013c 03348100 		ld	s0,8(sp)
 374              		.cfi_restore 8
 375              		.cfi_def_cfa 2, 16
 376 0140 13010101 		addi	sp,sp,16
 377              		.cfi_def_cfa_offset 0
 378 0144 67800000 		jr	ra
GAS LISTING /tmp/ccdnxwNR.s 			page 9


 379              		.cfi_endproc
 380              	.LFE51:
 382              		.align	2
 383              		.globl	_Z8sem_waitP9semaphore
 385              	_Z8sem_waitP9semaphore:
 386              	.LFB52:
  92:src/syscall_c.cpp **** 
  93:src/syscall_c.cpp **** int sem_wait (sem_t id){
 387              		.loc 1 93 24 is_stmt 1
 388              		.cfi_startproc
 389              	.LVL19:
 390 0148 130101FF 		addi	sp,sp,-16
 391              		.cfi_def_cfa_offset 16
 392 014c 23348100 		sd	s0,8(sp)
 393              		.cfi_offset 8, -8
 394 0150 13040101 		addi	s0,sp,16
 395              		.cfi_def_cfa 8, 0
  94:src/syscall_c.cpp ****     uint64 sysCallNr=0x23UL;
 396              		.loc 1 94 5
 397              	.LVL20:
  95:src/syscall_c.cpp ****     int retval;
 398              		.loc 1 95 5
  96:src/syscall_c.cpp ****     __asm__ volatile("mv a1, %0": : [id] "r" (id));
 399              		.loc 1 96 5
 400              		.loc 1 96 51 is_stmt 0
 401              	#APP
 402              	# 96 "src/syscall_c.cpp" 1
  97              	    __asm__ volatile("mv a0, %0" : : [sysCallNr] "r" (sysCallNr));
 403              		mv a1, a0
 404              	# 0 "" 2
 405              		.loc 1 97 5 is_stmt 1
 406              		.loc 1 97 66 is_stmt 0
 407              	#NO_APP
 408 0158 93073002 		li	a5,35
 409              	#APP
 410              	# 97 "src/syscall_c.cpp" 1
  98              	    __asm__ volatile("ecall");
 411              		mv a0, a5
 412              	# 0 "" 2
 413              		.loc 1 98 5 is_stmt 1
 414              		.loc 1 98 30 is_stmt 0
 415              	# 98 "src/syscall_c.cpp" 1
  99              	    __asm__ volatile("mv %[retval], a1" : [retval] "=r"(retval));
 416              		ecall
 417              	# 0 "" 2
 418              		.loc 1 99 5 is_stmt 1
 419              		.loc 1 99 65 is_stmt 0
 420              	# 99 "src/syscall_c.cpp" 1
 100              	    return retval;
 421              		mv a0, a1
 422              	# 0 "" 2
 423              	.LVL21:
 424              		.loc 1 100 5 is_stmt 1
 101:src/syscall_c.cpp **** }
 425              		.loc 1 101 1 is_stmt 0
 426              	#NO_APP
 427 0168 1B050500 		sext.w	a0,a0
GAS LISTING /tmp/ccdnxwNR.s 			page 10


 428 016c 03348100 		ld	s0,8(sp)
 429              		.cfi_restore 8
 430              		.cfi_def_cfa 2, 16
 431 0170 13010101 		addi	sp,sp,16
 432              		.cfi_def_cfa_offset 0
 433 0174 67800000 		jr	ra
 434              		.cfi_endproc
 435              	.LFE52:
 437              		.align	2
 438              		.globl	_Z10sem_signalP9semaphore
 440              	_Z10sem_signalP9semaphore:
 441              	.LFB53:
 102:src/syscall_c.cpp **** 
 103:src/syscall_c.cpp **** int sem_signal (sem_t id){
 442              		.loc 1 103 26 is_stmt 1
 443              		.cfi_startproc
 444              	.LVL22:
 445 0178 130101FF 		addi	sp,sp,-16
 446              		.cfi_def_cfa_offset 16
 447 017c 23348100 		sd	s0,8(sp)
 448              		.cfi_offset 8, -8
 449 0180 13040101 		addi	s0,sp,16
 450              		.cfi_def_cfa 8, 0
 104:src/syscall_c.cpp ****     uint64 sysCallNr=0x24UL;
 451              		.loc 1 104 5
 452              	.LVL23:
 105:src/syscall_c.cpp ****     int retval;
 453              		.loc 1 105 5
 106:src/syscall_c.cpp ****     __asm__ volatile("mv a1, %0": : [id] "r" (id));
 454              		.loc 1 106 5
 455              		.loc 1 106 51 is_stmt 0
 456              	#APP
 457              	# 106 "src/syscall_c.cpp" 1
 107              	    __asm__ volatile("mv a0, %0" : : [sysCallNr] "r" (sysCallNr));
 458              		mv a1, a0
 459              	# 0 "" 2
 460              		.loc 1 107 5 is_stmt 1
 461              		.loc 1 107 66 is_stmt 0
 462              	#NO_APP
 463 0188 93074002 		li	a5,36
 464              	#APP
 465              	# 107 "src/syscall_c.cpp" 1
 108              	    __asm__ volatile("ecall");
 466              		mv a0, a5
 467              	# 0 "" 2
 468              		.loc 1 108 5 is_stmt 1
 469              		.loc 1 108 30 is_stmt 0
 470              	# 108 "src/syscall_c.cpp" 1
 109              	    __asm__ volatile("mv %[retval], a1" : [retval] "=r"(retval));
 471              		ecall
 472              	# 0 "" 2
 473              		.loc 1 109 5 is_stmt 1
 474              		.loc 1 109 65 is_stmt 0
 475              	# 109 "src/syscall_c.cpp" 1
 110              	    return retval;
 476              		mv a0, a1
 477              	# 0 "" 2
GAS LISTING /tmp/ccdnxwNR.s 			page 11


 478              	.LVL24:
 479              		.loc 1 110 5 is_stmt 1
 111:src/syscall_c.cpp **** }
 480              		.loc 1 111 1 is_stmt 0
 481              	#NO_APP
 482 0198 1B050500 		sext.w	a0,a0
 483 019c 03348100 		ld	s0,8(sp)
 484              		.cfi_restore 8
 485              		.cfi_def_cfa 2, 16
 486 01a0 13010101 		addi	sp,sp,16
 487              		.cfi_def_cfa_offset 0
 488 01a4 67800000 		jr	ra
 489              		.cfi_endproc
 490              	.LFE53:
 492              	.Letext0:
 493              		.file 2 "src/../h/../h/../lib/hw.h"
 494              		.file 3 "src/../h/../h/tcb.hpp"
 495              		.file 4 "src/../h/../h/../h/semaphore.hpp"
 496              		.file 5 "src/../h/syscall_c.hpp"
GAS LISTING /tmp/ccdnxwNR.s 			page 12

