GAS LISTING /tmp/cceXVIoq.s 			page 1


   1              		.file	"syscall_c.cpp"
   2              		.option pic
   3              		.option norelax
   4              		.text
   5              	.Ltext0:
   6              		.align	2
   7              		.globl	_Z9mem_allocm
   9              	_Z9mem_allocm:
  10              	.LFB48:
  11              		.file 1 "src/syscall_c.cpp"
   1:src/syscall_c.cpp **** //
   2:src/syscall_c.cpp **** // Created by os on 8/18/22.
   3:src/syscall_c.cpp **** //
   4:src/syscall_c.cpp **** 
   5:src/syscall_c.cpp **** #include "../h/syscall_c.hpp"
   6:src/syscall_c.cpp **** #include "../h/RiscV.hpp"
   7:src/syscall_c.cpp **** #include "../lib/console.h"
   8:src/syscall_c.cpp **** //#include "../h/MemoryAllocation.hpp"
   9:src/syscall_c.cpp **** 
  10:src/syscall_c.cpp **** 
  11:src/syscall_c.cpp **** 
  12:src/syscall_c.cpp **** void *mem_alloc(size_t  size) {
  12              		.loc 1 12 31
  13              		.cfi_startproc
  14              	.LVL0:
  15 0000 130101FF 		addi	sp,sp,-16
  16              		.cfi_def_cfa_offset 16
  17 0004 23348100 		sd	s0,8(sp)
  18              		.cfi_offset 8, -8
  19 0008 13040101 		addi	s0,sp,16
  20              		.cfi_def_cfa 8, 0
  13:src/syscall_c.cpp ****     void* pointer = nullptr;
  21              		.loc 1 13 5
  22              	.LVL1:
  14:src/syscall_c.cpp ****     uint64 sysCallNr=0x01UL;
  23              		.loc 1 14 5
  15:src/syscall_c.cpp ****     //size=MemoryAllocation::bytesToBlocks(size);
  16:src/syscall_c.cpp ****     //mozda ovde mozes da koristis privremeni registar "scratch", da bi koristio sd
  17:src/syscall_c.cpp ****     __asm__ volatile("mv a1, %0" : : [size] "r" (size)); //izgleda da ipak mora sd, jer ne prepozna
  24              		.loc 1 17 5
  25              		.loc 1 17 56 is_stmt 0
  26              	#APP
  27              	# 17 "src/syscall_c.cpp" 1
  18              	    __asm__ volatile("mv a0, %0" : : [sysCallNr] "r" (sysCallNr));
  28              		mv a1, a0
  29              	# 0 "" 2
  30              		.loc 1 18 5 is_stmt 1
  31              		.loc 1 18 66 is_stmt 0
  32              	#NO_APP
  33 0010 93071000 		li	a5,1
  34              	#APP
  35              	# 18 "src/syscall_c.cpp" 1
  19              	     //ovo bi trebalo u mainu, ali kom mainu, gde ja uopste smem da deklarisem trap??????? izgleda 
  20:src/syscall_c.cpp ****     __asm__ volatile("ecall");
  36              		mv a0, a5
  37              	# 0 "" 2
  38              		.loc 1 20 5 is_stmt 1
GAS LISTING /tmp/cceXVIoq.s 			page 2


  39              		.loc 1 20 30 is_stmt 0
  40              	# 20 "src/syscall_c.cpp" 1
  21              	    __asm__ volatile("mv %[pointer], a1" : [pointer] "=r"(pointer));
  41              		ecall
  42              	# 0 "" 2
  43              		.loc 1 21 5 is_stmt 1
  44              		.loc 1 21 68 is_stmt 0
  45              	# 21 "src/syscall_c.cpp" 1
  22              	    return pointer;
  46              		mv a0, a1
  47              	# 0 "" 2
  48              	.LVL2:
  49              		.loc 1 22 5 is_stmt 1
  23:src/syscall_c.cpp **** }
  50              		.loc 1 23 1 is_stmt 0
  51              	#NO_APP
  52 0020 03348100 		ld	s0,8(sp)
  53              		.cfi_restore 8
  54              		.cfi_def_cfa 2, 16
  55 0024 13010101 		addi	sp,sp,16
  56              		.cfi_def_cfa_offset 0
  57 0028 67800000 		jr	ra
  58              		.cfi_endproc
  59              	.LFE48:
  61              		.align	2
  62              		.globl	_Z8mem_freePv
  64              	_Z8mem_freePv:
  65              	.LFB49:
  24:src/syscall_c.cpp **** 
  25:src/syscall_c.cpp **** int mem_free(void * ptr) {
  66              		.loc 1 25 26 is_stmt 1
  67              		.cfi_startproc
  68              	.LVL3:
  69 002c 130101FF 		addi	sp,sp,-16
  70              		.cfi_def_cfa_offset 16
  71 0030 23348100 		sd	s0,8(sp)
  72              		.cfi_offset 8, -8
  73 0034 13040101 		addi	s0,sp,16
  74              		.cfi_def_cfa 8, 0
  26:src/syscall_c.cpp ****     int ret=0;
  75              		.loc 1 26 5
  76              	.LVL4:
  27:src/syscall_c.cpp ****     uint64 sysCallNr=0x02UL;
  77              		.loc 1 27 5
  28:src/syscall_c.cpp ****     __asm__ volatile("mv a1, %0" : : [ptr] "r" (ptr));
  78              		.loc 1 28 5
  79              		.loc 1 28 54 is_stmt 0
  80              	#APP
  81              	# 28 "src/syscall_c.cpp" 1
  29              	    __asm__ volatile("mv a0, %0" : : [sysCallNr] "r" (sysCallNr));
  82              		mv a1, a0
  83              	# 0 "" 2
  84              		.loc 1 29 5 is_stmt 1
  85              		.loc 1 29 66 is_stmt 0
  86              	#NO_APP
  87 003c 93072000 		li	a5,2
  88              	#APP
GAS LISTING /tmp/cceXVIoq.s 			page 3


  89              	# 29 "src/syscall_c.cpp" 1
  30              	    //RiscV::w_stvec((uint64) &Trap());
  31:src/syscall_c.cpp ****     __asm__ volatile("ecall");
  90              		mv a0, a5
  91              	# 0 "" 2
  92              		.loc 1 31 5 is_stmt 1
  93              		.loc 1 31 30 is_stmt 0
  94              	# 31 "src/syscall_c.cpp" 1
  32              	    __asm__ volatile("mv %[ret], a1" : [ret] "=r"(ret)); //kaze undefined reference
  95              		ecall
  96              	# 0 "" 2
  97              		.loc 1 32 5 is_stmt 1
  98              		.loc 1 32 56 is_stmt 0
  99              	# 32 "src/syscall_c.cpp" 1
  33              	    return ret;
 100              		mv a0, a1
 101              	# 0 "" 2
 102              	.LVL5:
 103              		.loc 1 33 5 is_stmt 1
  34:src/syscall_c.cpp **** }
 104              		.loc 1 34 1 is_stmt 0
 105              	#NO_APP
 106 004c 1B050500 		sext.w	a0,a0
 107 0050 03348100 		ld	s0,8(sp)
 108              		.cfi_restore 8
 109              		.cfi_def_cfa 2, 16
 110 0054 13010101 		addi	sp,sp,16
 111              		.cfi_def_cfa_offset 0
 112 0058 67800000 		jr	ra
 113              		.cfi_endproc
 114              	.LFE49:
 116              		.align	2
 117              		.globl	_Z13thread_createPP3TCBPFvPvES2_
 119              	_Z13thread_createPP3TCBPFvPvES2_:
 120              	.LFB50:
  35:src/syscall_c.cpp **** 
  36:src/syscall_c.cpp **** int thread_create (
  37:src/syscall_c.cpp ****         thread_t* handle,
  38:src/syscall_c.cpp ****         void(*start_routine)(void*),
  39:src/syscall_c.cpp ****         void* arg
  40:src/syscall_c.cpp **** ){
 121              		.loc 1 40 2 is_stmt 1
 122              		.cfi_startproc
 123              	.LVL6:
 124 005c 130101FF 		addi	sp,sp,-16
 125              		.cfi_def_cfa_offset 16
 126 0060 23348100 		sd	s0,8(sp)
 127              		.cfi_offset 8, -8
 128 0064 13040101 		addi	s0,sp,16
 129              		.cfi_def_cfa 8, 0
  41:src/syscall_c.cpp ****     TCB* ret_value_thread;
 130              		.loc 1 41 5
  42:src/syscall_c.cpp ****     uint64 sysCallNr=0x11UL;
 131              		.loc 1 42 5
 132              	.LVL7:
  43:src/syscall_c.cpp ****     //neki stack_space alokacija se pominje????
  44:src/syscall_c.cpp ****     //__asm__ volatile("mv a4, %0" : : [started] "r" (started));
GAS LISTING /tmp/cceXVIoq.s 			page 4


  45:src/syscall_c.cpp ****     __asm__ volatile("mv a3, %0" : : [arg] "r" (arg));
 133              		.loc 1 45 5
 134              		.loc 1 45 54 is_stmt 0
 135              	#APP
 136              	# 45 "src/syscall_c.cpp" 1
  46              	    __asm__ volatile("mv a2, %0" : : [start_routine] "r" (start_routine));
 137              		mv a3, a2
 138              	# 0 "" 2
 139              		.loc 1 46 5 is_stmt 1
 140              		.loc 1 46 74 is_stmt 0
 141              	# 46 "src/syscall_c.cpp" 1
  47              	    __asm__ volatile("mv a1, %0" : : [handle] "r" (handle));
 142              		mv a2, a1
 143              	# 0 "" 2
 144              		.loc 1 47 5 is_stmt 1
 145              		.loc 1 47 60 is_stmt 0
 146              	# 47 "src/syscall_c.cpp" 1
  48              	    __asm__ volatile("mv a0, %0" : : [sysCallNr] "r" (sysCallNr));
 147              		mv a1, a0
 148              	# 0 "" 2
 149              		.loc 1 48 5 is_stmt 1
 150              		.loc 1 48 66 is_stmt 0
 151              	#NO_APP
 152 0074 93071001 		li	a5,17
 153              	#APP
 154              	# 48 "src/syscall_c.cpp" 1
  49              	    __asm__ volatile("ecall");
 155              		mv a0, a5
 156              	# 0 "" 2
 157              		.loc 1 49 5 is_stmt 1
 158              		.loc 1 49 30 is_stmt 0
 159              	# 49 "src/syscall_c.cpp" 1
  50              	    __asm__ volatile("mv %[ret_value_thread], a1" : [ret_value_thread] "=r"(ret_value_thread)); //k
 160              		ecall
 161              	# 0 "" 2
 162              		.loc 1 50 5 is_stmt 1
 163              		.loc 1 50 95 is_stmt 0
 164              	# 50 "src/syscall_c.cpp" 1
  51              	    return 0;//todo
 165              		mv a5, a1
 166              	# 0 "" 2
 167              	.LVL8:
 168              		.loc 1 51 5 is_stmt 1
  52:src/syscall_c.cpp ****     //moras da vidis sta ovde treba da se vrati
  53:src/syscall_c.cpp **** }
 169              		.loc 1 53 1 is_stmt 0
 170              	#NO_APP
 171 0084 13050000 		li	a0,0
 172              	.LVL9:
 173 0088 03348100 		ld	s0,8(sp)
 174              		.cfi_restore 8
 175              		.cfi_def_cfa 2, 16
 176 008c 13010101 		addi	sp,sp,16
 177              		.cfi_def_cfa_offset 0
 178 0090 67800000 		jr	ra
 179              		.cfi_endproc
 180              	.LFE50:
GAS LISTING /tmp/cceXVIoq.s 			page 5


 182              		.align	2
 183              		.globl	_Z11thread_exitv
 185              	_Z11thread_exitv:
 186              	.LFB51:
  54:src/syscall_c.cpp **** 
  55:src/syscall_c.cpp **** int thread_exit (){
 187              		.loc 1 55 19 is_stmt 1
 188              		.cfi_startproc
 189 0094 130101FF 		addi	sp,sp,-16
 190              		.cfi_def_cfa_offset 16
 191 0098 23348100 		sd	s0,8(sp)
 192              		.cfi_offset 8, -8
 193 009c 13040101 		addi	s0,sp,16
 194              		.cfi_def_cfa 8, 0
  56:src/syscall_c.cpp ****     int ret=0;
 195              		.loc 1 56 5
 196              	.LVL10:
  57:src/syscall_c.cpp ****     uint64 sysCallNr=0x12UL;
 197              		.loc 1 57 5
  58:src/syscall_c.cpp ****     __asm__ volatile("mv a0, %0" : : [sysCallNr] "r" (sysCallNr));
 198              		.loc 1 58 5
 199              		.loc 1 58 66 is_stmt 0
 200 00a0 93072001 		li	a5,18
 201              	#APP
 202              	# 58 "src/syscall_c.cpp" 1
  59              	    __asm__ volatile("ecall");
 203              		mv a0, a5
 204              	# 0 "" 2
 205              		.loc 1 59 5 is_stmt 1
 206              		.loc 1 59 30 is_stmt 0
 207              	# 59 "src/syscall_c.cpp" 1
  60              	    //sta treba ovde da se vrati, verovatno da li je uspelo ili nije uspelo, PREBACI THREAD_EXIT U 
  61:src/syscall_c.cpp ****     __asm__ volatile("mv %[ret], a1" : [ret] "=r"(ret)); //kaze undefined reference
 208              		ecall
 209              	# 0 "" 2
 210              		.loc 1 61 5 is_stmt 1
 211              		.loc 1 61 56 is_stmt 0
 212              	# 61 "src/syscall_c.cpp" 1
  62              	    return ret;
 213              		mv a0, a1
 214              	# 0 "" 2
 215              	.LVL11:
 216              		.loc 1 62 5 is_stmt 1
  63:src/syscall_c.cpp **** }
 217              		.loc 1 63 1 is_stmt 0
 218              	#NO_APP
 219 00b0 1B050500 		sext.w	a0,a0
 220 00b4 03348100 		ld	s0,8(sp)
 221              		.cfi_restore 8
 222              		.cfi_def_cfa 2, 16
 223 00b8 13010101 		addi	sp,sp,16
 224              		.cfi_def_cfa_offset 0
 225 00bc 67800000 		jr	ra
 226              		.cfi_endproc
 227              	.LFE51:
 229              		.align	2
 230              		.globl	_Z15thread_dispatchv
GAS LISTING /tmp/cceXVIoq.s 			page 6


 232              	_Z15thread_dispatchv:
 233              	.LFB52:
  64:src/syscall_c.cpp **** 
  65:src/syscall_c.cpp **** void thread_dispatch (){
 234              		.loc 1 65 24 is_stmt 1
 235              		.cfi_startproc
 236 00c0 130101FF 		addi	sp,sp,-16
 237              		.cfi_def_cfa_offset 16
 238 00c4 23348100 		sd	s0,8(sp)
 239              		.cfi_offset 8, -8
 240 00c8 13040101 		addi	s0,sp,16
 241              		.cfi_def_cfa 8, 0
  66:src/syscall_c.cpp ****     uint64 sysCallNr=0x13UL;
 242              		.loc 1 66 5
 243              	.LVL12:
  67:src/syscall_c.cpp ****     __asm__ volatile("mv a0, %0" : : [sysCallNr] "r" (sysCallNr));
 244              		.loc 1 67 5
 245              		.loc 1 67 66 is_stmt 0
 246 00cc 93073001 		li	a5,19
 247              	#APP
 248              	# 67 "src/syscall_c.cpp" 1
  68              	    __asm__ volatile("ecall");
 249              		mv a0, a5
 250              	# 0 "" 2
 251              		.loc 1 68 5 is_stmt 1
 252              		.loc 1 68 30 is_stmt 0
 253              	# 68 "src/syscall_c.cpp" 1
  69              	}
 254              		ecall
 255              	# 0 "" 2
 256              		.loc 1 69 1
 257              	#NO_APP
 258 00d8 03348100 		ld	s0,8(sp)
 259              		.cfi_restore 8
 260              		.cfi_def_cfa 2, 16
 261 00dc 13010101 		addi	sp,sp,16
 262              		.cfi_def_cfa_offset 0
 263 00e0 67800000 		jr	ra
 264              		.cfi_endproc
 265              	.LFE52:
 267              		.align	2
 268              		.globl	_Z8sem_openPP9semaphorej
 270              	_Z8sem_openPP9semaphorej:
 271              	.LFB53:
  70:src/syscall_c.cpp **** 
  71:src/syscall_c.cpp **** int sem_open (
  72:src/syscall_c.cpp ****         sem_t* handle,
  73:src/syscall_c.cpp ****         unsigned init
  74:src/syscall_c.cpp **** ){
 272              		.loc 1 74 2 is_stmt 1
 273              		.cfi_startproc
 274              	.LVL13:
 275 00e4 130101FF 		addi	sp,sp,-16
 276              		.cfi_def_cfa_offset 16
 277 00e8 23348100 		sd	s0,8(sp)
 278              		.cfi_offset 8, -8
 279 00ec 13040101 		addi	s0,sp,16
GAS LISTING /tmp/cceXVIoq.s 			page 7


 280              		.cfi_def_cfa 8, 0
  75:src/syscall_c.cpp ****     uint64 sysCallNr=0x21UL;
 281              		.loc 1 75 5
 282              	.LVL14:
  76:src/syscall_c.cpp ****     int retval;
 283              		.loc 1 76 5
  77:src/syscall_c.cpp ****     __asm__ volatile("mv a2, %0": : [init] "r" (init));
 284              		.loc 1 77 5
 285              		.loc 1 77 55 is_stmt 0
 286              	#APP
 287              	# 77 "src/syscall_c.cpp" 1
  78              	    __asm__ volatile("mv a1, %0": : [handle] "r" (handle));
 288              		mv a2, a1
 289              	# 0 "" 2
 290              		.loc 1 78 5 is_stmt 1
 291              		.loc 1 78 59 is_stmt 0
 292              	# 78 "src/syscall_c.cpp" 1
  79              	    __asm__ volatile("mv a0, %0" : : [sysCallNr] "r" (sysCallNr));
 293              		mv a1, a0
 294              	# 0 "" 2
 295              		.loc 1 79 5 is_stmt 1
 296              		.loc 1 79 66 is_stmt 0
 297              	#NO_APP
 298 00f8 93071002 		li	a5,33
 299              	#APP
 300              	# 79 "src/syscall_c.cpp" 1
  80              	    __asm__ volatile("ecall");
 301              		mv a0, a5
 302              	# 0 "" 2
 303              		.loc 1 80 5 is_stmt 1
 304              		.loc 1 80 30 is_stmt 0
 305              	# 80 "src/syscall_c.cpp" 1
  81              	    __asm__ volatile("mv %[retval], a1" : [retval] "=r"(retval));
 306              		ecall
 307              	# 0 "" 2
 308              		.loc 1 81 5 is_stmt 1
 309              		.loc 1 81 65 is_stmt 0
 310              	# 81 "src/syscall_c.cpp" 1
  82              	    return retval;
 311              		mv a0, a1
 312              	# 0 "" 2
 313              	.LVL15:
 314              		.loc 1 82 5 is_stmt 1
  83:src/syscall_c.cpp **** }
 315              		.loc 1 83 1 is_stmt 0
 316              	#NO_APP
 317 0108 1B050500 		sext.w	a0,a0
 318 010c 03348100 		ld	s0,8(sp)
 319              		.cfi_restore 8
 320              		.cfi_def_cfa 2, 16
 321 0110 13010101 		addi	sp,sp,16
 322              		.cfi_def_cfa_offset 0
 323 0114 67800000 		jr	ra
 324              		.cfi_endproc
 325              	.LFE53:
 327              		.align	2
 328              		.globl	_Z9sem_closeP9semaphore
GAS LISTING /tmp/cceXVIoq.s 			page 8


 330              	_Z9sem_closeP9semaphore:
 331              	.LFB54:
  84:src/syscall_c.cpp **** 
  85:src/syscall_c.cpp **** int sem_close (sem_t handle){
 332              		.loc 1 85 29 is_stmt 1
 333              		.cfi_startproc
 334              	.LVL16:
 335 0118 130101FF 		addi	sp,sp,-16
 336              		.cfi_def_cfa_offset 16
 337 011c 23348100 		sd	s0,8(sp)
 338              		.cfi_offset 8, -8
 339 0120 13040101 		addi	s0,sp,16
 340              		.cfi_def_cfa 8, 0
  86:src/syscall_c.cpp ****     uint64 sysCallNr=0x22UL;
 341              		.loc 1 86 5
 342              	.LVL17:
  87:src/syscall_c.cpp ****     int retval;
 343              		.loc 1 87 5
  88:src/syscall_c.cpp ****     __asm__ volatile("mv a1, %0": : [handle] "r" (handle));
 344              		.loc 1 88 5
 345              		.loc 1 88 59 is_stmt 0
 346              	#APP
 347              	# 88 "src/syscall_c.cpp" 1
  89              	    __asm__ volatile("mv a0, %0" : : [sysCallNr] "r" (sysCallNr));
 348              		mv a1, a0
 349              	# 0 "" 2
 350              		.loc 1 89 5 is_stmt 1
 351              		.loc 1 89 66 is_stmt 0
 352              	#NO_APP
 353 0128 93072002 		li	a5,34
 354              	#APP
 355              	# 89 "src/syscall_c.cpp" 1
  90              	    __asm__ volatile("ecall");
 356              		mv a0, a5
 357              	# 0 "" 2
 358              		.loc 1 90 5 is_stmt 1
 359              		.loc 1 90 30 is_stmt 0
 360              	# 90 "src/syscall_c.cpp" 1
  91              	    __asm__ volatile("mv %[retval], a1" : [retval] "=r"(retval));
 361              		ecall
 362              	# 0 "" 2
 363              		.loc 1 91 5 is_stmt 1
 364              		.loc 1 91 65 is_stmt 0
 365              	# 91 "src/syscall_c.cpp" 1
  92              	    return retval;
 366              		mv a0, a1
 367              	# 0 "" 2
 368              	.LVL18:
 369              		.loc 1 92 5 is_stmt 1
  93:src/syscall_c.cpp **** }
 370              		.loc 1 93 1 is_stmt 0
 371              	#NO_APP
 372 0138 1B050500 		sext.w	a0,a0
 373 013c 03348100 		ld	s0,8(sp)
 374              		.cfi_restore 8
 375              		.cfi_def_cfa 2, 16
 376 0140 13010101 		addi	sp,sp,16
GAS LISTING /tmp/cceXVIoq.s 			page 9


 377              		.cfi_def_cfa_offset 0
 378 0144 67800000 		jr	ra
 379              		.cfi_endproc
 380              	.LFE54:
 382              		.align	2
 383              		.globl	_Z8sem_waitP9semaphore
 385              	_Z8sem_waitP9semaphore:
 386              	.LFB55:
  94:src/syscall_c.cpp **** 
  95:src/syscall_c.cpp **** int sem_wait (sem_t id){
 387              		.loc 1 95 24 is_stmt 1
 388              		.cfi_startproc
 389              	.LVL19:
 390 0148 130101FF 		addi	sp,sp,-16
 391              		.cfi_def_cfa_offset 16
 392 014c 23348100 		sd	s0,8(sp)
 393              		.cfi_offset 8, -8
 394 0150 13040101 		addi	s0,sp,16
 395              		.cfi_def_cfa 8, 0
  96:src/syscall_c.cpp ****     uint64 sysCallNr=0x23UL;
 396              		.loc 1 96 5
 397              	.LVL20:
  97:src/syscall_c.cpp ****     int retval;
 398              		.loc 1 97 5
  98:src/syscall_c.cpp ****     __asm__ volatile("mv a1, %0": : [id] "r" (id));
 399              		.loc 1 98 5
 400              		.loc 1 98 51 is_stmt 0
 401              	#APP
 402              	# 98 "src/syscall_c.cpp" 1
  99              	    __asm__ volatile("mv a0, %0" : : [sysCallNr] "r" (sysCallNr));
 403              		mv a1, a0
 404              	# 0 "" 2
 405              		.loc 1 99 5 is_stmt 1
 406              		.loc 1 99 66 is_stmt 0
 407              	#NO_APP
 408 0158 93073002 		li	a5,35
 409              	#APP
 410              	# 99 "src/syscall_c.cpp" 1
 100              	    __asm__ volatile("ecall");
 411              		mv a0, a5
 412              	# 0 "" 2
 413              		.loc 1 100 5 is_stmt 1
 414              		.loc 1 100 30 is_stmt 0
 415              	# 100 "src/syscall_c.cpp" 1
 101              	    __asm__ volatile("mv %[retval], a1" : [retval] "=r"(retval));
 416              		ecall
 417              	# 0 "" 2
 418              		.loc 1 101 5 is_stmt 1
 419              		.loc 1 101 65 is_stmt 0
 420              	# 101 "src/syscall_c.cpp" 1
 102              	    return retval;
 421              		mv a0, a1
 422              	# 0 "" 2
 423              	.LVL21:
 424              		.loc 1 102 5 is_stmt 1
 103:src/syscall_c.cpp **** }
 425              		.loc 1 103 1 is_stmt 0
GAS LISTING /tmp/cceXVIoq.s 			page 10


 426              	#NO_APP
 427 0168 1B050500 		sext.w	a0,a0
 428 016c 03348100 		ld	s0,8(sp)
 429              		.cfi_restore 8
 430              		.cfi_def_cfa 2, 16
 431 0170 13010101 		addi	sp,sp,16
 432              		.cfi_def_cfa_offset 0
 433 0174 67800000 		jr	ra
 434              		.cfi_endproc
 435              	.LFE55:
 437              		.align	2
 438              		.globl	_Z10sem_signalP9semaphore
 440              	_Z10sem_signalP9semaphore:
 441              	.LFB56:
 104:src/syscall_c.cpp **** 
 105:src/syscall_c.cpp **** int sem_signal (sem_t id){
 442              		.loc 1 105 26 is_stmt 1
 443              		.cfi_startproc
 444              	.LVL22:
 445 0178 130101FF 		addi	sp,sp,-16
 446              		.cfi_def_cfa_offset 16
 447 017c 23348100 		sd	s0,8(sp)
 448              		.cfi_offset 8, -8
 449 0180 13040101 		addi	s0,sp,16
 450              		.cfi_def_cfa 8, 0
 106:src/syscall_c.cpp ****     uint64 sysCallNr=0x24UL;
 451              		.loc 1 106 5
 452              	.LVL23:
 107:src/syscall_c.cpp ****     int retval;
 453              		.loc 1 107 5
 108:src/syscall_c.cpp ****     __asm__ volatile("mv a1, %0": : [id] "r" (id));
 454              		.loc 1 108 5
 455              		.loc 1 108 51 is_stmt 0
 456              	#APP
 457              	# 108 "src/syscall_c.cpp" 1
 109              	    __asm__ volatile("mv a0, %0" : : [sysCallNr] "r" (sysCallNr));
 458              		mv a1, a0
 459              	# 0 "" 2
 460              		.loc 1 109 5 is_stmt 1
 461              		.loc 1 109 66 is_stmt 0
 462              	#NO_APP
 463 0188 93074002 		li	a5,36
 464              	#APP
 465              	# 109 "src/syscall_c.cpp" 1
 110              	    __asm__ volatile("ecall");
 466              		mv a0, a5
 467              	# 0 "" 2
 468              		.loc 1 110 5 is_stmt 1
 469              		.loc 1 110 30 is_stmt 0
 470              	# 110 "src/syscall_c.cpp" 1
 111              	    __asm__ volatile("mv %[retval], a1" : [retval] "=r"(retval));
 471              		ecall
 472              	# 0 "" 2
 473              		.loc 1 111 5 is_stmt 1
 474              		.loc 1 111 65 is_stmt 0
 475              	# 111 "src/syscall_c.cpp" 1
 112              	    return retval;
GAS LISTING /tmp/cceXVIoq.s 			page 11


 476              		mv a0, a1
 477              	# 0 "" 2
 478              	.LVL24:
 479              		.loc 1 112 5 is_stmt 1
 113:src/syscall_c.cpp **** }
 480              		.loc 1 113 1 is_stmt 0
 481              	#NO_APP
 482 0198 1B050500 		sext.w	a0,a0
 483 019c 03348100 		ld	s0,8(sp)
 484              		.cfi_restore 8
 485              		.cfi_def_cfa 2, 16
 486 01a0 13010101 		addi	sp,sp,16
 487              		.cfi_def_cfa_offset 0
 488 01a4 67800000 		jr	ra
 489              		.cfi_endproc
 490              	.LFE56:
 492              		.align	2
 493              		.globl	_Z4getcv
 495              	_Z4getcv:
 496              	.LFB57:
 114:src/syscall_c.cpp **** 
 115:src/syscall_c.cpp **** char getc (){
 497              		.loc 1 115 13 is_stmt 1
 498              		.cfi_startproc
 499 01a8 130101FF 		addi	sp,sp,-16
 500              		.cfi_def_cfa_offset 16
 501 01ac 23348100 		sd	s0,8(sp)
 502              		.cfi_offset 8, -8
 503 01b0 13040101 		addi	s0,sp,16
 504              		.cfi_def_cfa 8, 0
 116:src/syscall_c.cpp ****    uint64 sysCallNr=0x41UL;
 505              		.loc 1 116 4
 506              	.LVL25:
 117:src/syscall_c.cpp ****    char retval;
 507              		.loc 1 117 4
 118:src/syscall_c.cpp ****    __asm__ volatile("mv a0, %0" : : [sysCallNr] "r" (sysCallNr));
 508              		.loc 1 118 4
 509              		.loc 1 118 65 is_stmt 0
 510 01b4 93071004 		li	a5,65
 511              	#APP
 512              	# 118 "src/syscall_c.cpp" 1
 119              	   __asm__ volatile("ecall");
 513              		mv a0, a5
 514              	# 0 "" 2
 515              		.loc 1 119 4 is_stmt 1
 516              		.loc 1 119 29 is_stmt 0
 517              	# 119 "src/syscall_c.cpp" 1
 120              	   __asm__ volatile("mv %[retval], a1" : [retval] "=r"(retval));
 518              		ecall
 519              	# 0 "" 2
 520              		.loc 1 120 4 is_stmt 1
 521              		.loc 1 120 64 is_stmt 0
 522              	# 120 "src/syscall_c.cpp" 1
 121              	   return retval;
 523              		mv a0, a1
 524              	# 0 "" 2
 525              	.LVL26:
GAS LISTING /tmp/cceXVIoq.s 			page 12


 526              		.loc 1 121 4 is_stmt 1
 122:src/syscall_c.cpp **** //   char c=__getc();
 123:src/syscall_c.cpp **** //   return c;
 124:src/syscall_c.cpp **** }
 527              		.loc 1 124 1 is_stmt 0
 528              	#NO_APP
 529 01c4 1375F50F 		andi	a0,a0,0xff
 530 01c8 03348100 		ld	s0,8(sp)
 531              		.cfi_restore 8
 532              		.cfi_def_cfa 2, 16
 533 01cc 13010101 		addi	sp,sp,16
 534              		.cfi_def_cfa_offset 0
 535 01d0 67800000 		jr	ra
 536              		.cfi_endproc
 537              	.LFE57:
 539              		.align	2
 540              		.globl	_Z4putcc
 542              	_Z4putcc:
 543              	.LFB58:
 125:src/syscall_c.cpp **** 
 126:src/syscall_c.cpp **** void putc (char c){
 544              		.loc 1 126 19 is_stmt 1
 545              		.cfi_startproc
 546              	.LVL27:
 547 01d4 130101FF 		addi	sp,sp,-16
 548              		.cfi_def_cfa_offset 16
 549 01d8 23348100 		sd	s0,8(sp)
 550              		.cfi_offset 8, -8
 551 01dc 13040101 		addi	s0,sp,16
 552              		.cfi_def_cfa 8, 0
 127:src/syscall_c.cpp ****     uint64 sysCallNr=0x42UL;
 553              		.loc 1 127 5
 554              	.LVL28:
 128:src/syscall_c.cpp ****     __asm__ volatile("mv a1, %0": : [c] "r" (c));
 555              		.loc 1 128 5
 556              		.loc 1 128 49 is_stmt 0
 557              	#APP
 558              	# 128 "src/syscall_c.cpp" 1
 129              	    __asm__ volatile("mv a0, %0" : : [sysCallNr] "r" (sysCallNr));
 559              		mv a1, a0
 560              	# 0 "" 2
 561              		.loc 1 129 5 is_stmt 1
 562              		.loc 1 129 66 is_stmt 0
 563              	#NO_APP
 564 01e4 93072004 		li	a5,66
 565              	#APP
 566              	# 129 "src/syscall_c.cpp" 1
 130              	    __asm__ volatile("ecall");
 567              		mv a0, a5
 568              	# 0 "" 2
 569              		.loc 1 130 5 is_stmt 1
 570              		.loc 1 130 30 is_stmt 0
 571              	# 130 "src/syscall_c.cpp" 1
 131              	//    __putc(c);
 132:src/syscall_c.cpp **** }
 572              		ecall
 573              	# 0 "" 2
GAS LISTING /tmp/cceXVIoq.s 			page 13


 574              		.loc 1 132 1
 575              	#NO_APP
 576 01f0 03348100 		ld	s0,8(sp)
 577              		.cfi_restore 8
 578              		.cfi_def_cfa 2, 16
 579 01f4 13010101 		addi	sp,sp,16
 580              		.cfi_def_cfa_offset 0
 581 01f8 67800000 		jr	ra
 582              		.cfi_endproc
 583              	.LFE58:
 585              		.align	2
 586              		.globl	_Z21thread_create_cpp_apiPP3TCBPFvPvES2_
 588              	_Z21thread_create_cpp_apiPP3TCBPFvPvES2_:
 589              	.LFB59:
 133:src/syscall_c.cpp **** 
 134:src/syscall_c.cpp **** int thread_create_cpp_api (
 135:src/syscall_c.cpp ****         thread_t* handle,
 136:src/syscall_c.cpp ****         void(*start_routine)(void*),
 137:src/syscall_c.cpp ****         void* arg
 138:src/syscall_c.cpp **** ) {
 590              		.loc 1 138 3 is_stmt 1
 591              		.cfi_startproc
 592              	.LVL29:
 593 01fc 130101FF 		addi	sp,sp,-16
 594              		.cfi_def_cfa_offset 16
 595 0200 23348100 		sd	s0,8(sp)
 596              		.cfi_offset 8, -8
 597 0204 13040101 		addi	s0,sp,16
 598              		.cfi_def_cfa 8, 0
 139:src/syscall_c.cpp ****     TCB *ret_value_thread;
 599              		.loc 1 139 5
 140:src/syscall_c.cpp ****     uint64 sysCallNr = 0x16UL;
 600              		.loc 1 140 5
 601              	.LVL30:
 141:src/syscall_c.cpp ****     //neki stack_space alokacija se pominje????
 142:src/syscall_c.cpp ****     __asm__ volatile("mv a4, %0" : : [handle] "r"(handle));
 602              		.loc 1 142 5
 603              		.loc 1 142 59 is_stmt 0
 604              	#APP
 605              	# 142 "src/syscall_c.cpp" 1
 143              	    __asm__ volatile("mv a3, %0" : : [arg] "r"(arg));
 606              		mv a4, a0
 607              	# 0 "" 2
 608              		.loc 1 143 5 is_stmt 1
 609              		.loc 1 143 53 is_stmt 0
 610              	# 143 "src/syscall_c.cpp" 1
 144              	    __asm__ volatile("mv a2, %0" : : [start_routine] "r"(start_routine));
 611              		mv a3, a2
 612              	# 0 "" 2
 613              		.loc 1 144 5 is_stmt 1
 614              		.loc 1 144 73 is_stmt 0
 615              	# 144 "src/syscall_c.cpp" 1
 145              	    __asm__ volatile("mv a0, %0" : : [sysCallNr] "r"(sysCallNr));
 616              		mv a2, a1
 617              	# 0 "" 2
 618              		.loc 1 145 5 is_stmt 1
 619              		.loc 1 145 65 is_stmt 0
GAS LISTING /tmp/cceXVIoq.s 			page 14


 620              	#NO_APP
 621 0214 93076001 		li	a5,22
 622              	#APP
 623              	# 145 "src/syscall_c.cpp" 1
 146              	    __asm__ volatile("ecall");
 624              		mv a0, a5
 625              	# 0 "" 2
 626              		.loc 1 146 5 is_stmt 1
 627              		.loc 1 146 30 is_stmt 0
 628              	# 146 "src/syscall_c.cpp" 1
 147              	    __asm__ volatile("mv %[ret_value_thread], a1" : [ret_value_thread] "=r"(
 629              		ecall
 630              	# 0 "" 2
 631              		.loc 1 147 5 is_stmt 1
 148:src/syscall_c.cpp ****             ret_value_thread)); //kaze undefined reference
 632              		.loc 1 148 31 is_stmt 0
 633              	# 148 "src/syscall_c.cpp" 1
 149              	    return 0;
 634              		mv a5, a1
 635              	# 0 "" 2
 636              	.LVL31:
 637              		.loc 1 149 5 is_stmt 1
 150:src/syscall_c.cpp **** }
 638              		.loc 1 150 1 is_stmt 0
 639              	#NO_APP
 640 0224 13050000 		li	a0,0
 641              	.LVL32:
 642 0228 03348100 		ld	s0,8(sp)
 643              		.cfi_restore 8
 644              		.cfi_def_cfa 2, 16
 645 022c 13010101 		addi	sp,sp,16
 646              		.cfi_def_cfa_offset 0
 647 0230 67800000 		jr	ra
 648              		.cfi_endproc
 649              	.LFE59:
 651              		.align	2
 652              		.globl	_Z12thread_startPP3TCBPFvPvE
 654              	_Z12thread_startPP3TCBPFvPvE:
 655              	.LFB60:
 151:src/syscall_c.cpp **** 
 152:src/syscall_c.cpp **** void thread_start(thread_t* handle, void(*start_routine)(void*) ){
 656              		.loc 1 152 66 is_stmt 1
 657              		.cfi_startproc
 658              	.LVL33:
 659 0234 130101FF 		addi	sp,sp,-16
 660              		.cfi_def_cfa_offset 16
 661 0238 23348100 		sd	s0,8(sp)
 662              		.cfi_offset 8, -8
 663 023c 13040101 		addi	s0,sp,16
 664              		.cfi_def_cfa 8, 0
 153:src/syscall_c.cpp ****     uint64 sysCallNr = 0x15UL;
 665              		.loc 1 153 5
 666              	.LVL34:
 154:src/syscall_c.cpp ****     __asm__ volatile("mv a2, %0" : : [start_routine] "r"(start_routine));
 667              		.loc 1 154 5
 668              		.loc 1 154 73 is_stmt 0
 669              	#APP
GAS LISTING /tmp/cceXVIoq.s 			page 15


 670              	# 154 "src/syscall_c.cpp" 1
 155              	    __asm__ volatile("mv a1, %0" : : [handle] "r"(handle));
 671              		mv a2, a1
 672              	# 0 "" 2
 673              		.loc 1 155 5 is_stmt 1
 674              		.loc 1 155 59 is_stmt 0
 675              	# 155 "src/syscall_c.cpp" 1
 156              	    __asm__ volatile("mv a0, %0" : : [sysCallNr] "r"(sysCallNr));
 676              		mv a1, a0
 677              	# 0 "" 2
 678              		.loc 1 156 5 is_stmt 1
 679              		.loc 1 156 65 is_stmt 0
 680              	#NO_APP
 681 0248 93075001 		li	a5,21
 682              	#APP
 683              	# 156 "src/syscall_c.cpp" 1
 157              	    __asm__ volatile("ecall");
 684              		mv a0, a5
 685              	# 0 "" 2
 686              		.loc 1 157 5 is_stmt 1
 687              		.loc 1 157 30 is_stmt 0
 688              	# 157 "src/syscall_c.cpp" 1
 158              	}
 689              		ecall
 690              	# 0 "" 2
 691              		.loc 1 158 1
 692              	#NO_APP
 693 0254 03348100 		ld	s0,8(sp)
 694              		.cfi_restore 8
 695              		.cfi_def_cfa 2, 16
 696 0258 13010101 		addi	sp,sp,16
 697              		.cfi_def_cfa_offset 0
 698 025c 67800000 		jr	ra
 699              		.cfi_endproc
 700              	.LFE60:
 702              		.align	2
 703              		.globl	_Z13createWrapperPP3TCBPFvPvES2_b
 705              	_Z13createWrapperPP3TCBPFvPvES2_b:
 706              	.LFB61:
 159:src/syscall_c.cpp **** 
 160:src/syscall_c.cpp **** int createWrapper(
 161:src/syscall_c.cpp ****         thread_t* handle,
 162:src/syscall_c.cpp ****         void(*start_routine)(void*),
 163:src/syscall_c.cpp ****         void* arg, bool started){
 707              		.loc 1 163 33 is_stmt 1
 708              		.cfi_startproc
 709              	.LVL35:
 710 0260 130101FF 		addi	sp,sp,-16
 711              		.cfi_def_cfa_offset 16
 712 0264 23348100 		sd	s0,8(sp)
 713              		.cfi_offset 8, -8
 714 0268 13040101 		addi	s0,sp,16
 715              		.cfi_def_cfa 8, 0
 164:src/syscall_c.cpp ****     TCB* ret_value_thread;
 716              		.loc 1 164 5
 165:src/syscall_c.cpp ****     uint64 sysCallNr=0x11UL;
 717              		.loc 1 165 5
GAS LISTING /tmp/cceXVIoq.s 			page 16


 718              	.LVL36:
 166:src/syscall_c.cpp ****     //neki stack_space alokacija se pominje????
 167:src/syscall_c.cpp ****     //__asm__ volatile("mv a4, %0" : : [started] "r" (started));
 168:src/syscall_c.cpp ****     __asm__ volatile("mv a4, %0" : : [started] "r" (started));
 719              		.loc 1 168 5
 720              		.loc 1 168 62 is_stmt 0
 721              	#APP
 722              	# 168 "src/syscall_c.cpp" 1
 169              	    __asm__ volatile("mv a3, %0" : : [arg] "r" (arg));
 723              		mv a4, a3
 724              	# 0 "" 2
 725              		.loc 1 169 5 is_stmt 1
 726              		.loc 1 169 54 is_stmt 0
 727              	# 169 "src/syscall_c.cpp" 1
 170              	    __asm__ volatile("mv a2, %0" : : [start_routine] "r" (start_routine));
 728              		mv a3, a2
 729              	# 0 "" 2
 730              		.loc 1 170 5 is_stmt 1
 731              		.loc 1 170 74 is_stmt 0
 732              	# 170 "src/syscall_c.cpp" 1
 171              	    __asm__ volatile("mv a1, %0" : : [handle] "r" (handle));
 733              		mv a2, a1
 734              	# 0 "" 2
 735              		.loc 1 171 5 is_stmt 1
 736              		.loc 1 171 60 is_stmt 0
 737              	# 171 "src/syscall_c.cpp" 1
 172              	    __asm__ volatile("mv a0, %0" : : [sysCallNr] "r" (sysCallNr));
 738              		mv a1, a0
 739              	# 0 "" 2
 740              		.loc 1 172 5 is_stmt 1
 741              		.loc 1 172 66 is_stmt 0
 742              	#NO_APP
 743 027c 93071001 		li	a5,17
 744              	#APP
 745              	# 172 "src/syscall_c.cpp" 1
 173              	    __asm__ volatile("ecall");
 746              		mv a0, a5
 747              	# 0 "" 2
 748              		.loc 1 173 5 is_stmt 1
 749              		.loc 1 173 30 is_stmt 0
 750              	# 173 "src/syscall_c.cpp" 1
 174              	    __asm__ volatile("mv %[ret_value_thread], a1" : [ret_value_thread] "=r"(ret_value_thread)); //k
 751              		ecall
 752              	# 0 "" 2
 753              		.loc 1 174 5 is_stmt 1
 754              		.loc 1 174 95 is_stmt 0
 755              	# 174 "src/syscall_c.cpp" 1
 175              	    return 0;//todo
 756              		mv a5, a1
 757              	# 0 "" 2
 758              	.LVL37:
 759              		.loc 1 175 5 is_stmt 1
 176:src/syscall_c.cpp **** }...
 760              		.loc 1 176 1 is_stmt 0
 761              	#NO_APP
 762 028c 13050000 		li	a0,0
 763              	.LVL38:
GAS LISTING /tmp/cceXVIoq.s 			page 17


 764 0290 03348100 		ld	s0,8(sp)
 765              		.cfi_restore 8
 766              		.cfi_def_cfa 2, 16
 767 0294 13010101 		addi	sp,sp,16
 768              		.cfi_def_cfa_offset 0
 769 0298 67800000 		jr	ra
 770              		.cfi_endproc
 771              	.LFE61:
 773              	.Letext0:
 774              		.file 2 "src/../h/../h/../lib/hw.h"
 775              		.file 3 "src/../h/../h/tcb.hpp"
 776              		.file 4 "src/../h/../h/../h/semaphore.hpp"
 777              		.file 5 "src/../h/syscall_c.hpp"
GAS LISTING /tmp/cceXVIoq.s 			page 18


DEFINED SYMBOLS
                            *ABS*:0000000000000000 syscall_c.cpp
     /tmp/cceXVIoq.s:9      .text:0000000000000000 _Z9mem_allocm
     /tmp/cceXVIoq.s:13     .text:0000000000000000 .L0 
     /tmp/cceXVIoq.s:15     .text:0000000000000000 .L0 
     /tmp/cceXVIoq.s:16     .text:0000000000000004 .L0 
     /tmp/cceXVIoq.s:18     .text:0000000000000008 .L0 
     /tmp/cceXVIoq.s:20     .text:000000000000000c .L0 
     /tmp/cceXVIoq.s:23     .text:000000000000000c .L0 
     /tmp/cceXVIoq.s:24     .text:000000000000000c .L0 
     /tmp/cceXVIoq.s:25     .text:000000000000000c .L0 
   src/syscall_c.cpp:17     .text:000000000000000c .L0 
     /tmp/cceXVIoq.s:31     .text:0000000000000010 .L0 
     /tmp/cceXVIoq.s:33     .text:0000000000000010 .L0 
     /tmp/cceXVIoq.s:39     .text:0000000000000018 .L0 
   src/syscall_c.cpp:20     .text:0000000000000018 .L0 
     /tmp/cceXVIoq.s:44     .text:000000000000001c .L0 
   src/syscall_c.cpp:21     .text:000000000000001c .L0 
     /tmp/cceXVIoq.s:50     .text:0000000000000020 .L0 
     /tmp/cceXVIoq.s:52     .text:0000000000000020 .L0 
     /tmp/cceXVIoq.s:53     .text:0000000000000024 .L0 
     /tmp/cceXVIoq.s:54     .text:0000000000000024 .L0 
     /tmp/cceXVIoq.s:56     .text:0000000000000028 .L0 
     /tmp/cceXVIoq.s:58     .text:000000000000002c .L0 
     /tmp/cceXVIoq.s:64     .text:000000000000002c _Z8mem_freePv
     /tmp/cceXVIoq.s:67     .text:000000000000002c .L0 
     /tmp/cceXVIoq.s:69     .text:000000000000002c .L0 
     /tmp/cceXVIoq.s:70     .text:0000000000000030 .L0 
     /tmp/cceXVIoq.s:72     .text:0000000000000034 .L0 
     /tmp/cceXVIoq.s:74     .text:0000000000000038 .L0 
     /tmp/cceXVIoq.s:77     .text:0000000000000038 .L0 
     /tmp/cceXVIoq.s:78     .text:0000000000000038 .L0 
     /tmp/cceXVIoq.s:79     .text:0000000000000038 .L0 
   src/syscall_c.cpp:28     .text:0000000000000038 .L0 
     /tmp/cceXVIoq.s:85     .text:000000000000003c .L0 
     /tmp/cceXVIoq.s:87     .text:000000000000003c .L0 
     /tmp/cceXVIoq.s:93     .text:0000000000000044 .L0 
   src/syscall_c.cpp:31     .text:0000000000000044 .L0 
     /tmp/cceXVIoq.s:98     .text:0000000000000048 .L0 
   src/syscall_c.cpp:32     .text:0000000000000048 .L0 
     /tmp/cceXVIoq.s:104    .text:000000000000004c .L0 
     /tmp/cceXVIoq.s:106    .text:000000000000004c .L0 
     /tmp/cceXVIoq.s:108    .text:0000000000000054 .L0 
     /tmp/cceXVIoq.s:109    .text:0000000000000054 .L0 
     /tmp/cceXVIoq.s:111    .text:0000000000000058 .L0 
     /tmp/cceXVIoq.s:113    .text:000000000000005c .L0 
     /tmp/cceXVIoq.s:119    .text:000000000000005c _Z13thread_createPP3TCBPFvPvES2_
     /tmp/cceXVIoq.s:122    .text:000000000000005c .L0 
     /tmp/cceXVIoq.s:124    .text:000000000000005c .L0 
     /tmp/cceXVIoq.s:125    .text:0000000000000060 .L0 
     /tmp/cceXVIoq.s:127    .text:0000000000000064 .L0 
     /tmp/cceXVIoq.s:129    .text:0000000000000068 .L0 
     /tmp/cceXVIoq.s:131    .text:0000000000000068 .L0 
     /tmp/cceXVIoq.s:133    .text:0000000000000068 .L0 
     /tmp/cceXVIoq.s:134    .text:0000000000000068 .L0 
   src/syscall_c.cpp:45     .text:0000000000000068 .L0 
     /tmp/cceXVIoq.s:140    .text:000000000000006c .L0 
GAS LISTING /tmp/cceXVIoq.s 			page 19


   src/syscall_c.cpp:46     .text:000000000000006c .L0 
     /tmp/cceXVIoq.s:145    .text:0000000000000070 .L0 
   src/syscall_c.cpp:47     .text:0000000000000070 .L0 
     /tmp/cceXVIoq.s:150    .text:0000000000000074 .L0 
     /tmp/cceXVIoq.s:152    .text:0000000000000074 .L0 
     /tmp/cceXVIoq.s:158    .text:000000000000007c .L0 
   src/syscall_c.cpp:49     .text:000000000000007c .L0 
     /tmp/cceXVIoq.s:163    .text:0000000000000080 .L0 
   src/syscall_c.cpp:50     .text:0000000000000080 .L0 
     /tmp/cceXVIoq.s:169    .text:0000000000000084 .L0 
     /tmp/cceXVIoq.s:171    .text:0000000000000084 .L0 
     /tmp/cceXVIoq.s:174    .text:000000000000008c .L0 
     /tmp/cceXVIoq.s:175    .text:000000000000008c .L0 
     /tmp/cceXVIoq.s:177    .text:0000000000000090 .L0 
     /tmp/cceXVIoq.s:179    .text:0000000000000094 .L0 
     /tmp/cceXVIoq.s:185    .text:0000000000000094 _Z11thread_exitv
     /tmp/cceXVIoq.s:188    .text:0000000000000094 .L0 
     /tmp/cceXVIoq.s:189    .text:0000000000000094 .L0 
     /tmp/cceXVIoq.s:190    .text:0000000000000098 .L0 
     /tmp/cceXVIoq.s:192    .text:000000000000009c .L0 
     /tmp/cceXVIoq.s:194    .text:00000000000000a0 .L0 
     /tmp/cceXVIoq.s:197    .text:00000000000000a0 .L0 
     /tmp/cceXVIoq.s:198    .text:00000000000000a0 .L0 
     /tmp/cceXVIoq.s:199    .text:00000000000000a0 .L0 
     /tmp/cceXVIoq.s:200    .text:00000000000000a0 .L0 
     /tmp/cceXVIoq.s:206    .text:00000000000000a8 .L0 
   src/syscall_c.cpp:59     .text:00000000000000a8 .L0 
     /tmp/cceXVIoq.s:211    .text:00000000000000ac .L0 
   src/syscall_c.cpp:61     .text:00000000000000ac .L0 
     /tmp/cceXVIoq.s:217    .text:00000000000000b0 .L0 
     /tmp/cceXVIoq.s:219    .text:00000000000000b0 .L0 
     /tmp/cceXVIoq.s:221    .text:00000000000000b8 .L0 
     /tmp/cceXVIoq.s:222    .text:00000000000000b8 .L0 
     /tmp/cceXVIoq.s:224    .text:00000000000000bc .L0 
     /tmp/cceXVIoq.s:226    .text:00000000000000c0 .L0 
     /tmp/cceXVIoq.s:232    .text:00000000000000c0 _Z15thread_dispatchv
     /tmp/cceXVIoq.s:235    .text:00000000000000c0 .L0 
     /tmp/cceXVIoq.s:236    .text:00000000000000c0 .L0 
     /tmp/cceXVIoq.s:237    .text:00000000000000c4 .L0 
     /tmp/cceXVIoq.s:239    .text:00000000000000c8 .L0 
     /tmp/cceXVIoq.s:241    .text:00000000000000cc .L0 
     /tmp/cceXVIoq.s:244    .text:00000000000000cc .L0 
     /tmp/cceXVIoq.s:245    .text:00000000000000cc .L0 
     /tmp/cceXVIoq.s:246    .text:00000000000000cc .L0 
     /tmp/cceXVIoq.s:252    .text:00000000000000d4 .L0 
   src/syscall_c.cpp:68     .text:00000000000000d4 .L0 
     /tmp/cceXVIoq.s:258    .text:00000000000000d8 .L0 
     /tmp/cceXVIoq.s:259    .text:00000000000000dc .L0 
     /tmp/cceXVIoq.s:260    .text:00000000000000dc .L0 
     /tmp/cceXVIoq.s:262    .text:00000000000000e0 .L0 
     /tmp/cceXVIoq.s:264    .text:00000000000000e4 .L0 
     /tmp/cceXVIoq.s:270    .text:00000000000000e4 _Z8sem_openPP9semaphorej
     /tmp/cceXVIoq.s:273    .text:00000000000000e4 .L0 
     /tmp/cceXVIoq.s:275    .text:00000000000000e4 .L0 
     /tmp/cceXVIoq.s:276    .text:00000000000000e8 .L0 
     /tmp/cceXVIoq.s:278    .text:00000000000000ec .L0 
     /tmp/cceXVIoq.s:280    .text:00000000000000f0 .L0 
GAS LISTING /tmp/cceXVIoq.s 			page 20


     /tmp/cceXVIoq.s:283    .text:00000000000000f0 .L0 
     /tmp/cceXVIoq.s:284    .text:00000000000000f0 .L0 
     /tmp/cceXVIoq.s:285    .text:00000000000000f0 .L0 
   src/syscall_c.cpp:77     .text:00000000000000f0 .L0 
     /tmp/cceXVIoq.s:291    .text:00000000000000f4 .L0 
   src/syscall_c.cpp:78     .text:00000000000000f4 .L0 
     /tmp/cceXVIoq.s:296    .text:00000000000000f8 .L0 
     /tmp/cceXVIoq.s:298    .text:00000000000000f8 .L0 
     /tmp/cceXVIoq.s:304    .text:0000000000000100 .L0 
   src/syscall_c.cpp:80     .text:0000000000000100 .L0 
     /tmp/cceXVIoq.s:309    .text:0000000000000104 .L0 
   src/syscall_c.cpp:81     .text:0000000000000104 .L0 
     /tmp/cceXVIoq.s:315    .text:0000000000000108 .L0 
     /tmp/cceXVIoq.s:317    .text:0000000000000108 .L0 
     /tmp/cceXVIoq.s:319    .text:0000000000000110 .L0 
     /tmp/cceXVIoq.s:320    .text:0000000000000110 .L0 
     /tmp/cceXVIoq.s:322    .text:0000000000000114 .L0 
     /tmp/cceXVIoq.s:324    .text:0000000000000118 .L0 
     /tmp/cceXVIoq.s:330    .text:0000000000000118 _Z9sem_closeP9semaphore
     /tmp/cceXVIoq.s:333    .text:0000000000000118 .L0 
     /tmp/cceXVIoq.s:335    .text:0000000000000118 .L0 
     /tmp/cceXVIoq.s:336    .text:000000000000011c .L0 
     /tmp/cceXVIoq.s:338    .text:0000000000000120 .L0 
     /tmp/cceXVIoq.s:340    .text:0000000000000124 .L0 
     /tmp/cceXVIoq.s:343    .text:0000000000000124 .L0 
     /tmp/cceXVIoq.s:344    .text:0000000000000124 .L0 
     /tmp/cceXVIoq.s:345    .text:0000000000000124 .L0 
   src/syscall_c.cpp:88     .text:0000000000000124 .L0 
     /tmp/cceXVIoq.s:351    .text:0000000000000128 .L0 
     /tmp/cceXVIoq.s:353    .text:0000000000000128 .L0 
     /tmp/cceXVIoq.s:359    .text:0000000000000130 .L0 
   src/syscall_c.cpp:90     .text:0000000000000130 .L0 
     /tmp/cceXVIoq.s:364    .text:0000000000000134 .L0 
   src/syscall_c.cpp:91     .text:0000000000000134 .L0 
     /tmp/cceXVIoq.s:370    .text:0000000000000138 .L0 
     /tmp/cceXVIoq.s:372    .text:0000000000000138 .L0 
     /tmp/cceXVIoq.s:374    .text:0000000000000140 .L0 
     /tmp/cceXVIoq.s:375    .text:0000000000000140 .L0 
     /tmp/cceXVIoq.s:377    .text:0000000000000144 .L0 
     /tmp/cceXVIoq.s:379    .text:0000000000000148 .L0 
     /tmp/cceXVIoq.s:385    .text:0000000000000148 _Z8sem_waitP9semaphore
     /tmp/cceXVIoq.s:388    .text:0000000000000148 .L0 
     /tmp/cceXVIoq.s:390    .text:0000000000000148 .L0 
     /tmp/cceXVIoq.s:391    .text:000000000000014c .L0 
     /tmp/cceXVIoq.s:393    .text:0000000000000150 .L0 
     /tmp/cceXVIoq.s:395    .text:0000000000000154 .L0 
     /tmp/cceXVIoq.s:398    .text:0000000000000154 .L0 
     /tmp/cceXVIoq.s:399    .text:0000000000000154 .L0 
     /tmp/cceXVIoq.s:400    .text:0000000000000154 .L0 
   src/syscall_c.cpp:98     .text:0000000000000154 .L0 
     /tmp/cceXVIoq.s:406    .text:0000000000000158 .L0 
     /tmp/cceXVIoq.s:408    .text:0000000000000158 .L0 
     /tmp/cceXVIoq.s:414    .text:0000000000000160 .L0 
   src/syscall_c.cpp:100    .text:0000000000000160 .L0 
     /tmp/cceXVIoq.s:419    .text:0000000000000164 .L0 
   src/syscall_c.cpp:101    .text:0000000000000164 .L0 
     /tmp/cceXVIoq.s:425    .text:0000000000000168 .L0 
GAS LISTING /tmp/cceXVIoq.s 			page 21


     /tmp/cceXVIoq.s:427    .text:0000000000000168 .L0 
     /tmp/cceXVIoq.s:429    .text:0000000000000170 .L0 
     /tmp/cceXVIoq.s:430    .text:0000000000000170 .L0 
     /tmp/cceXVIoq.s:432    .text:0000000000000174 .L0 
     /tmp/cceXVIoq.s:434    .text:0000000000000178 .L0 
     /tmp/cceXVIoq.s:440    .text:0000000000000178 _Z10sem_signalP9semaphore
     /tmp/cceXVIoq.s:443    .text:0000000000000178 .L0 
     /tmp/cceXVIoq.s:445    .text:0000000000000178 .L0 
     /tmp/cceXVIoq.s:446    .text:000000000000017c .L0 
     /tmp/cceXVIoq.s:448    .text:0000000000000180 .L0 
     /tmp/cceXVIoq.s:450    .text:0000000000000184 .L0 
     /tmp/cceXVIoq.s:453    .text:0000000000000184 .L0 
     /tmp/cceXVIoq.s:454    .text:0000000000000184 .L0 
     /tmp/cceXVIoq.s:455    .text:0000000000000184 .L0 
   src/syscall_c.cpp:108    .text:0000000000000184 .L0 
     /tmp/cceXVIoq.s:461    .text:0000000000000188 .L0 
     /tmp/cceXVIoq.s:463    .text:0000000000000188 .L0 
     /tmp/cceXVIoq.s:469    .text:0000000000000190 .L0 
   src/syscall_c.cpp:110    .text:0000000000000190 .L0 
     /tmp/cceXVIoq.s:474    .text:0000000000000194 .L0 
   src/syscall_c.cpp:111    .text:0000000000000194 .L0 
     /tmp/cceXVIoq.s:480    .text:0000000000000198 .L0 
     /tmp/cceXVIoq.s:482    .text:0000000000000198 .L0 
     /tmp/cceXVIoq.s:484    .text:00000000000001a0 .L0 
     /tmp/cceXVIoq.s:485    .text:00000000000001a0 .L0 
     /tmp/cceXVIoq.s:487    .text:00000000000001a4 .L0 
     /tmp/cceXVIoq.s:489    .text:00000000000001a8 .L0 
     /tmp/cceXVIoq.s:495    .text:00000000000001a8 _Z4getcv
     /tmp/cceXVIoq.s:498    .text:00000000000001a8 .L0 
     /tmp/cceXVIoq.s:499    .text:00000000000001a8 .L0 
     /tmp/cceXVIoq.s:500    .text:00000000000001ac .L0 
     /tmp/cceXVIoq.s:502    .text:00000000000001b0 .L0 
     /tmp/cceXVIoq.s:504    .text:00000000000001b4 .L0 
     /tmp/cceXVIoq.s:507    .text:00000000000001b4 .L0 
     /tmp/cceXVIoq.s:508    .text:00000000000001b4 .L0 
     /tmp/cceXVIoq.s:509    .text:00000000000001b4 .L0 
     /tmp/cceXVIoq.s:510    .text:00000000000001b4 .L0 
     /tmp/cceXVIoq.s:516    .text:00000000000001bc .L0 
   src/syscall_c.cpp:119    .text:00000000000001bc .L0 
     /tmp/cceXVIoq.s:521    .text:00000000000001c0 .L0 
   src/syscall_c.cpp:120    .text:00000000000001c0 .L0 
     /tmp/cceXVIoq.s:527    .text:00000000000001c4 .L0 
     /tmp/cceXVIoq.s:529    .text:00000000000001c4 .L0 
     /tmp/cceXVIoq.s:531    .text:00000000000001cc .L0 
     /tmp/cceXVIoq.s:532    .text:00000000000001cc .L0 
     /tmp/cceXVIoq.s:534    .text:00000000000001d0 .L0 
     /tmp/cceXVIoq.s:536    .text:00000000000001d4 .L0 
     /tmp/cceXVIoq.s:542    .text:00000000000001d4 _Z4putcc
     /tmp/cceXVIoq.s:545    .text:00000000000001d4 .L0 
     /tmp/cceXVIoq.s:547    .text:00000000000001d4 .L0 
     /tmp/cceXVIoq.s:548    .text:00000000000001d8 .L0 
     /tmp/cceXVIoq.s:550    .text:00000000000001dc .L0 
     /tmp/cceXVIoq.s:552    .text:00000000000001e0 .L0 
     /tmp/cceXVIoq.s:555    .text:00000000000001e0 .L0 
     /tmp/cceXVIoq.s:556    .text:00000000000001e0 .L0 
   src/syscall_c.cpp:128    .text:00000000000001e0 .L0 
     /tmp/cceXVIoq.s:562    .text:00000000000001e4 .L0 
GAS LISTING /tmp/cceXVIoq.s 			page 22


     /tmp/cceXVIoq.s:564    .text:00000000000001e4 .L0 
     /tmp/cceXVIoq.s:570    .text:00000000000001ec .L0 
   src/syscall_c.cpp:130    .text:00000000000001ec .L0 
     /tmp/cceXVIoq.s:576    .text:00000000000001f0 .L0 
     /tmp/cceXVIoq.s:577    .text:00000000000001f4 .L0 
     /tmp/cceXVIoq.s:578    .text:00000000000001f4 .L0 
     /tmp/cceXVIoq.s:580    .text:00000000000001f8 .L0 
     /tmp/cceXVIoq.s:582    .text:00000000000001fc .L0 
     /tmp/cceXVIoq.s:588    .text:00000000000001fc _Z21thread_create_cpp_apiPP3TCBPFvPvES2_
     /tmp/cceXVIoq.s:591    .text:00000000000001fc .L0 
     /tmp/cceXVIoq.s:593    .text:00000000000001fc .L0 
     /tmp/cceXVIoq.s:594    .text:0000000000000200 .L0 
     /tmp/cceXVIoq.s:596    .text:0000000000000204 .L0 
     /tmp/cceXVIoq.s:598    .text:0000000000000208 .L0 
     /tmp/cceXVIoq.s:600    .text:0000000000000208 .L0 
     /tmp/cceXVIoq.s:602    .text:0000000000000208 .L0 
     /tmp/cceXVIoq.s:603    .text:0000000000000208 .L0 
   src/syscall_c.cpp:142    .text:0000000000000208 .L0 
     /tmp/cceXVIoq.s:609    .text:000000000000020c .L0 
   src/syscall_c.cpp:143    .text:000000000000020c .L0 
     /tmp/cceXVIoq.s:614    .text:0000000000000210 .L0 
   src/syscall_c.cpp:144    .text:0000000000000210 .L0 
     /tmp/cceXVIoq.s:619    .text:0000000000000214 .L0 
     /tmp/cceXVIoq.s:621    .text:0000000000000214 .L0 
     /tmp/cceXVIoq.s:627    .text:000000000000021c .L0 
   src/syscall_c.cpp:146    .text:000000000000021c .L0 
     /tmp/cceXVIoq.s:632    .text:0000000000000220 .L0 
   src/syscall_c.cpp:148    .text:0000000000000220 .L0 
     /tmp/cceXVIoq.s:638    .text:0000000000000224 .L0 
     /tmp/cceXVIoq.s:640    .text:0000000000000224 .L0 
     /tmp/cceXVIoq.s:643    .text:000000000000022c .L0 
     /tmp/cceXVIoq.s:644    .text:000000000000022c .L0 
     /tmp/cceXVIoq.s:646    .text:0000000000000230 .L0 
     /tmp/cceXVIoq.s:648    .text:0000000000000234 .L0 
     /tmp/cceXVIoq.s:654    .text:0000000000000234 _Z12thread_startPP3TCBPFvPvE
     /tmp/cceXVIoq.s:657    .text:0000000000000234 .L0 
     /tmp/cceXVIoq.s:659    .text:0000000000000234 .L0 
     /tmp/cceXVIoq.s:660    .text:0000000000000238 .L0 
     /tmp/cceXVIoq.s:662    .text:000000000000023c .L0 
     /tmp/cceXVIoq.s:664    .text:0000000000000240 .L0 
     /tmp/cceXVIoq.s:667    .text:0000000000000240 .L0 
     /tmp/cceXVIoq.s:668    .text:0000000000000240 .L0 
   src/syscall_c.cpp:154    .text:0000000000000240 .L0 
     /tmp/cceXVIoq.s:674    .text:0000000000000244 .L0 
   src/syscall_c.cpp:155    .text:0000000000000244 .L0 
     /tmp/cceXVIoq.s:679    .text:0000000000000248 .L0 
     /tmp/cceXVIoq.s:681    .text:0000000000000248 .L0 
     /tmp/cceXVIoq.s:687    .text:0000000000000250 .L0 
   src/syscall_c.cpp:157    .text:0000000000000250 .L0 
     /tmp/cceXVIoq.s:693    .text:0000000000000254 .L0 
     /tmp/cceXVIoq.s:694    .text:0000000000000258 .L0 
     /tmp/cceXVIoq.s:695    .text:0000000000000258 .L0 
     /tmp/cceXVIoq.s:697    .text:000000000000025c .L0 
     /tmp/cceXVIoq.s:699    .text:0000000000000260 .L0 
     /tmp/cceXVIoq.s:705    .text:0000000000000260 _Z13createWrapperPP3TCBPFvPvES2_b
     /tmp/cceXVIoq.s:708    .text:0000000000000260 .L0 
     /tmp/cceXVIoq.s:710    .text:0000000000000260 .L0 
GAS LISTING /tmp/cceXVIoq.s 			page 23


     /tmp/cceXVIoq.s:711    .text:0000000000000264 .L0 
     /tmp/cceXVIoq.s:713    .text:0000000000000268 .L0 
     /tmp/cceXVIoq.s:715    .text:000000000000026c .L0 
     /tmp/cceXVIoq.s:717    .text:000000000000026c .L0 
     /tmp/cceXVIoq.s:719    .text:000000000000026c .L0 
     /tmp/cceXVIoq.s:720    .text:000000000000026c .L0 
   src/syscall_c.cpp:168    .text:000000000000026c .L0 
     /tmp/cceXVIoq.s:726    .text:0000000000000270 .L0 
   src/syscall_c.cpp:169    .text:0000000000000270 .L0 
     /tmp/cceXVIoq.s:731    .text:0000000000000274 .L0 
   src/syscall_c.cpp:170    .text:0000000000000274 .L0 
     /tmp/cceXVIoq.s:736    .text:0000000000000278 .L0 
   src/syscall_c.cpp:171    .text:0000000000000278 .L0 
     /tmp/cceXVIoq.s:741    .text:000000000000027c .L0 
     /tmp/cceXVIoq.s:743    .text:000000000000027c .L0 
     /tmp/cceXVIoq.s:749    .text:0000000000000284 .L0 
   src/syscall_c.cpp:173    .text:0000000000000284 .L0 
     /tmp/cceXVIoq.s:754    .text:0000000000000288 .L0 
   src/syscall_c.cpp:174    .text:0000000000000288 .L0 
     /tmp/cceXVIoq.s:760    .text:000000000000028c .L0 
     /tmp/cceXVIoq.s:762    .text:000000000000028c .L0 
     /tmp/cceXVIoq.s:765    .text:0000000000000294 .L0 
     /tmp/cceXVIoq.s:766    .text:0000000000000294 .L0 
     /tmp/cceXVIoq.s:768    .text:0000000000000298 .L0 
     /tmp/cceXVIoq.s:770    .text:000000000000029c .L0 
     /tmp/cceXVIoq.s:778    .text:000000000000029c .L0 
     /tmp/cceXVIoq.s:1916   .debug_abbrev:0000000000000000 .Ldebug_abbrev0
     /tmp/cceXVIoq.s:3059   .debug_str:0000000000000627 .LASF113
     /tmp/cceXVIoq.s:2967   .debug_str:000000000000038d .LASF114
     /tmp/cceXVIoq.s:2913   .debug_str:00000000000001f6 .LASF115
     /tmp/cceXVIoq.s:5      .text:0000000000000000 .Ltext0
     /tmp/cceXVIoq.s:773    .text:000000000000029c .Letext0
     /tmp/cceXVIoq.s:2847   .debug_line:0000000000000000 .Ldebug_line0
     /tmp/cceXVIoq.s:2931   .debug_str:000000000000026a .LASF0
     /tmp/cceXVIoq.s:2945   .debug_str:00000000000002bd .LASF1
     /tmp/cceXVIoq.s:3021   .debug_str:000000000000052a .LASF2
     /tmp/cceXVIoq.s:3027   .debug_str:0000000000000559 .LASF4
     /tmp/cceXVIoq.s:2935   .debug_str:000000000000027c .LASF3
     /tmp/cceXVIoq.s:2859   .debug_str:0000000000000051 .LASF5
     /tmp/cceXVIoq.s:2997   .debug_str:0000000000000482 .LASF6
     /tmp/cceXVIoq.s:2939   .debug_str:0000000000000297 .LASF7
     /tmp/cceXVIoq.s:2911   .debug_str:00000000000001e6 .LASF8
     /tmp/cceXVIoq.s:2917   .debug_str:0000000000000220 .LASF9
     /tmp/cceXVIoq.s:2883   .debug_str:0000000000000100 .LASF10
     /tmp/cceXVIoq.s:2907   .debug_str:00000000000001cb .LASF11
     /tmp/cceXVIoq.s:2887   .debug_str:0000000000000122 .LASF12
     /tmp/cceXVIoq.s:2881   .debug_str:00000000000000f0 .LASF13
     /tmp/cceXVIoq.s:3043   .debug_str:00000000000005dd .LASF14
     /tmp/cceXVIoq.s:2899   .debug_str:000000000000017f .LASF15
     /tmp/cceXVIoq.s:3037   .debug_str:00000000000005a9 .LASF16
     /tmp/cceXVIoq.s:2983   .debug_str:000000000000042a .LASF116
     /tmp/cceXVIoq.s:3049   .debug_str:00000000000005fb .LASF117
     /tmp/cceXVIoq.s:3095   .debug_str:0000000000000801 .LASF17
     /tmp/cceXVIoq.s:2915   .debug_str:0000000000000214 .LASF19
     /tmp/cceXVIoq.s:2877   .debug_str:00000000000000c5 .LASF18
     /tmp/cceXVIoq.s:2909   .debug_str:00000000000001da .LASF20
     /tmp/cceXVIoq.s:2851   .debug_str:0000000000000005 .LASF21
GAS LISTING /tmp/cceXVIoq.s 			page 24


     /tmp/cceXVIoq.s:2961   .debug_str:000000000000036f .LASF23
     /tmp/cceXVIoq.s:3035   .debug_str:0000000000000596 .LASF22
     /tmp/cceXVIoq.s:3023   .debug_str:0000000000000538 .LASF24
     /tmp/cceXVIoq.s:3029   .debug_str:0000000000000560 .LASF25
     /tmp/cceXVIoq.s:2857   .debug_str:0000000000000045 .LASF26
     /tmp/cceXVIoq.s:3041   .debug_str:00000000000005d0 .LASF27
     /tmp/cceXVIoq.s:2953   .debug_str:00000000000002fc .LASF28
     /tmp/cceXVIoq.s:2989   .debug_str:0000000000000463 .LASF118
     /tmp/cceXVIoq.s:3013   .debug_str:0000000000000502 .LASF39
     /tmp/cceXVIoq.s:2957   .debug_str:000000000000033b .LASF41
     /tmp/cceXVIoq.s:2963   .debug_str:000000000000037c .LASF103
     /tmp/cceXVIoq.s:2905   .debug_str:00000000000001b4 .LASF119
     /tmp/cceXVIoq.s:3011   .debug_str:00000000000004f7 .LASF29
     /tmp/cceXVIoq.s:2959   .debug_str:0000000000000356 .LASF30
     /tmp/cceXVIoq.s:2977   .debug_str:00000000000003ed .LASF33
     /tmp/cceXVIoq.s:3025   .debug_str:0000000000000545 .LASF35
     /tmp/cceXVIoq.s:3055   .debug_str:0000000000000613 .LASF31
     /tmp/cceXVIoq.s:3031   .debug_str:0000000000000565 .LASF32
     /tmp/cceXVIoq.s:3051   .debug_str:0000000000000603 .LASF34
     /tmp/cceXVIoq.s:2975   .debug_str:00000000000003d6 .LASF36
     /tmp/cceXVIoq.s:2871   .debug_str:00000000000000a1 .LASF37
     /tmp/cceXVIoq.s:3073   .debug_str:0000000000000755 .LASF38
     /tmp/cceXVIoq.s:2947   .debug_str:00000000000002d0 .LASF40
     /tmp/cceXVIoq.s:3061   .debug_str:00000000000006eb .LASF42
     /tmp/cceXVIoq.s:2949   .debug_str:00000000000002d6 .LASF43
     /tmp/cceXVIoq.s:3009   .debug_str:00000000000004df .LASF44
     /tmp/cceXVIoq.s:3057   .debug_str:000000000000061f .LASF120
     /tmp/cceXVIoq.s:2849   .debug_str:0000000000000000 .LASF45
     /tmp/cceXVIoq.s:3093   .debug_str:00000000000007fb .LASF46
     /tmp/cceXVIoq.s:3069   .debug_str:000000000000072b .LASF47
     /tmp/cceXVIoq.s:3047   .debug_str:00000000000005f2 .LASF48
     /tmp/cceXVIoq.s:2993   .debug_str:0000000000000470 .LASF49
     /tmp/cceXVIoq.s:3003   .debug_str:00000000000004bc .LASF50
     /tmp/cceXVIoq.s:3063   .debug_str:00000000000006fb .LASF51
     /tmp/cceXVIoq.s:2923   .debug_str:0000000000000247 .LASF52
     /tmp/cceXVIoq.s:2875   .debug_str:00000000000000b7 .LASF53
     /tmp/cceXVIoq.s:2951   .debug_str:00000000000002e3 .LASF55
     /tmp/cceXVIoq.s:2889   .debug_str:0000000000000132 .LASF121
     /tmp/cceXVIoq.s:2855   .debug_str:000000000000001d .LASF122
     /tmp/cceXVIoq.s:2895   .debug_str:0000000000000160 .LASF54
     /tmp/cceXVIoq.s:2885   .debug_str:000000000000010f .LASF56
     /tmp/cceXVIoq.s:3033   .debug_str:0000000000000585 .LASF123
     /tmp/cceXVIoq.s:3087   .debug_str:00000000000007dc .LASF124
     /tmp/cceXVIoq.s:3015   .debug_str:0000000000000512 .LASF57
     /tmp/cceXVIoq.s:3019   .debug_str:0000000000000520 .LASF58
     /tmp/cceXVIoq.s:2925   .debug_str:0000000000000255 .LASF59
     /tmp/cceXVIoq.s:2981   .debug_str:0000000000000413 .LASF60
     /tmp/cceXVIoq.s:2893   .debug_str:0000000000000158 .LASF61
     /tmp/cceXVIoq.s:2979   .debug_str:00000000000003f7 .LASF62
     /tmp/cceXVIoq.s:2937   .debug_str:000000000000028e .LASF63
     /tmp/cceXVIoq.s:2879   .debug_str:00000000000000d5 .LASF64
     /tmp/cceXVIoq.s:2991   .debug_str:0000000000000468 .LASF65
     /tmp/cceXVIoq.s:2955   .debug_str:0000000000000321 .LASF66
     /tmp/cceXVIoq.s:2873   .debug_str:00000000000000ad .LASF67
     /tmp/cceXVIoq.s:3067   .debug_str:000000000000070f .LASF68
     /tmp/cceXVIoq.s:2929   .debug_str:0000000000000264 .LASF69
     /tmp/cceXVIoq.s:2897   .debug_str:0000000000000169 .LASF70
GAS LISTING /tmp/cceXVIoq.s 			page 25


     /tmp/cceXVIoq.s:2853   .debug_str:0000000000000015 .LASF71
     /tmp/cceXVIoq.s:2891   .debug_str:0000000000000140 .LASF72
     /tmp/cceXVIoq.s:2985   .debug_str:000000000000043a .LASF73
     /tmp/cceXVIoq.s:3083   .debug_str:00000000000007c5 .LASF74
     /tmp/cceXVIoq.s:3089   .debug_str:00000000000007e7 .LASF75
     /tmp/cceXVIoq.s:3005   .debug_str:00000000000004c7 .LASF82
     /tmp/cceXVIoq.s:3071   .debug_str:0000000000000733 .LASF84
     /tmp/cceXVIoq.s:706    .text:0000000000000260 .LFB61
     /tmp/cceXVIoq.s:771    .text:000000000000029c .LFE61
     /tmp/cceXVIoq.s:2973   .debug_str:00000000000003cf .LASF76
     /tmp/cceXVIoq.s:2672   .debug_loc:0000000000000000 .LLST11
     /tmp/cceXVIoq.s:2941   .debug_str:00000000000002aa .LASF77
     /tmp/cceXVIoq.s:2867   .debug_str:0000000000000088 .LASF78
     /tmp/cceXVIoq.s:2869   .debug_str:0000000000000090 .LASF86
     /tmp/cceXVIoq.s:3075   .debug_str:000000000000076c .LASF79
     /tmp/cceXVIoq.s:2999   .debug_str:0000000000000495 .LASF80
     /tmp/cceXVIoq.s:3077   .debug_str:0000000000000776 .LASF81
     /tmp/cceXVIoq.s:655    .text:0000000000000234 .LFB60
     /tmp/cceXVIoq.s:700    .text:0000000000000260 .LFE60
     /tmp/cceXVIoq.s:2863   .debug_str:000000000000006d .LASF83
     /tmp/cceXVIoq.s:3079   .debug_str:0000000000000793 .LASF85
     /tmp/cceXVIoq.s:589    .text:00000000000001fc .LFB59
     /tmp/cceXVIoq.s:649    .text:0000000000000234 .LFE59
     /tmp/cceXVIoq.s:2686   .debug_loc:0000000000000039 .LLST10
     /tmp/cceXVIoq.s:2965   .debug_str:0000000000000388 .LASF87
     /tmp/cceXVIoq.s:3045   .debug_str:00000000000005e9 .LASF88
     /tmp/cceXVIoq.s:543    .text:00000000000001d4 .LFB58
     /tmp/cceXVIoq.s:583    .text:00000000000001fc .LFE58
     /tmp/cceXVIoq.s:3053   .debug_str:000000000000060e .LASF89
     /tmp/cceXVIoq.s:2933   .debug_str:0000000000000277 .LASF90
     /tmp/cceXVIoq.s:3081   .debug_str:00000000000007bc .LASF91
     /tmp/cceXVIoq.s:496    .text:00000000000001a8 .LFB57
     /tmp/cceXVIoq.s:537    .text:00000000000001d4 .LFE57
     /tmp/cceXVIoq.s:2903   .debug_str:00000000000001ad .LASF92
     /tmp/cceXVIoq.s:2921   .debug_str:000000000000023c .LASF93
     /tmp/cceXVIoq.s:3001   .debug_str:00000000000004a2 .LASF94
     /tmp/cceXVIoq.s:441    .text:0000000000000178 .LFB56
     /tmp/cceXVIoq.s:490    .text:00000000000001a8 .LFE56
     /tmp/cceXVIoq.s:2700   .debug_loc:0000000000000072 .LLST9
     /tmp/cceXVIoq.s:3097   .debug_str:000000000000080e .LASF95
     /tmp/cceXVIoq.s:2969   .debug_str:000000000000039f .LASF96
     /tmp/cceXVIoq.s:386    .text:0000000000000148 .LFB55
     /tmp/cceXVIoq.s:435    .text:0000000000000178 .LFE55
     /tmp/cceXVIoq.s:2714   .debug_loc:00000000000000ab .LLST8
     /tmp/cceXVIoq.s:3007   .debug_str:00000000000004d5 .LASF97
     /tmp/cceXVIoq.s:2901   .debug_str:0000000000000195 .LASF98
     /tmp/cceXVIoq.s:331    .text:0000000000000118 .LFB54
     /tmp/cceXVIoq.s:380    .text:0000000000000148 .LFE54
     /tmp/cceXVIoq.s:2728   .debug_loc:00000000000000e4 .LLST7
     /tmp/cceXVIoq.s:3017   .debug_str:0000000000000517 .LASF99
     /tmp/cceXVIoq.s:2971   .debug_str:00000000000003b6 .LASF100
     /tmp/cceXVIoq.s:271    .text:00000000000000e4 .LFB53
     /tmp/cceXVIoq.s:325    .text:0000000000000118 .LFE53
     /tmp/cceXVIoq.s:2742   .debug_loc:000000000000011d .LLST6
     /tmp/cceXVIoq.s:2865   .debug_str:0000000000000083 .LASF101
     /tmp/cceXVIoq.s:2861   .debug_str:0000000000000058 .LASF102
     /tmp/cceXVIoq.s:233    .text:00000000000000c0 .LFB52
GAS LISTING /tmp/cceXVIoq.s 			page 26


     /tmp/cceXVIoq.s:265    .text:00000000000000e4 .LFE52
     /tmp/cceXVIoq.s:3039   .debug_str:00000000000005bf .LASF104
     /tmp/cceXVIoq.s:186    .text:0000000000000094 .LFB51
     /tmp/cceXVIoq.s:227    .text:00000000000000c0 .LFE51
     /tmp/cceXVIoq.s:2756   .debug_loc:0000000000000156 .LLST5
     /tmp/cceXVIoq.s:3085   .debug_str:00000000000007ce .LASF105
     /tmp/cceXVIoq.s:2987   .debug_str:0000000000000442 .LASF106
     /tmp/cceXVIoq.s:120    .text:000000000000005c .LFB50
     /tmp/cceXVIoq.s:180    .text:0000000000000094 .LFE50
     /tmp/cceXVIoq.s:2768   .debug_loc:000000000000018d .LLST4
     /tmp/cceXVIoq.s:2927   .debug_str:000000000000025b .LASF107
     /tmp/cceXVIoq.s:3091   .debug_str:00000000000007ed .LASF108
     /tmp/cceXVIoq.s:65     .text:000000000000002c .LFB49
     /tmp/cceXVIoq.s:114    .text:000000000000005c .LFE49
     /tmp/cceXVIoq.s:2782   .debug_loc:00000000000001c6 .LLST2
     /tmp/cceXVIoq.s:2796   .debug_loc:00000000000001ff .LLST3
     /tmp/cceXVIoq.s:3065   .debug_str:0000000000000705 .LASF109
     /tmp/cceXVIoq.s:2919   .debug_str:000000000000022e .LASF110
     /tmp/cceXVIoq.s:10     .text:0000000000000000 .LFB48
     /tmp/cceXVIoq.s:59     .text:000000000000002c .LFE48
     /tmp/cceXVIoq.s:2943   .debug_str:00000000000002b8 .LASF111
     /tmp/cceXVIoq.s:2808   .debug_loc:0000000000000236 .LLST0
     /tmp/cceXVIoq.s:2995   .debug_str:000000000000047a .LASF112
     /tmp/cceXVIoq.s:2822   .debug_loc:000000000000026f .LLST1
     /tmp/cceXVIoq.s:709    .text:0000000000000260 .LVL35
     /tmp/cceXVIoq.s:763    .text:0000000000000290 .LVL38
     /tmp/cceXVIoq.s:592    .text:00000000000001fc .LVL29
     /tmp/cceXVIoq.s:641    .text:0000000000000228 .LVL32
     /tmp/cceXVIoq.s:444    .text:0000000000000178 .LVL22
     /tmp/cceXVIoq.s:478    .text:0000000000000198 .LVL24
     /tmp/cceXVIoq.s:389    .text:0000000000000148 .LVL19
     /tmp/cceXVIoq.s:423    .text:0000000000000168 .LVL21
     /tmp/cceXVIoq.s:334    .text:0000000000000118 .LVL16
     /tmp/cceXVIoq.s:368    .text:0000000000000138 .LVL18
     /tmp/cceXVIoq.s:274    .text:00000000000000e4 .LVL13
     /tmp/cceXVIoq.s:313    .text:0000000000000108 .LVL15
     /tmp/cceXVIoq.s:196    .text:00000000000000a0 .LVL10
     /tmp/cceXVIoq.s:215    .text:00000000000000b0 .LVL11
     /tmp/cceXVIoq.s:123    .text:000000000000005c .LVL6
     /tmp/cceXVIoq.s:172    .text:0000000000000088 .LVL9
     /tmp/cceXVIoq.s:68     .text:000000000000002c .LVL3
     /tmp/cceXVIoq.s:102    .text:000000000000004c .LVL5
     /tmp/cceXVIoq.s:76     .text:0000000000000038 .LVL4
     /tmp/cceXVIoq.s:14     .text:0000000000000000 .LVL0
     /tmp/cceXVIoq.s:48     .text:0000000000000020 .LVL2
     /tmp/cceXVIoq.s:22     .text:000000000000000c .LVL1
     /tmp/cceXVIoq.s:779    .debug_info:0000000000000000 .Ldebug_info0

NO UNDEFINED SYMBOLS
