GAS LISTING /tmp/ccFKFo2i.s 			page 1


   1              		.file	"tcb.cpp"
   2              		.option pic
   3              		.option norelax
   4              		.text
   5              	.Ltext0:
   6              		.align	2
   7              		.globl	_ZNK3TCB10isFinishedEv
   9              	_ZNK3TCB10isFinishedEv:
  10              	.LFB34:
  11              		.file 1 "src/tcb.cpp"
   1:src/tcb.cpp   **** //
   2:src/tcb.cpp   **** // Created by os on 8/14/22.
   3:src/tcb.cpp   **** //
   4:src/tcb.cpp   **** 
   5:src/tcb.cpp   **** #include "../h/tcb.hpp"
   6:src/tcb.cpp   **** #include "../h/RiscV.hpp"
   7:src/tcb.cpp   **** 
   8:src/tcb.cpp   **** 
   9:src/tcb.cpp   **** 
  10:src/tcb.cpp   **** bool TCB::isFinished() const {
  12              		.loc 1 10 30
  13              		.cfi_startproc
  14              	.LVL0:
  15 0000 130101FF 		addi	sp,sp,-16
  16              		.cfi_def_cfa_offset 16
  17 0004 23348100 		sd	s0,8(sp)
  18              		.cfi_offset 8, -8
  19 0008 13040101 		addi	s0,sp,16
  20              		.cfi_def_cfa 8, 0
  11:src/tcb.cpp   ****     return finished;
  21              		.loc 1 11 5
  12:src/tcb.cpp   **** }
  22              		.loc 1 12 1 is_stmt 0
  23 000c 03458502 		lbu	a0,40(a0)
  24              	.LVL1:
  25 0010 03348100 		ld	s0,8(sp)
  26              		.cfi_restore 8
  27              		.cfi_def_cfa 2, 16
  28 0014 13010101 		addi	sp,sp,16
  29              		.cfi_def_cfa_offset 0
  30 0018 67800000 		jr	ra
  31              		.cfi_endproc
  32              	.LFE34:
  34              		.align	2
  35              		.globl	_ZN3TCB11setFinishedEb
  37              	_ZN3TCB11setFinishedEb:
  38              	.LFB35:
  13:src/tcb.cpp   **** 
  14:src/tcb.cpp   **** void TCB::setFinished(bool finished) {
  39              		.loc 1 14 38 is_stmt 1
  40              		.cfi_startproc
  41              	.LVL2:
  42 001c 130101FF 		addi	sp,sp,-16
  43              		.cfi_def_cfa_offset 16
  44 0020 23348100 		sd	s0,8(sp)
  45              		.cfi_offset 8, -8
  46 0024 13040101 		addi	s0,sp,16
GAS LISTING /tmp/ccFKFo2i.s 			page 2


  47              		.cfi_def_cfa 8, 0
  15:src/tcb.cpp   ****     TCB::finished=finished;
  48              		.loc 1 15 5
  49              		.loc 1 15 18 is_stmt 0
  50 0028 2304B502 		sb	a1,40(a0)
  16:src/tcb.cpp   **** }
  51              		.loc 1 16 1
  52 002c 03348100 		ld	s0,8(sp)
  53              		.cfi_restore 8
  54              		.cfi_def_cfa 2, 16
  55 0030 13010101 		addi	sp,sp,16
  56              		.cfi_def_cfa_offset 0
  57 0034 67800000 		jr	ra
  58              		.cfi_endproc
  59              	.LFE35:
  61              		.align	2
  62              		.globl	_ZN3TCB12createThreadEPFvPvEPPS_S0_
  64              	_ZN3TCB12createThreadEPFvPvEPPS_S0_:
  65              	.LFB36:
  17:src/tcb.cpp   **** TCB* TCB::running = nullptr;
  18:src/tcb.cpp   **** 
  19:src/tcb.cpp   **** uint64 TCB::timeSliceCounter=0;
  20:src/tcb.cpp   **** 
  21:src/tcb.cpp   **** int TCB::createThread(TCB::Body body, TCB** handle , void* arguments) {
  66              		.loc 1 21 71 is_stmt 1
  67              		.cfi_startproc
  68              		.cfi_personality 0x9b,DW.ref.__gxx_personality_v0
  69              		.cfi_lsda 0x1b,.LLSDA36
  70              	.LVL3:
  71 0038 130101FD 		addi	sp,sp,-48
  72              		.cfi_def_cfa_offset 48
  73 003c 23341102 		sd	ra,40(sp)
  74 0040 23308102 		sd	s0,32(sp)
  75 0044 233C9100 		sd	s1,24(sp)
  76 0048 23382101 		sd	s2,16(sp)
  77 004c 23343101 		sd	s3,8(sp)
  78 0050 23304101 		sd	s4,0(sp)
  79              		.cfi_offset 1, -8
  80              		.cfi_offset 8, -16
  81              		.cfi_offset 9, -24
  82              		.cfi_offset 18, -32
  83              		.cfi_offset 19, -40
  84              		.cfi_offset 20, -48
  85 0054 13040103 		addi	s0,sp,48
  86              		.cfi_def_cfa 8, 0
  87 0058 93090500 		mv	s3,a0
  88 005c 138A0500 		mv	s4,a1
  89 0060 13090600 		mv	s2,a2
  22:src/tcb.cpp   ****     *handle = new TCB(body, TIME_SLICE, arguments);
  90              		.loc 1 22 5
  91              		.loc 1 22 50 is_stmt 0
  92 0064 13058003 		li	a0,56
  93              	.LVL4:
  94              	.LEHB0:
  95 0068 97000000 		call	_Znwm@plt
  95      E7800000 
  96              	.LVL5:
GAS LISTING /tmp/ccFKFo2i.s 			page 3


  97              	.LEHE0:
  98 0070 93040500 		mv	s1,a0
  99              	.LVL6:
 100              	.LBB5:
 101              	.LBB6:
 102              		.file 2 "src/../h/tcb.hpp"
   1:src/../h/tcb.hpp **** //
   2:src/../h/tcb.hpp **** // Created by os on 8/14/22.
   3:src/../h/tcb.hpp **** //
   4:src/../h/tcb.hpp **** 
   5:src/../h/tcb.hpp **** #ifndef PROJECT_BASE_TCB_HPP
   6:src/../h/tcb.hpp **** #define PROJECT_BASE_TCB_HPP
   7:src/../h/tcb.hpp **** #include "../lib/hw.h"
   8:src/../h/tcb.hpp **** #include "../h/Scheduler.hpp"
   9:src/../h/tcb.hpp **** 
  10:src/../h/tcb.hpp **** class TCB {
  11:src/../h/tcb.hpp **** 
  12:src/../h/tcb.hpp **** public:
  13:src/../h/tcb.hpp ****     ~TCB() { delete[] stack; }
  14:src/../h/tcb.hpp **** 
  15:src/../h/tcb.hpp ****     using Body = void (*)(void*); //mislim da mora da se promeni ovaj body sa nekim argumentima, i 
  16:src/../h/tcb.hpp **** 
  17:src/../h/tcb.hpp ****     static int createThread(Body body, TCB** handle, void* arguments);
  18:src/../h/tcb.hpp **** 
  19:src/../h/tcb.hpp ****     static void thread_dispatch(){dispatch();}
  20:src/../h/tcb.hpp **** 
  21:src/../h/tcb.hpp ****     static int thread_exit(){
  22:src/../h/tcb.hpp ****         running->setFinished(true);
  23:src/../h/tcb.hpp ****         dispatch();
  24:src/../h/tcb.hpp ****         //running nullptr->negativna
  25:src/../h/tcb.hpp ****         return 0;
  26:src/../h/tcb.hpp ****     };
  27:src/../h/tcb.hpp **** 
  28:src/../h/tcb.hpp ****     bool isFinished() const;
  29:src/../h/tcb.hpp **** 
  30:src/../h/tcb.hpp ****     void setFinished(bool finished);
  31:src/../h/tcb.hpp **** 
  32:src/../h/tcb.hpp ****     static void yield();
  33:src/../h/tcb.hpp **** 
  34:src/../h/tcb.hpp ****     static TCB *running;
  35:src/../h/tcb.hpp **** 
  36:src/../h/tcb.hpp ****     inline uint64 getTimeSlice() const { return timeSlice; };
  37:src/../h/tcb.hpp **** private:
  38:src/../h/tcb.hpp ****     //mislim da ti ne treba timeslice vise, jer radis sinhronu promenu
  39:src/../h/tcb.hpp ****     explicit TCB(Body body, uint64 timeSlice, void* arguments) :
  40:src/../h/tcb.hpp ****             body(body),
  41:src/../h/tcb.hpp ****             stack(body != nullptr ? new uint64[1024] : nullptr),
  42:src/../h/tcb.hpp ****             context({(uint64)&threadWrapper,
  43:src/../h/tcb.hpp ****                      stack != nullptr ? (uint64) &stack[1024] : 0
  44:src/../h/tcb.hpp ****                     }
  45:src/../h/tcb.hpp ****             ),
  46:src/../h/tcb.hpp ****             timeSlice(timeSlice),
  47:src/../h/tcb.hpp ****             finished(false), arguments(arguments) {
 103              		.loc 2 47 49
 104 0074 23303501 		sd	s3,0(a0)
  41:src/../h/tcb.hpp ****             context({(uint64)&threadWrapper,
 105              		.loc 2 41 35
GAS LISTING /tmp/ccFKFo2i.s 			page 4


 106 0078 638A0900 		beqz	s3,.L11
  41:src/../h/tcb.hpp ****             context({(uint64)&threadWrapper,
 107              		.loc 2 41 52
 108 007c 37250000 		li	a0,8192
 109              	.LEHB1:
 110 0080 97000000 		call	_Znam@plt
 110      E7800000 
 111              	.LVL7:
 112 0088 6F008000 		j	.L6
 113              	.L11:
  41:src/../h/tcb.hpp ****             context({(uint64)&threadWrapper,
 114              		.loc 2 41 35
 115 008c 13050000 		li	a0,0
 116              	.L6:
 117              		.loc 2 47 49
 118 0090 23B4A400 		sd	a0,8(s1)
 119 0094 97070000 		lla	a5,_ZN3TCB13threadWrapperEv
 119      93870700 
 120 009c 23B8F400 		sd	a5,16(s1)
  43:src/../h/tcb.hpp ****                     }
 121              		.loc 2 43 39
 122 00a0 630A0502 		beqz	a0,.L12
  43:src/../h/tcb.hpp ****                     }
 123              		.loc 2 43 50
 124 00a4 B7270000 		li	a5,8192
 125 00a8 B307F500 		add	a5,a0,a5
 126              	.L7:
 127              		.loc 2 47 49
 128 00ac 23BCF400 		sd	a5,24(s1)
 129 00b0 93072000 		li	a5,2
 130 00b4 23B0F402 		sd	a5,32(s1)
 131 00b8 23840402 		sb	zero,40(s1)
 132 00bc 23B82403 		sd	s2,48(s1)
  48:src/../h/tcb.hpp ****         if (body != nullptr) { Scheduler::put(this); }
 133              		.loc 2 48 9 is_stmt 1
 134 00c0 638E0900 		beqz	s3,.L8
 135              		.loc 2 48 32
 136              		.loc 2 48 46 is_stmt 0
 137 00c4 13850400 		mv	a0,s1
 138 00c8 97000000 		call	_ZN9Scheduler3putEP3TCB@plt
 138      E7800000 
 139              	.LVL8:
 140              	.LEHE1:
 141 00d0 6F00C000 		j	.L8
 142              	.L12:
  43:src/../h/tcb.hpp ****                     }
 143              		.loc 2 43 39
 144 00d4 93070000 		li	a5,0
 145 00d8 6FF05FFD 		j	.L7
 146              	.L8:
 147              	.LVL9:
 148              	.LBE6:
 149              	.LBE5:
 150              		.loc 1 22 13
 151 00dc 23309A00 		sd	s1,0(s4)
  23:src/tcb.cpp   ****     if(*handle==nullptr){
 152              		.loc 1 23 5 is_stmt 1
GAS LISTING /tmp/ccFKFo2i.s 			page 5


 153 00e0 63840402 		beqz	s1,.L17
  24:src/tcb.cpp   ****         return -1;
  25:src/tcb.cpp   ****     }else{return 0;}
 154              		.loc 1 25 18 is_stmt 0
 155 00e4 13050000 		li	a0,0
 156              	.L15:
  26:src/tcb.cpp   **** }
 157              		.loc 1 26 1
 158 00e8 83308102 		ld	ra,40(sp)
 159              		.cfi_remember_state
 160              		.cfi_restore 1
 161 00ec 03340102 		ld	s0,32(sp)
 162              		.cfi_restore 8
 163              		.cfi_def_cfa 2, 48
 164 00f0 83348101 		ld	s1,24(sp)
 165              		.cfi_restore 9
 166 00f4 03390101 		ld	s2,16(sp)
 167              		.cfi_restore 18
 168              	.LVL10:
 169 00f8 83398100 		ld	s3,8(sp)
 170              		.cfi_restore 19
 171              	.LVL11:
 172 00fc 033A0100 		ld	s4,0(sp)
 173              		.cfi_restore 20
 174              	.LVL12:
 175 0100 13010103 		addi	sp,sp,48
 176              		.cfi_def_cfa_offset 0
 177 0104 67800000 		jr	ra
 178              	.LVL13:
 179              	.L17:
 180              		.cfi_restore_state
  24:src/tcb.cpp   ****         return -1;
 181              		.loc 1 24 17
 182 0108 1305F0FF 		li	a0,-1
 183 010c 6FF0DFFD 		j	.L15
 184              	.LVL14:
 185              	.L14:
 186 0110 13090500 		mv	s2,a0
 187              	.LVL15:
  22:src/tcb.cpp   ****     if(*handle==nullptr){
 188              		.loc 1 22 50
 189 0114 13850400 		mv	a0,s1
 190 0118 97000000 		call	_ZdlPv@plt
 190      E7800000 
 191              	.LVL16:
 192 0120 13050900 		mv	a0,s2
 193              	.LEHB2:
 194 0124 97000000 		call	_Unwind_Resume@plt
 194      E7800000 
 195              	.LVL17:
 196              	.LEHE2:
 197              		.cfi_endproc
 198              	.LFE36:
 199              		.globl	__gxx_personality_v0
 200              		.section	.gcc_except_table,"a",@progbits
 201              	.LLSDA36:
 202 0000 FF       		.byte	0xff
GAS LISTING /tmp/ccFKFo2i.s 			page 6


 203 0001 FF       		.byte	0xff
 204 0002 03       		.byte	0x3
 205 0003 27       		.byte	0x27
 206 0004 00000000 		.4byte	.LEHB0-.LFB36
 207 0008 00000000 		.4byte	.LEHE0-.LEHB0
 208 000c 00000000 		.4byte	0
 209 0010 00       		.byte	0
 210 0011 00000000 		.4byte	.LEHB1-.LFB36
 211 0015 00000000 		.4byte	.LEHE1-.LEHB1
 212 0019 00000000 		.4byte	.L14-.LFB36
 213 001d 00       		.byte	0
 214 001e 00000000 		.4byte	.LEHB2-.LFB36
 215 0022 00000000 		.4byte	.LEHE2-.LEHB2
 216 0026 00000000 		.4byte	0
 217 002a 00       		.byte	0
 218              		.text
 220              		.align	2
 221              		.globl	_ZN3TCB5yieldEv
 223              	_ZN3TCB5yieldEv:
 224              	.LFB37:
  27:src/tcb.cpp   **** 
  28:src/tcb.cpp   **** void TCB::yield(){
 225              		.loc 1 28 18 is_stmt 1
 226              		.cfi_startproc
 227 012c 130101FF 		addi	sp,sp,-16
 228              		.cfi_def_cfa_offset 16
 229 0130 23348100 		sd	s0,8(sp)
 230              		.cfi_offset 8, -8
 231 0134 13040101 		addi	s0,sp,16
 232              		.cfi_def_cfa 8, 0
  29:src/tcb.cpp   **** 
  30:src/tcb.cpp   ****     __asm__ volatile ("ecall");
 233              		.loc 1 30 5
 234              		.loc 1 30 31 is_stmt 0
 235              	#APP
 236              	# 30 "src/tcb.cpp" 1
  31              	
  32:src/tcb.cpp   **** };
 237              		ecall
 238              	# 0 "" 2
 239              		.loc 1 32 1
 240              	#NO_APP
 241 013c 03348100 		ld	s0,8(sp)
 242              		.cfi_restore 8
 243              		.cfi_def_cfa 2, 16
 244 0140 13010101 		addi	sp,sp,16
 245              		.cfi_def_cfa_offset 0
 246 0144 67800000 		jr	ra
 247              		.cfi_endproc
 248              	.LFE37:
 250              		.align	2
 251              		.globl	_ZN3TCB13threadWrapperEv
 253              	_ZN3TCB13threadWrapperEv:
 254              	.LFB39:
  33:src/tcb.cpp   **** 
  34:src/tcb.cpp   **** void TCB::dispatch() {
  35:src/tcb.cpp   ****     TCB *old = running;
GAS LISTING /tmp/ccFKFo2i.s 			page 7


  36:src/tcb.cpp   ****     if (!old->isFinished()) {
  37:src/tcb.cpp   ****         Scheduler::put(old);
  38:src/tcb.cpp   ****     }
  39:src/tcb.cpp   ****     running = Scheduler::get();
  40:src/tcb.cpp   **** 
  41:src/tcb.cpp   ****     TCB::contextSwitch(&old->context, &running->context);
  42:src/tcb.cpp   **** }
  43:src/tcb.cpp   **** 
  44:src/tcb.cpp   **** void TCB::threadWrapper() {
 255              		.loc 1 44 27 is_stmt 1
 256              		.cfi_startproc
 257 0148 130101FE 		addi	sp,sp,-32
 258              		.cfi_def_cfa_offset 32
 259 014c 233C1100 		sd	ra,24(sp)
 260 0150 23388100 		sd	s0,16(sp)
 261 0154 23349100 		sd	s1,8(sp)
 262              		.cfi_offset 1, -8
 263              		.cfi_offset 8, -16
 264              		.cfi_offset 9, -24
 265 0158 13040102 		addi	s0,sp,32
 266              		.cfi_def_cfa 8, 0
  45:src/tcb.cpp   ****     RiscV::popSppSpie();
 267              		.loc 1 45 5
 268              		.loc 1 45 22 is_stmt 0
 269 015c 97000000 		call	_ZN5RiscV10popSppSpieEv@plt
 269      E7800000 
 270              	.LVL18:
  46:src/tcb.cpp   ****     running->body(running->arguments);
 271              		.loc 1 46 5 is_stmt 1
 272              		.loc 1 46 14 is_stmt 0
 273 0164 97040000 		lla	s1,.LANCHOR0
 273      93840400 
 274 016c 83B70400 		ld	a5,0(s1)
 275 0170 03B70700 		ld	a4,0(a5)
 276              		.loc 1 46 18
 277 0174 03B50703 		ld	a0,48(a5)
 278 0178 E7000700 		jalr	a4
 279              	.LVL19:
  47:src/tcb.cpp   ****     running->setFinished(true);
 280              		.loc 1 47 5 is_stmt 1
 281              		.loc 1 47 25 is_stmt 0
 282 017c 93051000 		li	a1,1
 283 0180 03B50400 		ld	a0,0(s1)
 284 0184 97000000 		call	_ZN3TCB11setFinishedEb
 284      E7800000 
 285              	.LVL20:
  48:src/tcb.cpp   ****     TCB::yield();
 286              		.loc 1 48 5 is_stmt 1
 287              		.loc 1 48 15 is_stmt 0
 288 018c 97000000 		call	_ZN3TCB5yieldEv
 288      E7800000 
 289              	.LVL21:
  49:src/tcb.cpp   **** }
 290              		.loc 1 49 1
 291 0194 83308101 		ld	ra,24(sp)
 292              		.cfi_restore 1
 293 0198 03340101 		ld	s0,16(sp)
GAS LISTING /tmp/ccFKFo2i.s 			page 8


 294              		.cfi_restore 8
 295              		.cfi_def_cfa 2, 32
 296 019c 83348100 		ld	s1,8(sp)
 297              		.cfi_restore 9
 298 01a0 13010102 		addi	sp,sp,32
 299              		.cfi_def_cfa_offset 0
 300 01a4 67800000 		jr	ra
 301              		.cfi_endproc
 302              	.LFE39:
 304              		.align	2
 305              		.globl	_ZN3TCB8dispatchEv
 307              	_ZN3TCB8dispatchEv:
 308              	.LFB38:
  34:src/tcb.cpp   ****     TCB *old = running;
 309              		.loc 1 34 22 is_stmt 1
 310              		.cfi_startproc
 311 01a8 130101FE 		addi	sp,sp,-32
 312              		.cfi_def_cfa_offset 32
 313 01ac 233C1100 		sd	ra,24(sp)
 314 01b0 23388100 		sd	s0,16(sp)
 315 01b4 23349100 		sd	s1,8(sp)
 316              		.cfi_offset 1, -8
 317              		.cfi_offset 8, -16
 318              		.cfi_offset 9, -24
 319 01b8 13040102 		addi	s0,sp,32
 320              		.cfi_def_cfa 8, 0
  35:src/tcb.cpp   ****     if (!old->isFinished()) {
 321              		.loc 1 35 5
  35:src/tcb.cpp   ****     if (!old->isFinished()) {
 322              		.loc 1 35 10 is_stmt 0
 323 01bc 97040000 		ld	s1,.LANCHOR0
 323      83B40400 
 324              	.LVL22:
  36:src/tcb.cpp   ****         Scheduler::put(old);
 325              		.loc 1 36 5 is_stmt 1
  36:src/tcb.cpp   ****         Scheduler::put(old);
 326              		.loc 1 36 25 is_stmt 0
 327 01c4 13850400 		mv	a0,s1
 328 01c8 97000000 		call	_ZNK3TCB10isFinishedEv
 328      E7800000 
 329              	.LVL23:
  36:src/tcb.cpp   ****         Scheduler::put(old);
 330              		.loc 1 36 5
 331 01d0 630C0502 		beqz	a0,.L25
 332              	.L23:
  39:src/tcb.cpp   **** 
 333              		.loc 1 39 5 is_stmt 1
  39:src/tcb.cpp   **** 
 334              		.loc 1 39 29 is_stmt 0
 335 01d4 97000000 		call	_ZN9Scheduler3getEv@plt
 335      E7800000 
 336              	.LVL24:
  39:src/tcb.cpp   **** 
 337              		.loc 1 39 13
 338 01dc 97070000 		sd	a0,.LANCHOR0,a5
 338      23B0A700 
  41:src/tcb.cpp   **** }
GAS LISTING /tmp/ccFKFo2i.s 			page 9


 339              		.loc 1 41 5 is_stmt 1
  41:src/tcb.cpp   **** }
 340              		.loc 1 41 23 is_stmt 0
 341 01e4 93050501 		addi	a1,a0,16
 342 01e8 13850401 		addi	a0,s1,16
 343 01ec 97000000 		call	_ZN3TCB13contextSwitchEPNS_7ContextES1_@plt
 343      E7800000 
 344              	.LVL25:
  42:src/tcb.cpp   **** 
 345              		.loc 1 42 1
 346 01f4 83308101 		ld	ra,24(sp)
 347              		.cfi_remember_state
 348              		.cfi_restore 1
 349 01f8 03340101 		ld	s0,16(sp)
 350              		.cfi_restore 8
 351              		.cfi_def_cfa 2, 32
 352 01fc 83348100 		ld	s1,8(sp)
 353              		.cfi_restore 9
 354              	.LVL26:
 355 0200 13010102 		addi	sp,sp,32
 356              		.cfi_def_cfa_offset 0
 357 0204 67800000 		jr	ra
 358              	.LVL27:
 359              	.L25:
 360              		.cfi_restore_state
  37:src/tcb.cpp   ****     }
 361              		.loc 1 37 9 is_stmt 1
  37:src/tcb.cpp   ****     }
 362              		.loc 1 37 23 is_stmt 0
 363 0208 13850400 		mv	a0,s1
 364 020c 97000000 		call	_ZN9Scheduler3putEP3TCB@plt
 364      E7800000 
 365              	.LVL28:
 366 0214 6FF01FFC 		j	.L23
 367              		.cfi_endproc
 368              	.LFE38:
 370              		.globl	_ZN3TCB16timeSliceCounterE
 371              		.globl	_ZN3TCB7runningE
 372              		.bss
 373              		.align	3
 374              		.set	.LANCHOR0,. + 0
 377              	_ZN3TCB7runningE:
 378 0000 00000000 		.zero	8
 378      00000000 
 381              	_ZN3TCB16timeSliceCounterE:
 382 0008 00000000 		.zero	8
 382      00000000 
 383              		.text
 384              	.Letext0:
 385              		.file 3 "src/../h/../lib/hw.h"
 386              		.file 4 "src/../h/../h/Scheduler.hpp"
 387              		.file 5 "src/../h/RiscV.hpp"
 2640              		.align	3
 2643              	DW.ref.__gxx_personality_v0:
 2644 0000 00000000 		.dword	__gxx_personality_v0
 2644      00000000 
 2645              		.ident	"GCC: (Ubuntu 9.4.0-1ubuntu1~20.04) 9.4.0"
GAS LISTING /tmp/ccFKFo2i.s 			page 10


 2646              		.section	.note.GNU-stack,"",@progbits
GAS LISTING /tmp/ccFKFo2i.s 			page 11


DEFINED SYMBOLS
                            *ABS*:0000000000000000 tcb.cpp
     /tmp/ccFKFo2i.s:9      .text:0000000000000000 _ZNK3TCB10isFinishedEv
     /tmp/ccFKFo2i.s:13     .text:0000000000000000 .L0 
     /tmp/ccFKFo2i.s:15     .text:0000000000000000 .L0 
     /tmp/ccFKFo2i.s:16     .text:0000000000000004 .L0 
     /tmp/ccFKFo2i.s:18     .text:0000000000000008 .L0 
     /tmp/ccFKFo2i.s:20     .text:000000000000000c .L0 
     /tmp/ccFKFo2i.s:22     .text:000000000000000c .L0 
     /tmp/ccFKFo2i.s:23     .text:000000000000000c .L0 
     /tmp/ccFKFo2i.s:26     .text:0000000000000014 .L0 
     /tmp/ccFKFo2i.s:27     .text:0000000000000014 .L0 
     /tmp/ccFKFo2i.s:29     .text:0000000000000018 .L0 
     /tmp/ccFKFo2i.s:31     .text:000000000000001c .L0 
     /tmp/ccFKFo2i.s:37     .text:000000000000001c _ZN3TCB11setFinishedEb
     /tmp/ccFKFo2i.s:40     .text:000000000000001c .L0 
     /tmp/ccFKFo2i.s:42     .text:000000000000001c .L0 
     /tmp/ccFKFo2i.s:43     .text:0000000000000020 .L0 
     /tmp/ccFKFo2i.s:45     .text:0000000000000024 .L0 
     /tmp/ccFKFo2i.s:47     .text:0000000000000028 .L0 
     /tmp/ccFKFo2i.s:49     .text:0000000000000028 .L0 
     /tmp/ccFKFo2i.s:50     .text:0000000000000028 .L0 
     /tmp/ccFKFo2i.s:52     .text:000000000000002c .L0 
     /tmp/ccFKFo2i.s:53     .text:0000000000000030 .L0 
     /tmp/ccFKFo2i.s:54     .text:0000000000000030 .L0 
     /tmp/ccFKFo2i.s:56     .text:0000000000000034 .L0 
     /tmp/ccFKFo2i.s:58     .text:0000000000000038 .L0 
     /tmp/ccFKFo2i.s:64     .text:0000000000000038 _ZN3TCB12createThreadEPFvPvEPPS_S0_
     /tmp/ccFKFo2i.s:67     .text:0000000000000038 .L0 
     /tmp/ccFKFo2i.s:2643   .data.rel.local.DW.ref.__gxx_personality_v0:0000000000000000 DW.ref.__gxx_personality_v0
     /tmp/ccFKFo2i.s:71     .text:0000000000000038 .L0 
     /tmp/ccFKFo2i.s:72     .text:000000000000003c .L0 
     /tmp/ccFKFo2i.s:79     .text:0000000000000054 .L0 
     /tmp/ccFKFo2i.s:80     .text:0000000000000054 .L0 
     /tmp/ccFKFo2i.s:81     .text:0000000000000054 .L0 
     /tmp/ccFKFo2i.s:82     .text:0000000000000054 .L0 
     /tmp/ccFKFo2i.s:83     .text:0000000000000054 .L0 
     /tmp/ccFKFo2i.s:84     .text:0000000000000054 .L0 
     /tmp/ccFKFo2i.s:86     .text:0000000000000058 .L0 
     /tmp/ccFKFo2i.s:91     .text:0000000000000064 .L0 
     /tmp/ccFKFo2i.s:92     .text:0000000000000064 .L0 
     /tmp/ccFKFo2i.s:104    .text:0000000000000074 .L0 
     /tmp/ccFKFo2i.s:106    .text:0000000000000078 .L0 
     /tmp/ccFKFo2i.s:108    .text:000000000000007c .L0 
     /tmp/ccFKFo2i.s:115    .text:000000000000008c .L0 
     /tmp/ccFKFo2i.s:118    .text:0000000000000090 .L0 
     /tmp/ccFKFo2i.s:253    .text:0000000000000148 _ZN3TCB13threadWrapperEv
     /tmp/ccFKFo2i.s:122    .text:00000000000000a0 .L0 
     /tmp/ccFKFo2i.s:124    .text:00000000000000a4 .L0 
     /tmp/ccFKFo2i.s:128    .text:00000000000000ac .L0 
     /tmp/ccFKFo2i.s:134    .text:00000000000000c0 .L0 
     /tmp/ccFKFo2i.s:136    .text:00000000000000c4 .L0 
     /tmp/ccFKFo2i.s:137    .text:00000000000000c4 .L0 
     /tmp/ccFKFo2i.s:144    .text:00000000000000d4 .L0 
     /tmp/ccFKFo2i.s:151    .text:00000000000000dc .L0 
     /tmp/ccFKFo2i.s:153    .text:00000000000000e0 .L0 
     /tmp/ccFKFo2i.s:155    .text:00000000000000e4 .L0 
GAS LISTING /tmp/ccFKFo2i.s 			page 12


     /tmp/ccFKFo2i.s:158    .text:00000000000000e8 .L0 
     /tmp/ccFKFo2i.s:159    .text:00000000000000ec .L0 
     /tmp/ccFKFo2i.s:160    .text:00000000000000ec .L0 
     /tmp/ccFKFo2i.s:162    .text:00000000000000f0 .L0 
     /tmp/ccFKFo2i.s:163    .text:00000000000000f0 .L0 
     /tmp/ccFKFo2i.s:165    .text:00000000000000f4 .L0 
     /tmp/ccFKFo2i.s:167    .text:00000000000000f8 .L0 
     /tmp/ccFKFo2i.s:170    .text:00000000000000fc .L0 
     /tmp/ccFKFo2i.s:173    .text:0000000000000100 .L0 
     /tmp/ccFKFo2i.s:176    .text:0000000000000104 .L0 
     /tmp/ccFKFo2i.s:180    .text:0000000000000108 .L0 
     /tmp/ccFKFo2i.s:182    .text:0000000000000108 .L0 
     /tmp/ccFKFo2i.s:189    .text:0000000000000114 .L0 
     /tmp/ccFKFo2i.s:197    .text:000000000000012c .L0 
     /tmp/ccFKFo2i.s:223    .text:000000000000012c _ZN3TCB5yieldEv
     /tmp/ccFKFo2i.s:226    .text:000000000000012c .L0 
     /tmp/ccFKFo2i.s:227    .text:000000000000012c .L0 
     /tmp/ccFKFo2i.s:228    .text:0000000000000130 .L0 
     /tmp/ccFKFo2i.s:230    .text:0000000000000134 .L0 
     /tmp/ccFKFo2i.s:232    .text:0000000000000138 .L0 
     /tmp/ccFKFo2i.s:234    .text:0000000000000138 .L0 
         src/tcb.cpp:30     .text:0000000000000138 .L0 
     /tmp/ccFKFo2i.s:241    .text:000000000000013c .L0 
     /tmp/ccFKFo2i.s:242    .text:0000000000000140 .L0 
     /tmp/ccFKFo2i.s:243    .text:0000000000000140 .L0 
     /tmp/ccFKFo2i.s:245    .text:0000000000000144 .L0 
     /tmp/ccFKFo2i.s:247    .text:0000000000000148 .L0 
     /tmp/ccFKFo2i.s:256    .text:0000000000000148 .L0 
     /tmp/ccFKFo2i.s:257    .text:0000000000000148 .L0 
     /tmp/ccFKFo2i.s:258    .text:000000000000014c .L0 
     /tmp/ccFKFo2i.s:262    .text:0000000000000158 .L0 
     /tmp/ccFKFo2i.s:263    .text:0000000000000158 .L0 
     /tmp/ccFKFo2i.s:264    .text:0000000000000158 .L0 
     /tmp/ccFKFo2i.s:266    .text:000000000000015c .L0 
     /tmp/ccFKFo2i.s:268    .text:000000000000015c .L0 
     /tmp/ccFKFo2i.s:269    .text:000000000000015c .L0 
     /tmp/ccFKFo2i.s:272    .text:0000000000000164 .L0 
     /tmp/ccFKFo2i.s:273    .text:0000000000000164 .L0 
     /tmp/ccFKFo2i.s:277    .text:0000000000000174 .L0 
     /tmp/ccFKFo2i.s:281    .text:000000000000017c .L0 
     /tmp/ccFKFo2i.s:282    .text:000000000000017c .L0 
     /tmp/ccFKFo2i.s:287    .text:000000000000018c .L0 
     /tmp/ccFKFo2i.s:288    .text:000000000000018c .L0 
     /tmp/ccFKFo2i.s:291    .text:0000000000000194 .L0 
     /tmp/ccFKFo2i.s:292    .text:0000000000000198 .L0 
     /tmp/ccFKFo2i.s:294    .text:000000000000019c .L0 
     /tmp/ccFKFo2i.s:295    .text:000000000000019c .L0 
     /tmp/ccFKFo2i.s:297    .text:00000000000001a0 .L0 
     /tmp/ccFKFo2i.s:299    .text:00000000000001a4 .L0 
     /tmp/ccFKFo2i.s:301    .text:00000000000001a8 .L0 
     /tmp/ccFKFo2i.s:307    .text:00000000000001a8 _ZN3TCB8dispatchEv
     /tmp/ccFKFo2i.s:310    .text:00000000000001a8 .L0 
     /tmp/ccFKFo2i.s:311    .text:00000000000001a8 .L0 
     /tmp/ccFKFo2i.s:312    .text:00000000000001ac .L0 
     /tmp/ccFKFo2i.s:316    .text:00000000000001b8 .L0 
     /tmp/ccFKFo2i.s:317    .text:00000000000001b8 .L0 
     /tmp/ccFKFo2i.s:318    .text:00000000000001b8 .L0 
GAS LISTING /tmp/ccFKFo2i.s 			page 13


     /tmp/ccFKFo2i.s:320    .text:00000000000001bc .L0 
     /tmp/ccFKFo2i.s:322    .text:00000000000001bc .L0 
     /tmp/ccFKFo2i.s:323    .text:00000000000001bc .L0 
     /tmp/ccFKFo2i.s:326    .text:00000000000001c4 .L0 
     /tmp/ccFKFo2i.s:327    .text:00000000000001c4 .L0 
     /tmp/ccFKFo2i.s:331    .text:00000000000001d0 .L0 
     /tmp/ccFKFo2i.s:334    .text:00000000000001d4 .L0 
     /tmp/ccFKFo2i.s:335    .text:00000000000001d4 .L0 
     /tmp/ccFKFo2i.s:338    .text:00000000000001dc .L0 
     /tmp/ccFKFo2i.s:340    .text:00000000000001e4 .L0 
     /tmp/ccFKFo2i.s:341    .text:00000000000001e4 .L0 
     /tmp/ccFKFo2i.s:346    .text:00000000000001f4 .L0 
     /tmp/ccFKFo2i.s:347    .text:00000000000001f8 .L0 
     /tmp/ccFKFo2i.s:348    .text:00000000000001f8 .L0 
     /tmp/ccFKFo2i.s:350    .text:00000000000001fc .L0 
     /tmp/ccFKFo2i.s:351    .text:00000000000001fc .L0 
     /tmp/ccFKFo2i.s:353    .text:0000000000000200 .L0 
     /tmp/ccFKFo2i.s:356    .text:0000000000000204 .L0 
     /tmp/ccFKFo2i.s:360    .text:0000000000000208 .L0 
     /tmp/ccFKFo2i.s:362    .text:0000000000000208 .L0 
     /tmp/ccFKFo2i.s:363    .text:0000000000000208 .L0 
     /tmp/ccFKFo2i.s:367    .text:0000000000000218 .L0 
     /tmp/ccFKFo2i.s:381    .bss:0000000000000008 _ZN3TCB16timeSliceCounterE
     /tmp/ccFKFo2i.s:377    .bss:0000000000000000 _ZN3TCB7runningE
     /tmp/ccFKFo2i.s:374    .bss:0000000000000000 .LANCHOR0
     /tmp/ccFKFo2i.s:388    .text:0000000000000218 .L0 
     /tmp/ccFKFo2i.s:119    .text:0000000000000094 .L0 
     /tmp/ccFKFo2i.s:273    .text:0000000000000164 .L0 
     /tmp/ccFKFo2i.s:323    .text:00000000000001bc .L0 
     /tmp/ccFKFo2i.s:338    .text:00000000000001dc .L0 
     /tmp/ccFKFo2i.s:113    .text:000000000000008c .L11
     /tmp/ccFKFo2i.s:116    .text:0000000000000090 .L6
     /tmp/ccFKFo2i.s:142    .text:00000000000000d4 .L12
     /tmp/ccFKFo2i.s:146    .text:00000000000000dc .L8
     /tmp/ccFKFo2i.s:126    .text:00000000000000ac .L7
     /tmp/ccFKFo2i.s:179    .text:0000000000000108 .L17
     /tmp/ccFKFo2i.s:156    .text:00000000000000e8 .L15
     /tmp/ccFKFo2i.s:359    .text:0000000000000208 .L25
     /tmp/ccFKFo2i.s:332    .text:00000000000001d4 .L23
     /tmp/ccFKFo2i.s:94     .text:0000000000000068 .LEHB0
     /tmp/ccFKFo2i.s:65     .text:0000000000000038 .LFB36
     /tmp/ccFKFo2i.s:97     .text:0000000000000070 .LEHE0
     /tmp/ccFKFo2i.s:109    .text:0000000000000080 .LEHB1
     /tmp/ccFKFo2i.s:140    .text:00000000000000d0 .LEHE1
     /tmp/ccFKFo2i.s:185    .text:0000000000000110 .L14
     /tmp/ccFKFo2i.s:193    .text:0000000000000124 .LEHB2
     /tmp/ccFKFo2i.s:196    .text:000000000000012c .LEHE2
     /tmp/ccFKFo2i.s:1324   .debug_abbrev:0000000000000000 .Ldebug_abbrev0
     /tmp/ccFKFo2i.s:2597   .debug_str:0000000000000593 .LASF103
     /tmp/ccFKFo2i.s:2519   .debug_str:0000000000000380 .LASF104
     /tmp/ccFKFo2i.s:2473   .debug_str:00000000000001f6 .LASF105
     /tmp/ccFKFo2i.s:5      .text:0000000000000000 .Ltext0
     /tmp/ccFKFo2i.s:384    .text:0000000000000218 .Letext0
     /tmp/ccFKFo2i.s:2403   .debug_line:0000000000000000 .Ldebug_line0
     /tmp/ccFKFo2i.s:2537   .debug_str:0000000000000410 .LASF0
     /tmp/ccFKFo2i.s:2549   .debug_str:000000000000045a .LASF1
     /tmp/ccFKFo2i.s:2525   .debug_str:00000000000003ae .LASF2
GAS LISTING /tmp/ccFKFo2i.s 			page 14


     /tmp/ccFKFo2i.s:2497   .debug_str:00000000000002e4 .LASF4
     /tmp/ccFKFo2i.s:2579   .debug_str:000000000000052a .LASF3
     /tmp/ccFKFo2i.s:2431   .debug_str:00000000000000c4 .LASF5
     /tmp/ccFKFo2i.s:2551   .debug_str:000000000000046d .LASF6
     /tmp/ccFKFo2i.s:2535   .debug_str:00000000000003fd .LASF7
     /tmp/ccFKFo2i.s:2609   .debug_str:00000000000006ca .LASF8
     /tmp/ccFKFo2i.s:2485   .debug_str:0000000000000262 .LASF9
     /tmp/ccFKFo2i.s:2559   .debug_str:00000000000004a7 .LASF10
     /tmp/ccFKFo2i.s:2601   .debug_str:000000000000066f .LASF11
     /tmp/ccFKFo2i.s:2435   .debug_str:00000000000000da .LASF12
     /tmp/ccFKFo2i.s:2409   .debug_str:000000000000001e .LASF13
     /tmp/ccFKFo2i.s:2445   .debug_str:0000000000000123 .LASF14
     /tmp/ccFKFo2i.s:2571   .debug_str:00000000000004ee .LASF15
     /tmp/ccFKFo2i.s:2453   .debug_str:000000000000016e .LASF16
     /tmp/ccFKFo2i.s:2555   .debug_str:000000000000048b .LASF17
     /tmp/ccFKFo2i.s:2615   .debug_str:000000000000070a .LASF44
     /tmp/ccFKFo2i.s:2493   .debug_str:00000000000002a8 .LASF106
     /tmp/ccFKFo2i.s:2441   .debug_str:0000000000000101 .LASF107
     /tmp/ccFKFo2i.s:2581   .debug_str:000000000000053c .LASF108
     /tmp/ccFKFo2i.s:2415   .debug_str:0000000000000053 .LASF109
     /tmp/ccFKFo2i.s:2457   .debug_str:0000000000000198 .LASF18
     /tmp/ccFKFo2i.s:2565   .debug_str:00000000000004d2 .LASF20
     /tmp/ccFKFo2i.s:2509   .debug_str:0000000000000321 .LASF19
     /tmp/ccFKFo2i.s:2513   .debug_str:000000000000033c .LASF21
     /tmp/ccFKFo2i.s:2567   .debug_str:00000000000004de .LASF110
     /tmp/ccFKFo2i.s:2447   .debug_str:000000000000012f .LASF25
     /tmp/ccFKFo2i.s:2521   .debug_str:000000000000038c .LASF27
     /tmp/ccFKFo2i.s:2417   .debug_str:000000000000005b .LASF22
     /tmp/ccFKFo2i.s:2451   .debug_str:0000000000000157 .LASF55
     /tmp/ccFKFo2i.s:2553   .debug_str:0000000000000480 .LASF29
     /tmp/ccFKFo2i.s:2483   .debug_str:000000000000024b .LASF31
     /tmp/ccFKFo2i.s:2527   .debug_str:00000000000003bc .LASF23
     /tmp/ccFKFo2i.s:2633   .debug_str:0000000000000786 .LASF24
     /tmp/ccFKFo2i.s:2573   .debug_str:0000000000000504 .LASF26
     /tmp/ccFKFo2i.s:2533   .debug_str:00000000000003ed .LASF28
     /tmp/ccFKFo2i.s:2465   .debug_str:00000000000001ce .LASF111
     /tmp/ccFKFo2i.s:2517   .debug_str:0000000000000373 .LASF30
     /tmp/ccFKFo2i.s:2427   .debug_str:0000000000000095 .LASF32
     /tmp/ccFKFo2i.s:2611   .debug_str:00000000000006da .LASF112
     /tmp/ccFKFo2i.s:2503   .debug_str:0000000000000309 .LASF33
     /tmp/ccFKFo2i.s:2541   .debug_str:0000000000000426 .LASF34
     /tmp/ccFKFo2i.s:2507   .debug_str:0000000000000319 .LASF35
     /tmp/ccFKFo2i.s:2547   .debug_str:0000000000000450 .LASF36
     /tmp/ccFKFo2i.s:2501   .debug_str:0000000000000300 .LASF37
     /tmp/ccFKFo2i.s:2625   .debug_str:0000000000000751 .LASF38
     /tmp/ccFKFo2i.s:2511   .debug_str:000000000000032e .LASF40
     /tmp/ccFKFo2i.s:2487   .debug_str:0000000000000270 .LASF42
     /tmp/ccFKFo2i.s:2619   .debug_str:0000000000000731 .LASF39
     /tmp/ccFKFo2i.s:2495   .debug_str:00000000000002bc .LASF113
     /tmp/ccFKFo2i.s:2539   .debug_str:000000000000041d .LASF41
     /tmp/ccFKFo2i.s:2469   .debug_str:00000000000001de .LASF43
     /tmp/ccFKFo2i.s:2439   .debug_str:00000000000000f0 .LASF45
     /tmp/ccFKFo2i.s:2489   .debug_str:0000000000000289 .LASF114
     /tmp/ccFKFo2i.s:2471   .debug_str:00000000000001f1 .LASF46
     /tmp/ccFKFo2i.s:2437   .debug_str:00000000000000ea .LASF47
     /tmp/ccFKFo2i.s:2569   .debug_str:00000000000004e3 .LASF48
     /tmp/ccFKFo2i.s:2627   .debug_str:000000000000075b .LASF49
GAS LISTING /tmp/ccFKFo2i.s 			page 15


     /tmp/ccFKFo2i.s:2425   .debug_str:0000000000000087 .LASF50
     /tmp/ccFKFo2i.s:2613   .debug_str:00000000000006ef .LASF51
     /tmp/ccFKFo2i.s:2593   .debug_str:000000000000057f .LASF52
     /tmp/ccFKFo2i.s:2575   .debug_str:000000000000050a .LASF53
     /tmp/ccFKFo2i.s:2411   .debug_str:000000000000002e .LASF54
     /tmp/ccFKFo2i.s:2479   .debug_str:0000000000000230 .LASF56
     /tmp/ccFKFo2i.s:2459   .debug_str:000000000000019d .LASF59
     /tmp/ccFKFo2i.s:2561   .debug_str:00000000000004b6 .LASF61
     /tmp/ccFKFo2i.s:2583   .debug_str:000000000000054c .LASF57
     /tmp/ccFKFo2i.s:2463   .debug_str:00000000000001bb .LASF58
     /tmp/ccFKFo2i.s:2591   .debug_str:0000000000000578 .LASF60
     /tmp/ccFKFo2i.s:2515   .debug_str:0000000000000360 .LASF62
     /tmp/ccFKFo2i.s:2477   .debug_str:0000000000000228 .LASF63
     /tmp/ccFKFo2i.s:2475   .debug_str:0000000000000214 .LASF64
     /tmp/ccFKFo2i.s:2407   .debug_str:0000000000000016 .LASF65
     /tmp/ccFKFo2i.s:2545   .debug_str:000000000000043c .LASF66
     /tmp/ccFKFo2i.s:2467   .debug_str:00000000000001d6 .LASF67
     /tmp/ccFKFo2i.s:2455   .debug_str:0000000000000184 .LASF68
     /tmp/ccFKFo2i.s:2631   .debug_str:000000000000077e .LASF69
     /tmp/ccFKFo2i.s:2491   .debug_str:0000000000000294 .LASF70
     /tmp/ccFKFo2i.s:2563   .debug_str:00000000000004cb .LASF71
     /tmp/ccFKFo2i.s:2423   .debug_str:0000000000000074 .LASF72
     /tmp/ccFKFo2i.s:2421   .debug_str:000000000000006d .LASF73
     /tmp/ccFKFo2i.s:2617   .debug_str:000000000000071e .LASF74
     /tmp/ccFKFo2i.s:2481   .debug_str:0000000000000245 .LASF75
     /tmp/ccFKFo2i.s:2557   .debug_str:0000000000000495 .LASF76
     /tmp/ccFKFo2i.s:2419   .debug_str:0000000000000067 .LASF77
     /tmp/ccFKFo2i.s:2605   .debug_str:0000000000000696 .LASF78
     /tmp/ccFKFo2i.s:2629   .debug_str:0000000000000773 .LASF79
     /tmp/ccFKFo2i.s:2599   .debug_str:0000000000000657 .LASF80
     /tmp/ccFKFo2i.s:2505   .debug_str:000000000000030e .LASF81
     /tmp/ccFKFo2i.s:2603   .debug_str:000000000000067e .LASF82
     /tmp/ccFKFo2i.s:2443   .debug_str:0000000000000119 .LASF83
     /tmp/ccFKFo2i.s:2405   .debug_str:0000000000000000 .LASF84
     /tmp/ccFKFo2i.s:2531   .debug_str:00000000000003e3 .LASF85
     /tmp/ccFKFo2i.s:2429   .debug_str:00000000000000ae .LASF86
     /tmp/ccFKFo2i.s:2585   .debug_str:0000000000000553 .LASF87
     /tmp/ccFKFo2i.s:2413   .debug_str:0000000000000037 .LASF88
     /tmp/ccFKFo2i.s:2499   .debug_str:00000000000002eb .LASF89
     /tmp/ccFKFo2i.s:2607   .debug_str:00000000000006a8 .LASF90
     /tmp/ccFKFo2i.s:2635   .debug_str:000000000000079d .LASF91
     /tmp/ccFKFo2i.s:2529   .debug_str:00000000000003c8 .LASF92
     /tmp/ccFKFo2i.s:254    .text:0000000000000148 .LFB39
     /tmp/ccFKFo2i.s:302    .text:00000000000001a8 .LFE39
     /tmp/ccFKFo2i.s:270    .text:0000000000000164 .LVL18
     /tmp/ccFKFo2i.s:285    .text:000000000000018c .LVL20
     /tmp/ccFKFo2i.s:289    .text:0000000000000194 .LVL21
     /tmp/ccFKFo2i.s:308    .text:00000000000001a8 .LFB38
     /tmp/ccFKFo2i.s:368    .text:0000000000000218 .LFE38
     /tmp/ccFKFo2i.s:2239   .debug_loc:0000000000000000 .LLST8
     /tmp/ccFKFo2i.s:329    .text:00000000000001d0 .LVL23
     /tmp/ccFKFo2i.s:336    .text:00000000000001dc .LVL24
     /tmp/ccFKFo2i.s:344    .text:00000000000001f4 .LVL25
     /tmp/ccFKFo2i.s:365    .text:0000000000000214 .LVL28
     /tmp/ccFKFo2i.s:224    .text:000000000000012c .LFB37
     /tmp/ccFKFo2i.s:248    .text:0000000000000148 .LFE37
     /tmp/ccFKFo2i.s:198    .text:000000000000012c .LFE36
GAS LISTING /tmp/ccFKFo2i.s 			page 16


     /tmp/ccFKFo2i.s:2250   .debug_loc:0000000000000036 .LLST1
     /tmp/ccFKFo2i.s:2595   .debug_str:000000000000058c .LASF93
     /tmp/ccFKFo2i.s:2272   .debug_loc:0000000000000095 .LLST2
     /tmp/ccFKFo2i.s:2294   .debug_loc:00000000000000f4 .LLST3
     /tmp/ccFKFo2i.s:100    .text:0000000000000074 .LBB5
     /tmp/ccFKFo2i.s:149    .text:00000000000000dc .LBE5
     /tmp/ccFKFo2i.s:2323   .debug_loc:0000000000000169 .LLST4
     /tmp/ccFKFo2i.s:2341   .debug_loc:00000000000001b5 .LLST5
     /tmp/ccFKFo2i.s:2354   .debug_loc:00000000000001ed .LLST6
     /tmp/ccFKFo2i.s:2365   .debug_loc:0000000000000223 .LLST7
     /tmp/ccFKFo2i.s:111    .text:0000000000000088 .LVL7
     /tmp/ccFKFo2i.s:139    .text:00000000000000d0 .LVL8
     /tmp/ccFKFo2i.s:96     .text:0000000000000070 .LVL5
     /tmp/ccFKFo2i.s:191    .text:0000000000000120 .LVL16
     /tmp/ccFKFo2i.s:195    .text:000000000000012c .LVL17
     /tmp/ccFKFo2i.s:38     .text:000000000000001c .LFB35
     /tmp/ccFKFo2i.s:59     .text:0000000000000038 .LFE35
     /tmp/ccFKFo2i.s:2623   .debug_str:000000000000074c .LASF94
     /tmp/ccFKFo2i.s:10     .text:0000000000000000 .LFB34
     /tmp/ccFKFo2i.s:32     .text:000000000000001c .LFE34
     /tmp/ccFKFo2i.s:2376   .debug_loc:0000000000000259 .LLST0
     /tmp/ccFKFo2i.s:2461   .debug_str:00000000000001a6 .LASF115
     /tmp/ccFKFo2i.s:2589   .debug_str:0000000000000572 .LASF95
     /tmp/ccFKFo2i.s:2543   .debug_str:000000000000042c .LASF97
     /tmp/ccFKFo2i.s:2577   .debug_str:0000000000000524 .LASF96
     /tmp/ccFKFo2i.s:2621   .debug_str:000000000000073f .LASF98
     /tmp/ccFKFo2i.s:2523   .debug_str:00000000000003a7 .LASF99
     /tmp/ccFKFo2i.s:2587   .debug_str:0000000000000562 .LASF100
     /tmp/ccFKFo2i.s:2433   .debug_str:00000000000000cb .LASF101
     /tmp/ccFKFo2i.s:2449   .debug_str:000000000000013f .LASF102
     /tmp/ccFKFo2i.s:324    .text:00000000000001c4 .LVL22
     /tmp/ccFKFo2i.s:354    .text:0000000000000200 .LVL26
     /tmp/ccFKFo2i.s:358    .text:0000000000000208 .LVL27
     /tmp/ccFKFo2i.s:70     .text:0000000000000038 .LVL3
     /tmp/ccFKFo2i.s:93     .text:0000000000000068 .LVL4
     /tmp/ccFKFo2i.s:171    .text:00000000000000fc .LVL11
     /tmp/ccFKFo2i.s:178    .text:0000000000000108 .LVL13
     /tmp/ccFKFo2i.s:174    .text:0000000000000100 .LVL12
     /tmp/ccFKFo2i.s:168    .text:00000000000000f8 .LVL10
     /tmp/ccFKFo2i.s:187    .text:0000000000000114 .LVL15
     /tmp/ccFKFo2i.s:99     .text:0000000000000074 .LVL6
     /tmp/ccFKFo2i.s:147    .text:00000000000000dc .LVL9
     /tmp/ccFKFo2i.s:184    .text:0000000000000110 .LVL14
     /tmp/ccFKFo2i.s:14     .text:0000000000000000 .LVL0
     /tmp/ccFKFo2i.s:24     .text:0000000000000010 .LVL1
     /tmp/ccFKFo2i.s:389    .debug_info:0000000000000000 .Ldebug_info0
     /tmp/ccFKFo2i.s:201    .gcc_except_table:0000000000000000 .LLSDA36

UNDEFINED SYMBOLS
_Znwm
_Znam
_ZN9Scheduler3putEP3TCB
_ZdlPv
_Unwind_Resume
__gxx_personality_v0
_ZN5RiscV10popSppSpieEv
_ZN9Scheduler3getEv
GAS LISTING /tmp/ccFKFo2i.s 			page 17


_ZN3TCB13contextSwitchEPNS_7ContextES1_
