GAS LISTING /tmp/ccanRhHm.s 			page 1


   1              		.file	"tcb.cpp"
   2              		.option pic
   3              		.option norelax
   4              		.text
   5              	.Ltext0:
   6              		.align	2
   7              		.globl	_ZNK3TCB10isFinishedEv
   9              	_ZNK3TCB10isFinishedEv:
  10              	.LFB33:
  11              		.file 1 "src/tcb.cpp"
   1:src/tcb.cpp   **** //
   2:src/tcb.cpp   **** // Created by os on 8/14/22.
   3:src/tcb.cpp   **** //
   4:src/tcb.cpp   **** 
   5:src/tcb.cpp   **** #include "../h/tcb.hpp"
   6:src/tcb.cpp   **** #include "../h/RiscV.hpp"
   7:src/tcb.cpp   **** 
   8:src/tcb.cpp   **** 
   9:src/tcb.cpp   **** 
  10:src/tcb.cpp   **** bool TCB::isFinished() const {
  12              		.loc 1 10 30
  13              		.cfi_startproc
  14              	.LVL0:
  15 0000 130101FF 		addi	sp,sp,-16
  16              		.cfi_def_cfa_offset 16
  17 0004 23348100 		sd	s0,8(sp)
  18              		.cfi_offset 8, -8
  19 0008 13040101 		addi	s0,sp,16
  20              		.cfi_def_cfa 8, 0
  11:src/tcb.cpp   ****     return finished;
  21              		.loc 1 11 5
  12:src/tcb.cpp   **** }
  22              		.loc 1 12 1 is_stmt 0
  23 000c 03458502 		lbu	a0,40(a0)
  24              	.LVL1:
  25 0010 03348100 		ld	s0,8(sp)
  26              		.cfi_restore 8
  27              		.cfi_def_cfa 2, 16
  28 0014 13010101 		addi	sp,sp,16
  29              		.cfi_def_cfa_offset 0
  30 0018 67800000 		jr	ra
  31              		.cfi_endproc
  32              	.LFE33:
  34              		.align	2
  35              		.globl	_ZN3TCB11setFinishedEb
  37              	_ZN3TCB11setFinishedEb:
  38              	.LFB34:
  13:src/tcb.cpp   **** 
  14:src/tcb.cpp   **** void TCB::setFinished(bool finished) {
  39              		.loc 1 14 38 is_stmt 1
  40              		.cfi_startproc
  41              	.LVL2:
  42 001c 130101FF 		addi	sp,sp,-16
  43              		.cfi_def_cfa_offset 16
  44 0020 23348100 		sd	s0,8(sp)
  45              		.cfi_offset 8, -8
  46 0024 13040101 		addi	s0,sp,16
GAS LISTING /tmp/ccanRhHm.s 			page 2


  47              		.cfi_def_cfa 8, 0
  15:src/tcb.cpp   ****     TCB::finished = finished;
  48              		.loc 1 15 5
  49              		.loc 1 15 19 is_stmt 0
  50 0028 2304B502 		sb	a1,40(a0)
  16:src/tcb.cpp   **** }
  51              		.loc 1 16 1
  52 002c 03348100 		ld	s0,8(sp)
  53              		.cfi_restore 8
  54              		.cfi_def_cfa 2, 16
  55 0030 13010101 		addi	sp,sp,16
  56              		.cfi_def_cfa_offset 0
  57 0034 67800000 		jr	ra
  58              		.cfi_endproc
  59              	.LFE34:
  61              		.align	2
  62              		.globl	_ZN3TCB12createThreadEPFvvE
  64              	_ZN3TCB12createThreadEPFvvE:
  65              	.LFB35:
  17:src/tcb.cpp   **** TCB* TCB::running = nullptr;
  18:src/tcb.cpp   **** 
  19:src/tcb.cpp   **** uint64 TCB::timeSliceCounter=0;
  20:src/tcb.cpp   **** 
  21:src/tcb.cpp   **** TCB* TCB::createThread(TCB::Body body) {
  66              		.loc 1 21 40 is_stmt 1
  67              		.cfi_startproc
  68              		.cfi_personality 0x9b,DW.ref.__gxx_personality_v0
  69              		.cfi_lsda 0x1b,.LLSDA35
  70              	.LVL3:
  71 0038 130101FE 		addi	sp,sp,-32
  72              		.cfi_def_cfa_offset 32
  73 003c 233C1100 		sd	ra,24(sp)
  74 0040 23388100 		sd	s0,16(sp)
  75 0044 23349100 		sd	s1,8(sp)
  76 0048 23302101 		sd	s2,0(sp)
  77              		.cfi_offset 1, -8
  78              		.cfi_offset 8, -16
  79              		.cfi_offset 9, -24
  80              		.cfi_offset 18, -32
  81 004c 13040102 		addi	s0,sp,32
  82              		.cfi_def_cfa 8, 0
  83 0050 13090500 		mv	s2,a0
  22:src/tcb.cpp   ****     return new TCB(body, TIME_SLICE);
  84              		.loc 1 22 5
  85              		.loc 1 22 36 is_stmt 0
  86 0054 13050003 		li	a0,48
  87              	.LVL4:
  88              	.LEHB0:
  89 0058 97000000 		call	_Znwm@plt
  89      E7800000 
  90              	.LVL5:
  91              	.LEHE0:
  92 0060 93040500 		mv	s1,a0
  93              	.LVL6:
  94              	.LBB5:
  95              	.LBB6:
  96              		.file 2 "src/../h/tcb.hpp"
GAS LISTING /tmp/ccanRhHm.s 			page 3


   1:src/../h/tcb.hpp **** //
   2:src/../h/tcb.hpp **** // Created by os on 8/14/22.
   3:src/../h/tcb.hpp **** //
   4:src/../h/tcb.hpp **** 
   5:src/../h/tcb.hpp **** #ifndef PROJECT_BASE_TCB_HPP
   6:src/../h/tcb.hpp **** #define PROJECT_BASE_TCB_HPP
   7:src/../h/tcb.hpp **** #include "../lib/hw.h"
   8:src/../h/tcb.hpp **** #include "../h/Scheduler.hpp"
   9:src/../h/tcb.hpp **** 
  10:src/../h/tcb.hpp **** class TCB {
  11:src/../h/tcb.hpp **** 
  12:src/../h/tcb.hpp **** public:
  13:src/../h/tcb.hpp ****     ~TCB() { delete[] stack; }
  14:src/../h/tcb.hpp **** 
  15:src/../h/tcb.hpp ****     using Body = void (*)();
  16:src/../h/tcb.hpp **** 
  17:src/../h/tcb.hpp ****     static TCB *createThread(Body body);
  18:src/../h/tcb.hpp **** 
  19:src/../h/tcb.hpp ****     static void thread_dispatch(){dispatch();}
  20:src/../h/tcb.hpp **** 
  21:src/../h/tcb.hpp ****     int thread_exit();
  22:src/../h/tcb.hpp **** 
  23:src/../h/tcb.hpp ****     bool isFinished() const;
  24:src/../h/tcb.hpp **** 
  25:src/../h/tcb.hpp ****     void setFinished(bool finished);
  26:src/../h/tcb.hpp **** 
  27:src/../h/tcb.hpp ****     static void yield();
  28:src/../h/tcb.hpp **** 
  29:src/../h/tcb.hpp ****     static TCB *running;
  30:src/../h/tcb.hpp **** 
  31:src/../h/tcb.hpp ****     inline uint64 getTimeSlice() const { return timeSlice; };
  32:src/../h/tcb.hpp **** private:
  33:src/../h/tcb.hpp ****     explicit TCB(Body body, uint64 timeSlice) :
  34:src/../h/tcb.hpp ****             body(body),
  35:src/../h/tcb.hpp ****             stack(body != nullptr ? new uint64[1024] : nullptr),
  36:src/../h/tcb.hpp ****             context({(uint64)&threadWrapper,
  37:src/../h/tcb.hpp ****                      stack != nullptr ? (uint64) &stack[1024] : 0
  38:src/../h/tcb.hpp ****                     }
  39:src/../h/tcb.hpp ****             ),
  40:src/../h/tcb.hpp ****             timeSlice(timeSlice),
  41:src/../h/tcb.hpp ****             finished(false) {
  97              		.loc 2 41 27
  98 0064 23302501 		sd	s2,0(a0)
  35:src/../h/tcb.hpp ****             context({(uint64)&threadWrapper,
  99              		.loc 2 35 35
 100 0068 630A0900 		beqz	s2,.L10
  35:src/../h/tcb.hpp ****             context({(uint64)&threadWrapper,
 101              		.loc 2 35 52
 102 006c 37250000 		li	a0,8192
 103              	.LEHB1:
 104 0070 97000000 		call	_Znam@plt
 104      E7800000 
 105              	.LVL7:
 106 0078 6F008000 		j	.L6
 107              	.L10:
  35:src/../h/tcb.hpp ****             context({(uint64)&threadWrapper,
 108              		.loc 2 35 35
GAS LISTING /tmp/ccanRhHm.s 			page 4


 109 007c 13050000 		li	a0,0
 110              	.L6:
 111              		.loc 2 41 27
 112 0080 23B4A400 		sd	a0,8(s1)
 113 0084 97070000 		lla	a5,_ZN3TCB13threadWrapperEv
 113      93870700 
 114 008c 23B8F400 		sd	a5,16(s1)
  37:src/../h/tcb.hpp ****                     }
 115              		.loc 2 37 39
 116 0090 63080502 		beqz	a0,.L11
  37:src/../h/tcb.hpp ****                     }
 117              		.loc 2 37 50
 118 0094 B7270000 		li	a5,8192
 119 0098 B307F500 		add	a5,a0,a5
 120              	.L7:
 121              		.loc 2 41 27
 122 009c 23BCF400 		sd	a5,24(s1)
 123 00a0 93072000 		li	a5,2
 124 00a4 23B0F402 		sd	a5,32(s1)
 125 00a8 23840402 		sb	zero,40(s1)
  42:src/../h/tcb.hpp ****         if (body != nullptr) { Scheduler::put(this); }
 126              		.loc 2 42 9 is_stmt 1
 127 00ac 630C0902 		beqz	s2,.L5
 128              		.loc 2 42 32
 129              		.loc 2 42 46 is_stmt 0
 130 00b0 13850400 		mv	a0,s1
 131 00b4 97000000 		call	_ZN9Scheduler3putEP3TCB@plt
 131      E7800000 
 132              	.LVL8:
 133              	.LEHE1:
 134 00bc 6F008002 		j	.L5
 135              	.L11:
  37:src/../h/tcb.hpp ****                     }
 136              		.loc 2 37 39
 137 00c0 93070000 		li	a5,0
 138 00c4 6FF09FFD 		j	.L7
 139              	.L12:
 140 00c8 13090500 		mv	s2,a0
 141              	.LVL9:
 142              	.LBE6:
 143              	.LBE5:
 144              		.loc 1 22 36
 145 00cc 13850400 		mv	a0,s1
 146 00d0 97000000 		call	_ZdlPv@plt
 146      E7800000 
 147              	.LVL10:
 148 00d8 13050900 		mv	a0,s2
 149              	.LEHB2:
 150 00dc 97000000 		call	_Unwind_Resume@plt
 150      E7800000 
 151              	.LVL11:
 152              	.LEHE2:
 153              	.L5:
  23:src/tcb.cpp   **** }
 154              		.loc 1 23 1
 155 00e4 13850400 		mv	a0,s1
 156 00e8 83308101 		ld	ra,24(sp)
GAS LISTING /tmp/ccanRhHm.s 			page 5


 157              		.cfi_restore 1
 158 00ec 03340101 		ld	s0,16(sp)
 159              		.cfi_restore 8
 160              		.cfi_def_cfa 2, 32
 161 00f0 83348100 		ld	s1,8(sp)
 162              		.cfi_restore 9
 163              	.LVL12:
 164 00f4 03390100 		ld	s2,0(sp)
 165              		.cfi_restore 18
 166              	.LVL13:
 167 00f8 13010102 		addi	sp,sp,32
 168              		.cfi_def_cfa_offset 0
 169 00fc 67800000 		jr	ra
 170              		.cfi_endproc
 171              	.LFE35:
 172              		.globl	__gxx_personality_v0
 173              		.section	.gcc_except_table,"a",@progbits
 174              	.LLSDA35:
 175 0000 FF       		.byte	0xff
 176 0001 FF       		.byte	0xff
 177 0002 03       		.byte	0x3
 178 0003 27       		.byte	0x27
 179 0004 00000000 		.4byte	.LEHB0-.LFB35
 180 0008 00000000 		.4byte	.LEHE0-.LEHB0
 181 000c 00000000 		.4byte	0
 182 0010 00       		.byte	0
 183 0011 00000000 		.4byte	.LEHB1-.LFB35
 184 0015 00000000 		.4byte	.LEHE1-.LEHB1
 185 0019 00000000 		.4byte	.L12-.LFB35
 186 001d 00       		.byte	0
 187 001e 00000000 		.4byte	.LEHB2-.LFB35
 188 0022 00000000 		.4byte	.LEHE2-.LEHB2
 189 0026 00000000 		.4byte	0
 190 002a 00       		.byte	0
 191              		.text
 193              		.align	2
 194              		.globl	_ZN3TCB5yieldEv
 196              	_ZN3TCB5yieldEv:
 197              	.LFB36:
  24:src/tcb.cpp   **** 
  25:src/tcb.cpp   **** void TCB::yield(){
 198              		.loc 1 25 18 is_stmt 1
 199              		.cfi_startproc
 200 0100 130101FF 		addi	sp,sp,-16
 201              		.cfi_def_cfa_offset 16
 202 0104 23348100 		sd	s0,8(sp)
 203              		.cfi_offset 8, -8
 204 0108 13040101 		addi	s0,sp,16
 205              		.cfi_def_cfa 8, 0
  26:src/tcb.cpp   **** 
  27:src/tcb.cpp   ****     __asm__ volatile ("ecall");
 206              		.loc 1 27 5
 207              		.loc 1 27 31 is_stmt 0
 208              	#APP
 209              	# 27 "src/tcb.cpp" 1
  28              	
  29:src/tcb.cpp   **** };
GAS LISTING /tmp/ccanRhHm.s 			page 6


 210              		ecall
 211              	# 0 "" 2
 212              		.loc 1 29 1
 213              	#NO_APP
 214 0110 03348100 		ld	s0,8(sp)
 215              		.cfi_restore 8
 216              		.cfi_def_cfa 2, 16
 217 0114 13010101 		addi	sp,sp,16
 218              		.cfi_def_cfa_offset 0
 219 0118 67800000 		jr	ra
 220              		.cfi_endproc
 221              	.LFE36:
 223              		.align	2
 224              		.globl	_ZN3TCB13threadWrapperEv
 226              	_ZN3TCB13threadWrapperEv:
 227              	.LFB38:
  30:src/tcb.cpp   **** 
  31:src/tcb.cpp   **** void TCB::dispatch() {
  32:src/tcb.cpp   ****     TCB *old = running;
  33:src/tcb.cpp   ****     if (!old->isFinished()) {
  34:src/tcb.cpp   ****         Scheduler::put(old);
  35:src/tcb.cpp   ****     }
  36:src/tcb.cpp   ****     running = Scheduler::get();
  37:src/tcb.cpp   **** 
  38:src/tcb.cpp   ****     TCB::contextSwitch(&old->context, &running->context);
  39:src/tcb.cpp   **** }
  40:src/tcb.cpp   **** 
  41:src/tcb.cpp   **** void TCB::threadWrapper() {
 228              		.loc 1 41 27 is_stmt 1
 229              		.cfi_startproc
 230 011c 130101FE 		addi	sp,sp,-32
 231              		.cfi_def_cfa_offset 32
 232 0120 233C1100 		sd	ra,24(sp)
 233 0124 23388100 		sd	s0,16(sp)
 234 0128 23349100 		sd	s1,8(sp)
 235              		.cfi_offset 1, -8
 236              		.cfi_offset 8, -16
 237              		.cfi_offset 9, -24
 238 012c 13040102 		addi	s0,sp,32
 239              		.cfi_def_cfa 8, 0
  42:src/tcb.cpp   ****     RiscV::popSppSpie();
 240              		.loc 1 42 5
 241              		.loc 1 42 22 is_stmt 0
 242 0130 97000000 		call	_ZN5RiscV10popSppSpieEv@plt
 242      E7800000 
 243              	.LVL14:
  43:src/tcb.cpp   ****     running->body();
 244              		.loc 1 43 5 is_stmt 1
 245              		.loc 1 43 14 is_stmt 0
 246 0138 97040000 		lla	s1,.LANCHOR0
 246      93840400 
 247 0140 83B70400 		ld	a5,0(s1)
 248 0144 83B70700 		ld	a5,0(a5)
 249              		.loc 1 43 18
 250 0148 E7800700 		jalr	a5
 251              	.LVL15:
  44:src/tcb.cpp   ****     running->setFinished(true);
GAS LISTING /tmp/ccanRhHm.s 			page 7


 252              		.loc 1 44 5 is_stmt 1
 253              		.loc 1 44 25 is_stmt 0
 254 014c 93051000 		li	a1,1
 255 0150 03B50400 		ld	a0,0(s1)
 256 0154 97000000 		call	_ZN3TCB11setFinishedEb
 256      E7800000 
 257              	.LVL16:
  45:src/tcb.cpp   ****     TCB::yield();
 258              		.loc 1 45 5 is_stmt 1
 259              		.loc 1 45 15 is_stmt 0
 260 015c 97000000 		call	_ZN3TCB5yieldEv
 260      E7800000 
 261              	.LVL17:
  46:src/tcb.cpp   **** }
 262              		.loc 1 46 1
 263 0164 83308101 		ld	ra,24(sp)
 264              		.cfi_restore 1
 265 0168 03340101 		ld	s0,16(sp)
 266              		.cfi_restore 8
 267              		.cfi_def_cfa 2, 32
 268 016c 83348100 		ld	s1,8(sp)
 269              		.cfi_restore 9
 270 0170 13010102 		addi	sp,sp,32
 271              		.cfi_def_cfa_offset 0
 272 0174 67800000 		jr	ra
 273              		.cfi_endproc
 274              	.LFE38:
 276              		.align	2
 277              		.globl	_ZN3TCB8dispatchEv
 279              	_ZN3TCB8dispatchEv:
 280              	.LFB37:
  31:src/tcb.cpp   ****     TCB *old = running;
 281              		.loc 1 31 22 is_stmt 1
 282              		.cfi_startproc
 283 0178 130101FE 		addi	sp,sp,-32
 284              		.cfi_def_cfa_offset 32
 285 017c 233C1100 		sd	ra,24(sp)
 286 0180 23388100 		sd	s0,16(sp)
 287 0184 23349100 		sd	s1,8(sp)
 288              		.cfi_offset 1, -8
 289              		.cfi_offset 8, -16
 290              		.cfi_offset 9, -24
 291 0188 13040102 		addi	s0,sp,32
 292              		.cfi_def_cfa 8, 0
  32:src/tcb.cpp   ****     if (!old->isFinished()) {
 293              		.loc 1 32 5
  32:src/tcb.cpp   ****     if (!old->isFinished()) {
 294              		.loc 1 32 10 is_stmt 0
 295 018c 97040000 		ld	s1,.LANCHOR0
 295      83B40400 
 296              	.LVL18:
  33:src/tcb.cpp   ****         Scheduler::put(old);
 297              		.loc 1 33 5 is_stmt 1
  33:src/tcb.cpp   ****         Scheduler::put(old);
 298              		.loc 1 33 25 is_stmt 0
 299 0194 13850400 		mv	a0,s1
 300 0198 97000000 		call	_ZNK3TCB10isFinishedEv
GAS LISTING /tmp/ccanRhHm.s 			page 8


 300      E7800000 
 301              	.LVL19:
  33:src/tcb.cpp   ****         Scheduler::put(old);
 302              		.loc 1 33 5
 303 01a0 630C0502 		beqz	a0,.L21
 304              	.L19:
  36:src/tcb.cpp   **** 
 305              		.loc 1 36 5 is_stmt 1
  36:src/tcb.cpp   **** 
 306              		.loc 1 36 29 is_stmt 0
 307 01a4 97000000 		call	_ZN9Scheduler3getEv@plt
 307      E7800000 
 308              	.LVL20:
  36:src/tcb.cpp   **** 
 309              		.loc 1 36 13
 310 01ac 97070000 		sd	a0,.LANCHOR0,a5
 310      23B0A700 
  38:src/tcb.cpp   **** }
 311              		.loc 1 38 5 is_stmt 1
  38:src/tcb.cpp   **** }
 312              		.loc 1 38 23 is_stmt 0
 313 01b4 93050501 		addi	a1,a0,16
 314 01b8 13850401 		addi	a0,s1,16
 315 01bc 97000000 		call	_ZN3TCB13contextSwitchEPNS_7ContextES1_@plt
 315      E7800000 
 316              	.LVL21:
  39:src/tcb.cpp   **** 
 317              		.loc 1 39 1
 318 01c4 83308101 		ld	ra,24(sp)
 319              		.cfi_remember_state
 320              		.cfi_restore 1
 321 01c8 03340101 		ld	s0,16(sp)
 322              		.cfi_restore 8
 323              		.cfi_def_cfa 2, 32
 324 01cc 83348100 		ld	s1,8(sp)
 325              		.cfi_restore 9
 326              	.LVL22:
 327 01d0 13010102 		addi	sp,sp,32
 328              		.cfi_def_cfa_offset 0
 329 01d4 67800000 		jr	ra
 330              	.LVL23:
 331              	.L21:
 332              		.cfi_restore_state
  34:src/tcb.cpp   ****     }
 333              		.loc 1 34 9 is_stmt 1
  34:src/tcb.cpp   ****     }
 334              		.loc 1 34 23 is_stmt 0
 335 01d8 13850400 		mv	a0,s1
 336 01dc 97000000 		call	_ZN9Scheduler3putEP3TCB@plt
 336      E7800000 
 337              	.LVL24:
 338 01e4 6FF01FFC 		j	.L19
 339              		.cfi_endproc
 340              	.LFE37:
 342              		.align	2
 343              		.globl	_ZN3TCB11thread_exitEv
 345              	_ZN3TCB11thread_exitEv:
GAS LISTING /tmp/ccanRhHm.s 			page 9


 346              	.LFB39:
  47:src/tcb.cpp   **** 
  48:src/tcb.cpp   **** int TCB::thread_exit() {
 347              		.loc 1 48 24 is_stmt 1
 348              		.cfi_startproc
 349              	.LVL25:
 350 01e8 130101FF 		addi	sp,sp,-16
 351              		.cfi_def_cfa_offset 16
 352 01ec 23348100 		sd	s0,8(sp)
 353              		.cfi_offset 8, -8
 354 01f0 13040101 		addi	s0,sp,16
 355              		.cfi_def_cfa 8, 0
  49:src/tcb.cpp   ****     return 0;
 356              		.loc 1 49 5
  50:src/tcb.cpp   **** }
 357              		.loc 1 50 1 is_stmt 0
 358 01f4 13050000 		li	a0,0
 359              	.LVL26:
 360 01f8 03348100 		ld	s0,8(sp)
 361              		.cfi_restore 8
 362              		.cfi_def_cfa 2, 16
 363 01fc 13010101 		addi	sp,sp,16
 364              		.cfi_def_cfa_offset 0
 365 0200 67800000 		jr	ra
 366              		.cfi_endproc
 367              	.LFE39:
 369              		.globl	_ZN3TCB16timeSliceCounterE
 370              		.globl	_ZN3TCB7runningE
 371              		.bss
 372              		.align	3
 373              		.set	.LANCHOR0,. + 0
 376              	_ZN3TCB7runningE:
 377 0000 00000000 		.zero	8
 377      00000000 
 380              	_ZN3TCB16timeSliceCounterE:
 381 0008 00000000 		.zero	8
 381      00000000 
 382              		.text
 383              	.Letext0:
 384              		.file 3 "src/../h/../lib/hw.h"
 385              		.file 4 "src/../h/../h/Scheduler.hpp"
 386              		.file 5 "src/../h/RiscV.hpp"
 2562              		.align	3
 2565              	DW.ref.__gxx_personality_v0:
 2566 0000 00000000 		.dword	__gxx_personality_v0
 2566      00000000 
 2567              		.ident	"GCC: (Ubuntu 9.4.0-1ubuntu1~20.04) 9.4.0"
 2568              		.section	.note.GNU-stack,"",@progbits
GAS LISTING /tmp/ccanRhHm.s 			page 10


DEFINED SYMBOLS
                            *ABS*:0000000000000000 tcb.cpp
     /tmp/ccanRhHm.s:9      .text:0000000000000000 _ZNK3TCB10isFinishedEv
     /tmp/ccanRhHm.s:13     .text:0000000000000000 .L0 
     /tmp/ccanRhHm.s:15     .text:0000000000000000 .L0 
     /tmp/ccanRhHm.s:16     .text:0000000000000004 .L0 
     /tmp/ccanRhHm.s:18     .text:0000000000000008 .L0 
     /tmp/ccanRhHm.s:20     .text:000000000000000c .L0 
     /tmp/ccanRhHm.s:22     .text:000000000000000c .L0 
     /tmp/ccanRhHm.s:23     .text:000000000000000c .L0 
     /tmp/ccanRhHm.s:26     .text:0000000000000014 .L0 
     /tmp/ccanRhHm.s:27     .text:0000000000000014 .L0 
     /tmp/ccanRhHm.s:29     .text:0000000000000018 .L0 
     /tmp/ccanRhHm.s:31     .text:000000000000001c .L0 
     /tmp/ccanRhHm.s:37     .text:000000000000001c _ZN3TCB11setFinishedEb
     /tmp/ccanRhHm.s:40     .text:000000000000001c .L0 
     /tmp/ccanRhHm.s:42     .text:000000000000001c .L0 
     /tmp/ccanRhHm.s:43     .text:0000000000000020 .L0 
     /tmp/ccanRhHm.s:45     .text:0000000000000024 .L0 
     /tmp/ccanRhHm.s:47     .text:0000000000000028 .L0 
     /tmp/ccanRhHm.s:49     .text:0000000000000028 .L0 
     /tmp/ccanRhHm.s:50     .text:0000000000000028 .L0 
     /tmp/ccanRhHm.s:52     .text:000000000000002c .L0 
     /tmp/ccanRhHm.s:53     .text:0000000000000030 .L0 
     /tmp/ccanRhHm.s:54     .text:0000000000000030 .L0 
     /tmp/ccanRhHm.s:56     .text:0000000000000034 .L0 
     /tmp/ccanRhHm.s:58     .text:0000000000000038 .L0 
     /tmp/ccanRhHm.s:64     .text:0000000000000038 _ZN3TCB12createThreadEPFvvE
     /tmp/ccanRhHm.s:67     .text:0000000000000038 .L0 
     /tmp/ccanRhHm.s:2565   .data.rel.local.DW.ref.__gxx_personality_v0:0000000000000000 DW.ref.__gxx_personality_v0
     /tmp/ccanRhHm.s:71     .text:0000000000000038 .L0 
     /tmp/ccanRhHm.s:72     .text:000000000000003c .L0 
     /tmp/ccanRhHm.s:77     .text:000000000000004c .L0 
     /tmp/ccanRhHm.s:78     .text:000000000000004c .L0 
     /tmp/ccanRhHm.s:79     .text:000000000000004c .L0 
     /tmp/ccanRhHm.s:80     .text:000000000000004c .L0 
     /tmp/ccanRhHm.s:82     .text:0000000000000050 .L0 
     /tmp/ccanRhHm.s:85     .text:0000000000000054 .L0 
     /tmp/ccanRhHm.s:86     .text:0000000000000054 .L0 
     /tmp/ccanRhHm.s:98     .text:0000000000000064 .L0 
     /tmp/ccanRhHm.s:100    .text:0000000000000068 .L0 
     /tmp/ccanRhHm.s:102    .text:000000000000006c .L0 
     /tmp/ccanRhHm.s:109    .text:000000000000007c .L0 
     /tmp/ccanRhHm.s:112    .text:0000000000000080 .L0 
     /tmp/ccanRhHm.s:226    .text:000000000000011c _ZN3TCB13threadWrapperEv
     /tmp/ccanRhHm.s:116    .text:0000000000000090 .L0 
     /tmp/ccanRhHm.s:118    .text:0000000000000094 .L0 
     /tmp/ccanRhHm.s:122    .text:000000000000009c .L0 
     /tmp/ccanRhHm.s:127    .text:00000000000000ac .L0 
     /tmp/ccanRhHm.s:129    .text:00000000000000b0 .L0 
     /tmp/ccanRhHm.s:130    .text:00000000000000b0 .L0 
     /tmp/ccanRhHm.s:137    .text:00000000000000c0 .L0 
     /tmp/ccanRhHm.s:145    .text:00000000000000cc .L0 
     /tmp/ccanRhHm.s:155    .text:00000000000000e4 .L0 
     /tmp/ccanRhHm.s:157    .text:00000000000000ec .L0 
     /tmp/ccanRhHm.s:159    .text:00000000000000f0 .L0 
     /tmp/ccanRhHm.s:160    .text:00000000000000f0 .L0 
GAS LISTING /tmp/ccanRhHm.s 			page 11


     /tmp/ccanRhHm.s:162    .text:00000000000000f4 .L0 
     /tmp/ccanRhHm.s:165    .text:00000000000000f8 .L0 
     /tmp/ccanRhHm.s:168    .text:00000000000000fc .L0 
     /tmp/ccanRhHm.s:170    .text:0000000000000100 .L0 
     /tmp/ccanRhHm.s:196    .text:0000000000000100 _ZN3TCB5yieldEv
     /tmp/ccanRhHm.s:199    .text:0000000000000100 .L0 
     /tmp/ccanRhHm.s:200    .text:0000000000000100 .L0 
     /tmp/ccanRhHm.s:201    .text:0000000000000104 .L0 
     /tmp/ccanRhHm.s:203    .text:0000000000000108 .L0 
     /tmp/ccanRhHm.s:205    .text:000000000000010c .L0 
     /tmp/ccanRhHm.s:207    .text:000000000000010c .L0 
         src/tcb.cpp:27     .text:000000000000010c .L0 
     /tmp/ccanRhHm.s:214    .text:0000000000000110 .L0 
     /tmp/ccanRhHm.s:215    .text:0000000000000114 .L0 
     /tmp/ccanRhHm.s:216    .text:0000000000000114 .L0 
     /tmp/ccanRhHm.s:218    .text:0000000000000118 .L0 
     /tmp/ccanRhHm.s:220    .text:000000000000011c .L0 
     /tmp/ccanRhHm.s:229    .text:000000000000011c .L0 
     /tmp/ccanRhHm.s:230    .text:000000000000011c .L0 
     /tmp/ccanRhHm.s:231    .text:0000000000000120 .L0 
     /tmp/ccanRhHm.s:235    .text:000000000000012c .L0 
     /tmp/ccanRhHm.s:236    .text:000000000000012c .L0 
     /tmp/ccanRhHm.s:237    .text:000000000000012c .L0 
     /tmp/ccanRhHm.s:239    .text:0000000000000130 .L0 
     /tmp/ccanRhHm.s:241    .text:0000000000000130 .L0 
     /tmp/ccanRhHm.s:242    .text:0000000000000130 .L0 
     /tmp/ccanRhHm.s:245    .text:0000000000000138 .L0 
     /tmp/ccanRhHm.s:246    .text:0000000000000138 .L0 
     /tmp/ccanRhHm.s:250    .text:0000000000000148 .L0 
     /tmp/ccanRhHm.s:253    .text:000000000000014c .L0 
     /tmp/ccanRhHm.s:254    .text:000000000000014c .L0 
     /tmp/ccanRhHm.s:259    .text:000000000000015c .L0 
     /tmp/ccanRhHm.s:260    .text:000000000000015c .L0 
     /tmp/ccanRhHm.s:263    .text:0000000000000164 .L0 
     /tmp/ccanRhHm.s:264    .text:0000000000000168 .L0 
     /tmp/ccanRhHm.s:266    .text:000000000000016c .L0 
     /tmp/ccanRhHm.s:267    .text:000000000000016c .L0 
     /tmp/ccanRhHm.s:269    .text:0000000000000170 .L0 
     /tmp/ccanRhHm.s:271    .text:0000000000000174 .L0 
     /tmp/ccanRhHm.s:273    .text:0000000000000178 .L0 
     /tmp/ccanRhHm.s:279    .text:0000000000000178 _ZN3TCB8dispatchEv
     /tmp/ccanRhHm.s:282    .text:0000000000000178 .L0 
     /tmp/ccanRhHm.s:283    .text:0000000000000178 .L0 
     /tmp/ccanRhHm.s:284    .text:000000000000017c .L0 
     /tmp/ccanRhHm.s:288    .text:0000000000000188 .L0 
     /tmp/ccanRhHm.s:289    .text:0000000000000188 .L0 
     /tmp/ccanRhHm.s:290    .text:0000000000000188 .L0 
     /tmp/ccanRhHm.s:292    .text:000000000000018c .L0 
     /tmp/ccanRhHm.s:294    .text:000000000000018c .L0 
     /tmp/ccanRhHm.s:295    .text:000000000000018c .L0 
     /tmp/ccanRhHm.s:298    .text:0000000000000194 .L0 
     /tmp/ccanRhHm.s:299    .text:0000000000000194 .L0 
     /tmp/ccanRhHm.s:303    .text:00000000000001a0 .L0 
     /tmp/ccanRhHm.s:306    .text:00000000000001a4 .L0 
     /tmp/ccanRhHm.s:307    .text:00000000000001a4 .L0 
     /tmp/ccanRhHm.s:310    .text:00000000000001ac .L0 
     /tmp/ccanRhHm.s:312    .text:00000000000001b4 .L0 
GAS LISTING /tmp/ccanRhHm.s 			page 12


     /tmp/ccanRhHm.s:313    .text:00000000000001b4 .L0 
     /tmp/ccanRhHm.s:318    .text:00000000000001c4 .L0 
     /tmp/ccanRhHm.s:319    .text:00000000000001c8 .L0 
     /tmp/ccanRhHm.s:320    .text:00000000000001c8 .L0 
     /tmp/ccanRhHm.s:322    .text:00000000000001cc .L0 
     /tmp/ccanRhHm.s:323    .text:00000000000001cc .L0 
     /tmp/ccanRhHm.s:325    .text:00000000000001d0 .L0 
     /tmp/ccanRhHm.s:328    .text:00000000000001d4 .L0 
     /tmp/ccanRhHm.s:332    .text:00000000000001d8 .L0 
     /tmp/ccanRhHm.s:334    .text:00000000000001d8 .L0 
     /tmp/ccanRhHm.s:335    .text:00000000000001d8 .L0 
     /tmp/ccanRhHm.s:339    .text:00000000000001e8 .L0 
     /tmp/ccanRhHm.s:345    .text:00000000000001e8 _ZN3TCB11thread_exitEv
     /tmp/ccanRhHm.s:348    .text:00000000000001e8 .L0 
     /tmp/ccanRhHm.s:350    .text:00000000000001e8 .L0 
     /tmp/ccanRhHm.s:351    .text:00000000000001ec .L0 
     /tmp/ccanRhHm.s:353    .text:00000000000001f0 .L0 
     /tmp/ccanRhHm.s:355    .text:00000000000001f4 .L0 
     /tmp/ccanRhHm.s:357    .text:00000000000001f4 .L0 
     /tmp/ccanRhHm.s:358    .text:00000000000001f4 .L0 
     /tmp/ccanRhHm.s:361    .text:00000000000001fc .L0 
     /tmp/ccanRhHm.s:362    .text:00000000000001fc .L0 
     /tmp/ccanRhHm.s:364    .text:0000000000000200 .L0 
     /tmp/ccanRhHm.s:366    .text:0000000000000204 .L0 
     /tmp/ccanRhHm.s:380    .bss:0000000000000008 _ZN3TCB16timeSliceCounterE
     /tmp/ccanRhHm.s:376    .bss:0000000000000000 _ZN3TCB7runningE
     /tmp/ccanRhHm.s:373    .bss:0000000000000000 .LANCHOR0
     /tmp/ccanRhHm.s:387    .text:0000000000000204 .L0 
     /tmp/ccanRhHm.s:113    .text:0000000000000084 .L0 
     /tmp/ccanRhHm.s:246    .text:0000000000000138 .L0 
     /tmp/ccanRhHm.s:295    .text:000000000000018c .L0 
     /tmp/ccanRhHm.s:310    .text:00000000000001ac .L0 
     /tmp/ccanRhHm.s:107    .text:000000000000007c .L10
     /tmp/ccanRhHm.s:110    .text:0000000000000080 .L6
     /tmp/ccanRhHm.s:135    .text:00000000000000c0 .L11
     /tmp/ccanRhHm.s:153    .text:00000000000000e4 .L5
     /tmp/ccanRhHm.s:120    .text:000000000000009c .L7
     /tmp/ccanRhHm.s:331    .text:00000000000001d8 .L21
     /tmp/ccanRhHm.s:304    .text:00000000000001a4 .L19
     /tmp/ccanRhHm.s:88     .text:0000000000000058 .LEHB0
     /tmp/ccanRhHm.s:65     .text:0000000000000038 .LFB35
     /tmp/ccanRhHm.s:91     .text:0000000000000060 .LEHE0
     /tmp/ccanRhHm.s:103    .text:0000000000000070 .LEHB1
     /tmp/ccanRhHm.s:133    .text:00000000000000bc .LEHE1
     /tmp/ccanRhHm.s:139    .text:00000000000000c8 .L12
     /tmp/ccanRhHm.s:149    .text:00000000000000dc .LEHB2
     /tmp/ccanRhHm.s:152    .text:00000000000000e4 .LEHE2
     /tmp/ccanRhHm.s:1297   .debug_abbrev:0000000000000000 .Ldebug_abbrev0
     /tmp/ccanRhHm.s:2523   .debug_str:0000000000000591 .LASF101
     /tmp/ccanRhHm.s:2443   .debug_str:0000000000000357 .LASF102
     /tmp/ccanRhHm.s:2399   .debug_str:00000000000001f1 .LASF103
     /tmp/ccanRhHm.s:5      .text:0000000000000000 .Ltext0
     /tmp/ccanRhHm.s:383    .text:0000000000000204 .Letext0
     /tmp/ccanRhHm.s:2329   .debug_line:0000000000000000 .Ldebug_line0
     /tmp/ccanRhHm.s:2463   .debug_str:00000000000003fc .LASF0
     /tmp/ccanRhHm.s:2475   .debug_str:0000000000000446 .LASF1
     /tmp/ccanRhHm.s:2449   .debug_str:0000000000000385 .LASF2
GAS LISTING /tmp/ccanRhHm.s 			page 13


     /tmp/ccanRhHm.s:2423   .debug_str:00000000000002df .LASF4
     /tmp/ccanRhHm.s:2507   .debug_str:000000000000052e .LASF3
     /tmp/ccanRhHm.s:2357   .debug_str:00000000000000c4 .LASF5
     /tmp/ccanRhHm.s:2477   .debug_str:0000000000000459 .LASF6
     /tmp/ccanRhHm.s:2461   .debug_str:00000000000003e9 .LASF7
     /tmp/ccanRhHm.s:2535   .debug_str:00000000000006c8 .LASF8
     /tmp/ccanRhHm.s:2411   .debug_str:000000000000025d .LASF9
     /tmp/ccanRhHm.s:2487   .debug_str:00000000000004a4 .LASF10
     /tmp/ccanRhHm.s:2527   .debug_str:000000000000066d .LASF11
     /tmp/ccanRhHm.s:2361   .debug_str:00000000000000da .LASF12
     /tmp/ccanRhHm.s:2335   .debug_str:000000000000001e .LASF13
     /tmp/ccanRhHm.s:2371   .debug_str:0000000000000123 .LASF14
     /tmp/ccanRhHm.s:2499   .debug_str:00000000000004f2 .LASF15
     /tmp/ccanRhHm.s:2379   .debug_str:000000000000016e .LASF16
     /tmp/ccanRhHm.s:2483   .debug_str:0000000000000488 .LASF17
     /tmp/ccanRhHm.s:2539   .debug_str:00000000000006f3 .LASF44
     /tmp/ccanRhHm.s:2419   .debug_str:00000000000002a3 .LASF104
     /tmp/ccanRhHm.s:2367   .debug_str:0000000000000101 .LASF105
     /tmp/ccanRhHm.s:2509   .debug_str:0000000000000540 .LASF106
     /tmp/ccanRhHm.s:2341   .debug_str:0000000000000053 .LASF107
     /tmp/ccanRhHm.s:2385   .debug_str:00000000000001a8 .LASF18
     /tmp/ccanRhHm.s:2493   .debug_str:00000000000004d6 .LASF20
     /tmp/ccanRhHm.s:2435   .debug_str:000000000000031c .LASF19
     /tmp/ccanRhHm.s:2489   .debug_str:00000000000004b3 .LASF21
     /tmp/ccanRhHm.s:2495   .debug_str:00000000000004e2 .LASF108
     /tmp/ccanRhHm.s:2373   .debug_str:000000000000012f .LASF28
     /tmp/ccanRhHm.s:2445   .debug_str:0000000000000363 .LASF30
     /tmp/ccanRhHm.s:2343   .debug_str:000000000000005b .LASF22
     /tmp/ccanRhHm.s:2377   .debug_str:0000000000000157 .LASF24
     /tmp/ccanRhHm.s:2479   .debug_str:000000000000046c .LASF23
     /tmp/ccanRhHm.s:2409   .debug_str:0000000000000246 .LASF25
     /tmp/ccanRhHm.s:2451   .debug_str:0000000000000393 .LASF26
     /tmp/ccanRhHm.s:2555   .debug_str:0000000000000765 .LASF27
     /tmp/ccanRhHm.s:2501   .debug_str:0000000000000508 .LASF29
     /tmp/ccanRhHm.s:2459   .debug_str:00000000000003d9 .LASF31
     /tmp/ccanRhHm.s:2391   .debug_str:00000000000001c9 .LASF109
     /tmp/ccanRhHm.s:2441   .debug_str:000000000000034a .LASF32
     /tmp/ccanRhHm.s:2353   .debug_str:0000000000000095 .LASF33
     /tmp/ccanRhHm.s:2515   .debug_str:0000000000000566 .LASF110
     /tmp/ccanRhHm.s:2429   .debug_str:0000000000000304 .LASF34
     /tmp/ccanRhHm.s:2467   .debug_str:0000000000000412 .LASF35
     /tmp/ccanRhHm.s:2433   .debug_str:0000000000000314 .LASF36
     /tmp/ccanRhHm.s:2473   .debug_str:000000000000043c .LASF37
     /tmp/ccanRhHm.s:2427   .debug_str:00000000000002fb .LASF38
     /tmp/ccanRhHm.s:2437   .debug_str:0000000000000329 .LASF40
     /tmp/ccanRhHm.s:2413   .debug_str:000000000000026b .LASF42
     /tmp/ccanRhHm.s:2543   .debug_str:000000000000071a .LASF39
     /tmp/ccanRhHm.s:2421   .debug_str:00000000000002b7 .LASF111
     /tmp/ccanRhHm.s:2465   .debug_str:0000000000000409 .LASF41
     /tmp/ccanRhHm.s:2395   .debug_str:00000000000001d9 .LASF43
     /tmp/ccanRhHm.s:2365   .debug_str:00000000000000f0 .LASF45
     /tmp/ccanRhHm.s:2415   .debug_str:0000000000000284 .LASF112
     /tmp/ccanRhHm.s:2397   .debug_str:00000000000001ec .LASF46
     /tmp/ccanRhHm.s:2363   .debug_str:00000000000000ea .LASF47
     /tmp/ccanRhHm.s:2497   .debug_str:00000000000004e7 .LASF48
     /tmp/ccanRhHm.s:2549   .debug_str:000000000000073a .LASF49
     /tmp/ccanRhHm.s:2351   .debug_str:0000000000000087 .LASF50
GAS LISTING /tmp/ccanRhHm.s 			page 14


     /tmp/ccanRhHm.s:2537   .debug_str:00000000000006d8 .LASF51
     /tmp/ccanRhHm.s:2521   .debug_str:0000000000000584 .LASF52
     /tmp/ccanRhHm.s:2503   .debug_str:000000000000050e .LASF53
     /tmp/ccanRhHm.s:2337   .debug_str:000000000000002e .LASF54
     /tmp/ccanRhHm.s:2405   .debug_str:000000000000022b .LASF56
     /tmp/ccanRhHm.s:2387   .debug_str:00000000000001ad .LASF58
     /tmp/ccanRhHm.s:2455   .debug_str:00000000000003ba .LASF60
     /tmp/ccanRhHm.s:2511   .debug_str:0000000000000550 .LASF55
     /tmp/ccanRhHm.s:2389   .debug_str:00000000000001b6 .LASF57
     /tmp/ccanRhHm.s:2519   .debug_str:000000000000057d .LASF59
     /tmp/ccanRhHm.s:2439   .debug_str:0000000000000337 .LASF61
     /tmp/ccanRhHm.s:2403   .debug_str:0000000000000223 .LASF62
     /tmp/ccanRhHm.s:2401   .debug_str:000000000000020f .LASF63
     /tmp/ccanRhHm.s:2333   .debug_str:0000000000000016 .LASF64
     /tmp/ccanRhHm.s:2471   .debug_str:0000000000000428 .LASF65
     /tmp/ccanRhHm.s:2393   .debug_str:00000000000001d1 .LASF66
     /tmp/ccanRhHm.s:2383   .debug_str:0000000000000194 .LASF67
     /tmp/ccanRhHm.s:2553   .debug_str:000000000000075d .LASF68
     /tmp/ccanRhHm.s:2417   .debug_str:000000000000028f .LASF69
     /tmp/ccanRhHm.s:2491   .debug_str:00000000000004cf .LASF70
     /tmp/ccanRhHm.s:2349   .debug_str:0000000000000074 .LASF71
     /tmp/ccanRhHm.s:2347   .debug_str:000000000000006d .LASF72
     /tmp/ccanRhHm.s:2541   .debug_str:0000000000000707 .LASF73
     /tmp/ccanRhHm.s:2407   .debug_str:0000000000000240 .LASF74
     /tmp/ccanRhHm.s:2485   .debug_str:0000000000000492 .LASF75
     /tmp/ccanRhHm.s:2345   .debug_str:0000000000000067 .LASF76
     /tmp/ccanRhHm.s:2531   .debug_str:0000000000000694 .LASF77
     /tmp/ccanRhHm.s:2551   .debug_str:0000000000000752 .LASF78
     /tmp/ccanRhHm.s:2525   .debug_str:0000000000000655 .LASF79
     /tmp/ccanRhHm.s:2431   .debug_str:0000000000000309 .LASF80
     /tmp/ccanRhHm.s:2529   .debug_str:000000000000067c .LASF81
     /tmp/ccanRhHm.s:2369   .debug_str:0000000000000119 .LASF82
     /tmp/ccanRhHm.s:2331   .debug_str:0000000000000000 .LASF83
     /tmp/ccanRhHm.s:2457   .debug_str:00000000000003cf .LASF84
     /tmp/ccanRhHm.s:2355   .debug_str:00000000000000ae .LASF85
     /tmp/ccanRhHm.s:2513   .debug_str:0000000000000557 .LASF86
     /tmp/ccanRhHm.s:2339   .debug_str:0000000000000037 .LASF87
     /tmp/ccanRhHm.s:2425   .debug_str:00000000000002e6 .LASF88
     /tmp/ccanRhHm.s:2533   .debug_str:00000000000006a6 .LASF89
     /tmp/ccanRhHm.s:2557   .debug_str:000000000000077c .LASF90
     /tmp/ccanRhHm.s:2453   .debug_str:000000000000039f .LASF91
     /tmp/ccanRhHm.s:346    .text:00000000000001e8 .LFB39
     /tmp/ccanRhHm.s:367    .text:0000000000000204 .LFE39
     /tmp/ccanRhHm.s:2547   .debug_str:0000000000000735 .LASF92
     /tmp/ccanRhHm.s:2212   .debug_loc:0000000000000000 .LLST5
     /tmp/ccanRhHm.s:227    .text:000000000000011c .LFB38
     /tmp/ccanRhHm.s:274    .text:0000000000000178 .LFE38
     /tmp/ccanRhHm.s:243    .text:0000000000000138 .LVL14
     /tmp/ccanRhHm.s:257    .text:000000000000015c .LVL16
     /tmp/ccanRhHm.s:261    .text:0000000000000164 .LVL17
     /tmp/ccanRhHm.s:280    .text:0000000000000178 .LFB37
     /tmp/ccanRhHm.s:340    .text:00000000000001e8 .LFE37
     /tmp/ccanRhHm.s:2226   .debug_loc:0000000000000039 .LLST4
     /tmp/ccanRhHm.s:301    .text:00000000000001a0 .LVL19
     /tmp/ccanRhHm.s:308    .text:00000000000001ac .LVL20
     /tmp/ccanRhHm.s:316    .text:00000000000001c4 .LVL21
     /tmp/ccanRhHm.s:337    .text:00000000000001e4 .LVL24
GAS LISTING /tmp/ccanRhHm.s 			page 15


     /tmp/ccanRhHm.s:197    .text:0000000000000100 .LFB36
     /tmp/ccanRhHm.s:221    .text:000000000000011c .LFE36
     /tmp/ccanRhHm.s:171    .text:0000000000000100 .LFE35
     /tmp/ccanRhHm.s:2237   .debug_loc:000000000000006f .LLST1
     /tmp/ccanRhHm.s:94     .text:0000000000000064 .LBB5
     /tmp/ccanRhHm.s:143    .text:00000000000000cc .LBE5
     /tmp/ccanRhHm.s:2266   .debug_loc:00000000000000e4 .LLST2
     /tmp/ccanRhHm.s:2291   .debug_loc:0000000000000146 .LLST3
     /tmp/ccanRhHm.s:105    .text:0000000000000078 .LVL7
     /tmp/ccanRhHm.s:132    .text:00000000000000bc .LVL8
     /tmp/ccanRhHm.s:90     .text:0000000000000060 .LVL5
     /tmp/ccanRhHm.s:147    .text:00000000000000d8 .LVL10
     /tmp/ccanRhHm.s:151    .text:00000000000000e4 .LVL11
     /tmp/ccanRhHm.s:38     .text:000000000000001c .LFB34
     /tmp/ccanRhHm.s:59     .text:0000000000000038 .LFE34
     /tmp/ccanRhHm.s:10     .text:0000000000000000 .LFB33
     /tmp/ccanRhHm.s:32     .text:000000000000001c .LFE33
     /tmp/ccanRhHm.s:2302   .debug_loc:000000000000017c .LLST0
     /tmp/ccanRhHm.s:2481   .debug_str:0000000000000477 .LASF113
     /tmp/ccanRhHm.s:2517   .debug_str:0000000000000577 .LASF93
     /tmp/ccanRhHm.s:2469   .debug_str:0000000000000418 .LASF95
     /tmp/ccanRhHm.s:2505   .debug_str:0000000000000528 .LASF94
     /tmp/ccanRhHm.s:2545   .debug_str:0000000000000728 .LASF96
     /tmp/ccanRhHm.s:2447   .debug_str:000000000000037e .LASF97
     /tmp/ccanRhHm.s:2381   .debug_str:0000000000000184 .LASF98
     /tmp/ccanRhHm.s:2359   .debug_str:00000000000000cb .LASF99
     /tmp/ccanRhHm.s:2375   .debug_str:000000000000013f .LASF100
     /tmp/ccanRhHm.s:349    .text:00000000000001e8 .LVL25
     /tmp/ccanRhHm.s:359    .text:00000000000001f8 .LVL26
     /tmp/ccanRhHm.s:296    .text:0000000000000194 .LVL18
     /tmp/ccanRhHm.s:326    .text:00000000000001d0 .LVL22
     /tmp/ccanRhHm.s:330    .text:00000000000001d8 .LVL23
     /tmp/ccanRhHm.s:70     .text:0000000000000038 .LVL3
     /tmp/ccanRhHm.s:87     .text:0000000000000058 .LVL4
     /tmp/ccanRhHm.s:141    .text:00000000000000cc .LVL9
     /tmp/ccanRhHm.s:166    .text:00000000000000f8 .LVL13
     /tmp/ccanRhHm.s:93     .text:0000000000000064 .LVL6
     /tmp/ccanRhHm.s:163    .text:00000000000000f4 .LVL12
     /tmp/ccanRhHm.s:14     .text:0000000000000000 .LVL0
     /tmp/ccanRhHm.s:24     .text:0000000000000010 .LVL1
     /tmp/ccanRhHm.s:388    .debug_info:0000000000000000 .Ldebug_info0
     /tmp/ccanRhHm.s:174    .gcc_except_table:0000000000000000 .LLSDA35

UNDEFINED SYMBOLS
_Znwm
_Znam
_ZN9Scheduler3putEP3TCB
_ZdlPv
_Unwind_Resume
__gxx_personality_v0
_ZN5RiscV10popSppSpieEv
_ZN9Scheduler3getEv
_ZN3TCB13contextSwitchEPNS_7ContextES1_
