GAS LISTING /tmp/cclYAUXt.s 			page 1


   1              		.file	"tcb.cpp"
   2              		.option pic
   3              		.option norelax
   4              		.text
   5              	.Ltext0:
   6              		.align	2
   7              		.globl	_ZNK3TCB10isFinishedEv
   9              	_ZNK3TCB10isFinishedEv:
  10              	.LFB49:
  11              		.file 1 "src/tcb.cpp"
   1:src/tcb.cpp   **** //
   2:src/tcb.cpp   **** // Created by os on 8/14/22.
   3:src/tcb.cpp   **** //
   4:src/tcb.cpp   **** 
   5:src/tcb.cpp   **** #include "../h/tcb.hpp"
   6:src/tcb.cpp   **** #include "../h/RiscV.hpp"
   7:src/tcb.cpp   **** 
   8:src/tcb.cpp   **** 
   9:src/tcb.cpp   **** 
  10:src/tcb.cpp   **** bool TCB::isFinished() const {
  12              		.loc 1 10 30
  13              		.cfi_startproc
  14              	.LVL0:
  15 0000 130101FF 		addi	sp,sp,-16
  16              		.cfi_def_cfa_offset 16
  17 0004 23348100 		sd	s0,8(sp)
  18              		.cfi_offset 8, -8
  19 0008 13040101 		addi	s0,sp,16
  20              		.cfi_def_cfa 8, 0
  11:src/tcb.cpp   ****     return finished;
  21              		.loc 1 11 5
  12:src/tcb.cpp   **** }
  22              		.loc 1 12 1 is_stmt 0
  23 000c 03450502 		lbu	a0,32(a0)
  24              	.LVL1:
  25 0010 03348100 		ld	s0,8(sp)
  26              		.cfi_restore 8
  27              		.cfi_def_cfa 2, 16
  28 0014 13010101 		addi	sp,sp,16
  29              		.cfi_def_cfa_offset 0
  30 0018 67800000 		jr	ra
  31              		.cfi_endproc
  32              	.LFE49:
  34              		.align	2
  35              		.globl	_ZN3TCB11setFinishedEb
  37              	_ZN3TCB11setFinishedEb:
  38              	.LFB50:
  13:src/tcb.cpp   **** 
  14:src/tcb.cpp   **** void TCB::setFinished(bool finished) {
  39              		.loc 1 14 38 is_stmt 1
  40              		.cfi_startproc
  41              	.LVL2:
  42 001c 130101FF 		addi	sp,sp,-16
  43              		.cfi_def_cfa_offset 16
  44 0020 23348100 		sd	s0,8(sp)
  45              		.cfi_offset 8, -8
  46 0024 13040101 		addi	s0,sp,16
GAS LISTING /tmp/cclYAUXt.s 			page 2


  47              		.cfi_def_cfa 8, 0
  15:src/tcb.cpp   ****     TCB::finished=finished;
  48              		.loc 1 15 5
  49              		.loc 1 15 18 is_stmt 0
  50 0028 2300B502 		sb	a1,32(a0)
  16:src/tcb.cpp   **** }
  51              		.loc 1 16 1
  52 002c 03348100 		ld	s0,8(sp)
  53              		.cfi_restore 8
  54              		.cfi_def_cfa 2, 16
  55 0030 13010101 		addi	sp,sp,16
  56              		.cfi_def_cfa_offset 0
  57 0034 67800000 		jr	ra
  58              		.cfi_endproc
  59              	.LFE50:
  61              		.align	2
  62              		.globl	_ZN3TCB12createThreadEPFvPvEPPS_S0_b
  64              	_ZN3TCB12createThreadEPFvPvEPPS_S0_b:
  65              	.LFB51:
  17:src/tcb.cpp   **** TCB* TCB::running = nullptr;
  18:src/tcb.cpp   **** 
  19:src/tcb.cpp   **** uint64 TCB::timeSliceCounter=0;
  20:src/tcb.cpp   **** 
  21:src/tcb.cpp   **** int TCB::createThread(TCB::Body body, TCB** handle , void* arguments, bool started) {
  66              		.loc 1 21 85 is_stmt 1
  67              		.cfi_startproc
  68              	.LVL3:
  69 0038 130101FE 		addi	sp,sp,-32
  70              		.cfi_def_cfa_offset 32
  71 003c 233C1100 		sd	ra,24(sp)
  72 0040 23388100 		sd	s0,16(sp)
  73 0044 23349100 		sd	s1,8(sp)
  74              		.cfi_offset 1, -8
  75              		.cfi_offset 8, -16
  76              		.cfi_offset 9, -24
  77 0048 13040102 		addi	s0,sp,32
  78              		.cfi_def_cfa 8, 0
  79 004c 93840500 		mv	s1,a1
  22:src/tcb.cpp   ****     //*handle = new TCB(body, TIME_SLICE, arguments);
  23:src/tcb.cpp   ****     *handle = (TCB*) MemoryAllocation::mem_alloc(MemoryAllocation::bytesToBlocks(sizeof(TCB)));
  80              		.loc 1 23 5
  81              	.LVL4:
  82              		.file 2 "src/../h/../h/../h/MemoryAllocation.hpp"
   1:src/../h/../h/../h/MemoryAllocation.hpp **** #include "../lib/hw.h"
   2:src/../h/../h/../h/MemoryAllocation.hpp **** 
   3:src/../h/../h/../h/MemoryAllocation.hpp **** 
   4:src/../h/../h/../h/MemoryAllocation.hpp **** #ifndef PROJECT_BASE_MEMORYALLOCATION_HPP
   5:src/../h/../h/../h/MemoryAllocation.hpp **** #define PROJECT_BASE_MEMORYALLOCATION_HPP
   6:src/../h/../h/../h/MemoryAllocation.hpp **** 
   7:src/../h/../h/../h/MemoryAllocation.hpp **** 
   8:src/../h/../h/../h/MemoryAllocation.hpp **** class MemoryAllocation {
   9:src/../h/../h/../h/MemoryAllocation.hpp **** 
  10:src/../h/../h/../h/MemoryAllocation.hpp ****     //===========================DEFINICIJA SINGLETON KLASE POCETAK=======================k
  11:src/../h/../h/../h/MemoryAllocation.hpp **** private:
  12:src/../h/../h/../h/MemoryAllocation.hpp **** 
  13:src/../h/../h/../h/MemoryAllocation.hpp ****     struct FreeMem {
  14:src/../h/../h/../h/MemoryAllocation.hpp ****         FreeMem *next;
GAS LISTING /tmp/cclYAUXt.s 			page 3


  15:src/../h/../h/../h/MemoryAllocation.hpp ****         FreeMem *prev;
  16:src/../h/../h/../h/MemoryAllocation.hpp ****         size_t size;
  17:src/../h/../h/../h/MemoryAllocation.hpp ****     };
  18:src/../h/../h/../h/MemoryAllocation.hpp **** 
  19:src/../h/../h/../h/MemoryAllocation.hpp **** 
  20:src/../h/../h/../h/MemoryAllocation.hpp ****     static FreeMem *fmem_head; //koja pocetna vrednost?
  21:src/../h/../h/../h/MemoryAllocation.hpp **** 
  22:src/../h/../h/../h/MemoryAllocation.hpp **** 
  23:src/../h/../h/../h/MemoryAllocation.hpp **** 
  24:src/../h/../h/../h/MemoryAllocation.hpp ****     static MemoryAllocation *instance;
  25:src/../h/../h/../h/MemoryAllocation.hpp ****     int data;
  26:src/../h/../h/../h/MemoryAllocation.hpp **** 
  27:src/../h/../h/../h/MemoryAllocation.hpp **** 
  28:src/../h/../h/../h/MemoryAllocation.hpp ****     MemoryAllocation() { //OVO SE SADA NIGGDE
  29:src/../h/../h/../h/MemoryAllocation.hpp ****         fmem_head->size = (size_t) ((char *) HEAP_END_ADDR -
  30:src/../h/../h/../h/MemoryAllocation.hpp ****                                     (char *) HEAP_START_ADDR); //da li smem ovo da castujem u size_
  31:src/../h/../h/../h/MemoryAllocation.hpp ****         fmem_head->next = nullptr;
  32:src/../h/../h/../h/MemoryAllocation.hpp ****         fmem_head->prev = nullptr;
  33:src/../h/../h/../h/MemoryAllocation.hpp ****         data = 0;
  34:src/../h/../h/../h/MemoryAllocation.hpp ****     }
  35:src/../h/../h/../h/MemoryAllocation.hpp **** 
  36:src/../h/../h/../h/MemoryAllocation.hpp ****     MemoryAllocation(MemoryAllocation const &);
  37:src/../h/../h/../h/MemoryAllocation.hpp **** 
  38:src/../h/../h/../h/MemoryAllocation.hpp ****     void operator=(MemoryAllocation const &);
  39:src/../h/../h/../h/MemoryAllocation.hpp **** 
  40:src/../h/../h/../h/MemoryAllocation.hpp **** public:
  41:src/../h/../h/../h/MemoryAllocation.hpp **** 
  42:src/../h/../h/../h/MemoryAllocation.hpp **** 
  43:src/../h/../h/../h/MemoryAllocation.hpp ****     static MemoryAllocation *getInstance() {
  44:src/../h/../h/../h/MemoryAllocation.hpp ****         if (!instance) {
  45:src/../h/../h/../h/MemoryAllocation.hpp ****             fmem_head =  (FreeMem*) HEAP_START_ADDR;
  46:src/../h/../h/../h/MemoryAllocation.hpp ****             fmem_head->size = (size_t) ((char *) HEAP_END_ADDR -
  47:src/../h/../h/../h/MemoryAllocation.hpp ****                                         (char *) HEAP_START_ADDR); //da li smem ovo da castujem u s
  48:src/../h/../h/../h/MemoryAllocation.hpp ****             fmem_head->next = nullptr;
  49:src/../h/../h/../h/MemoryAllocation.hpp ****             fmem_head->prev = nullptr;
  50:src/../h/../h/../h/MemoryAllocation.hpp ****             static MemoryAllocation* instance;
  51:src/../h/../h/../h/MemoryAllocation.hpp ****             return instance;
  52:src/../h/../h/../h/MemoryAllocation.hpp ****         }
  53:src/../h/../h/../h/MemoryAllocation.hpp ****         return instance;
  54:src/../h/../h/../h/MemoryAllocation.hpp ****     }
  55:src/../h/../h/../h/MemoryAllocation.hpp **** 
  56:src/../h/../h/../h/MemoryAllocation.hpp **** 
  57:src/../h/../h/../h/MemoryAllocation.hpp ****     int getData() {
  58:src/../h/../h/../h/MemoryAllocation.hpp ****         return this->data;
  59:src/../h/../h/../h/MemoryAllocation.hpp ****     }
  60:src/../h/../h/../h/MemoryAllocation.hpp **** 
  61:src/../h/../h/../h/MemoryAllocation.hpp ****     void setData(int data) {
  62:src/../h/../h/../h/MemoryAllocation.hpp ****         this->data = data;
  63:src/../h/../h/../h/MemoryAllocation.hpp ****     }
  64:src/../h/../h/../h/MemoryAllocation.hpp **** 
  65:src/../h/../h/../h/MemoryAllocation.hpp ****     /*MemoryAllocation(MemoryAllocation const&) = delete;
  66:src/../h/../h/../h/MemoryAllocation.hpp ****     void operator=(MemoryAllocation const&)  = delete;*/
  67:src/../h/../h/../h/MemoryAllocation.hpp **** //===========================DEFINICIJA SINGLETON KLASE KRAJ========================
  68:src/../h/../h/../h/MemoryAllocation.hpp ****     static int bytesToBlocks(size_t size){
  69:src/../h/../h/../h/MemoryAllocation.hpp ****         return (size+sizeof(FreeMem)+MEM_BLOCK_SIZE-1)/MEM_BLOCK_SIZE;
  83              		.loc 2 69 9
  84              	.LBB22:
GAS LISTING /tmp/cclYAUXt.s 			page 4


  85              	.LBB23:
  70:src/../h/../h/../h/MemoryAllocation.hpp ****     }
  71:src/../h/../h/../h/MemoryAllocation.hpp **** 
  72:src/../h/../h/../h/MemoryAllocation.hpp **** 
  73:src/../h/../h/../h/MemoryAllocation.hpp **** //===========================METODE ZA ALOKACIJU MEMORIJE===========================
  74:src/../h/../h/../h/MemoryAllocation.hpp ****     static void tryToJoin (FreeMem* curr) {
  75:src/../h/../h/../h/MemoryAllocation.hpp ****         if (!curr) return;
  76:src/../h/../h/../h/MemoryAllocation.hpp ****         if (curr->next && (char*)curr+curr->size == (char*)(curr->next)) {
  77:src/../h/../h/../h/MemoryAllocation.hpp ****         // Remove the cur->next segment:
  78:src/../h/../h/../h/MemoryAllocation.hpp ****             curr->size += curr->next->size;
  79:src/../h/../h/../h/MemoryAllocation.hpp ****             curr->next = curr->next->next;
  80:src/../h/../h/../h/MemoryAllocation.hpp ****             if (curr->next) curr->next->prev = curr;
  81:src/../h/../h/../h/MemoryAllocation.hpp ****             return;
  82:src/../h/../h/../h/MemoryAllocation.hpp ****         }
  83:src/../h/../h/../h/MemoryAllocation.hpp **** 
  84:src/../h/../h/../h/MemoryAllocation.hpp ****     }
  85:src/../h/../h/../h/MemoryAllocation.hpp **** 
  86:src/../h/../h/../h/MemoryAllocation.hpp ****     //===================================== mem_free, ali sa ptr ===============
  87:src/../h/../h/../h/MemoryAllocation.hpp ****         static int mem_free(void* ptr) { //radi i kada posaljem sa &
  88:src/../h/../h/../h/MemoryAllocation.hpp ****         FreeMem* cur=0;
  89:src/../h/../h/../h/MemoryAllocation.hpp ****         if(!fmem_head || ptr < (char*)fmem_head)
  90:src/../h/../h/../h/MemoryAllocation.hpp ****         {
  91:src/../h/../h/../h/MemoryAllocation.hpp ****             cur=nullptr;
  92:src/../h/../h/../h/MemoryAllocation.hpp ****         }else {
  93:src/../h/../h/../h/MemoryAllocation.hpp ****                 for (cur=fmem_head; cur->next!=ptr && ptr>(char*)(cur->next); cur=cur->next); //moz
  94:src/../h/../h/../h/MemoryAllocation.hpp ****             }
  95:src/../h/../h/../h/MemoryAllocation.hpp ****                 FreeMem* newSeg = (FreeMem*)ptr;
  96:src/../h/../h/../h/MemoryAllocation.hpp ****                 newSeg->next=nullptr;
  97:src/../h/../h/../h/MemoryAllocation.hpp ****                 newSeg->prev=nullptr;
  98:src/../h/../h/../h/MemoryAllocation.hpp ****                 newSeg->size=bytesToBlocks(sizeof(ptr))*MEM_BLOCK_SIZE;
  99:src/../h/../h/../h/MemoryAllocation.hpp ****                         //sizeof(ptr);
 100:src/../h/../h/../h/MemoryAllocation.hpp ****                 newSeg->prev=cur;
 101:src/../h/../h/../h/MemoryAllocation.hpp ****                 if(cur) {
 102:src/../h/../h/../h/MemoryAllocation.hpp ****                     newSeg->next = cur->next;
 103:src/../h/../h/../h/MemoryAllocation.hpp ****                 }
 104:src/../h/../h/../h/MemoryAllocation.hpp ****                 else {
 105:src/../h/../h/../h/MemoryAllocation.hpp ****                     newSeg->next = fmem_head;
 106:src/../h/../h/../h/MemoryAllocation.hpp ****                 }
 107:src/../h/../h/../h/MemoryAllocation.hpp ****                 if(newSeg->next) {
 108:src/../h/../h/../h/MemoryAllocation.hpp ****                     newSeg->next->prev=newSeg;
 109:src/../h/../h/../h/MemoryAllocation.hpp ****                 }
 110:src/../h/../h/../h/MemoryAllocation.hpp ****                 if (cur) {
 111:src/../h/../h/../h/MemoryAllocation.hpp ****                     cur->next = newSeg; //zasto ovde odjednom uzme vrednost x8000 umesto x8000f...?
 112:src/../h/../h/../h/MemoryAllocation.hpp ****                 }
 113:src/../h/../h/../h/MemoryAllocation.hpp ****                 else {
 114:src/../h/../h/../h/MemoryAllocation.hpp ****                     fmem_head = newSeg;
 115:src/../h/../h/../h/MemoryAllocation.hpp ****                 }
 116:src/../h/../h/../h/MemoryAllocation.hpp ****                 // Try to merge with the previous and next segments:
 117:src/../h/../h/../h/MemoryAllocation.hpp ****             tryToJoin(newSeg);
 118:src/../h/../h/../h/MemoryAllocation.hpp ****             tryToJoin(cur);
 119:src/../h/../h/../h/MemoryAllocation.hpp ****             //mozda da fmem_head nije jednako starom fmem_headu?
 120:src/../h/../h/../h/MemoryAllocation.hpp ****             if(newSeg==nullptr){
 121:src/../h/../h/../h/MemoryAllocation.hpp ****                 return -1;
 122:src/../h/../h/../h/MemoryAllocation.hpp ****             }else{return 0;}
 123:src/../h/../h/../h/MemoryAllocation.hpp **** 
 124:src/../h/../h/../h/MemoryAllocation.hpp **** 
 125:src/../h/../h/../h/MemoryAllocation.hpp ****     }
GAS LISTING /tmp/cclYAUXt.s 			page 5


 126:src/../h/../h/../h/MemoryAllocation.hpp ****     //===================================== kraj probe ==========================
 127:src/../h/../h/../h/MemoryAllocation.hpp **** 
 128:src/../h/../h/../h/MemoryAllocation.hpp **** 
 129:src/../h/../h/../h/MemoryAllocation.hpp **** 
 130:src/../h/../h/../h/MemoryAllocation.hpp ****     /*int mem_free(char* addr, size_t size) {
 131:src/../h/../h/../h/MemoryAllocation.hpp ****         // Find the place where to insert the new free segment (just after cur):
 132:src/../h/../h/../h/MemoryAllocation.hpp ****         FreeMem* cur=0;
 133:src/../h/../h/../h/MemoryAllocation.hpp ****         if (!fmem_head || addr<(char*)fmem_head)
 134:src/../h/../h/../h/MemoryAllocation.hpp ****             cur = 0; // insert as the first
 135:src/../h/../h/../h/MemoryAllocation.hpp ****         else
 136:src/../h/../h/../h/MemoryAllocation.hpp ****             for (cur=fmem_head; cur->next!=0 && addr>(char*)(cur->next);
 137:src/../h/../h/../h/MemoryAllocation.hpp ****                  cur=cur->next);
 138:src/../h/../h/../h/MemoryAllocation.hpp ****             // Insert the new segment after cur:
 139:src/../h/../h/../h/MemoryAllocation.hpp ****         FreeMem* newSeg = (FreeMem*)addr;
 140:src/../h/../h/../h/MemoryAllocation.hpp ****         newSeg->size = size;
 141:src/../h/../h/../h/MemoryAllocation.hpp ****         newSeg->prev = cur;
 142:src/../h/../h/../h/MemoryAllocation.hpp ****         if (cur) newSeg->next = cur->next;
 143:src/../h/../h/../h/MemoryAllocation.hpp ****         else newSeg->next = fmem_head;
 144:src/../h/../h/../h/MemoryAllocation.hpp ****         if (newSeg->next) newSeg->next->prev = newSeg;
 145:src/../h/../h/../h/MemoryAllocation.hpp ****         if (cur) cur->next = newSeg;
 146:src/../h/../h/../h/MemoryAllocation.hpp ****         else fmem_head = newSeg;
 147:src/../h/../h/../h/MemoryAllocation.hpp ****             // Try to merge with the previous and next segments:
 148:src/../h/../h/../h/MemoryAllocation.hpp ****         tryToJoin(newSeg);
 149:src/../h/../h/../h/MemoryAllocation.hpp ****         tryToJoin(cur);
 150:src/../h/../h/../h/MemoryAllocation.hpp ****     }*/
 151:src/../h/../h/../h/MemoryAllocation.hpp **** 
 152:src/../h/../h/../h/MemoryAllocation.hpp ****     static void* mem_alloc(size_t size) {//uopste ne radi, iako u lotsofsmallmallocs pise da radi
 153:src/../h/../h/../h/MemoryAllocation.hpp ****         //size_t x=sizeof(fmem_head);
 154:src/../h/../h/../h/MemoryAllocation.hpp ****         //pozovi ovde samo bytes to blocks od size, da ne moras to da radis iz maina
 155:src/../h/../h/../h/MemoryAllocation.hpp ****         size=(size)*(size_t)MEM_BLOCK_SIZE; //kada je ovo ukljuceno, pravi problem u memfree, so il
  86              		.loc 2 155 9
 156:src/../h/../h/../h/MemoryAllocation.hpp ****         for (FreeMem* cur = fmem_head; cur != nullptr; cur=cur->next){ // U DRUGOJ ITERACIJI FMEM_H
  87              		.loc 2 156 9
  88              	.LBB24:
  89              		.loc 2 156 23 is_stmt 0
  90 0050 97070000 		la	a5,_ZN16MemoryAllocation9fmem_headE
  90      83B70700 
  91 0058 83B70700 		ld	a5,0(a5)
  92              	.LVL5:
  93              	.L7:
  94              		.loc 2 156 44 is_stmt 1
  95 005c 638A070C 		beqz	a5,.L6
  96              	.LBB25:
 157:src/../h/../h/../h/MemoryAllocation.hpp ****             cur->next=fmem_head->next;
  97              		.loc 2 157 13
  98              		.loc 2 157 34 is_stmt 0
  99 0060 17070000 		la	a4,_ZN16MemoryAllocation9fmem_headE
  99      03370700 
 100 0068 83350700 		ld	a1,0(a4)
 101 006c 83B50500 		ld	a1,0(a1)
 102              		.loc 2 157 22
 103 0070 23B0B700 		sd	a1,0(a5)
 158:src/../h/../h/../h/MemoryAllocation.hpp ****             cur->prev=fmem_head->prev;
 104              		.loc 2 158 13 is_stmt 1
 105              		.loc 2 158 34 is_stmt 0
 106 0074 03370700 		ld	a4,0(a4)
 107 0078 03388700 		ld	a6,8(a4)
GAS LISTING /tmp/cclYAUXt.s 			page 6


 108              		.loc 2 158 22
 109 007c 23B40701 		sd	a6,8(a5)
 159:src/../h/../h/../h/MemoryAllocation.hpp ****             if (cur->size<size) continue;
 110              		.loc 2 159 13 is_stmt 1
 111              		.loc 2 159 22 is_stmt 0
 112 0080 03B70701 		ld	a4,16(a5)
 113              		.loc 2 159 13
 114 0084 9308F007 		li	a7,127
 115 0088 63F6E802 		bleu	a4,a7,.L29
 160:src/../h/../h/../h/MemoryAllocation.hpp ****             if (cur->size-size<=sizeof(FreeMem)){
 116              		.loc 2 160 13 is_stmt 1
 117              	.LBB26:
 118              		.loc 2 160 26 is_stmt 0
 119 008c 130707F8 		addi	a4,a4,-128
 120              		.loc 2 160 13
 121 0090 93088001 		li	a7,24
 122 0094 63ECE802 		bgtu	a4,a7,.L8
 161:src/../h/../h/../h/MemoryAllocation.hpp ****                 if (cur->prev) cur->prev->next = cur->next;
 123              		.loc 2 161 17 is_stmt 1
 124 0098 63020802 		beqz	a6,.L9
 125              		.loc 2 161 32
 126              		.loc 2 161 48 is_stmt 0
 127 009c 2330B800 		sd	a1,0(a6)
 128              	.L10:
 162:src/../h/../h/../h/MemoryAllocation.hpp ****                 else fmem_head = cur->next;
 163:src/../h/../h/../h/MemoryAllocation.hpp ****                 if (cur->next) cur->next->prev = cur->prev;
 129              		.loc 2 163 17 is_stmt 1
 130              		.loc 2 163 26 is_stmt 0
 131 00a0 03B70700 		ld	a4,0(a5)
 132              		.loc 2 163 17
 133 00a4 63060708 		beqz	a4,.L6
 134              		.loc 2 163 32 is_stmt 1
 135              		.loc 2 163 55 is_stmt 0
 136 00a8 83B58700 		ld	a1,8(a5)
 137              		.loc 2 163 48
 138 00ac 2334B700 		sd	a1,8(a4)
 164:src/../h/../h/../h/MemoryAllocation.hpp ****                 return cur;
 139              		.loc 2 164 17 is_stmt 1
 140              		.loc 2 164 24 is_stmt 0
 141 00b0 6F000008 		j	.L6
 142              	.L29:
 143              	.LBE26:
 144              	.LBE25:
 156:src/../h/../h/../h/MemoryAllocation.hpp ****             cur->next=fmem_head->next;
 145              		.loc 2 156 59
 146 00b4 93870500 		mv	a5,a1
 147              	.LVL6:
 148 00b8 6FF05FFA 		j	.L7
 149              	.LVL7:
 150              	.L9:
 151              	.LBB31:
 152              	.LBB29:
 162:src/../h/../h/../h/MemoryAllocation.hpp ****                 else fmem_head = cur->next;
 153              		.loc 2 162 22 is_stmt 1
 162:src/../h/../h/../h/MemoryAllocation.hpp ****                 else fmem_head = cur->next;
 154              		.loc 2 162 32 is_stmt 0
 155 00bc 17070000 		la	a4,_ZN16MemoryAllocation9fmem_headE
GAS LISTING /tmp/cclYAUXt.s 			page 7


 155      03370700 
 156 00c4 2330B700 		sd	a1,0(a4)
 157 00c8 6FF09FFD 		j	.L10
 158              	.L8:
 159              	.LBB27:
 165:src/../h/../h/../h/MemoryAllocation.hpp ****             }else {
 166:src/../h/../h/../h/MemoryAllocation.hpp ****                 FreeMem* newfrgm = (FreeMem*)((char*)cur+size);
 160              		.loc 2 166 17 is_stmt 1
 161              		.loc 2 166 26 is_stmt 0
 162 00cc 13870708 		addi	a4,a5,128
 163              	.LVL8:
 167:src/../h/../h/../h/MemoryAllocation.hpp ****                 newfrgm->prev=nullptr;
 164              		.loc 2 167 17 is_stmt 1
 165              		.loc 2 167 30 is_stmt 0
 166 00d0 23340700 		sd	zero,8(a4)
 168:src/../h/../h/../h/MemoryAllocation.hpp ****                 newfrgm->next=nullptr;
 167              		.loc 2 168 17 is_stmt 1
 168              		.loc 2 168 30 is_stmt 0
 169 00d4 23B00708 		sd	zero,128(a5)
 169:src/../h/../h/../h/MemoryAllocation.hpp ****                 //newfrgm->size=cur->size-size;// DODATO TOKOM PROBE NITI
 170:src/../h/../h/../h/MemoryAllocation.hpp ****                 if (cur && cur->prev) cur->prev->next = newfrgm;
 170              		.loc 2 170 17 is_stmt 1
 171              		.loc 2 170 33 is_stmt 0
 172 00d8 83B58700 		ld	a1,8(a5)
 173              		.loc 2 170 25
 174 00dc 638C050C 		beqz	a1,.L12
 175              		.loc 2 170 39 is_stmt 1
 176              		.loc 2 170 55 is_stmt 0
 177 00e0 23B0E500 		sd	a4,0(a1)
 178              	.L13:
 171:src/../h/../h/../h/MemoryAllocation.hpp ****                 else fmem_head = newfrgm+sizeof(fmem_head); // ovo sam dodao sizeof da bi mi radio 
 172:src/../h/../h/../h/MemoryAllocation.hpp ****                 if (cur && cur->next) cur->next->prev = newfrgm;
 179              		.loc 2 172 17 is_stmt 1
 180              		.loc 2 172 33 is_stmt 0
 181 00e4 83B50700 		ld	a1,0(a5)
 182              		.loc 2 172 25
 183 00e8 63840500 		beqz	a1,.L14
 184              		.loc 2 172 39 is_stmt 1
 185              		.loc 2 172 55 is_stmt 0
 186 00ec 23B4E500 		sd	a4,8(a1)
 187              	.L14:
 173:src/../h/../h/../h/MemoryAllocation.hpp ****                 newfrgm->prev = cur->prev;
 188              		.loc 2 173 17 is_stmt 1
 189              		.loc 2 173 38 is_stmt 0
 190 00f0 03B88700 		ld	a6,8(a5)
 191              		.loc 2 173 31
 192 00f4 23340701 		sd	a6,8(a4)
 174:src/../h/../h/../h/MemoryAllocation.hpp ****                 newfrgm->next = cur->next;
 193              		.loc 2 174 17 is_stmt 1
 194              		.loc 2 174 38 is_stmt 0
 195 00f8 83B50700 		ld	a1,0(a5)
 196              		.loc 2 174 31
 197 00fc 2330B700 		sd	a1,0(a4)
 175:src/../h/../h/../h/MemoryAllocation.hpp ****                 newfrgm->size = cur->size-size;
 198              		.loc 2 175 17 is_stmt 1
 199              		.loc 2 175 38 is_stmt 0
 200 0100 83B70701 		ld	a5,16(a5)
GAS LISTING /tmp/cclYAUXt.s 			page 8


 201              	.LVL9:
 202              		.loc 2 175 42
 203 0104 938707F8 		addi	a5,a5,-128
 204              		.loc 2 175 31
 205 0108 2338F700 		sd	a5,16(a4)
 176:src/../h/../h/../h/MemoryAllocation.hpp ****                 fmem_head =newfrgm+sizeof(fmem_head);
 206              		.loc 2 176 17 is_stmt 1
 207              		.loc 2 176 35 is_stmt 0
 208 010c 9305070C 		addi	a1,a4,192
 209              		.loc 2 176 27
 210 0110 97080000 		la	a7,_ZN16MemoryAllocation9fmem_headE
 210      83B80800 
 211 0118 23B0B800 		sd	a1,0(a7)
 177:src/../h/../h/../h/MemoryAllocation.hpp ****                 fmem_head->next=newfrgm->next;
 212              		.loc 2 177 17 is_stmt 1
 213              		.loc 2 177 42 is_stmt 0
 214 011c 83380700 		ld	a7,0(a4)
 215              		.loc 2 177 32
 216 0120 2330170D 		sd	a7,192(a4)
 178:src/../h/../h/../h/MemoryAllocation.hpp ****                 fmem_head->prev=newfrgm->prev;
 217              		.loc 2 178 17 is_stmt 1
 218              		.loc 2 178 32 is_stmt 0
 219 0124 2334070D 		sd	a6,200(a4)
 179:src/../h/../h/../h/MemoryAllocation.hpp ****                 fmem_head->size=newfrgm->size;
 220              		.loc 2 179 17 is_stmt 1
 221              		.loc 2 179 32 is_stmt 0
 222 0128 2338F70C 		sd	a5,208(a4)
 180:src/../h/../h/../h/MemoryAllocation.hpp ****                 //fmem_head = (FreeMem*) (char*)newfrgm;
 181:src/../h/../h/../h/MemoryAllocation.hpp ****                 return newfrgm;
 223              		.loc 2 181 17 is_stmt 1
 224              		.loc 2 181 24 is_stmt 0
 225 012c 93070700 		mv	a5,a4
 226              	.LVL10:
 227              	.L6:
 228              	.LBE27:
 229              	.LBE29:
 230              	.LBE31:
 231              	.LBE24:
 232              	.LBE23:
 233              	.LBE22:
 234              		.loc 1 23 13
 235 0130 23B0F400 		sd	a5,0(s1)
  24:src/tcb.cpp   ****     (*handle)->body=body;
 236              		.loc 1 24 5 is_stmt 1
 237              		.loc 1 24 20 is_stmt 0
 238 0134 23B0A700 		sd	a0,0(a5)
  25:src/tcb.cpp   ****     (*handle)->arguments=arguments;
 239              		.loc 1 25 5 is_stmt 1
 240              		.loc 1 25 6 is_stmt 0
 241 0138 83B70400 		ld	a5,0(s1)
 242              		.loc 1 25 25
 243 013c 23B4C702 		sd	a2,40(a5)
  26:src/tcb.cpp   ****     (*handle)->stack = body ? (uint64*) MemoryAllocation::mem_alloc(MemoryAllocation::bytesToBlocks
 244              		.loc 1 26 5 is_stmt 1
 245              		.loc 1 26 29 is_stmt 0
 246 0140 63060512 		beqz	a0,.L30
 247              	.LVL11:
GAS LISTING /tmp/cclYAUXt.s 			page 9


  69:src/../h/../h/../h/MemoryAllocation.hpp ****     }
 248              		.loc 2 69 9 is_stmt 1
 249              	.LBB35:
 250              	.LBB36:
 155:src/../h/../h/../h/MemoryAllocation.hpp ****         for (FreeMem* cur = fmem_head; cur != nullptr; cur=cur->next){ // U DRUGOJ ITERACIJI FMEM_H
 251              		.loc 2 155 9
 156:src/../h/../h/../h/MemoryAllocation.hpp ****             cur->next=fmem_head->next;
 252              		.loc 2 156 9
 253              	.LBB37:
 156:src/../h/../h/../h/MemoryAllocation.hpp ****             cur->next=fmem_head->next;
 254              		.loc 2 156 23 is_stmt 0
 255 0144 97070000 		la	a5,_ZN16MemoryAllocation9fmem_headE
 255      83B70700 
 256 014c 83B70700 		ld	a5,0(a5)
 257              	.LVL12:
 258              	.L17:
 156:src/../h/../h/../h/MemoryAllocation.hpp ****             cur->next=fmem_head->next;
 259              		.loc 2 156 44 is_stmt 1
 260 0150 63800712 		beqz	a5,.L15
 261              	.LBB38:
 157:src/../h/../h/../h/MemoryAllocation.hpp ****             cur->prev=fmem_head->prev;
 262              		.loc 2 157 13
 157:src/../h/../h/../h/MemoryAllocation.hpp ****             cur->prev=fmem_head->prev;
 263              		.loc 2 157 34 is_stmt 0
 264 0154 17070000 		la	a4,_ZN16MemoryAllocation9fmem_headE
 264      03370700 
 265 015c 03360700 		ld	a2,0(a4)
 266 0160 83350600 		ld	a1,0(a2)
 157:src/../h/../h/../h/MemoryAllocation.hpp ****             cur->prev=fmem_head->prev;
 267              		.loc 2 157 22
 268 0164 23B0B700 		sd	a1,0(a5)
 158:src/../h/../h/../h/MemoryAllocation.hpp ****             if (cur->size<size) continue;
 269              		.loc 2 158 13 is_stmt 1
 158:src/../h/../h/../h/MemoryAllocation.hpp ****             if (cur->size<size) continue;
 270              		.loc 2 158 34 is_stmt 0
 271 0168 03370700 		ld	a4,0(a4)
 272 016c 03388700 		ld	a6,8(a4)
 158:src/../h/../h/../h/MemoryAllocation.hpp ****             if (cur->size<size) continue;
 273              		.loc 2 158 22
 274 0170 23B40701 		sd	a6,8(a5)
 159:src/../h/../h/../h/MemoryAllocation.hpp ****             if (cur->size-size<=sizeof(FreeMem)){
 275              		.loc 2 159 13 is_stmt 1
 159:src/../h/../h/../h/MemoryAllocation.hpp ****             if (cur->size-size<=sizeof(FreeMem)){
 276              		.loc 2 159 22 is_stmt 0
 277 0174 03B70701 		ld	a4,16(a5)
 159:src/../h/../h/../h/MemoryAllocation.hpp ****             if (cur->size-size<=sizeof(FreeMem)){
 278              		.loc 2 159 13
 279 0178 37160000 		li	a2,4096
 280 017c 1306F603 		addi	a2,a2,63
 281 0180 6374E604 		bleu	a4,a2,.L31
 160:src/../h/../h/../h/MemoryAllocation.hpp ****                 if (cur->prev) cur->prev->next = cur->next;
 282              		.loc 2 160 13 is_stmt 1
 283              	.LBB39:
 160:src/../h/../h/../h/MemoryAllocation.hpp ****                 if (cur->prev) cur->prev->next = cur->next;
 284              		.loc 2 160 26 is_stmt 0
 285 0184 37F6FFFF 		li	a2,-4096
 286 0188 130606FC 		addi	a2,a2,-64
GAS LISTING /tmp/cclYAUXt.s 			page 10


 287 018c 3307C700 		add	a4,a4,a2
 160:src/../h/../h/../h/MemoryAllocation.hpp ****                 if (cur->prev) cur->prev->next = cur->next;
 288              		.loc 2 160 13
 289 0190 13068001 		li	a2,24
 290 0194 6366E604 		bgtu	a4,a2,.L18
 161:src/../h/../h/../h/MemoryAllocation.hpp ****                 else fmem_head = cur->next;
 291              		.loc 2 161 17 is_stmt 1
 292 0198 630C0802 		beqz	a6,.L19
 161:src/../h/../h/../h/MemoryAllocation.hpp ****                 else fmem_head = cur->next;
 293              		.loc 2 161 32
 161:src/../h/../h/../h/MemoryAllocation.hpp ****                 else fmem_head = cur->next;
 294              		.loc 2 161 48 is_stmt 0
 295 019c 2330B800 		sd	a1,0(a6)
 296              	.L20:
 163:src/../h/../h/../h/MemoryAllocation.hpp ****                 return cur;
 297              		.loc 2 163 17 is_stmt 1
 163:src/../h/../h/../h/MemoryAllocation.hpp ****                 return cur;
 298              		.loc 2 163 26 is_stmt 0
 299 01a0 03B70700 		ld	a4,0(a5)
 163:src/../h/../h/../h/MemoryAllocation.hpp ****                 return cur;
 300              		.loc 2 163 17
 301 01a4 6306070C 		beqz	a4,.L15
 163:src/../h/../h/../h/MemoryAllocation.hpp ****                 return cur;
 302              		.loc 2 163 32 is_stmt 1
 163:src/../h/../h/../h/MemoryAllocation.hpp ****                 return cur;
 303              		.loc 2 163 55 is_stmt 0
 304 01a8 03B68700 		ld	a2,8(a5)
 163:src/../h/../h/../h/MemoryAllocation.hpp ****                 return cur;
 305              		.loc 2 163 48
 306 01ac 2334C700 		sd	a2,8(a4)
 164:src/../h/../h/../h/MemoryAllocation.hpp ****             }else {
 307              		.loc 2 164 17 is_stmt 1
 164:src/../h/../h/../h/MemoryAllocation.hpp ****             }else {
 308              		.loc 2 164 24 is_stmt 0
 309 01b0 6F00000C 		j	.L15
 310              	.LVL13:
 311              	.L12:
 312              	.LBE39:
 313              	.LBE38:
 314              	.LBE37:
 315              	.LBE36:
 316              	.LBE35:
 317              	.LBB45:
 318              	.LBB34:
 319              	.LBB33:
 320              	.LBB32:
 321              	.LBB30:
 322              	.LBB28:
 171:src/../h/../h/../h/MemoryAllocation.hpp ****                 if (cur && cur->next) cur->next->prev = newfrgm;
 323              		.loc 2 171 22 is_stmt 1
 171:src/../h/../h/../h/MemoryAllocation.hpp ****                 if (cur && cur->next) cur->next->prev = newfrgm;
 324              		.loc 2 171 41 is_stmt 0
 325 01b4 9305070C 		addi	a1,a4,192
 171:src/../h/../h/../h/MemoryAllocation.hpp ****                 if (cur && cur->next) cur->next->prev = newfrgm;
 326              		.loc 2 171 32
 327 01b8 17080000 		la	a6,_ZN16MemoryAllocation9fmem_headE
 327      03380800 
GAS LISTING /tmp/cclYAUXt.s 			page 11


 328 01c0 2330B800 		sd	a1,0(a6)
 329 01c4 6FF01FF2 		j	.L13
 330              	.LVL14:
 331              	.L31:
 332              	.LBE28:
 333              	.LBE30:
 334              	.LBE32:
 335              	.LBE33:
 336              	.LBE34:
 337              	.LBE45:
 338              	.LBB46:
 339              	.LBB44:
 340              	.LBB43:
 156:src/../h/../h/../h/MemoryAllocation.hpp ****             cur->next=fmem_head->next;
 341              		.loc 2 156 59
 342 01c8 93870500 		mv	a5,a1
 343              	.LVL15:
 344 01cc 6FF05FF8 		j	.L17
 345              	.LVL16:
 346              	.L19:
 347              	.LBB42:
 348              	.LBB41:
 162:src/../h/../h/../h/MemoryAllocation.hpp ****                 if (cur->next) cur->next->prev = cur->prev;
 349              		.loc 2 162 22 is_stmt 1
 162:src/../h/../h/../h/MemoryAllocation.hpp ****                 if (cur->next) cur->next->prev = cur->prev;
 350              		.loc 2 162 32 is_stmt 0
 351 01d0 17070000 		la	a4,_ZN16MemoryAllocation9fmem_headE
 351      03370700 
 352 01d8 2330B700 		sd	a1,0(a4)
 353 01dc 6FF05FFC 		j	.L20
 354              	.L18:
 355              	.LBB40:
 166:src/../h/../h/../h/MemoryAllocation.hpp ****                 newfrgm->prev=nullptr;
 356              		.loc 2 166 17 is_stmt 1
 166:src/../h/../h/../h/MemoryAllocation.hpp ****                 newfrgm->prev=nullptr;
 357              		.loc 2 166 26 is_stmt 0
 358 01e0 37170000 		li	a4,4096
 359 01e4 13070704 		addi	a4,a4,64
 360 01e8 3387E700 		add	a4,a5,a4
 361              	.LVL17:
 167:src/../h/../h/../h/MemoryAllocation.hpp ****                 newfrgm->next=nullptr;
 362              		.loc 2 167 17 is_stmt 1
 167:src/../h/../h/../h/MemoryAllocation.hpp ****                 newfrgm->next=nullptr;
 363              		.loc 2 167 30 is_stmt 0
 364 01ec 23340700 		sd	zero,8(a4)
 168:src/../h/../h/../h/MemoryAllocation.hpp ****                 //newfrgm->size=cur->size-size;// DODATO TOKOM PROBE NITI
 365              		.loc 2 168 17 is_stmt 1
 168:src/../h/../h/../h/MemoryAllocation.hpp ****                 //newfrgm->size=cur->size-size;// DODATO TOKOM PROBE NITI
 366              		.loc 2 168 30 is_stmt 0
 367 01f0 23300700 		sd	zero,0(a4)
 170:src/../h/../h/../h/MemoryAllocation.hpp ****                 else fmem_head = newfrgm+sizeof(fmem_head); // ovo sam dodao sizeof da bi mi radio 
 368              		.loc 2 170 17 is_stmt 1
 170:src/../h/../h/../h/MemoryAllocation.hpp ****                 else fmem_head = newfrgm+sizeof(fmem_head); // ovo sam dodao sizeof da bi mi radio 
 369              		.loc 2 170 33 is_stmt 0
 370 01f4 03B68700 		ld	a2,8(a5)
 170:src/../h/../h/../h/MemoryAllocation.hpp ****                 else fmem_head = newfrgm+sizeof(fmem_head); // ovo sam dodao sizeof da bi mi radio 
 371              		.loc 2 170 25
GAS LISTING /tmp/cclYAUXt.s 			page 12


 372 01f8 63000606 		beqz	a2,.L22
 170:src/../h/../h/../h/MemoryAllocation.hpp ****                 else fmem_head = newfrgm+sizeof(fmem_head); // ovo sam dodao sizeof da bi mi radio 
 373              		.loc 2 170 39 is_stmt 1
 170:src/../h/../h/../h/MemoryAllocation.hpp ****                 else fmem_head = newfrgm+sizeof(fmem_head); // ovo sam dodao sizeof da bi mi radio 
 374              		.loc 2 170 55 is_stmt 0
 375 01fc 2330E600 		sd	a4,0(a2)
 376              	.L23:
 172:src/../h/../h/../h/MemoryAllocation.hpp ****                 newfrgm->prev = cur->prev;
 377              		.loc 2 172 17 is_stmt 1
 172:src/../h/../h/../h/MemoryAllocation.hpp ****                 newfrgm->prev = cur->prev;
 378              		.loc 2 172 33 is_stmt 0
 379 0200 03B60700 		ld	a2,0(a5)
 172:src/../h/../h/../h/MemoryAllocation.hpp ****                 newfrgm->prev = cur->prev;
 380              		.loc 2 172 25
 381 0204 63040600 		beqz	a2,.L24
 172:src/../h/../h/../h/MemoryAllocation.hpp ****                 newfrgm->prev = cur->prev;
 382              		.loc 2 172 39 is_stmt 1
 172:src/../h/../h/../h/MemoryAllocation.hpp ****                 newfrgm->prev = cur->prev;
 383              		.loc 2 172 55 is_stmt 0
 384 0208 2334E600 		sd	a4,8(a2)
 385              	.L24:
 173:src/../h/../h/../h/MemoryAllocation.hpp ****                 newfrgm->next = cur->next;
 386              		.loc 2 173 17 is_stmt 1
 173:src/../h/../h/../h/MemoryAllocation.hpp ****                 newfrgm->next = cur->next;
 387              		.loc 2 173 38 is_stmt 0
 388 020c 83B58700 		ld	a1,8(a5)
 173:src/../h/../h/../h/MemoryAllocation.hpp ****                 newfrgm->next = cur->next;
 389              		.loc 2 173 31
 390 0210 2334B700 		sd	a1,8(a4)
 174:src/../h/../h/../h/MemoryAllocation.hpp ****                 newfrgm->size = cur->size-size;
 391              		.loc 2 174 17 is_stmt 1
 174:src/../h/../h/../h/MemoryAllocation.hpp ****                 newfrgm->size = cur->size-size;
 392              		.loc 2 174 38 is_stmt 0
 393 0214 03B60700 		ld	a2,0(a5)
 174:src/../h/../h/../h/MemoryAllocation.hpp ****                 newfrgm->size = cur->size-size;
 394              		.loc 2 174 31
 395 0218 2330C700 		sd	a2,0(a4)
 175:src/../h/../h/../h/MemoryAllocation.hpp ****                 fmem_head =newfrgm+sizeof(fmem_head);
 396              		.loc 2 175 17 is_stmt 1
 175:src/../h/../h/../h/MemoryAllocation.hpp ****                 fmem_head =newfrgm+sizeof(fmem_head);
 397              		.loc 2 175 38 is_stmt 0
 398 021c 83B70701 		ld	a5,16(a5)
 399              	.LVL18:
 175:src/../h/../h/../h/MemoryAllocation.hpp ****                 fmem_head =newfrgm+sizeof(fmem_head);
 400              		.loc 2 175 42
 401 0220 37F6FFFF 		li	a2,-4096
 402 0224 130606FC 		addi	a2,a2,-64
 403 0228 B387C700 		add	a5,a5,a2
 175:src/../h/../h/../h/MemoryAllocation.hpp ****                 fmem_head =newfrgm+sizeof(fmem_head);
 404              		.loc 2 175 31
 405 022c 2338F700 		sd	a5,16(a4)
 176:src/../h/../h/../h/MemoryAllocation.hpp ****                 fmem_head->next=newfrgm->next;
 406              		.loc 2 176 17 is_stmt 1
 176:src/../h/../h/../h/MemoryAllocation.hpp ****                 fmem_head->next=newfrgm->next;
 407              		.loc 2 176 35 is_stmt 0
 408 0230 1306070C 		addi	a2,a4,192
 176:src/../h/../h/../h/MemoryAllocation.hpp ****                 fmem_head->next=newfrgm->next;
GAS LISTING /tmp/cclYAUXt.s 			page 13


 409              		.loc 2 176 27
 410 0234 17080000 		la	a6,_ZN16MemoryAllocation9fmem_headE
 410      03380800 
 411 023c 2330C800 		sd	a2,0(a6)
 177:src/../h/../h/../h/MemoryAllocation.hpp ****                 fmem_head->prev=newfrgm->prev;
 412              		.loc 2 177 17 is_stmt 1
 177:src/../h/../h/../h/MemoryAllocation.hpp ****                 fmem_head->prev=newfrgm->prev;
 413              		.loc 2 177 42 is_stmt 0
 414 0240 03380700 		ld	a6,0(a4)
 177:src/../h/../h/../h/MemoryAllocation.hpp ****                 fmem_head->prev=newfrgm->prev;
 415              		.loc 2 177 32
 416 0244 2330070D 		sd	a6,192(a4)
 178:src/../h/../h/../h/MemoryAllocation.hpp ****                 fmem_head->size=newfrgm->size;
 417              		.loc 2 178 17 is_stmt 1
 178:src/../h/../h/../h/MemoryAllocation.hpp ****                 fmem_head->size=newfrgm->size;
 418              		.loc 2 178 32 is_stmt 0
 419 0248 2334B70C 		sd	a1,200(a4)
 179:src/../h/../h/../h/MemoryAllocation.hpp ****                 //fmem_head = (FreeMem*) (char*)newfrgm;
 420              		.loc 2 179 17 is_stmt 1
 179:src/../h/../h/../h/MemoryAllocation.hpp ****                 //fmem_head = (FreeMem*) (char*)newfrgm;
 421              		.loc 2 179 32 is_stmt 0
 422 024c 2338F70C 		sd	a5,208(a4)
 423              		.loc 2 181 17 is_stmt 1
 424              		.loc 2 181 24 is_stmt 0
 425 0250 93070700 		mv	a5,a4
 426              	.LVL19:
 427 0254 6F00C001 		j	.L15
 428              	.LVL20:
 429              	.L22:
 171:src/../h/../h/../h/MemoryAllocation.hpp ****                 if (cur && cur->next) cur->next->prev = newfrgm;
 430              		.loc 2 171 22 is_stmt 1
 171:src/../h/../h/../h/MemoryAllocation.hpp ****                 if (cur && cur->next) cur->next->prev = newfrgm;
 431              		.loc 2 171 41 is_stmt 0
 432 0258 1306070C 		addi	a2,a4,192
 171:src/../h/../h/../h/MemoryAllocation.hpp ****                 if (cur && cur->next) cur->next->prev = newfrgm;
 433              		.loc 2 171 32
 434 025c 97050000 		la	a1,_ZN16MemoryAllocation9fmem_headE
 434      83B50500 
 435 0264 23B0C500 		sd	a2,0(a1)
 436 0268 6FF09FF9 		j	.L23
 437              	.LVL21:
 438              	.L30:
 439              	.LBE40:
 440              	.LBE41:
 441              	.LBE42:
 442              	.LBE43:
 443              	.LBE44:
 444              	.LBE46:
 445              		.loc 1 26 29
 446 026c 93070000 		li	a5,0
 447              	.LVL22:
 448              	.L15:
 449              		.loc 1 26 6 discriminator 4
 450 0270 03B70400 		ld	a4,0(s1)
 451              		.loc 1 26 22 discriminator 4
 452 0274 2334F700 		sd	a5,8(a4)
  27:src/tcb.cpp   ****     (*handle)->context.ra = body ? (uint64)&threadWrapper : 0;
GAS LISTING /tmp/cclYAUXt.s 			page 14


 453              		.loc 1 27 5 is_stmt 1 discriminator 4
 454              		.loc 1 27 34 is_stmt 0 discriminator 4
 455 0278 63020508 		beqz	a0,.L32
 456              		.loc 1 27 34 discriminator 1
 457 027c 17070000 		lla	a4,_ZN3TCB13threadWrapperEv
 457      13070700 
 458              	.L25:
 459              		.loc 1 27 6 discriminator 4
 460 0284 83B70400 		ld	a5,0(s1)
 461              		.loc 1 27 27 discriminator 4
 462 0288 23B8E700 		sd	a4,16(a5)
  28:src/tcb.cpp   ****     (*handle)->context.sp = (*handle)->stack ? (uint64) &(*handle)->stack[DEFAULT_STACK_SIZE] : 0;
 463              		.loc 1 28 5 is_stmt 1 discriminator 4
 464              		.loc 1 28 30 is_stmt 0 discriminator 4
 465 028c 03B70400 		ld	a4,0(s1)
 466              		.loc 1 28 40 discriminator 4
 467 0290 83378700 		ld	a5,8(a4)
 468              		.loc 1 28 46 discriminator 4
 469 0294 63880706 		beqz	a5,.L33
 470              		.loc 1 28 57 discriminator 1
 471 0298 37860000 		li	a2,32768
 472 029c B387C700 		add	a5,a5,a2
 473              	.L26:
 474              		.loc 1 28 27 discriminator 4
 475 02a0 233CF700 		sd	a5,24(a4)
  29:src/tcb.cpp   ****     (*handle)->finished=true;
 476              		.loc 1 29 5 is_stmt 1 discriminator 4
 477              		.loc 1 29 6 is_stmt 0 discriminator 4
 478 02a4 83B70400 		ld	a5,0(s1)
 479              		.loc 1 29 24 discriminator 4
 480 02a8 13071000 		li	a4,1
 481 02ac 2380E702 		sb	a4,32(a5)
  30:src/tcb.cpp   ****     (*handle)->semBlocked=nullptr;
 482              		.loc 1 30 5 is_stmt 1 discriminator 4
 483              		.loc 1 30 6 is_stmt 0 discriminator 4
 484 02b0 83B70400 		ld	a5,0(s1)
 485              		.loc 1 30 26 discriminator 4
 486 02b4 23B80702 		sd	zero,48(a5)
  31:src/tcb.cpp   ****     (*handle)->timeSlice=TIME_SLICE;
 487              		.loc 1 31 5 is_stmt 1 discriminator 4
 488              		.loc 1 31 6 is_stmt 0 discriminator 4
 489 02b8 83B70400 		ld	a5,0(s1)
 490              		.loc 1 31 25 discriminator 4
 491 02bc 13072000 		li	a4,2
 492 02c0 23BCE702 		sd	a4,56(a5)
  32:src/tcb.cpp   ****     (*handle)->threadStarted=started;
 493              		.loc 1 32 5 is_stmt 1 discriminator 4
 494              		.loc 1 32 6 is_stmt 0 discriminator 4
 495 02c4 83B70400 		ld	a5,0(s1)
 496              		.loc 1 32 29 discriminator 4
 497 02c8 2380D704 		sb	a3,64(a5)
  33:src/tcb.cpp   ****     if (body != nullptr && (*handle)->isStarted()==true) { Scheduler::put(*handle); }
 498              		.loc 1 33 5 is_stmt 1 discriminator 4
 499              		.loc 1 33 25 is_stmt 0 discriminator 4
 500 02cc 63080500 		beqz	a0,.L27
 501              		.loc 1 33 48 discriminator 1
 502 02d0 03B50400 		ld	a0,0(s1)
GAS LISTING /tmp/cclYAUXt.s 			page 15


 503              	.LVL23:
 504              	.LBB47:
 505              	.LBB48:
 506              		.file 3 "src/../h/tcb.hpp"
   1:src/../h/tcb.hpp **** //
   2:src/../h/tcb.hpp **** // Created by os on 8/14/22.
   3:src/../h/tcb.hpp **** //
   4:src/../h/tcb.hpp **** 
   5:src/../h/tcb.hpp **** #ifndef PROJECT_BASE_TCB_HPP
   6:src/../h/tcb.hpp **** #define PROJECT_BASE_TCB_HPP
   7:src/../h/tcb.hpp **** #include "../lib/hw.h"
   8:src/../h/tcb.hpp **** #include "../h/Scheduler.hpp"
   9:src/../h/tcb.hpp **** #include "../h/MemoryAllocation.hpp"
  10:src/../h/tcb.hpp **** #include "../h/semaphore.hpp"
  11:src/../h/tcb.hpp **** #include "../h/printing.hpp"
  12:src/../h/tcb.hpp **** 
  13:src/../h/tcb.hpp **** class TCB {
  14:src/../h/tcb.hpp **** 
  15:src/../h/tcb.hpp **** public:
  16:src/../h/tcb.hpp ****     void* operator new(uint64 n){//promenjeno uint64 u size_t
  17:src/../h/tcb.hpp ****         return MemoryAllocation::mem_alloc(MemoryAllocation::bytesToBlocks(n)); //njemu je samo __m
  18:src/../h/tcb.hpp ****         //return __mem_alloc(n);
  19:src/../h/tcb.hpp ****     }
  20:src/../h/tcb.hpp **** 
  21:src/../h/tcb.hpp ****     void* operator new[](uint64 n){
  22:src/../h/tcb.hpp ****         return MemoryAllocation::mem_alloc(MemoryAllocation::bytesToBlocks(n));
  23:src/../h/tcb.hpp ****         //return __mem_alloc(n);
  24:src/../h/tcb.hpp ****     }
  25:src/../h/tcb.hpp **** 
  26:src/../h/tcb.hpp ****     void operator delete(void *p) noexcept {
  27:src/../h/tcb.hpp ****         MemoryAllocation::mem_free(p);
  28:src/../h/tcb.hpp ****         //__mem_free(p);
  29:src/../h/tcb.hpp ****     }
  30:src/../h/tcb.hpp **** 
  31:src/../h/tcb.hpp ****     void operator delete[] (void *p) noexcept{
  32:src/../h/tcb.hpp ****         MemoryAllocation::mem_free(p);
  33:src/../h/tcb.hpp ****         //__mem_free(p);
  34:src/../h/tcb.hpp ****     }
  35:src/../h/tcb.hpp **** 
  36:src/../h/tcb.hpp ****     ~TCB() { delete[] stack; }
  37:src/../h/tcb.hpp **** 
  38:src/../h/tcb.hpp ****     using Body = void (*)(void*); //mislim da mora da se promeni ovaj body sa nekim argumentima, i 
  39:src/../h/tcb.hpp **** 
  40:src/../h/tcb.hpp ****     static int createThread(Body body, TCB** handle, void* arguments, bool started);
  41:src/../h/tcb.hpp **** 
  42:src/../h/tcb.hpp ****     static void thread_dispatch(){dispatch();}
  43:src/../h/tcb.hpp **** 
  44:src/../h/tcb.hpp ****     static int thread_exit(){
  45:src/../h/tcb.hpp ****         running->setFinished(true);
  46:src/../h/tcb.hpp ****         dispatch();
  47:src/../h/tcb.hpp ****         //running nullptr->negativna
  48:src/../h/tcb.hpp ****         return 0;
  49:src/../h/tcb.hpp ****     };
  50:src/../h/tcb.hpp **** 
  51:src/../h/tcb.hpp ****     void setStarted(TCB** handle){
  52:src/../h/tcb.hpp ****         (*handle)->threadStarted=true;
  53:src/../h/tcb.hpp ****     }
GAS LISTING /tmp/cclYAUXt.s 			page 16


  54:src/../h/tcb.hpp **** 
  55:src/../h/tcb.hpp ****     bool isStarted() {
  56:src/../h/tcb.hpp ****         return threadStarted;
 507              		.loc 3 56 9 is_stmt 1 discriminator 1
 508              		.loc 3 56 16 is_stmt 0 discriminator 1
 509 02d4 83470504 		lbu	a5,64(a0)
 510              	.LVL24:
 511              	.LBE48:
 512              	.LBE47:
 513              		.loc 1 33 25 discriminator 1
 514 02d8 639A0702 		bnez	a5,.L36
 515              	.LVL25:
 516              	.L27:
  34:src/tcb.cpp   ****     if(*handle==nullptr){
 517              		.loc 1 34 5 is_stmt 1
 518              		.loc 1 34 8 is_stmt 0
 519 02dc 83B70400 		ld	a5,0(s1)
 520              		.loc 1 34 5
 521 02e0 638C0702 		beqz	a5,.L37
  35:src/tcb.cpp   ****         return -1;
  36:src/tcb.cpp   ****     }else{return 0;}
 522              		.loc 1 36 18
 523 02e4 13050000 		li	a0,0
 524              	.L28:
  37:src/tcb.cpp   **** }
 525              		.loc 1 37 1
 526 02e8 83308101 		ld	ra,24(sp)
 527              		.cfi_remember_state
 528              		.cfi_restore 1
 529 02ec 03340101 		ld	s0,16(sp)
 530              		.cfi_restore 8
 531              		.cfi_def_cfa 2, 32
 532 02f0 83348100 		ld	s1,8(sp)
 533              		.cfi_restore 9
 534              	.LVL26:
 535 02f4 13010102 		addi	sp,sp,32
 536              		.cfi_def_cfa_offset 0
 537 02f8 67800000 		jr	ra
 538              	.LVL27:
 539              	.L32:
 540              		.cfi_restore_state
  27:src/tcb.cpp   ****     (*handle)->context.sp = (*handle)->stack ? (uint64) &(*handle)->stack[DEFAULT_STACK_SIZE] : 0;
 541              		.loc 1 27 34
 542 02fc 13070000 		li	a4,0
 543 0300 6FF05FF8 		j	.L25
 544              	.L33:
  28:src/tcb.cpp   ****     (*handle)->finished=true;
 545              		.loc 1 28 46
 546 0304 93070000 		li	a5,0
 547 0308 6FF09FF9 		j	.L26
 548              	.LVL28:
 549              	.L36:
  33:src/tcb.cpp   ****     if(*handle==nullptr){
 550              		.loc 1 33 60 is_stmt 1
  33:src/tcb.cpp   ****     if(*handle==nullptr){
 551              		.loc 1 33 74 is_stmt 0
 552 030c 97000000 		call	_ZN9Scheduler3putEP3TCB@plt
GAS LISTING /tmp/cclYAUXt.s 			page 17


 552      E7800000 
 553              	.LVL29:
 554 0314 6FF09FFC 		j	.L27
 555              	.L37:
  35:src/tcb.cpp   ****     }else{return 0;}
 556              		.loc 1 35 17
 557 0318 1305F0FF 		li	a0,-1
 558 031c 6FF0DFFC 		j	.L28
 559              		.cfi_endproc
 560              	.LFE51:
 562              		.align	2
 563              		.globl	_ZN3TCB5yieldEv
 565              	_ZN3TCB5yieldEv:
 566              	.LFB52:
  38:src/tcb.cpp   **** 
  39:src/tcb.cpp   **** void TCB::yield(){
 567              		.loc 1 39 18 is_stmt 1
 568              		.cfi_startproc
 569 0320 130101FF 		addi	sp,sp,-16
 570              		.cfi_def_cfa_offset 16
 571 0324 23348100 		sd	s0,8(sp)
 572              		.cfi_offset 8, -8
 573 0328 13040101 		addi	s0,sp,16
 574              		.cfi_def_cfa 8, 0
  40:src/tcb.cpp   ****     uint64 sysCallNr=0x13UL;
 575              		.loc 1 40 5
 576              	.LVL30:
  41:src/tcb.cpp   ****     __asm__ volatile("mv a0, %0" : : [sysCallNr] "r" (sysCallNr));
 577              		.loc 1 41 5
 578              		.loc 1 41 66 is_stmt 0
 579 032c 93073001 		li	a5,19
 580              	#APP
 581              	# 41 "src/tcb.cpp" 1
  42              	    __asm__ volatile ("ecall");
 582              		mv a0, a5
 583              	# 0 "" 2
 584              		.loc 1 42 5 is_stmt 1
 585              		.loc 1 42 31 is_stmt 0
 586              	# 42 "src/tcb.cpp" 1
  43              	
  44:src/tcb.cpp   **** };
 587              		ecall
 588              	# 0 "" 2
 589              		.loc 1 44 1
 590              	#NO_APP
 591 0338 03348100 		ld	s0,8(sp)
 592              		.cfi_restore 8
 593              		.cfi_def_cfa 2, 16
 594 033c 13010101 		addi	sp,sp,16
 595              		.cfi_def_cfa_offset 0
 596 0340 67800000 		jr	ra
 597              		.cfi_endproc
 598              	.LFE52:
 600              		.align	2
 601              		.globl	_ZN3TCB13threadWrapperEv
 603              	_ZN3TCB13threadWrapperEv:
 604              	.LFB54:
GAS LISTING /tmp/cclYAUXt.s 			page 18


  45:src/tcb.cpp   **** 
  46:src/tcb.cpp   **** void TCB::dispatch() {
  47:src/tcb.cpp   ****     TCB *old = running;
  48:src/tcb.cpp   ****     if (old->semBlocked==nullptr && !old->isFinished()) {
  49:src/tcb.cpp   ****         Scheduler::put(old);
  50:src/tcb.cpp   ****     }
  51:src/tcb.cpp   ****     running = Scheduler::get();
  52:src/tcb.cpp   **** 
  53:src/tcb.cpp   ****     TCB::contextSwitch(&old->context, &running->context);
  54:src/tcb.cpp   **** }
  55:src/tcb.cpp   **** 
  56:src/tcb.cpp   **** void TCB::threadWrapper() {
 605              		.loc 1 56 27 is_stmt 1
 606              		.cfi_startproc
 607 0344 130101FE 		addi	sp,sp,-32
 608              		.cfi_def_cfa_offset 32
 609 0348 233C1100 		sd	ra,24(sp)
 610 034c 23388100 		sd	s0,16(sp)
 611 0350 23349100 		sd	s1,8(sp)
 612              		.cfi_offset 1, -8
 613              		.cfi_offset 8, -16
 614              		.cfi_offset 9, -24
 615 0354 13040102 		addi	s0,sp,32
 616              		.cfi_def_cfa 8, 0
  57:src/tcb.cpp   ****     //RiscV::popSppSpie();
  58:src/tcb.cpp   ****     __asm__ volatile ("csrw sepc, ra");
 617              		.loc 1 58 5
 618              		.loc 1 58 39 is_stmt 0
 619              	#APP
 620              	# 58 "src/tcb.cpp" 1
  59              	    //__asm__ volatile ("sret");
  60:src/tcb.cpp   ****     running->body(running->arguments);
 621              		csrw sepc, ra
 622              	# 0 "" 2
 623              		.loc 1 60 5 is_stmt 1
 624              		.loc 1 60 14 is_stmt 0
 625              	#NO_APP
 626 035c 97040000 		lla	s1,.LANCHOR0
 626      93840400 
 627 0364 83B70400 		ld	a5,0(s1)
 628 0368 03B70700 		ld	a4,0(a5)
 629              		.loc 1 60 18
 630 036c 03B58702 		ld	a0,40(a5)
 631 0370 E7000700 		jalr	a4
 632              	.LVL31:
  61:src/tcb.cpp   ****     running->setFinished(true);
 633              		.loc 1 61 5 is_stmt 1
 634              		.loc 1 61 25 is_stmt 0
 635 0374 93051000 		li	a1,1
 636 0378 03B50400 		ld	a0,0(s1)
 637 037c 97000000 		call	_ZN3TCB11setFinishedEb
 637      E7800000 
 638              	.LVL32:
  62:src/tcb.cpp   ****     TCB::yield();
 639              		.loc 1 62 5 is_stmt 1
 640              		.loc 1 62 15 is_stmt 0
 641 0384 97000000 		call	_ZN3TCB5yieldEv
GAS LISTING /tmp/cclYAUXt.s 			page 19


 641      E7800000 
 642              	.LVL33:
  63:src/tcb.cpp   **** }
 643              		.loc 1 63 1
 644 038c 83308101 		ld	ra,24(sp)
 645              		.cfi_restore 1
 646 0390 03340101 		ld	s0,16(sp)
 647              		.cfi_restore 8
 648              		.cfi_def_cfa 2, 32
 649 0394 83348100 		ld	s1,8(sp)
 650              		.cfi_restore 9
 651 0398 13010102 		addi	sp,sp,32
 652              		.cfi_def_cfa_offset 0
 653 039c 67800000 		jr	ra
 654              		.cfi_endproc
 655              	.LFE54:
 657              		.align	2
 658              		.globl	_ZN3TCB8dispatchEv
 660              	_ZN3TCB8dispatchEv:
 661              	.LFB53:
  46:src/tcb.cpp   ****     TCB *old = running;
 662              		.loc 1 46 22 is_stmt 1
 663              		.cfi_startproc
 664 03a0 130101FE 		addi	sp,sp,-32
 665              		.cfi_def_cfa_offset 32
 666 03a4 233C1100 		sd	ra,24(sp)
 667 03a8 23388100 		sd	s0,16(sp)
 668 03ac 23349100 		sd	s1,8(sp)
 669              		.cfi_offset 1, -8
 670              		.cfi_offset 8, -16
 671              		.cfi_offset 9, -24
 672 03b0 13040102 		addi	s0,sp,32
 673              		.cfi_def_cfa 8, 0
  47:src/tcb.cpp   ****     if (old->semBlocked==nullptr && !old->isFinished()) {
 674              		.loc 1 47 5
  47:src/tcb.cpp   ****     if (old->semBlocked==nullptr && !old->isFinished()) {
 675              		.loc 1 47 10 is_stmt 0
 676 03b4 97040000 		ld	s1,.LANCHOR0
 676      83B40400 
 677              	.LVL34:
  48:src/tcb.cpp   ****         Scheduler::put(old);
 678              		.loc 1 48 5 is_stmt 1
  48:src/tcb.cpp   ****         Scheduler::put(old);
 679              		.loc 1 48 14 is_stmt 0
 680 03bc 83B70403 		ld	a5,48(s1)
  48:src/tcb.cpp   ****         Scheduler::put(old);
 681              		.loc 1 48 34
 682 03c0 638C0702 		beqz	a5,.L45
 683              	.L43:
  51:src/tcb.cpp   **** 
 684              		.loc 1 51 5 is_stmt 1
  51:src/tcb.cpp   **** 
 685              		.loc 1 51 29 is_stmt 0
 686 03c4 97000000 		call	_ZN9Scheduler3getEv@plt
 686      E7800000 
 687              	.LVL35:
  51:src/tcb.cpp   **** 
GAS LISTING /tmp/cclYAUXt.s 			page 20


 688              		.loc 1 51 13
 689 03cc 97070000 		sd	a0,.LANCHOR0,a5
 689      23B0A700 
  53:src/tcb.cpp   **** }
 690              		.loc 1 53 5 is_stmt 1
  53:src/tcb.cpp   **** }
 691              		.loc 1 53 23 is_stmt 0
 692 03d4 93050501 		addi	a1,a0,16
 693 03d8 13850401 		addi	a0,s1,16
 694 03dc 97000000 		call	_ZN3TCB13contextSwitchEPNS_7ContextES1_@plt
 694      E7800000 
 695              	.LVL36:
  54:src/tcb.cpp   **** 
 696              		.loc 1 54 1
 697 03e4 83308101 		ld	ra,24(sp)
 698              		.cfi_remember_state
 699              		.cfi_restore 1
 700 03e8 03340101 		ld	s0,16(sp)
 701              		.cfi_restore 8
 702              		.cfi_def_cfa 2, 32
 703 03ec 83348100 		ld	s1,8(sp)
 704              		.cfi_restore 9
 705              	.LVL37:
 706 03f0 13010102 		addi	sp,sp,32
 707              		.cfi_def_cfa_offset 0
 708 03f4 67800000 		jr	ra
 709              	.LVL38:
 710              	.L45:
 711              		.cfi_restore_state
  48:src/tcb.cpp   ****         Scheduler::put(old);
 712              		.loc 1 48 53 discriminator 1
 713 03f8 13850400 		mv	a0,s1
 714 03fc 97000000 		call	_ZNK3TCB10isFinishedEv
 714      E7800000 
 715              	.LVL39:
  48:src/tcb.cpp   ****         Scheduler::put(old);
 716              		.loc 1 48 34 discriminator 1
 717 0404 E31005FC 		bnez	a0,.L43
  49:src/tcb.cpp   ****     }
 718              		.loc 1 49 9 is_stmt 1
  49:src/tcb.cpp   ****     }
 719              		.loc 1 49 23 is_stmt 0
 720 0408 13850400 		mv	a0,s1
 721 040c 97000000 		call	_ZN9Scheduler3putEP3TCB@plt
 721      E7800000 
 722              	.LVL40:
 723 0414 6FF01FFB 		j	.L43
 724              		.cfi_endproc
 725              	.LFE53:
 727              		.globl	_ZN3TCB16timeSliceCounterE
 728              		.globl	_ZN3TCB7runningE
 729              		.bss
 730              		.align	3
 731              		.set	.LANCHOR0,. + 0
 734              	_ZN3TCB7runningE:
 735 0000 00000000 		.zero	8
 735      00000000 
GAS LISTING /tmp/cclYAUXt.s 			page 21


 738              	_ZN3TCB16timeSliceCounterE:
 739 0008 00000000 		.zero	8
 739      00000000 
 740              		.text
 741              	.Letext0:
 742              		.file 4 "src/../h/../lib/hw.h"
 743              		.file 5 "src/../h/../h/Scheduler.hpp"
 744              		.file 6 "src/../h/../h/semaphore.hpp"
 745              		.file 7 "src/../h/../h/../h/syscall_c.hpp"
GAS LISTING /tmp/cclYAUXt.s 			page 22


DEFINED SYMBOLS
                            *ABS*:0000000000000000 tcb.cpp
     /tmp/cclYAUXt.s:9      .text:0000000000000000 _ZNK3TCB10isFinishedEv
     /tmp/cclYAUXt.s:13     .text:0000000000000000 .L0 
     /tmp/cclYAUXt.s:15     .text:0000000000000000 .L0 
     /tmp/cclYAUXt.s:16     .text:0000000000000004 .L0 
     /tmp/cclYAUXt.s:18     .text:0000000000000008 .L0 
     /tmp/cclYAUXt.s:20     .text:000000000000000c .L0 
     /tmp/cclYAUXt.s:22     .text:000000000000000c .L0 
     /tmp/cclYAUXt.s:23     .text:000000000000000c .L0 
     /tmp/cclYAUXt.s:26     .text:0000000000000014 .L0 
     /tmp/cclYAUXt.s:27     .text:0000000000000014 .L0 
     /tmp/cclYAUXt.s:29     .text:0000000000000018 .L0 
     /tmp/cclYAUXt.s:31     .text:000000000000001c .L0 
     /tmp/cclYAUXt.s:37     .text:000000000000001c _ZN3TCB11setFinishedEb
     /tmp/cclYAUXt.s:40     .text:000000000000001c .L0 
     /tmp/cclYAUXt.s:42     .text:000000000000001c .L0 
     /tmp/cclYAUXt.s:43     .text:0000000000000020 .L0 
     /tmp/cclYAUXt.s:45     .text:0000000000000024 .L0 
     /tmp/cclYAUXt.s:47     .text:0000000000000028 .L0 
     /tmp/cclYAUXt.s:49     .text:0000000000000028 .L0 
     /tmp/cclYAUXt.s:50     .text:0000000000000028 .L0 
     /tmp/cclYAUXt.s:52     .text:000000000000002c .L0 
     /tmp/cclYAUXt.s:53     .text:0000000000000030 .L0 
     /tmp/cclYAUXt.s:54     .text:0000000000000030 .L0 
     /tmp/cclYAUXt.s:56     .text:0000000000000034 .L0 
     /tmp/cclYAUXt.s:58     .text:0000000000000038 .L0 
     /tmp/cclYAUXt.s:64     .text:0000000000000038 _ZN3TCB12createThreadEPFvPvEPPS_S0_b
     /tmp/cclYAUXt.s:67     .text:0000000000000038 .L0 
     /tmp/cclYAUXt.s:69     .text:0000000000000038 .L0 
     /tmp/cclYAUXt.s:70     .text:000000000000003c .L0 
     /tmp/cclYAUXt.s:74     .text:0000000000000048 .L0 
     /tmp/cclYAUXt.s:75     .text:0000000000000048 .L0 
     /tmp/cclYAUXt.s:76     .text:0000000000000048 .L0 
     /tmp/cclYAUXt.s:78     .text:000000000000004c .L0 
     /tmp/cclYAUXt.s:83     .text:0000000000000050 .L0 
     /tmp/cclYAUXt.s:86     .text:0000000000000050 .L0 
     /tmp/cclYAUXt.s:87     .text:0000000000000050 .L0 
     /tmp/cclYAUXt.s:89     .text:0000000000000050 .L0 
     /tmp/cclYAUXt.s:90     .text:0000000000000050 .L0 
     /tmp/cclYAUXt.s:95     .text:000000000000005c .L0 
     /tmp/cclYAUXt.s:98     .text:0000000000000060 .L0 
     /tmp/cclYAUXt.s:99     .text:0000000000000060 .L0 
     /tmp/cclYAUXt.s:103    .text:0000000000000070 .L0 
     /tmp/cclYAUXt.s:105    .text:0000000000000074 .L0 
     /tmp/cclYAUXt.s:106    .text:0000000000000074 .L0 
     /tmp/cclYAUXt.s:109    .text:000000000000007c .L0 
     /tmp/cclYAUXt.s:111    .text:0000000000000080 .L0 
     /tmp/cclYAUXt.s:112    .text:0000000000000080 .L0 
     /tmp/cclYAUXt.s:114    .text:0000000000000084 .L0 
     /tmp/cclYAUXt.s:118    .text:000000000000008c .L0 
     /tmp/cclYAUXt.s:119    .text:000000000000008c .L0 
     /tmp/cclYAUXt.s:121    .text:0000000000000090 .L0 
     /tmp/cclYAUXt.s:124    .text:0000000000000098 .L0 
     /tmp/cclYAUXt.s:126    .text:000000000000009c .L0 
     /tmp/cclYAUXt.s:127    .text:000000000000009c .L0 
     /tmp/cclYAUXt.s:130    .text:00000000000000a0 .L0 
GAS LISTING /tmp/cclYAUXt.s 			page 23


     /tmp/cclYAUXt.s:131    .text:00000000000000a0 .L0 
     /tmp/cclYAUXt.s:133    .text:00000000000000a4 .L0 
     /tmp/cclYAUXt.s:135    .text:00000000000000a8 .L0 
     /tmp/cclYAUXt.s:136    .text:00000000000000a8 .L0 
     /tmp/cclYAUXt.s:138    .text:00000000000000ac .L0 
     /tmp/cclYAUXt.s:140    .text:00000000000000b0 .L0 
     /tmp/cclYAUXt.s:141    .text:00000000000000b0 .L0 
     /tmp/cclYAUXt.s:146    .text:00000000000000b4 .L0 
     /tmp/cclYAUXt.s:154    .text:00000000000000bc .L0 
     /tmp/cclYAUXt.s:155    .text:00000000000000bc .L0 
     /tmp/cclYAUXt.s:161    .text:00000000000000cc .L0 
     /tmp/cclYAUXt.s:162    .text:00000000000000cc .L0 
     /tmp/cclYAUXt.s:165    .text:00000000000000d0 .L0 
     /tmp/cclYAUXt.s:166    .text:00000000000000d0 .L0 
     /tmp/cclYAUXt.s:168    .text:00000000000000d4 .L0 
     /tmp/cclYAUXt.s:169    .text:00000000000000d4 .L0 
     /tmp/cclYAUXt.s:171    .text:00000000000000d8 .L0 
     /tmp/cclYAUXt.s:172    .text:00000000000000d8 .L0 
     /tmp/cclYAUXt.s:174    .text:00000000000000dc .L0 
     /tmp/cclYAUXt.s:176    .text:00000000000000e0 .L0 
     /tmp/cclYAUXt.s:177    .text:00000000000000e0 .L0 
     /tmp/cclYAUXt.s:180    .text:00000000000000e4 .L0 
     /tmp/cclYAUXt.s:181    .text:00000000000000e4 .L0 
     /tmp/cclYAUXt.s:183    .text:00000000000000e8 .L0 
     /tmp/cclYAUXt.s:185    .text:00000000000000ec .L0 
     /tmp/cclYAUXt.s:186    .text:00000000000000ec .L0 
     /tmp/cclYAUXt.s:189    .text:00000000000000f0 .L0 
     /tmp/cclYAUXt.s:190    .text:00000000000000f0 .L0 
     /tmp/cclYAUXt.s:192    .text:00000000000000f4 .L0 
     /tmp/cclYAUXt.s:194    .text:00000000000000f8 .L0 
     /tmp/cclYAUXt.s:195    .text:00000000000000f8 .L0 
     /tmp/cclYAUXt.s:197    .text:00000000000000fc .L0 
     /tmp/cclYAUXt.s:199    .text:0000000000000100 .L0 
     /tmp/cclYAUXt.s:200    .text:0000000000000100 .L0 
     /tmp/cclYAUXt.s:203    .text:0000000000000104 .L0 
     /tmp/cclYAUXt.s:205    .text:0000000000000108 .L0 
     /tmp/cclYAUXt.s:207    .text:000000000000010c .L0 
     /tmp/cclYAUXt.s:208    .text:000000000000010c .L0 
     /tmp/cclYAUXt.s:210    .text:0000000000000110 .L0 
     /tmp/cclYAUXt.s:213    .text:000000000000011c .L0 
     /tmp/cclYAUXt.s:214    .text:000000000000011c .L0 
     /tmp/cclYAUXt.s:216    .text:0000000000000120 .L0 
     /tmp/cclYAUXt.s:218    .text:0000000000000124 .L0 
     /tmp/cclYAUXt.s:219    .text:0000000000000124 .L0 
     /tmp/cclYAUXt.s:221    .text:0000000000000128 .L0 
     /tmp/cclYAUXt.s:222    .text:0000000000000128 .L0 
     /tmp/cclYAUXt.s:224    .text:000000000000012c .L0 
     /tmp/cclYAUXt.s:225    .text:000000000000012c .L0 
     /tmp/cclYAUXt.s:235    .text:0000000000000130 .L0 
     /tmp/cclYAUXt.s:237    .text:0000000000000134 .L0 
     /tmp/cclYAUXt.s:238    .text:0000000000000134 .L0 
     /tmp/cclYAUXt.s:240    .text:0000000000000138 .L0 
     /tmp/cclYAUXt.s:241    .text:0000000000000138 .L0 
     /tmp/cclYAUXt.s:243    .text:000000000000013c .L0 
     /tmp/cclYAUXt.s:245    .text:0000000000000140 .L0 
     /tmp/cclYAUXt.s:246    .text:0000000000000140 .L0 
     /tmp/cclYAUXt.s:251    .text:0000000000000144 .L0 
GAS LISTING /tmp/cclYAUXt.s 			page 24


     /tmp/cclYAUXt.s:252    .text:0000000000000144 .L0 
     /tmp/cclYAUXt.s:254    .text:0000000000000144 .L0 
     /tmp/cclYAUXt.s:255    .text:0000000000000144 .L0 
     /tmp/cclYAUXt.s:260    .text:0000000000000150 .L0 
     /tmp/cclYAUXt.s:263    .text:0000000000000154 .L0 
     /tmp/cclYAUXt.s:264    .text:0000000000000154 .L0 
     /tmp/cclYAUXt.s:268    .text:0000000000000164 .L0 
     /tmp/cclYAUXt.s:270    .text:0000000000000168 .L0 
     /tmp/cclYAUXt.s:271    .text:0000000000000168 .L0 
     /tmp/cclYAUXt.s:274    .text:0000000000000170 .L0 
     /tmp/cclYAUXt.s:276    .text:0000000000000174 .L0 
     /tmp/cclYAUXt.s:277    .text:0000000000000174 .L0 
     /tmp/cclYAUXt.s:279    .text:0000000000000178 .L0 
     /tmp/cclYAUXt.s:284    .text:0000000000000184 .L0 
     /tmp/cclYAUXt.s:285    .text:0000000000000184 .L0 
     /tmp/cclYAUXt.s:289    .text:0000000000000190 .L0 
     /tmp/cclYAUXt.s:292    .text:0000000000000198 .L0 
     /tmp/cclYAUXt.s:294    .text:000000000000019c .L0 
     /tmp/cclYAUXt.s:295    .text:000000000000019c .L0 
     /tmp/cclYAUXt.s:298    .text:00000000000001a0 .L0 
     /tmp/cclYAUXt.s:299    .text:00000000000001a0 .L0 
     /tmp/cclYAUXt.s:301    .text:00000000000001a4 .L0 
     /tmp/cclYAUXt.s:303    .text:00000000000001a8 .L0 
     /tmp/cclYAUXt.s:304    .text:00000000000001a8 .L0 
     /tmp/cclYAUXt.s:306    .text:00000000000001ac .L0 
     /tmp/cclYAUXt.s:308    .text:00000000000001b0 .L0 
     /tmp/cclYAUXt.s:309    .text:00000000000001b0 .L0 
     /tmp/cclYAUXt.s:324    .text:00000000000001b4 .L0 
     /tmp/cclYAUXt.s:325    .text:00000000000001b4 .L0 
     /tmp/cclYAUXt.s:327    .text:00000000000001b8 .L0 
     /tmp/cclYAUXt.s:342    .text:00000000000001c8 .L0 
     /tmp/cclYAUXt.s:350    .text:00000000000001d0 .L0 
     /tmp/cclYAUXt.s:351    .text:00000000000001d0 .L0 
     /tmp/cclYAUXt.s:357    .text:00000000000001e0 .L0 
     /tmp/cclYAUXt.s:358    .text:00000000000001e0 .L0 
     /tmp/cclYAUXt.s:363    .text:00000000000001ec .L0 
     /tmp/cclYAUXt.s:364    .text:00000000000001ec .L0 
     /tmp/cclYAUXt.s:366    .text:00000000000001f0 .L0 
     /tmp/cclYAUXt.s:367    .text:00000000000001f0 .L0 
     /tmp/cclYAUXt.s:369    .text:00000000000001f4 .L0 
     /tmp/cclYAUXt.s:370    .text:00000000000001f4 .L0 
     /tmp/cclYAUXt.s:372    .text:00000000000001f8 .L0 
     /tmp/cclYAUXt.s:374    .text:00000000000001fc .L0 
     /tmp/cclYAUXt.s:375    .text:00000000000001fc .L0 
     /tmp/cclYAUXt.s:378    .text:0000000000000200 .L0 
     /tmp/cclYAUXt.s:379    .text:0000000000000200 .L0 
     /tmp/cclYAUXt.s:381    .text:0000000000000204 .L0 
     /tmp/cclYAUXt.s:383    .text:0000000000000208 .L0 
     /tmp/cclYAUXt.s:384    .text:0000000000000208 .L0 
     /tmp/cclYAUXt.s:387    .text:000000000000020c .L0 
     /tmp/cclYAUXt.s:388    .text:000000000000020c .L0 
     /tmp/cclYAUXt.s:390    .text:0000000000000210 .L0 
     /tmp/cclYAUXt.s:392    .text:0000000000000214 .L0 
     /tmp/cclYAUXt.s:393    .text:0000000000000214 .L0 
     /tmp/cclYAUXt.s:395    .text:0000000000000218 .L0 
     /tmp/cclYAUXt.s:397    .text:000000000000021c .L0 
     /tmp/cclYAUXt.s:398    .text:000000000000021c .L0 
GAS LISTING /tmp/cclYAUXt.s 			page 25


     /tmp/cclYAUXt.s:401    .text:0000000000000220 .L0 
     /tmp/cclYAUXt.s:405    .text:000000000000022c .L0 
     /tmp/cclYAUXt.s:407    .text:0000000000000230 .L0 
     /tmp/cclYAUXt.s:408    .text:0000000000000230 .L0 
     /tmp/cclYAUXt.s:410    .text:0000000000000234 .L0 
     /tmp/cclYAUXt.s:413    .text:0000000000000240 .L0 
     /tmp/cclYAUXt.s:414    .text:0000000000000240 .L0 
     /tmp/cclYAUXt.s:416    .text:0000000000000244 .L0 
     /tmp/cclYAUXt.s:418    .text:0000000000000248 .L0 
     /tmp/cclYAUXt.s:419    .text:0000000000000248 .L0 
     /tmp/cclYAUXt.s:421    .text:000000000000024c .L0 
     /tmp/cclYAUXt.s:422    .text:000000000000024c .L0 
     /tmp/cclYAUXt.s:424    .text:0000000000000250 .L0 
     /tmp/cclYAUXt.s:425    .text:0000000000000250 .L0 
     /tmp/cclYAUXt.s:431    .text:0000000000000258 .L0 
     /tmp/cclYAUXt.s:432    .text:0000000000000258 .L0 
     /tmp/cclYAUXt.s:434    .text:000000000000025c .L0 
     /tmp/cclYAUXt.s:446    .text:000000000000026c .L0 
     /tmp/cclYAUXt.s:450    .text:0000000000000270 .L0 
     /tmp/cclYAUXt.s:452    .text:0000000000000274 .L0 
     /tmp/cclYAUXt.s:454    .text:0000000000000278 .L0 
     /tmp/cclYAUXt.s:455    .text:0000000000000278 .L0 
     /tmp/cclYAUXt.s:603    .text:0000000000000344 _ZN3TCB13threadWrapperEv
     /tmp/cclYAUXt.s:457    .text:000000000000027c .L0 
     /tmp/cclYAUXt.s:460    .text:0000000000000284 .L0 
     /tmp/cclYAUXt.s:462    .text:0000000000000288 .L0 
     /tmp/cclYAUXt.s:464    .text:000000000000028c .L0 
     /tmp/cclYAUXt.s:465    .text:000000000000028c .L0 
     /tmp/cclYAUXt.s:467    .text:0000000000000290 .L0 
     /tmp/cclYAUXt.s:469    .text:0000000000000294 .L0 
     /tmp/cclYAUXt.s:471    .text:0000000000000298 .L0 
     /tmp/cclYAUXt.s:475    .text:00000000000002a0 .L0 
     /tmp/cclYAUXt.s:477    .text:00000000000002a4 .L0 
     /tmp/cclYAUXt.s:478    .text:00000000000002a4 .L0 
     /tmp/cclYAUXt.s:480    .text:00000000000002a8 .L0 
     /tmp/cclYAUXt.s:483    .text:00000000000002b0 .L0 
     /tmp/cclYAUXt.s:484    .text:00000000000002b0 .L0 
     /tmp/cclYAUXt.s:486    .text:00000000000002b4 .L0 
     /tmp/cclYAUXt.s:488    .text:00000000000002b8 .L0 
     /tmp/cclYAUXt.s:489    .text:00000000000002b8 .L0 
     /tmp/cclYAUXt.s:491    .text:00000000000002bc .L0 
     /tmp/cclYAUXt.s:494    .text:00000000000002c4 .L0 
     /tmp/cclYAUXt.s:495    .text:00000000000002c4 .L0 
     /tmp/cclYAUXt.s:497    .text:00000000000002c8 .L0 
     /tmp/cclYAUXt.s:499    .text:00000000000002cc .L0 
     /tmp/cclYAUXt.s:500    .text:00000000000002cc .L0 
     /tmp/cclYAUXt.s:502    .text:00000000000002d0 .L0 
     /tmp/cclYAUXt.s:508    .text:00000000000002d4 .L0 
     /tmp/cclYAUXt.s:509    .text:00000000000002d4 .L0 
     /tmp/cclYAUXt.s:514    .text:00000000000002d8 .L0 
     /tmp/cclYAUXt.s:518    .text:00000000000002dc .L0 
     /tmp/cclYAUXt.s:519    .text:00000000000002dc .L0 
     /tmp/cclYAUXt.s:521    .text:00000000000002e0 .L0 
     /tmp/cclYAUXt.s:523    .text:00000000000002e4 .L0 
     /tmp/cclYAUXt.s:526    .text:00000000000002e8 .L0 
     /tmp/cclYAUXt.s:527    .text:00000000000002ec .L0 
     /tmp/cclYAUXt.s:528    .text:00000000000002ec .L0 
GAS LISTING /tmp/cclYAUXt.s 			page 26


     /tmp/cclYAUXt.s:530    .text:00000000000002f0 .L0 
     /tmp/cclYAUXt.s:531    .text:00000000000002f0 .L0 
     /tmp/cclYAUXt.s:533    .text:00000000000002f4 .L0 
     /tmp/cclYAUXt.s:536    .text:00000000000002f8 .L0 
     /tmp/cclYAUXt.s:540    .text:00000000000002fc .L0 
     /tmp/cclYAUXt.s:542    .text:00000000000002fc .L0 
     /tmp/cclYAUXt.s:546    .text:0000000000000304 .L0 
     /tmp/cclYAUXt.s:551    .text:000000000000030c .L0 
     /tmp/cclYAUXt.s:552    .text:000000000000030c .L0 
     /tmp/cclYAUXt.s:557    .text:0000000000000318 .L0 
     /tmp/cclYAUXt.s:559    .text:0000000000000320 .L0 
     /tmp/cclYAUXt.s:565    .text:0000000000000320 _ZN3TCB5yieldEv
     /tmp/cclYAUXt.s:568    .text:0000000000000320 .L0 
     /tmp/cclYAUXt.s:569    .text:0000000000000320 .L0 
     /tmp/cclYAUXt.s:570    .text:0000000000000324 .L0 
     /tmp/cclYAUXt.s:572    .text:0000000000000328 .L0 
     /tmp/cclYAUXt.s:574    .text:000000000000032c .L0 
     /tmp/cclYAUXt.s:577    .text:000000000000032c .L0 
     /tmp/cclYAUXt.s:578    .text:000000000000032c .L0 
     /tmp/cclYAUXt.s:579    .text:000000000000032c .L0 
     /tmp/cclYAUXt.s:585    .text:0000000000000334 .L0 
         src/tcb.cpp:42     .text:0000000000000334 .L0 
     /tmp/cclYAUXt.s:591    .text:0000000000000338 .L0 
     /tmp/cclYAUXt.s:592    .text:000000000000033c .L0 
     /tmp/cclYAUXt.s:593    .text:000000000000033c .L0 
     /tmp/cclYAUXt.s:595    .text:0000000000000340 .L0 
     /tmp/cclYAUXt.s:597    .text:0000000000000344 .L0 
     /tmp/cclYAUXt.s:606    .text:0000000000000344 .L0 
     /tmp/cclYAUXt.s:607    .text:0000000000000344 .L0 
     /tmp/cclYAUXt.s:608    .text:0000000000000348 .L0 
     /tmp/cclYAUXt.s:612    .text:0000000000000354 .L0 
     /tmp/cclYAUXt.s:613    .text:0000000000000354 .L0 
     /tmp/cclYAUXt.s:614    .text:0000000000000354 .L0 
     /tmp/cclYAUXt.s:616    .text:0000000000000358 .L0 
     /tmp/cclYAUXt.s:618    .text:0000000000000358 .L0 
         src/tcb.cpp:58     .text:0000000000000358 .L0 
     /tmp/cclYAUXt.s:624    .text:000000000000035c .L0 
     /tmp/cclYAUXt.s:626    .text:000000000000035c .L0 
     /tmp/cclYAUXt.s:630    .text:000000000000036c .L0 
     /tmp/cclYAUXt.s:634    .text:0000000000000374 .L0 
     /tmp/cclYAUXt.s:635    .text:0000000000000374 .L0 
     /tmp/cclYAUXt.s:640    .text:0000000000000384 .L0 
     /tmp/cclYAUXt.s:641    .text:0000000000000384 .L0 
     /tmp/cclYAUXt.s:644    .text:000000000000038c .L0 
     /tmp/cclYAUXt.s:645    .text:0000000000000390 .L0 
     /tmp/cclYAUXt.s:647    .text:0000000000000394 .L0 
     /tmp/cclYAUXt.s:648    .text:0000000000000394 .L0 
     /tmp/cclYAUXt.s:650    .text:0000000000000398 .L0 
     /tmp/cclYAUXt.s:652    .text:000000000000039c .L0 
     /tmp/cclYAUXt.s:654    .text:00000000000003a0 .L0 
     /tmp/cclYAUXt.s:660    .text:00000000000003a0 _ZN3TCB8dispatchEv
     /tmp/cclYAUXt.s:663    .text:00000000000003a0 .L0 
     /tmp/cclYAUXt.s:664    .text:00000000000003a0 .L0 
     /tmp/cclYAUXt.s:665    .text:00000000000003a4 .L0 
     /tmp/cclYAUXt.s:669    .text:00000000000003b0 .L0 
     /tmp/cclYAUXt.s:670    .text:00000000000003b0 .L0 
     /tmp/cclYAUXt.s:671    .text:00000000000003b0 .L0 
GAS LISTING /tmp/cclYAUXt.s 			page 27


     /tmp/cclYAUXt.s:673    .text:00000000000003b4 .L0 
     /tmp/cclYAUXt.s:675    .text:00000000000003b4 .L0 
     /tmp/cclYAUXt.s:676    .text:00000000000003b4 .L0 
     /tmp/cclYAUXt.s:679    .text:00000000000003bc .L0 
     /tmp/cclYAUXt.s:680    .text:00000000000003bc .L0 
     /tmp/cclYAUXt.s:682    .text:00000000000003c0 .L0 
     /tmp/cclYAUXt.s:685    .text:00000000000003c4 .L0 
     /tmp/cclYAUXt.s:686    .text:00000000000003c4 .L0 
     /tmp/cclYAUXt.s:689    .text:00000000000003cc .L0 
     /tmp/cclYAUXt.s:691    .text:00000000000003d4 .L0 
     /tmp/cclYAUXt.s:692    .text:00000000000003d4 .L0 
     /tmp/cclYAUXt.s:697    .text:00000000000003e4 .L0 
     /tmp/cclYAUXt.s:698    .text:00000000000003e8 .L0 
     /tmp/cclYAUXt.s:699    .text:00000000000003e8 .L0 
     /tmp/cclYAUXt.s:701    .text:00000000000003ec .L0 
     /tmp/cclYAUXt.s:702    .text:00000000000003ec .L0 
     /tmp/cclYAUXt.s:704    .text:00000000000003f0 .L0 
     /tmp/cclYAUXt.s:707    .text:00000000000003f4 .L0 
     /tmp/cclYAUXt.s:711    .text:00000000000003f8 .L0 
     /tmp/cclYAUXt.s:713    .text:00000000000003f8 .L0 
     /tmp/cclYAUXt.s:717    .text:0000000000000404 .L0 
     /tmp/cclYAUXt.s:719    .text:0000000000000408 .L0 
     /tmp/cclYAUXt.s:720    .text:0000000000000408 .L0 
     /tmp/cclYAUXt.s:724    .text:0000000000000418 .L0 
     /tmp/cclYAUXt.s:738    .bss:0000000000000008 _ZN3TCB16timeSliceCounterE
     /tmp/cclYAUXt.s:734    .bss:0000000000000000 _ZN3TCB7runningE
     /tmp/cclYAUXt.s:731    .bss:0000000000000000 .LANCHOR0
     /tmp/cclYAUXt.s:746    .text:0000000000000418 .L0 
     /tmp/cclYAUXt.s:90     .text:0000000000000050 .L0 
     /tmp/cclYAUXt.s:99     .text:0000000000000060 .L0 
     /tmp/cclYAUXt.s:155    .text:00000000000000bc .L0 
     /tmp/cclYAUXt.s:210    .text:0000000000000110 .L0 
     /tmp/cclYAUXt.s:255    .text:0000000000000144 .L0 
     /tmp/cclYAUXt.s:264    .text:0000000000000154 .L0 
     /tmp/cclYAUXt.s:327    .text:00000000000001b8 .L0 
     /tmp/cclYAUXt.s:351    .text:00000000000001d0 .L0 
     /tmp/cclYAUXt.s:410    .text:0000000000000234 .L0 
     /tmp/cclYAUXt.s:434    .text:000000000000025c .L0 
     /tmp/cclYAUXt.s:457    .text:000000000000027c .L0 
     /tmp/cclYAUXt.s:626    .text:000000000000035c .L0 
     /tmp/cclYAUXt.s:676    .text:00000000000003b4 .L0 
     /tmp/cclYAUXt.s:689    .text:00000000000003cc .L0 
     /tmp/cclYAUXt.s:227    .text:0000000000000130 .L6
     /tmp/cclYAUXt.s:142    .text:00000000000000b4 .L29
     /tmp/cclYAUXt.s:158    .text:00000000000000cc .L8
     /tmp/cclYAUXt.s:150    .text:00000000000000bc .L9
     /tmp/cclYAUXt.s:93     .text:000000000000005c .L7
     /tmp/cclYAUXt.s:128    .text:00000000000000a0 .L10
     /tmp/cclYAUXt.s:311    .text:00000000000001b4 .L12
     /tmp/cclYAUXt.s:187    .text:00000000000000f0 .L14
     /tmp/cclYAUXt.s:438    .text:000000000000026c .L30
     /tmp/cclYAUXt.s:448    .text:0000000000000270 .L15
     /tmp/cclYAUXt.s:331    .text:00000000000001c8 .L31
     /tmp/cclYAUXt.s:354    .text:00000000000001e0 .L18
     /tmp/cclYAUXt.s:346    .text:00000000000001d0 .L19
     /tmp/cclYAUXt.s:178    .text:00000000000000e4 .L13
     /tmp/cclYAUXt.s:258    .text:0000000000000150 .L17
GAS LISTING /tmp/cclYAUXt.s 			page 28


     /tmp/cclYAUXt.s:296    .text:00000000000001a0 .L20
     /tmp/cclYAUXt.s:429    .text:0000000000000258 .L22
     /tmp/cclYAUXt.s:385    .text:000000000000020c .L24
     /tmp/cclYAUXt.s:376    .text:0000000000000200 .L23
     /tmp/cclYAUXt.s:539    .text:00000000000002fc .L32
     /tmp/cclYAUXt.s:544    .text:0000000000000304 .L33
     /tmp/cclYAUXt.s:516    .text:00000000000002dc .L27
     /tmp/cclYAUXt.s:549    .text:000000000000030c .L36
     /tmp/cclYAUXt.s:555    .text:0000000000000318 .L37
     /tmp/cclYAUXt.s:458    .text:0000000000000284 .L25
     /tmp/cclYAUXt.s:473    .text:00000000000002a0 .L26
     /tmp/cclYAUXt.s:524    .text:00000000000002e8 .L28
     /tmp/cclYAUXt.s:710    .text:00000000000003f8 .L45
     /tmp/cclYAUXt.s:683    .text:00000000000003c4 .L43
     /tmp/cclYAUXt.s:1883   .debug_abbrev:0000000000000000 .Ldebug_abbrev0
     /tmp/cclYAUXt.s:3401   .debug_str:0000000000000694 .LASF114
     /tmp/cclYAUXt.s:3267   .debug_str:0000000000000242 .LASF115
     /tmp/cclYAUXt.s:3253   .debug_str:00000000000001d1 .LASF116
     /tmp/cclYAUXt.s:5      .text:0000000000000000 .Ltext0
     /tmp/cclYAUXt.s:741    .text:0000000000000418 .Letext0
     /tmp/cclYAUXt.s:3185   .debug_line:0000000000000000 .Ldebug_line0
     /tmp/cclYAUXt.s:3269   .debug_str:000000000000024e .LASF0
     /tmp/cclYAUXt.s:3289   .debug_str:00000000000002f3 .LASF1
     /tmp/cclYAUXt.s:3357   .debug_str:0000000000000552 .LASF2
     /tmp/cclYAUXt.s:3365   .debug_str:000000000000059b .LASF4
     /tmp/cclYAUXt.s:3275   .debug_str:000000000000027f .LASF3
     /tmp/cclYAUXt.s:3197   .debug_str:0000000000000051 .LASF5
     /tmp/cclYAUXt.s:3343   .debug_str:00000000000004f2 .LASF6
     /tmp/cclYAUXt.s:3279   .debug_str:000000000000029a .LASF7
     /tmp/cclYAUXt.s:3251   .debug_str:00000000000001c1 .LASF8
     /tmp/cclYAUXt.s:3257   .debug_str:00000000000001fb .LASF9
     /tmp/cclYAUXt.s:3217   .debug_str:00000000000000d5 .LASF10
     /tmp/cclYAUXt.s:3243   .debug_str:0000000000000197 .LASF11
     /tmp/cclYAUXt.s:3227   .debug_str:000000000000010d .LASF12
     /tmp/cclYAUXt.s:3215   .debug_str:00000000000000c5 .LASF13
     /tmp/cclYAUXt.s:3383   .debug_str:000000000000061b .LASF14
     /tmp/cclYAUXt.s:3239   .debug_str:000000000000016a .LASF15
     /tmp/cclYAUXt.s:3379   .debug_str:00000000000005f8 .LASF16
     /tmp/cclYAUXt.s:3297   .debug_str:0000000000000332 .LASF23
     /tmp/cclYAUXt.s:3397   .debug_str:0000000000000684 .LASF41
     /tmp/cclYAUXt.s:3219   .debug_str:00000000000000e4 .LASF17
     /tmp/cclYAUXt.s:3199   .debug_str:0000000000000058 .LASF18
     /tmp/cclYAUXt.s:3287   .debug_str:00000000000002ee .LASF19
     /tmp/cclYAUXt.s:3375   .debug_str:00000000000005db .LASF20
     /tmp/cclYAUXt.s:3225   .debug_str:0000000000000104 .LASF21
     /tmp/cclYAUXt.s:3283   .debug_str:00000000000002db .LASF22
     /tmp/cclYAUXt.s:3313   .debug_str:00000000000003c6 .LASF24
     /tmp/cclYAUXt.s:3359   .debug_str:0000000000000560 .LASF25
     /tmp/cclYAUXt.s:3361   .debug_str:000000000000057d .LASF26
     /tmp/cclYAUXt.s:3317   .debug_str:00000000000003f7 .LASF27
     /tmp/cclYAUXt.s:3419   .debug_str:00000000000007f4 .LASF40
     /tmp/cclYAUXt.s:3309   .debug_str:0000000000000397 .LASF56
     /tmp/cclYAUXt.s:3429   .debug_str:0000000000000847 .LASF60
     /tmp/cclYAUXt.s:3393   .debug_str:0000000000000658 .LASF62
     /tmp/cclYAUXt.s:3307   .debug_str:000000000000038f .LASF28
     /tmp/cclYAUXt.s:3329   .debug_str:0000000000000486 .LASF30
     /tmp/cclYAUXt.s:3285   .debug_str:00000000000002e0 .LASF29
GAS LISTING /tmp/cclYAUXt.s 			page 29


     /tmp/cclYAUXt.s:3335   .debug_str:00000000000004b4 .LASF31
     /tmp/cclYAUXt.s:3273   .debug_str:0000000000000275 .LASF32
     /tmp/cclYAUXt.s:3281   .debug_str:00000000000002ad .LASF33
     /tmp/cclYAUXt.s:3387   .debug_str:0000000000000630 .LASF34
     /tmp/cclYAUXt.s:3425   .debug_str:000000000000081f .LASF35
     /tmp/cclYAUXt.s:3311   .debug_str:00000000000003bc .LASF36
     /tmp/cclYAUXt.s:3411   .debug_str:0000000000000796 .LASF37
     /tmp/cclYAUXt.s:3249   .debug_str:00000000000001b7 .LASF38
     /tmp/cclYAUXt.s:3391   .debug_str:0000000000000644 .LASF39
     /tmp/cclYAUXt.s:3423   .debug_str:000000000000080b .LASF117
     /tmp/cclYAUXt.s:3265   .debug_str:000000000000022a .LASF118
     /tmp/cclYAUXt.s:3325   .debug_str:0000000000000451 .LASF119
     /tmp/cclYAUXt.s:3221   .debug_str:00000000000000e9 .LASF42
     /tmp/cclYAUXt.s:3431   .debug_str:000000000000084f .LASF43
     /tmp/cclYAUXt.s:3255   .debug_str:00000000000001ef .LASF44
     /tmp/cclYAUXt.s:3211   .debug_str:000000000000009a .LASF45
     /tmp/cclYAUXt.s:3247   .debug_str:00000000000001ab .LASF46
     /tmp/cclYAUXt.s:3189   .debug_str:0000000000000005 .LASF47
     /tmp/cclYAUXt.s:3303   .debug_str:0000000000000376 .LASF48
     /tmp/cclYAUXt.s:3377   .debug_str:00000000000005e5 .LASF49
     /tmp/cclYAUXt.s:3259   .debug_str:0000000000000209 .LASF50
     /tmp/cclYAUXt.s:3367   .debug_str:00000000000005a2 .LASF51
     /tmp/cclYAUXt.s:3195   .debug_str:0000000000000045 .LASF52
     /tmp/cclYAUXt.s:3381   .debug_str:000000000000060e .LASF53
     /tmp/cclYAUXt.s:3327   .debug_str:0000000000000461 .LASF54
     /tmp/cclYAUXt.s:3337   .debug_str:00000000000004db .LASF120
     /tmp/cclYAUXt.s:3351   .debug_str:0000000000000533 .LASF70
     /tmp/cclYAUXt.s:3371   .debug_str:00000000000005b8 .LASF72
     /tmp/cclYAUXt.s:3305   .debug_str:0000000000000383 .LASF55
     /tmp/cclYAUXt.s:3241   .debug_str:0000000000000180 .LASF57
     /tmp/cclYAUXt.s:3349   .debug_str:0000000000000528 .LASF58
     /tmp/cclYAUXt.s:3301   .debug_str:000000000000035d .LASF59
     /tmp/cclYAUXt.s:3319   .debug_str:0000000000000414 .LASF61
     /tmp/cclYAUXt.s:3363   .debug_str:0000000000000587 .LASF63
     /tmp/cclYAUXt.s:3395   .debug_str:0000000000000678 .LASF64
     /tmp/cclYAUXt.s:3271   .debug_str:000000000000025b .LASF65
     /tmp/cclYAUXt.s:3389   .debug_str:0000000000000639 .LASF66
     /tmp/cclYAUXt.s:3315   .debug_str:00000000000003e0 .LASF67
     /tmp/cclYAUXt.s:3205   .debug_str:0000000000000076 .LASF68
     /tmp/cclYAUXt.s:3413   .debug_str:00000000000007b8 .LASF69
     /tmp/cclYAUXt.s:3291   .debug_str:0000000000000306 .LASF71
     /tmp/cclYAUXt.s:3403   .debug_str:0000000000000758 .LASF73
     /tmp/cclYAUXt.s:3293   .debug_str:000000000000030c .LASF74
     /tmp/cclYAUXt.s:3347   .debug_str:0000000000000510 .LASF75
     /tmp/cclYAUXt.s:3399   .debug_str:000000000000068c .LASF121
     /tmp/cclYAUXt.s:3187   .debug_str:0000000000000000 .LASF76
     /tmp/cclYAUXt.s:3427   .debug_str:0000000000000841 .LASF77
     /tmp/cclYAUXt.s:3409   .debug_str:000000000000078e .LASF78
     /tmp/cclYAUXt.s:3385   .debug_str:0000000000000627 .LASF79
     /tmp/cclYAUXt.s:3341   .debug_str:00000000000004e8 .LASF80
     /tmp/cclYAUXt.s:3345   .debug_str:0000000000000505 .LASF81
     /tmp/cclYAUXt.s:3405   .debug_str:0000000000000768 .LASF82
     /tmp/cclYAUXt.s:3261   .debug_str:0000000000000216 .LASF83
     /tmp/cclYAUXt.s:3209   .debug_str:000000000000008c .LASF85
     /tmp/cclYAUXt.s:3295   .debug_str:0000000000000319 .LASF87
     /tmp/cclYAUXt.s:3229   .debug_str:000000000000011d .LASF84
     /tmp/cclYAUXt.s:3193   .debug_str:000000000000001d .LASF122
GAS LISTING /tmp/cclYAUXt.s 			page 30


     /tmp/cclYAUXt.s:3235   .debug_str:000000000000014b .LASF86
     /tmp/cclYAUXt.s:3223   .debug_str:00000000000000f1 .LASF88
     /tmp/cclYAUXt.s:3369   .debug_str:00000000000005a7 .LASF89
     /tmp/cclYAUXt.s:3421   .debug_str:0000000000000800 .LASF123
     /tmp/cclYAUXt.s:3353   .debug_str:0000000000000543 .LASF90
     /tmp/cclYAUXt.s:3355   .debug_str:0000000000000548 .LASF91
     /tmp/cclYAUXt.s:3263   .debug_str:0000000000000224 .LASF92
     /tmp/cclYAUXt.s:3323   .debug_str:000000000000043a .LASF93
     /tmp/cclYAUXt.s:3233   .debug_str:0000000000000143 .LASF94
     /tmp/cclYAUXt.s:3321   .debug_str:000000000000041e .LASF95
     /tmp/cclYAUXt.s:3277   .debug_str:0000000000000291 .LASF96
     /tmp/cclYAUXt.s:3213   .debug_str:00000000000000aa .LASF97
     /tmp/cclYAUXt.s:3339   .debug_str:00000000000004e0 .LASF98
     /tmp/cclYAUXt.s:3299   .debug_str:0000000000000343 .LASF99
     /tmp/cclYAUXt.s:3207   .debug_str:0000000000000082 .LASF100
     /tmp/cclYAUXt.s:3407   .debug_str:0000000000000772 .LASF101
     /tmp/cclYAUXt.s:3333   .debug_str:00000000000004ae .LASF102
     /tmp/cclYAUXt.s:3237   .debug_str:0000000000000154 .LASF103
     /tmp/cclYAUXt.s:3191   .debug_str:0000000000000015 .LASF104
     /tmp/cclYAUXt.s:3231   .debug_str:000000000000012b .LASF105
     /tmp/cclYAUXt.s:3331   .debug_str:00000000000004a6 .LASF106
     /tmp/cclYAUXt.s:3201   .debug_str:000000000000005d .LASF107
     /tmp/cclYAUXt.s:3415   .debug_str:00000000000007cf .LASF108
     /tmp/cclYAUXt.s:604    .text:0000000000000344 .LFB54
     /tmp/cclYAUXt.s:655    .text:00000000000003a0 .LFE54
     /tmp/cclYAUXt.s:638    .text:0000000000000384 .LVL32
     /tmp/cclYAUXt.s:642    .text:000000000000038c .LVL33
     /tmp/cclYAUXt.s:661    .text:00000000000003a0 .LFB53
     /tmp/cclYAUXt.s:725    .text:0000000000000418 .LFE53
     /tmp/cclYAUXt.s:2896   .debug_loc:0000000000000000 .LLST12
     /tmp/cclYAUXt.s:687    .text:00000000000003cc .LVL35
     /tmp/cclYAUXt.s:695    .text:00000000000003e4 .LVL36
     /tmp/cclYAUXt.s:715    .text:0000000000000404 .LVL39
     /tmp/cclYAUXt.s:722    .text:0000000000000414 .LVL40
     /tmp/cclYAUXt.s:566    .text:0000000000000320 .LFB52
     /tmp/cclYAUXt.s:598    .text:0000000000000344 .LFE52
     /tmp/cclYAUXt.s:3417   .debug_str:00000000000007ea .LASF109
     /tmp/cclYAUXt.s:65     .text:0000000000000038 .LFB51
     /tmp/cclYAUXt.s:560    .text:0000000000000320 .LFE51
     /tmp/cclYAUXt.s:2907   .debug_loc:0000000000000036 .LLST1
     /tmp/cclYAUXt.s:3433   .debug_str:000000000000085c .LASF110
     /tmp/cclYAUXt.s:2932   .debug_loc:0000000000000098 .LLST2
     /tmp/cclYAUXt.s:2954   .debug_loc:00000000000000f7 .LLST3
     /tmp/cclYAUXt.s:3203   .debug_str:000000000000006e .LASF111
     /tmp/cclYAUXt.s:2990   .debug_loc:0000000000000182 .LLST4
     /tmp/cclYAUXt.s:84     .text:0000000000000050 .LBB22
     /tmp/cclYAUXt.s:3153   .debug_ranges:0000000000000000 .Ldebug_ranges0
     /tmp/cclYAUXt.s:3015   .debug_loc:00000000000001e4 .LLST5
     /tmp/cclYAUXt.s:3030   .debug_loc:000000000000021e .LLST6
     /tmp/cclYAUXt.s:3051   .debug_loc:000000000000027d .LLST7
     /tmp/cclYAUXt.s:249    .text:0000000000000144 .LBB35
     /tmp/cclYAUXt.s:3062   .debug_loc:00000000000002b3 .LLST8
     /tmp/cclYAUXt.s:3083   .debug_loc:0000000000000305 .LLST9
     /tmp/cclYAUXt.s:355    .text:00000000000001e0 .LBB40
     /tmp/cclYAUXt.s:439    .text:000000000000026c .LBE40
     /tmp/cclYAUXt.s:3108   .debug_loc:0000000000000377 .LLST10
     /tmp/cclYAUXt.s:504    .text:00000000000002d4 .LBB47
GAS LISTING /tmp/cclYAUXt.s 			page 31


     /tmp/cclYAUXt.s:512    .text:00000000000002d8 .LBE47
     /tmp/cclYAUXt.s:3119   .debug_loc:00000000000003ad .LLST11
     /tmp/cclYAUXt.s:553    .text:0000000000000314 .LVL29
     /tmp/cclYAUXt.s:38     .text:000000000000001c .LFB50
     /tmp/cclYAUXt.s:59     .text:0000000000000038 .LFE50
     /tmp/cclYAUXt.s:3245   .debug_str:00000000000001a6 .LASF112
     /tmp/cclYAUXt.s:10     .text:0000000000000000 .LFB49
     /tmp/cclYAUXt.s:32     .text:000000000000001c .LFE49
     /tmp/cclYAUXt.s:3126   .debug_loc:00000000000003d0 .LLST0
     /tmp/cclYAUXt.s:3373   .debug_str:00000000000005d3 .LASF113
     /tmp/cclYAUXt.s:677    .text:00000000000003bc .LVL34
     /tmp/cclYAUXt.s:705    .text:00000000000003f0 .LVL37
     /tmp/cclYAUXt.s:709    .text:00000000000003f8 .LVL38
     /tmp/cclYAUXt.s:68     .text:0000000000000038 .LVL3
     /tmp/cclYAUXt.s:503    .text:00000000000002d4 .LVL23
     /tmp/cclYAUXt.s:538    .text:00000000000002fc .LVL27
     /tmp/cclYAUXt.s:548    .text:000000000000030c .LVL28
     /tmp/cclYAUXt.s:92     .text:000000000000005c .LVL5
     /tmp/cclYAUXt.s:534    .text:00000000000002f4 .LVL26
     /tmp/cclYAUXt.s:257    .text:0000000000000150 .LVL12
     /tmp/cclYAUXt.s:310    .text:00000000000001b4 .LVL13
     /tmp/cclYAUXt.s:330    .text:00000000000001c8 .LVL14
     /tmp/cclYAUXt.s:437    .text:000000000000026c .LVL21
     /tmp/cclYAUXt.s:447    .text:0000000000000270 .LVL22
     /tmp/cclYAUXt.s:515    .text:00000000000002dc .LVL25
     /tmp/cclYAUXt.s:81     .text:0000000000000050 .LVL4
     /tmp/cclYAUXt.s:226    .text:0000000000000130 .LVL10
     /tmp/cclYAUXt.s:147    .text:00000000000000b8 .LVL6
     /tmp/cclYAUXt.s:149    .text:00000000000000bc .LVL7
     /tmp/cclYAUXt.s:201    .text:0000000000000104 .LVL9
     /tmp/cclYAUXt.s:163    .text:00000000000000d0 .LVL8
     /tmp/cclYAUXt.s:247    .text:0000000000000144 .LVL11
     /tmp/cclYAUXt.s:426    .text:0000000000000254 .LVL19
     /tmp/cclYAUXt.s:428    .text:0000000000000258 .LVL20
     /tmp/cclYAUXt.s:343    .text:00000000000001cc .LVL15
     /tmp/cclYAUXt.s:345    .text:00000000000001d0 .LVL16
     /tmp/cclYAUXt.s:399    .text:0000000000000220 .LVL18
     /tmp/cclYAUXt.s:361    .text:00000000000001ec .LVL17
     /tmp/cclYAUXt.s:510    .text:00000000000002d8 .LVL24
     /tmp/cclYAUXt.s:14     .text:0000000000000000 .LVL0
     /tmp/cclYAUXt.s:24     .text:0000000000000010 .LVL1
     /tmp/cclYAUXt.s:747    .debug_info:0000000000000000 .Ldebug_info0
     /tmp/cclYAUXt.s:233    .text:0000000000000130 .LBE22
     /tmp/cclYAUXt.s:317    .text:00000000000001b4 .LBB45
     /tmp/cclYAUXt.s:337    .text:00000000000001c8 .LBE45
     /tmp/cclYAUXt.s:88     .text:0000000000000050 .LBB24
     /tmp/cclYAUXt.s:231    .text:0000000000000130 .LBE24
     /tmp/cclYAUXt.s:319    .text:00000000000001b4 .LBB33
     /tmp/cclYAUXt.s:335    .text:00000000000001c8 .LBE33
     /tmp/cclYAUXt.s:159    .text:00000000000000cc .LBB27
     /tmp/cclYAUXt.s:228    .text:0000000000000130 .LBE27
     /tmp/cclYAUXt.s:322    .text:00000000000001b4 .LBB28
     /tmp/cclYAUXt.s:332    .text:00000000000001c8 .LBE28
     /tmp/cclYAUXt.s:316    .text:00000000000001b4 .LBE35
     /tmp/cclYAUXt.s:338    .text:00000000000001c8 .LBB46
     /tmp/cclYAUXt.s:444    .text:000000000000026c .LBE46
     /tmp/cclYAUXt.s:253    .text:0000000000000144 .LBB37
GAS LISTING /tmp/cclYAUXt.s 			page 32


     /tmp/cclYAUXt.s:314    .text:00000000000001b4 .LBE37
     /tmp/cclYAUXt.s:340    .text:00000000000001c8 .LBB43
     /tmp/cclYAUXt.s:442    .text:000000000000026c .LBE43

UNDEFINED SYMBOLS
_ZN16MemoryAllocation9fmem_headE
_ZN9Scheduler3putEP3TCB
_ZN9Scheduler3getEv
_ZN3TCB13contextSwitchEPNS_7ContextES1_
