GAS LISTING /tmp/cceo0zJu.s 			page 1


   1              		.file	"tcb.cpp"
   2              		.option pic
   3              		.option norelax
   4              		.text
   5              	.Ltext0:
   6              		.align	2
   7              		.globl	_ZNK3TCB10isFinishedEv
   9              	_ZNK3TCB10isFinishedEv:
  10              	.LFB44:
  11              		.file 1 "src/tcb.cpp"
   1:src/tcb.cpp   **** //
   2:src/tcb.cpp   **** // Created by os on 8/14/22.
   3:src/tcb.cpp   **** //
   4:src/tcb.cpp   **** 
   5:src/tcb.cpp   **** #include "../h/tcb.hpp"
   6:src/tcb.cpp   **** #include "../h/RiscV.hpp"
   7:src/tcb.cpp   **** 
   8:src/tcb.cpp   **** 
   9:src/tcb.cpp   **** 
  10:src/tcb.cpp   **** bool TCB::isFinished() const {
  12              		.loc 1 10 30
  13              		.cfi_startproc
  14              	.LVL0:
  15 0000 130101FF 		addi	sp,sp,-16
  16              		.cfi_def_cfa_offset 16
  17 0004 23348100 		sd	s0,8(sp)
  18              		.cfi_offset 8, -8
  19 0008 13040101 		addi	s0,sp,16
  20              		.cfi_def_cfa 8, 0
  11:src/tcb.cpp   ****     return finished;
  21              		.loc 1 11 5
  12:src/tcb.cpp   **** }
  22              		.loc 1 12 1 is_stmt 0
  23 000c 03450502 		lbu	a0,32(a0)
  24              	.LVL1:
  25 0010 03348100 		ld	s0,8(sp)
  26              		.cfi_restore 8
  27              		.cfi_def_cfa 2, 16
  28 0014 13010101 		addi	sp,sp,16
  29              		.cfi_def_cfa_offset 0
  30 0018 67800000 		jr	ra
  31              		.cfi_endproc
  32              	.LFE44:
  34              		.align	2
  35              		.globl	_ZN3TCB11setFinishedEb
  37              	_ZN3TCB11setFinishedEb:
  38              	.LFB45:
  13:src/tcb.cpp   **** 
  14:src/tcb.cpp   **** void TCB::setFinished(bool finished) {
  39              		.loc 1 14 38 is_stmt 1
  40              		.cfi_startproc
  41              	.LVL2:
  42 001c 130101FF 		addi	sp,sp,-16
  43              		.cfi_def_cfa_offset 16
  44 0020 23348100 		sd	s0,8(sp)
  45              		.cfi_offset 8, -8
  46 0024 13040101 		addi	s0,sp,16
GAS LISTING /tmp/cceo0zJu.s 			page 2


  47              		.cfi_def_cfa 8, 0
  15:src/tcb.cpp   ****     TCB::finished=finished;
  48              		.loc 1 15 5
  49              		.loc 1 15 18 is_stmt 0
  50 0028 2300B502 		sb	a1,32(a0)
  16:src/tcb.cpp   **** }
  51              		.loc 1 16 1
  52 002c 03348100 		ld	s0,8(sp)
  53              		.cfi_restore 8
  54              		.cfi_def_cfa 2, 16
  55 0030 13010101 		addi	sp,sp,16
  56              		.cfi_def_cfa_offset 0
  57 0034 67800000 		jr	ra
  58              		.cfi_endproc
  59              	.LFE45:
  61              		.align	2
  62              		.globl	_ZN3TCB12createThreadEPFvPvEPPS_S0_
  64              	_ZN3TCB12createThreadEPFvPvEPPS_S0_:
  65              	.LFB46:
  17:src/tcb.cpp   **** TCB* TCB::running = nullptr;
  18:src/tcb.cpp   **** 
  19:src/tcb.cpp   **** uint64 TCB::timeSliceCounter=0;
  20:src/tcb.cpp   **** 
  21:src/tcb.cpp   **** int TCB::createThread(TCB::Body body, TCB** handle , void* arguments) {
  66              		.loc 1 21 71 is_stmt 1
  67              		.cfi_startproc
  68              	.LVL3:
  69 0038 130101FE 		addi	sp,sp,-32
  70              		.cfi_def_cfa_offset 32
  71 003c 233C1100 		sd	ra,24(sp)
  72 0040 23388100 		sd	s0,16(sp)
  73 0044 23349100 		sd	s1,8(sp)
  74              		.cfi_offset 1, -8
  75              		.cfi_offset 8, -16
  76              		.cfi_offset 9, -24
  77 0048 13040102 		addi	s0,sp,32
  78              		.cfi_def_cfa 8, 0
  79 004c 93840500 		mv	s1,a1
  22:src/tcb.cpp   ****     //*handle = new TCB(body, TIME_SLICE, arguments);
  23:src/tcb.cpp   ****     *handle = (TCB*) MemoryAllocation::mem_alloc(MemoryAllocation::bytesToBlocks(sizeof(TCB)));
  80              		.loc 1 23 5
  81              	.LVL4:
  82              		.file 2 "src/../h/../h/../h/MemoryAllocation.hpp"
   1:src/../h/../h/../h/MemoryAllocation.hpp **** #include "../lib/hw.h"
   2:src/../h/../h/../h/MemoryAllocation.hpp **** 
   3:src/../h/../h/../h/MemoryAllocation.hpp **** 
   4:src/../h/../h/../h/MemoryAllocation.hpp **** #ifndef PROJECT_BASE_MEMORYALLOCATION_HPP
   5:src/../h/../h/../h/MemoryAllocation.hpp **** #define PROJECT_BASE_MEMORYALLOCATION_HPP
   6:src/../h/../h/../h/MemoryAllocation.hpp **** 
   7:src/../h/../h/../h/MemoryAllocation.hpp **** 
   8:src/../h/../h/../h/MemoryAllocation.hpp **** class MemoryAllocation {
   9:src/../h/../h/../h/MemoryAllocation.hpp **** 
  10:src/../h/../h/../h/MemoryAllocation.hpp ****     //===========================DEFINICIJA SINGLETON KLASE POCETAK=======================k
  11:src/../h/../h/../h/MemoryAllocation.hpp **** private:
  12:src/../h/../h/../h/MemoryAllocation.hpp **** 
  13:src/../h/../h/../h/MemoryAllocation.hpp ****     struct FreeMem {
  14:src/../h/../h/../h/MemoryAllocation.hpp ****         FreeMem *next;
GAS LISTING /tmp/cceo0zJu.s 			page 3


  15:src/../h/../h/../h/MemoryAllocation.hpp ****         FreeMem *prev;
  16:src/../h/../h/../h/MemoryAllocation.hpp ****         size_t size;
  17:src/../h/../h/../h/MemoryAllocation.hpp ****     };
  18:src/../h/../h/../h/MemoryAllocation.hpp **** 
  19:src/../h/../h/../h/MemoryAllocation.hpp **** 
  20:src/../h/../h/../h/MemoryAllocation.hpp ****     static FreeMem *fmem_head; //koja pocetna vrednost?
  21:src/../h/../h/../h/MemoryAllocation.hpp **** 
  22:src/../h/../h/../h/MemoryAllocation.hpp **** 
  23:src/../h/../h/../h/MemoryAllocation.hpp **** 
  24:src/../h/../h/../h/MemoryAllocation.hpp ****     static MemoryAllocation *instance;
  25:src/../h/../h/../h/MemoryAllocation.hpp ****     int data;
  26:src/../h/../h/../h/MemoryAllocation.hpp **** 
  27:src/../h/../h/../h/MemoryAllocation.hpp **** 
  28:src/../h/../h/../h/MemoryAllocation.hpp ****     MemoryAllocation() { //OVO SE SADA NIGGDE
  29:src/../h/../h/../h/MemoryAllocation.hpp ****         fmem_head->size = (size_t) ((char *) HEAP_END_ADDR -
  30:src/../h/../h/../h/MemoryAllocation.hpp ****                                     (char *) HEAP_START_ADDR); //da li smem ovo da castujem u size_
  31:src/../h/../h/../h/MemoryAllocation.hpp ****         fmem_head->next = nullptr;
  32:src/../h/../h/../h/MemoryAllocation.hpp ****         fmem_head->prev = nullptr;
  33:src/../h/../h/../h/MemoryAllocation.hpp ****         data = 0;
  34:src/../h/../h/../h/MemoryAllocation.hpp ****     }
  35:src/../h/../h/../h/MemoryAllocation.hpp **** 
  36:src/../h/../h/../h/MemoryAllocation.hpp ****     MemoryAllocation(MemoryAllocation const &);
  37:src/../h/../h/../h/MemoryAllocation.hpp **** 
  38:src/../h/../h/../h/MemoryAllocation.hpp ****     void operator=(MemoryAllocation const &);
  39:src/../h/../h/../h/MemoryAllocation.hpp **** 
  40:src/../h/../h/../h/MemoryAllocation.hpp **** public:
  41:src/../h/../h/../h/MemoryAllocation.hpp **** 
  42:src/../h/../h/../h/MemoryAllocation.hpp **** 
  43:src/../h/../h/../h/MemoryAllocation.hpp ****     static MemoryAllocation *getInstance() {
  44:src/../h/../h/../h/MemoryAllocation.hpp ****         if (!instance) {
  45:src/../h/../h/../h/MemoryAllocation.hpp ****             fmem_head =  (FreeMem*) HEAP_START_ADDR;
  46:src/../h/../h/../h/MemoryAllocation.hpp ****             fmem_head->size = (size_t) ((char *) HEAP_END_ADDR -
  47:src/../h/../h/../h/MemoryAllocation.hpp ****                                         (char *) HEAP_START_ADDR); //da li smem ovo da castujem u s
  48:src/../h/../h/../h/MemoryAllocation.hpp ****             fmem_head->next = nullptr;
  49:src/../h/../h/../h/MemoryAllocation.hpp ****             fmem_head->prev = nullptr;
  50:src/../h/../h/../h/MemoryAllocation.hpp ****             static MemoryAllocation* instance;
  51:src/../h/../h/../h/MemoryAllocation.hpp ****             return instance;
  52:src/../h/../h/../h/MemoryAllocation.hpp ****         }
  53:src/../h/../h/../h/MemoryAllocation.hpp ****         return instance;
  54:src/../h/../h/../h/MemoryAllocation.hpp ****     }
  55:src/../h/../h/../h/MemoryAllocation.hpp **** 
  56:src/../h/../h/../h/MemoryAllocation.hpp **** 
  57:src/../h/../h/../h/MemoryAllocation.hpp ****     int getData() {
  58:src/../h/../h/../h/MemoryAllocation.hpp ****         return this->data;
  59:src/../h/../h/../h/MemoryAllocation.hpp ****     }
  60:src/../h/../h/../h/MemoryAllocation.hpp **** 
  61:src/../h/../h/../h/MemoryAllocation.hpp ****     void setData(int data) {
  62:src/../h/../h/../h/MemoryAllocation.hpp ****         this->data = data;
  63:src/../h/../h/../h/MemoryAllocation.hpp ****     }
  64:src/../h/../h/../h/MemoryAllocation.hpp **** 
  65:src/../h/../h/../h/MemoryAllocation.hpp ****     /*MemoryAllocation(MemoryAllocation const&) = delete;
  66:src/../h/../h/../h/MemoryAllocation.hpp ****     void operator=(MemoryAllocation const&)  = delete;*/
  67:src/../h/../h/../h/MemoryAllocation.hpp **** //===========================DEFINICIJA SINGLETON KLASE KRAJ========================
  68:src/../h/../h/../h/MemoryAllocation.hpp ****     static int bytesToBlocks(size_t size){
  69:src/../h/../h/../h/MemoryAllocation.hpp ****         return (size+sizeof(FreeMem)+MEM_BLOCK_SIZE-1)/MEM_BLOCK_SIZE;
  83              		.loc 2 69 9
  84              	.LBB18:
GAS LISTING /tmp/cceo0zJu.s 			page 4


  85              	.LBB19:
  70:src/../h/../h/../h/MemoryAllocation.hpp ****     }
  71:src/../h/../h/../h/MemoryAllocation.hpp **** 
  72:src/../h/../h/../h/MemoryAllocation.hpp **** 
  73:src/../h/../h/../h/MemoryAllocation.hpp **** //===========================METODE ZA ALOKACIJU MEMORIJE===========================
  74:src/../h/../h/../h/MemoryAllocation.hpp ****     static void tryToJoin (FreeMem* curr) {
  75:src/../h/../h/../h/MemoryAllocation.hpp ****         if (!curr) return;
  76:src/../h/../h/../h/MemoryAllocation.hpp ****         if (curr->next && (char*)curr+curr->size == (char*)(curr->next)) {
  77:src/../h/../h/../h/MemoryAllocation.hpp ****         // Remove the cur->next segment:
  78:src/../h/../h/../h/MemoryAllocation.hpp ****             curr->size += curr->next->size;
  79:src/../h/../h/../h/MemoryAllocation.hpp ****             curr->next = curr->next->next;
  80:src/../h/../h/../h/MemoryAllocation.hpp ****             if (curr->next) curr->next->prev = curr;
  81:src/../h/../h/../h/MemoryAllocation.hpp ****             return;
  82:src/../h/../h/../h/MemoryAllocation.hpp ****         }
  83:src/../h/../h/../h/MemoryAllocation.hpp **** 
  84:src/../h/../h/../h/MemoryAllocation.hpp ****     }
  85:src/../h/../h/../h/MemoryAllocation.hpp **** 
  86:src/../h/../h/../h/MemoryAllocation.hpp ****     //===================================== mem_free, ali sa ptr ===============
  87:src/../h/../h/../h/MemoryAllocation.hpp ****         static int mem_free(void* ptr) { //radi i kada posaljem sa &
  88:src/../h/../h/../h/MemoryAllocation.hpp ****         FreeMem* cur=0;
  89:src/../h/../h/../h/MemoryAllocation.hpp ****         if(!fmem_head || ptr < (char*)fmem_head)
  90:src/../h/../h/../h/MemoryAllocation.hpp ****         {
  91:src/../h/../h/../h/MemoryAllocation.hpp ****             cur=nullptr;
  92:src/../h/../h/../h/MemoryAllocation.hpp ****         }else {
  93:src/../h/../h/../h/MemoryAllocation.hpp ****                 for (cur=fmem_head; cur->next!=ptr && ptr>(char*)(cur->next); cur=cur->next); //moz
  94:src/../h/../h/../h/MemoryAllocation.hpp ****             }
  95:src/../h/../h/../h/MemoryAllocation.hpp ****                 FreeMem* newSeg = (FreeMem*)ptr;
  96:src/../h/../h/../h/MemoryAllocation.hpp ****                 newSeg->next=nullptr;
  97:src/../h/../h/../h/MemoryAllocation.hpp ****                 newSeg->prev=nullptr;
  98:src/../h/../h/../h/MemoryAllocation.hpp ****                 newSeg->size=bytesToBlocks(sizeof(ptr))*MEM_BLOCK_SIZE;
  99:src/../h/../h/../h/MemoryAllocation.hpp ****                         //sizeof(ptr);
 100:src/../h/../h/../h/MemoryAllocation.hpp ****                 newSeg->prev=cur;
 101:src/../h/../h/../h/MemoryAllocation.hpp ****                 if(cur) {
 102:src/../h/../h/../h/MemoryAllocation.hpp ****                     newSeg->next = cur->next;
 103:src/../h/../h/../h/MemoryAllocation.hpp ****                 }
 104:src/../h/../h/../h/MemoryAllocation.hpp ****                 else {
 105:src/../h/../h/../h/MemoryAllocation.hpp ****                     newSeg->next = fmem_head;
 106:src/../h/../h/../h/MemoryAllocation.hpp ****                 }
 107:src/../h/../h/../h/MemoryAllocation.hpp ****                 if(newSeg->next) {
 108:src/../h/../h/../h/MemoryAllocation.hpp ****                     newSeg->next->prev=newSeg;
 109:src/../h/../h/../h/MemoryAllocation.hpp ****                 }
 110:src/../h/../h/../h/MemoryAllocation.hpp ****                 if (cur) {
 111:src/../h/../h/../h/MemoryAllocation.hpp ****                     cur->next = newSeg; //zasto ovde odjednom uzme vrednost x8000 umesto x8000f...?
 112:src/../h/../h/../h/MemoryAllocation.hpp ****                 }
 113:src/../h/../h/../h/MemoryAllocation.hpp ****                 else {
 114:src/../h/../h/../h/MemoryAllocation.hpp ****                     fmem_head = newSeg;
 115:src/../h/../h/../h/MemoryAllocation.hpp ****                 }
 116:src/../h/../h/../h/MemoryAllocation.hpp ****                 // Try to merge with the previous and next segments:
 117:src/../h/../h/../h/MemoryAllocation.hpp ****             tryToJoin(newSeg);
 118:src/../h/../h/../h/MemoryAllocation.hpp ****             tryToJoin(cur);
 119:src/../h/../h/../h/MemoryAllocation.hpp ****             //mozda da fmem_head nije jednako starom fmem_headu?
 120:src/../h/../h/../h/MemoryAllocation.hpp ****             if(newSeg==nullptr){
 121:src/../h/../h/../h/MemoryAllocation.hpp ****                 return -1;
 122:src/../h/../h/../h/MemoryAllocation.hpp ****             }else{return 0;}
 123:src/../h/../h/../h/MemoryAllocation.hpp **** 
 124:src/../h/../h/../h/MemoryAllocation.hpp **** 
 125:src/../h/../h/../h/MemoryAllocation.hpp ****     }
GAS LISTING /tmp/cceo0zJu.s 			page 5


 126:src/../h/../h/../h/MemoryAllocation.hpp ****     //===================================== kraj probe ==========================
 127:src/../h/../h/../h/MemoryAllocation.hpp **** 
 128:src/../h/../h/../h/MemoryAllocation.hpp **** 
 129:src/../h/../h/../h/MemoryAllocation.hpp **** 
 130:src/../h/../h/../h/MemoryAllocation.hpp ****     /*int mem_free(char* addr, size_t size) {
 131:src/../h/../h/../h/MemoryAllocation.hpp ****         // Find the place where to insert the new free segment (just after cur):
 132:src/../h/../h/../h/MemoryAllocation.hpp ****         FreeMem* cur=0;
 133:src/../h/../h/../h/MemoryAllocation.hpp ****         if (!fmem_head || addr<(char*)fmem_head)
 134:src/../h/../h/../h/MemoryAllocation.hpp ****             cur = 0; // insert as the first
 135:src/../h/../h/../h/MemoryAllocation.hpp ****         else
 136:src/../h/../h/../h/MemoryAllocation.hpp ****             for (cur=fmem_head; cur->next!=0 && addr>(char*)(cur->next);
 137:src/../h/../h/../h/MemoryAllocation.hpp ****                  cur=cur->next);
 138:src/../h/../h/../h/MemoryAllocation.hpp ****             // Insert the new segment after cur:
 139:src/../h/../h/../h/MemoryAllocation.hpp ****         FreeMem* newSeg = (FreeMem*)addr;
 140:src/../h/../h/../h/MemoryAllocation.hpp ****         newSeg->size = size;
 141:src/../h/../h/../h/MemoryAllocation.hpp ****         newSeg->prev = cur;
 142:src/../h/../h/../h/MemoryAllocation.hpp ****         if (cur) newSeg->next = cur->next;
 143:src/../h/../h/../h/MemoryAllocation.hpp ****         else newSeg->next = fmem_head;
 144:src/../h/../h/../h/MemoryAllocation.hpp ****         if (newSeg->next) newSeg->next->prev = newSeg;
 145:src/../h/../h/../h/MemoryAllocation.hpp ****         if (cur) cur->next = newSeg;
 146:src/../h/../h/../h/MemoryAllocation.hpp ****         else fmem_head = newSeg;
 147:src/../h/../h/../h/MemoryAllocation.hpp ****             // Try to merge with the previous and next segments:
 148:src/../h/../h/../h/MemoryAllocation.hpp ****         tryToJoin(newSeg);
 149:src/../h/../h/../h/MemoryAllocation.hpp ****         tryToJoin(cur);
 150:src/../h/../h/../h/MemoryAllocation.hpp ****     }*/
 151:src/../h/../h/../h/MemoryAllocation.hpp **** 
 152:src/../h/../h/../h/MemoryAllocation.hpp ****     static void* mem_alloc(size_t size) {//uopste ne radi, iako u lotsofsmallmallocs pise da radi
 153:src/../h/../h/../h/MemoryAllocation.hpp ****         //size_t x=sizeof(fmem_head);
 154:src/../h/../h/../h/MemoryAllocation.hpp ****         //pozovi ovde samo bytes to blocks od size, da ne moras to da radis iz maina
 155:src/../h/../h/../h/MemoryAllocation.hpp ****         size=(size)*(size_t)MEM_BLOCK_SIZE; //kada je ovo ukljuceno, pravi problem u memfree, so il
  86              		.loc 2 155 9
 156:src/../h/../h/../h/MemoryAllocation.hpp ****         for (FreeMem* cur = fmem_head; cur != nullptr; cur=cur->next){ // U DRUGOJ ITERACIJI FMEM_H
  87              		.loc 2 156 9
  88              	.LBB20:
  89              		.loc 2 156 23 is_stmt 0
  90 0050 97070000 		la	a5,_ZN16MemoryAllocation9fmem_headE
  90      83B70700 
  91 0058 83B70700 		ld	a5,0(a5)
  92              	.LVL5:
  93              	.L7:
  94              		.loc 2 156 44 is_stmt 1
  95 005c 638A070C 		beqz	a5,.L6
  96              	.LBB21:
 157:src/../h/../h/../h/MemoryAllocation.hpp ****             cur->next=fmem_head->next;
  97              		.loc 2 157 13
  98              		.loc 2 157 34 is_stmt 0
  99 0060 17070000 		la	a4,_ZN16MemoryAllocation9fmem_headE
  99      03370700 
 100 0068 83360700 		ld	a3,0(a4)
 101 006c 83B60600 		ld	a3,0(a3)
 102              		.loc 2 157 22
 103 0070 23B0D700 		sd	a3,0(a5)
 158:src/../h/../h/../h/MemoryAllocation.hpp ****             cur->prev=fmem_head->prev;
 104              		.loc 2 158 13 is_stmt 1
 105              		.loc 2 158 34 is_stmt 0
 106 0074 03370700 		ld	a4,0(a4)
 107 0078 83358700 		ld	a1,8(a4)
GAS LISTING /tmp/cceo0zJu.s 			page 6


 108              		.loc 2 158 22
 109 007c 23B4B700 		sd	a1,8(a5)
 159:src/../h/../h/../h/MemoryAllocation.hpp ****             if (cur->size<size) continue;
 110              		.loc 2 159 13 is_stmt 1
 111              		.loc 2 159 22 is_stmt 0
 112 0080 03B70701 		ld	a4,16(a5)
 113              		.loc 2 159 13
 114 0084 1308F007 		li	a6,127
 115 0088 6376E802 		bleu	a4,a6,.L30
 160:src/../h/../h/../h/MemoryAllocation.hpp ****             if (cur->size-size<=sizeof(FreeMem)){
 116              		.loc 2 160 13 is_stmt 1
 117              	.LBB22:
 118              		.loc 2 160 26 is_stmt 0
 119 008c 130707F8 		addi	a4,a4,-128
 120              		.loc 2 160 13
 121 0090 13088001 		li	a6,24
 122 0094 636CE802 		bgtu	a4,a6,.L8
 161:src/../h/../h/../h/MemoryAllocation.hpp ****                 if (cur->prev) cur->prev->next = cur->next;
 123              		.loc 2 161 17 is_stmt 1
 124 0098 63820502 		beqz	a1,.L9
 125              		.loc 2 161 32
 126              		.loc 2 161 48 is_stmt 0
 127 009c 23B0D500 		sd	a3,0(a1)
 128              	.L10:
 162:src/../h/../h/../h/MemoryAllocation.hpp ****                 else fmem_head = cur->next;
 163:src/../h/../h/../h/MemoryAllocation.hpp ****                 if (cur->next) cur->next->prev = cur->prev;
 129              		.loc 2 163 17 is_stmt 1
 130              		.loc 2 163 26 is_stmt 0
 131 00a0 03B70700 		ld	a4,0(a5)
 132              		.loc 2 163 17
 133 00a4 63060708 		beqz	a4,.L6
 134              		.loc 2 163 32 is_stmt 1
 135              		.loc 2 163 55 is_stmt 0
 136 00a8 83B68700 		ld	a3,8(a5)
 137              		.loc 2 163 48
 138 00ac 2334D700 		sd	a3,8(a4)
 164:src/../h/../h/../h/MemoryAllocation.hpp ****                 return cur;
 139              		.loc 2 164 17 is_stmt 1
 140              		.loc 2 164 24 is_stmt 0
 141 00b0 6F000008 		j	.L6
 142              	.L30:
 143              	.LBE22:
 144              	.LBE21:
 156:src/../h/../h/../h/MemoryAllocation.hpp ****             cur->next=fmem_head->next;
 145              		.loc 2 156 59
 146 00b4 93870600 		mv	a5,a3
 147              	.LVL6:
 148 00b8 6FF05FFA 		j	.L7
 149              	.LVL7:
 150              	.L9:
 151              	.LBB27:
 152              	.LBB25:
 162:src/../h/../h/../h/MemoryAllocation.hpp ****                 else fmem_head = cur->next;
 153              		.loc 2 162 22 is_stmt 1
 162:src/../h/../h/../h/MemoryAllocation.hpp ****                 else fmem_head = cur->next;
 154              		.loc 2 162 32 is_stmt 0
 155 00bc 17070000 		la	a4,_ZN16MemoryAllocation9fmem_headE
GAS LISTING /tmp/cceo0zJu.s 			page 7


 155      03370700 
 156 00c4 2330D700 		sd	a3,0(a4)
 157 00c8 6FF09FFD 		j	.L10
 158              	.L8:
 159              	.LBB23:
 165:src/../h/../h/../h/MemoryAllocation.hpp ****             }else {
 166:src/../h/../h/../h/MemoryAllocation.hpp ****                 FreeMem* newfrgm = (FreeMem*)((char*)cur+size);
 160              		.loc 2 166 17 is_stmt 1
 161              		.loc 2 166 26 is_stmt 0
 162 00cc 13870708 		addi	a4,a5,128
 163              	.LVL8:
 167:src/../h/../h/../h/MemoryAllocation.hpp ****                 newfrgm->prev=nullptr;
 164              		.loc 2 167 17 is_stmt 1
 165              		.loc 2 167 30 is_stmt 0
 166 00d0 23340700 		sd	zero,8(a4)
 168:src/../h/../h/../h/MemoryAllocation.hpp ****                 newfrgm->next=nullptr;
 167              		.loc 2 168 17 is_stmt 1
 168              		.loc 2 168 30 is_stmt 0
 169 00d4 23B00708 		sd	zero,128(a5)
 169:src/../h/../h/../h/MemoryAllocation.hpp ****                 //newfrgm->size=cur->size-size;// DODATO TOKOM PROBE NITI
 170:src/../h/../h/../h/MemoryAllocation.hpp ****                 if (cur && cur->prev) cur->prev->next = newfrgm;
 170              		.loc 2 170 17 is_stmt 1
 171              		.loc 2 170 33 is_stmt 0
 172 00d8 83B68700 		ld	a3,8(a5)
 173              		.loc 2 170 25
 174 00dc 638C060C 		beqz	a3,.L12
 175              		.loc 2 170 39 is_stmt 1
 176              		.loc 2 170 55 is_stmt 0
 177 00e0 23B0E600 		sd	a4,0(a3)
 178              	.L13:
 171:src/../h/../h/../h/MemoryAllocation.hpp ****                 else fmem_head = newfrgm+sizeof(fmem_head); // ovo sam dodao sizeof da bi mi radio 
 172:src/../h/../h/../h/MemoryAllocation.hpp ****                 if (cur && cur->next) cur->next->prev = newfrgm;
 179              		.loc 2 172 17 is_stmt 1
 180              		.loc 2 172 33 is_stmt 0
 181 00e4 83B60700 		ld	a3,0(a5)
 182              		.loc 2 172 25
 183 00e8 63840600 		beqz	a3,.L14
 184              		.loc 2 172 39 is_stmt 1
 185              		.loc 2 172 55 is_stmt 0
 186 00ec 23B4E600 		sd	a4,8(a3)
 187              	.L14:
 173:src/../h/../h/../h/MemoryAllocation.hpp ****                 newfrgm->prev = cur->prev;
 188              		.loc 2 173 17 is_stmt 1
 189              		.loc 2 173 38 is_stmt 0
 190 00f0 83B58700 		ld	a1,8(a5)
 191              		.loc 2 173 31
 192 00f4 2334B700 		sd	a1,8(a4)
 174:src/../h/../h/../h/MemoryAllocation.hpp ****                 newfrgm->next = cur->next;
 193              		.loc 2 174 17 is_stmt 1
 194              		.loc 2 174 38 is_stmt 0
 195 00f8 83B60700 		ld	a3,0(a5)
 196              		.loc 2 174 31
 197 00fc 2330D700 		sd	a3,0(a4)
 175:src/../h/../h/../h/MemoryAllocation.hpp ****                 newfrgm->size = cur->size-size;
 198              		.loc 2 175 17 is_stmt 1
 199              		.loc 2 175 38 is_stmt 0
 200 0100 83B70701 		ld	a5,16(a5)
GAS LISTING /tmp/cceo0zJu.s 			page 8


 201              	.LVL9:
 202              		.loc 2 175 42
 203 0104 938707F8 		addi	a5,a5,-128
 204              		.loc 2 175 31
 205 0108 2338F700 		sd	a5,16(a4)
 176:src/../h/../h/../h/MemoryAllocation.hpp ****                 fmem_head =newfrgm+sizeof(fmem_head);
 206              		.loc 2 176 17 is_stmt 1
 207              		.loc 2 176 35 is_stmt 0
 208 010c 9306070C 		addi	a3,a4,192
 209              		.loc 2 176 27
 210 0110 17080000 		la	a6,_ZN16MemoryAllocation9fmem_headE
 210      03380800 
 211 0118 2330D800 		sd	a3,0(a6)
 177:src/../h/../h/../h/MemoryAllocation.hpp ****                 fmem_head->next=newfrgm->next;
 212              		.loc 2 177 17 is_stmt 1
 213              		.loc 2 177 42 is_stmt 0
 214 011c 03380700 		ld	a6,0(a4)
 215              		.loc 2 177 32
 216 0120 2330070D 		sd	a6,192(a4)
 178:src/../h/../h/../h/MemoryAllocation.hpp ****                 fmem_head->prev=newfrgm->prev;
 217              		.loc 2 178 17 is_stmt 1
 218              		.loc 2 178 32 is_stmt 0
 219 0124 2334B70C 		sd	a1,200(a4)
 179:src/../h/../h/../h/MemoryAllocation.hpp ****                 fmem_head->size=newfrgm->size;
 220              		.loc 2 179 17 is_stmt 1
 221              		.loc 2 179 32 is_stmt 0
 222 0128 2338F70C 		sd	a5,208(a4)
 180:src/../h/../h/../h/MemoryAllocation.hpp ****                 //fmem_head = (FreeMem*) (char*)newfrgm;
 181:src/../h/../h/../h/MemoryAllocation.hpp ****                 return newfrgm;
 223              		.loc 2 181 17 is_stmt 1
 224              		.loc 2 181 24 is_stmt 0
 225 012c 93070700 		mv	a5,a4
 226              	.LVL10:
 227              	.L6:
 228              	.LBE23:
 229              	.LBE25:
 230              	.LBE27:
 231              	.LBE20:
 232              	.LBE19:
 233              	.LBE18:
 234              		.loc 1 23 13
 235 0130 23B0F400 		sd	a5,0(s1)
  24:src/tcb.cpp   ****     (*handle)->body=body;
 236              		.loc 1 24 5 is_stmt 1
 237              		.loc 1 24 20 is_stmt 0
 238 0134 23B0A700 		sd	a0,0(a5)
  25:src/tcb.cpp   ****     (*handle)->arguments=arguments;
 239              		.loc 1 25 5 is_stmt 1
 240              		.loc 1 25 6 is_stmt 0
 241 0138 83B70400 		ld	a5,0(s1)
 242              		.loc 1 25 25
 243 013c 23B4C702 		sd	a2,40(a5)
  26:src/tcb.cpp   ****     (*handle)->stack = body ? (uint64*) MemoryAllocation::mem_alloc(MemoryAllocation::bytesToBlocks
 244              		.loc 1 26 5 is_stmt 1
 245              		.loc 1 26 29 is_stmt 0
 246 0140 63060512 		beqz	a0,.L31
 247              	.LVL11:
GAS LISTING /tmp/cceo0zJu.s 			page 9


  69:src/../h/../h/../h/MemoryAllocation.hpp ****     }
 248              		.loc 2 69 9 is_stmt 1
 249              	.LBB31:
 250              	.LBB32:
 155:src/../h/../h/../h/MemoryAllocation.hpp ****         for (FreeMem* cur = fmem_head; cur != nullptr; cur=cur->next){ // U DRUGOJ ITERACIJI FMEM_H
 251              		.loc 2 155 9
 156:src/../h/../h/../h/MemoryAllocation.hpp ****             cur->next=fmem_head->next;
 252              		.loc 2 156 9
 253              	.LBB33:
 156:src/../h/../h/../h/MemoryAllocation.hpp ****             cur->next=fmem_head->next;
 254              		.loc 2 156 23 is_stmt 0
 255 0144 97070000 		la	a5,_ZN16MemoryAllocation9fmem_headE
 255      83B70700 
 256 014c 83B70700 		ld	a5,0(a5)
 257              	.LVL12:
 258              	.L17:
 156:src/../h/../h/../h/MemoryAllocation.hpp ****             cur->next=fmem_head->next;
 259              		.loc 2 156 44 is_stmt 1
 260 0150 63800712 		beqz	a5,.L15
 261              	.LBB34:
 157:src/../h/../h/../h/MemoryAllocation.hpp ****             cur->prev=fmem_head->prev;
 262              		.loc 2 157 13
 157:src/../h/../h/../h/MemoryAllocation.hpp ****             cur->prev=fmem_head->prev;
 263              		.loc 2 157 34 is_stmt 0
 264 0154 17070000 		la	a4,_ZN16MemoryAllocation9fmem_headE
 264      03370700 
 265 015c 83360700 		ld	a3,0(a4)
 266 0160 03B60600 		ld	a2,0(a3)
 157:src/../h/../h/../h/MemoryAllocation.hpp ****             cur->prev=fmem_head->prev;
 267              		.loc 2 157 22
 268 0164 23B0C700 		sd	a2,0(a5)
 158:src/../h/../h/../h/MemoryAllocation.hpp ****             if (cur->size<size) continue;
 269              		.loc 2 158 13 is_stmt 1
 158:src/../h/../h/../h/MemoryAllocation.hpp ****             if (cur->size<size) continue;
 270              		.loc 2 158 34 is_stmt 0
 271 0168 03370700 		ld	a4,0(a4)
 272 016c 83358700 		ld	a1,8(a4)
 158:src/../h/../h/../h/MemoryAllocation.hpp ****             if (cur->size<size) continue;
 273              		.loc 2 158 22
 274 0170 23B4B700 		sd	a1,8(a5)
 159:src/../h/../h/../h/MemoryAllocation.hpp ****             if (cur->size-size<=sizeof(FreeMem)){
 275              		.loc 2 159 13 is_stmt 1
 159:src/../h/../h/../h/MemoryAllocation.hpp ****             if (cur->size-size<=sizeof(FreeMem)){
 276              		.loc 2 159 22 is_stmt 0
 277 0174 03B70701 		ld	a4,16(a5)
 159:src/../h/../h/../h/MemoryAllocation.hpp ****             if (cur->size-size<=sizeof(FreeMem)){
 278              		.loc 2 159 13
 279 0178 B7160000 		li	a3,4096
 280 017c 9386F603 		addi	a3,a3,63
 281 0180 63F4E604 		bleu	a4,a3,.L32
 160:src/../h/../h/../h/MemoryAllocation.hpp ****                 if (cur->prev) cur->prev->next = cur->next;
 282              		.loc 2 160 13 is_stmt 1
 283              	.LBB35:
 160:src/../h/../h/../h/MemoryAllocation.hpp ****                 if (cur->prev) cur->prev->next = cur->next;
 284              		.loc 2 160 26 is_stmt 0
 285 0184 B7F6FFFF 		li	a3,-4096
 286 0188 938606FC 		addi	a3,a3,-64
GAS LISTING /tmp/cceo0zJu.s 			page 10


 287 018c 3307D700 		add	a4,a4,a3
 160:src/../h/../h/../h/MemoryAllocation.hpp ****                 if (cur->prev) cur->prev->next = cur->next;
 288              		.loc 2 160 13
 289 0190 93068001 		li	a3,24
 290 0194 63E6E604 		bgtu	a4,a3,.L18
 161:src/../h/../h/../h/MemoryAllocation.hpp ****                 else fmem_head = cur->next;
 291              		.loc 2 161 17 is_stmt 1
 292 0198 638C0502 		beqz	a1,.L19
 161:src/../h/../h/../h/MemoryAllocation.hpp ****                 else fmem_head = cur->next;
 293              		.loc 2 161 32
 161:src/../h/../h/../h/MemoryAllocation.hpp ****                 else fmem_head = cur->next;
 294              		.loc 2 161 48 is_stmt 0
 295 019c 23B0C500 		sd	a2,0(a1)
 296              	.L20:
 163:src/../h/../h/../h/MemoryAllocation.hpp ****                 return cur;
 297              		.loc 2 163 17 is_stmt 1
 163:src/../h/../h/../h/MemoryAllocation.hpp ****                 return cur;
 298              		.loc 2 163 26 is_stmt 0
 299 01a0 03B70700 		ld	a4,0(a5)
 163:src/../h/../h/../h/MemoryAllocation.hpp ****                 return cur;
 300              		.loc 2 163 17
 301 01a4 6306070C 		beqz	a4,.L15
 163:src/../h/../h/../h/MemoryAllocation.hpp ****                 return cur;
 302              		.loc 2 163 32 is_stmt 1
 163:src/../h/../h/../h/MemoryAllocation.hpp ****                 return cur;
 303              		.loc 2 163 55 is_stmt 0
 304 01a8 83B68700 		ld	a3,8(a5)
 163:src/../h/../h/../h/MemoryAllocation.hpp ****                 return cur;
 305              		.loc 2 163 48
 306 01ac 2334D700 		sd	a3,8(a4)
 164:src/../h/../h/../h/MemoryAllocation.hpp ****             }else {
 307              		.loc 2 164 17 is_stmt 1
 164:src/../h/../h/../h/MemoryAllocation.hpp ****             }else {
 308              		.loc 2 164 24 is_stmt 0
 309 01b0 6F00000C 		j	.L15
 310              	.LVL13:
 311              	.L12:
 312              	.LBE35:
 313              	.LBE34:
 314              	.LBE33:
 315              	.LBE32:
 316              	.LBE31:
 317              	.LBB41:
 318              	.LBB30:
 319              	.LBB29:
 320              	.LBB28:
 321              	.LBB26:
 322              	.LBB24:
 171:src/../h/../h/../h/MemoryAllocation.hpp ****                 if (cur && cur->next) cur->next->prev = newfrgm;
 323              		.loc 2 171 22 is_stmt 1
 171:src/../h/../h/../h/MemoryAllocation.hpp ****                 if (cur && cur->next) cur->next->prev = newfrgm;
 324              		.loc 2 171 41 is_stmt 0
 325 01b4 9306070C 		addi	a3,a4,192
 171:src/../h/../h/../h/MemoryAllocation.hpp ****                 if (cur && cur->next) cur->next->prev = newfrgm;
 326              		.loc 2 171 32
 327 01b8 97050000 		la	a1,_ZN16MemoryAllocation9fmem_headE
 327      83B50500 
GAS LISTING /tmp/cceo0zJu.s 			page 11


 328 01c0 23B0D500 		sd	a3,0(a1)
 329 01c4 6FF01FF2 		j	.L13
 330              	.LVL14:
 331              	.L32:
 332              	.LBE24:
 333              	.LBE26:
 334              	.LBE28:
 335              	.LBE29:
 336              	.LBE30:
 337              	.LBE41:
 338              	.LBB42:
 339              	.LBB40:
 340              	.LBB39:
 156:src/../h/../h/../h/MemoryAllocation.hpp ****             cur->next=fmem_head->next;
 341              		.loc 2 156 59
 342 01c8 93070600 		mv	a5,a2
 343              	.LVL15:
 344 01cc 6FF05FF8 		j	.L17
 345              	.LVL16:
 346              	.L19:
 347              	.LBB38:
 348              	.LBB37:
 162:src/../h/../h/../h/MemoryAllocation.hpp ****                 if (cur->next) cur->next->prev = cur->prev;
 349              		.loc 2 162 22 is_stmt 1
 162:src/../h/../h/../h/MemoryAllocation.hpp ****                 if (cur->next) cur->next->prev = cur->prev;
 350              		.loc 2 162 32 is_stmt 0
 351 01d0 17070000 		la	a4,_ZN16MemoryAllocation9fmem_headE
 351      03370700 
 352 01d8 2330C700 		sd	a2,0(a4)
 353 01dc 6FF05FFC 		j	.L20
 354              	.L18:
 355              	.LBB36:
 166:src/../h/../h/../h/MemoryAllocation.hpp ****                 newfrgm->prev=nullptr;
 356              		.loc 2 166 17 is_stmt 1
 166:src/../h/../h/../h/MemoryAllocation.hpp ****                 newfrgm->prev=nullptr;
 357              		.loc 2 166 26 is_stmt 0
 358 01e0 37170000 		li	a4,4096
 359 01e4 13070704 		addi	a4,a4,64
 360 01e8 3387E700 		add	a4,a5,a4
 361              	.LVL17:
 167:src/../h/../h/../h/MemoryAllocation.hpp ****                 newfrgm->next=nullptr;
 362              		.loc 2 167 17 is_stmt 1
 167:src/../h/../h/../h/MemoryAllocation.hpp ****                 newfrgm->next=nullptr;
 363              		.loc 2 167 30 is_stmt 0
 364 01ec 23340700 		sd	zero,8(a4)
 168:src/../h/../h/../h/MemoryAllocation.hpp ****                 //newfrgm->size=cur->size-size;// DODATO TOKOM PROBE NITI
 365              		.loc 2 168 17 is_stmt 1
 168:src/../h/../h/../h/MemoryAllocation.hpp ****                 //newfrgm->size=cur->size-size;// DODATO TOKOM PROBE NITI
 366              		.loc 2 168 30 is_stmt 0
 367 01f0 23300700 		sd	zero,0(a4)
 170:src/../h/../h/../h/MemoryAllocation.hpp ****                 else fmem_head = newfrgm+sizeof(fmem_head); // ovo sam dodao sizeof da bi mi radio 
 368              		.loc 2 170 17 is_stmt 1
 170:src/../h/../h/../h/MemoryAllocation.hpp ****                 else fmem_head = newfrgm+sizeof(fmem_head); // ovo sam dodao sizeof da bi mi radio 
 369              		.loc 2 170 33 is_stmt 0
 370 01f4 83B68700 		ld	a3,8(a5)
 170:src/../h/../h/../h/MemoryAllocation.hpp ****                 else fmem_head = newfrgm+sizeof(fmem_head); // ovo sam dodao sizeof da bi mi radio 
 371              		.loc 2 170 25
GAS LISTING /tmp/cceo0zJu.s 			page 12


 372 01f8 63800606 		beqz	a3,.L22
 170:src/../h/../h/../h/MemoryAllocation.hpp ****                 else fmem_head = newfrgm+sizeof(fmem_head); // ovo sam dodao sizeof da bi mi radio 
 373              		.loc 2 170 39 is_stmt 1
 170:src/../h/../h/../h/MemoryAllocation.hpp ****                 else fmem_head = newfrgm+sizeof(fmem_head); // ovo sam dodao sizeof da bi mi radio 
 374              		.loc 2 170 55 is_stmt 0
 375 01fc 23B0E600 		sd	a4,0(a3)
 376              	.L23:
 172:src/../h/../h/../h/MemoryAllocation.hpp ****                 newfrgm->prev = cur->prev;
 377              		.loc 2 172 17 is_stmt 1
 172:src/../h/../h/../h/MemoryAllocation.hpp ****                 newfrgm->prev = cur->prev;
 378              		.loc 2 172 33 is_stmt 0
 379 0200 83B60700 		ld	a3,0(a5)
 172:src/../h/../h/../h/MemoryAllocation.hpp ****                 newfrgm->prev = cur->prev;
 380              		.loc 2 172 25
 381 0204 63840600 		beqz	a3,.L24
 172:src/../h/../h/../h/MemoryAllocation.hpp ****                 newfrgm->prev = cur->prev;
 382              		.loc 2 172 39 is_stmt 1
 172:src/../h/../h/../h/MemoryAllocation.hpp ****                 newfrgm->prev = cur->prev;
 383              		.loc 2 172 55 is_stmt 0
 384 0208 23B4E600 		sd	a4,8(a3)
 385              	.L24:
 173:src/../h/../h/../h/MemoryAllocation.hpp ****                 newfrgm->next = cur->next;
 386              		.loc 2 173 17 is_stmt 1
 173:src/../h/../h/../h/MemoryAllocation.hpp ****                 newfrgm->next = cur->next;
 387              		.loc 2 173 38 is_stmt 0
 388 020c 03B68700 		ld	a2,8(a5)
 173:src/../h/../h/../h/MemoryAllocation.hpp ****                 newfrgm->next = cur->next;
 389              		.loc 2 173 31
 390 0210 2334C700 		sd	a2,8(a4)
 174:src/../h/../h/../h/MemoryAllocation.hpp ****                 newfrgm->size = cur->size-size;
 391              		.loc 2 174 17 is_stmt 1
 174:src/../h/../h/../h/MemoryAllocation.hpp ****                 newfrgm->size = cur->size-size;
 392              		.loc 2 174 38 is_stmt 0
 393 0214 83B60700 		ld	a3,0(a5)
 174:src/../h/../h/../h/MemoryAllocation.hpp ****                 newfrgm->size = cur->size-size;
 394              		.loc 2 174 31
 395 0218 2330D700 		sd	a3,0(a4)
 175:src/../h/../h/../h/MemoryAllocation.hpp ****                 fmem_head =newfrgm+sizeof(fmem_head);
 396              		.loc 2 175 17 is_stmt 1
 175:src/../h/../h/../h/MemoryAllocation.hpp ****                 fmem_head =newfrgm+sizeof(fmem_head);
 397              		.loc 2 175 38 is_stmt 0
 398 021c 83B70701 		ld	a5,16(a5)
 399              	.LVL18:
 175:src/../h/../h/../h/MemoryAllocation.hpp ****                 fmem_head =newfrgm+sizeof(fmem_head);
 400              		.loc 2 175 42
 401 0220 B7F6FFFF 		li	a3,-4096
 402 0224 938606FC 		addi	a3,a3,-64
 403 0228 B387D700 		add	a5,a5,a3
 175:src/../h/../h/../h/MemoryAllocation.hpp ****                 fmem_head =newfrgm+sizeof(fmem_head);
 404              		.loc 2 175 31
 405 022c 2338F700 		sd	a5,16(a4)
 176:src/../h/../h/../h/MemoryAllocation.hpp ****                 fmem_head->next=newfrgm->next;
 406              		.loc 2 176 17 is_stmt 1
 176:src/../h/../h/../h/MemoryAllocation.hpp ****                 fmem_head->next=newfrgm->next;
 407              		.loc 2 176 35 is_stmt 0
 408 0230 9306070C 		addi	a3,a4,192
 176:src/../h/../h/../h/MemoryAllocation.hpp ****                 fmem_head->next=newfrgm->next;
GAS LISTING /tmp/cceo0zJu.s 			page 13


 409              		.loc 2 176 27
 410 0234 97050000 		la	a1,_ZN16MemoryAllocation9fmem_headE
 410      83B50500 
 411 023c 23B0D500 		sd	a3,0(a1)
 177:src/../h/../h/../h/MemoryAllocation.hpp ****                 fmem_head->prev=newfrgm->prev;
 412              		.loc 2 177 17 is_stmt 1
 177:src/../h/../h/../h/MemoryAllocation.hpp ****                 fmem_head->prev=newfrgm->prev;
 413              		.loc 2 177 42 is_stmt 0
 414 0240 83350700 		ld	a1,0(a4)
 177:src/../h/../h/../h/MemoryAllocation.hpp ****                 fmem_head->prev=newfrgm->prev;
 415              		.loc 2 177 32
 416 0244 2330B70C 		sd	a1,192(a4)
 178:src/../h/../h/../h/MemoryAllocation.hpp ****                 fmem_head->size=newfrgm->size;
 417              		.loc 2 178 17 is_stmt 1
 178:src/../h/../h/../h/MemoryAllocation.hpp ****                 fmem_head->size=newfrgm->size;
 418              		.loc 2 178 32 is_stmt 0
 419 0248 2334C70C 		sd	a2,200(a4)
 179:src/../h/../h/../h/MemoryAllocation.hpp ****                 //fmem_head = (FreeMem*) (char*)newfrgm;
 420              		.loc 2 179 17 is_stmt 1
 179:src/../h/../h/../h/MemoryAllocation.hpp ****                 //fmem_head = (FreeMem*) (char*)newfrgm;
 421              		.loc 2 179 32 is_stmt 0
 422 024c 2338F70C 		sd	a5,208(a4)
 423              		.loc 2 181 17 is_stmt 1
 424              		.loc 2 181 24 is_stmt 0
 425 0250 93070700 		mv	a5,a4
 426              	.LVL19:
 427 0254 6F00C001 		j	.L15
 428              	.LVL20:
 429              	.L22:
 171:src/../h/../h/../h/MemoryAllocation.hpp ****                 if (cur && cur->next) cur->next->prev = newfrgm;
 430              		.loc 2 171 22 is_stmt 1
 171:src/../h/../h/../h/MemoryAllocation.hpp ****                 if (cur && cur->next) cur->next->prev = newfrgm;
 431              		.loc 2 171 41 is_stmt 0
 432 0258 9306070C 		addi	a3,a4,192
 171:src/../h/../h/../h/MemoryAllocation.hpp ****                 if (cur && cur->next) cur->next->prev = newfrgm;
 433              		.loc 2 171 32
 434 025c 17060000 		la	a2,_ZN16MemoryAllocation9fmem_headE
 434      03360600 
 435 0264 2330D600 		sd	a3,0(a2)
 436 0268 6FF09FF9 		j	.L23
 437              	.LVL21:
 438              	.L31:
 439              	.LBE36:
 440              	.LBE37:
 441              	.LBE38:
 442              	.LBE39:
 443              	.LBE40:
 444              	.LBE42:
 445              		.loc 1 26 29
 446 026c 93070000 		li	a5,0
 447              	.LVL22:
 448              	.L15:
 449              		.loc 1 26 6 discriminator 4
 450 0270 03B70400 		ld	a4,0(s1)
 451              		.loc 1 26 22 discriminator 4
 452 0274 2334F700 		sd	a5,8(a4)
  27:src/tcb.cpp   ****     (*handle)->context.ra = body ? (uint64)&threadWrapper : 0;
GAS LISTING /tmp/cceo0zJu.s 			page 14


 453              		.loc 1 27 5 is_stmt 1 discriminator 4
 454              		.loc 1 27 34 is_stmt 0 discriminator 4
 455 0278 63080506 		beqz	a0,.L33
 456              		.loc 1 27 34 discriminator 1
 457 027c 17070000 		lla	a4,_ZN3TCB13threadWrapperEv
 457      13070700 
 458              	.L25:
 459              		.loc 1 27 6 discriminator 4
 460 0284 83B70400 		ld	a5,0(s1)
 461              		.loc 1 27 27 discriminator 4
 462 0288 23B8E700 		sd	a4,16(a5)
  28:src/tcb.cpp   ****     (*handle)->context.sp = (*handle)->stack ? (uint64) &(*handle)->stack[DEFAULT_STACK_SIZE] : 0;
 463              		.loc 1 28 5 is_stmt 1 discriminator 4
 464              		.loc 1 28 30 is_stmt 0 discriminator 4
 465 028c 03B70400 		ld	a4,0(s1)
 466              		.loc 1 28 40 discriminator 4
 467 0290 83378700 		ld	a5,8(a4)
 468              		.loc 1 28 46 discriminator 4
 469 0294 638E0704 		beqz	a5,.L34
 470              		.loc 1 28 57 discriminator 1
 471 0298 B7860000 		li	a3,32768
 472 029c B387D700 		add	a5,a5,a3
 473              	.L26:
 474              		.loc 1 28 27 discriminator 4
 475 02a0 233CF700 		sd	a5,24(a4)
  29:src/tcb.cpp   ****     (*handle)->finished=false;
 476              		.loc 1 29 5 is_stmt 1 discriminator 4
 477              		.loc 1 29 6 is_stmt 0 discriminator 4
 478 02a4 83B70400 		ld	a5,0(s1)
 479              		.loc 1 29 24 discriminator 4
 480 02a8 23800702 		sb	zero,32(a5)
  30:src/tcb.cpp   ****     if(running==nullptr) {
 481              		.loc 1 30 5 is_stmt 1 discriminator 4
 482              		.loc 1 30 15 is_stmt 0 discriminator 4
 483 02ac 97070000 		ld	a5,.LANCHOR0
 483      83B70700 
 484              		.loc 1 30 5 discriminator 4
 485 02b4 63820704 		beqz	a5,.L37
 486              	.L27:
  31:src/tcb.cpp   ****         (*handle)->running = *handle;
  32:src/tcb.cpp   ****     }
  33:src/tcb.cpp   ****     if (body != nullptr) { Scheduler::put(*handle); }
 487              		.loc 1 33 5 is_stmt 1
 488 02b8 63080500 		beqz	a0,.L28
 489              		.loc 1 33 28 discriminator 1
 490              		.loc 1 33 42 is_stmt 0 discriminator 1
 491 02bc 03B50400 		ld	a0,0(s1)
 492              	.LVL23:
 493 02c0 97000000 		call	_ZN9Scheduler3putEP3TCB@plt
 493      E7800000 
 494              	.LVL24:
 495              	.L28:
  34:src/tcb.cpp   ****     if(*handle==nullptr){
 496              		.loc 1 34 5 is_stmt 1
 497              		.loc 1 34 8 is_stmt 0
 498 02c8 83B70400 		ld	a5,0(s1)
 499              		.loc 1 34 5
GAS LISTING /tmp/cceo0zJu.s 			page 15


 500 02cc 638E0702 		beqz	a5,.L38
  35:src/tcb.cpp   ****         return -1;
  36:src/tcb.cpp   ****     }else{return 0;}
 501              		.loc 1 36 18
 502 02d0 13050000 		li	a0,0
 503              	.L29:
  37:src/tcb.cpp   **** }
 504              		.loc 1 37 1
 505 02d4 83308101 		ld	ra,24(sp)
 506              		.cfi_remember_state
 507              		.cfi_restore 1
 508 02d8 03340101 		ld	s0,16(sp)
 509              		.cfi_restore 8
 510              		.cfi_def_cfa 2, 32
 511 02dc 83348100 		ld	s1,8(sp)
 512              		.cfi_restore 9
 513              	.LVL25:
 514 02e0 13010102 		addi	sp,sp,32
 515              		.cfi_def_cfa_offset 0
 516 02e4 67800000 		jr	ra
 517              	.LVL26:
 518              	.L33:
 519              		.cfi_restore_state
  27:src/tcb.cpp   ****     (*handle)->context.sp = (*handle)->stack ? (uint64) &(*handle)->stack[DEFAULT_STACK_SIZE] : 0;
 520              		.loc 1 27 34
 521 02e8 13070000 		li	a4,0
 522 02ec 6FF09FF9 		j	.L25
 523              	.L34:
  28:src/tcb.cpp   ****     (*handle)->finished=false;
 524              		.loc 1 28 46
 525 02f0 93070000 		li	a5,0
 526 02f4 6FF0DFFA 		j	.L26
 527              	.L37:
  31:src/tcb.cpp   ****     }
 528              		.loc 1 31 9 is_stmt 1
  31:src/tcb.cpp   ****     }
 529              		.loc 1 31 30 is_stmt 0
 530 02f8 83B70400 		ld	a5,0(s1)
  31:src/tcb.cpp   ****     }
 531              		.loc 1 31 28
 532 02fc 17070000 		sd	a5,.LANCHOR0,a4
 532      2330F700 
 533 0304 6FF05FFB 		j	.L27
 534              	.LVL27:
 535              	.L38:
  35:src/tcb.cpp   ****     }else{return 0;}
 536              		.loc 1 35 17
 537 0308 1305F0FF 		li	a0,-1
 538 030c 6FF09FFC 		j	.L29
 539              		.cfi_endproc
 540              	.LFE46:
 542              		.align	2
 543              		.globl	_ZN3TCB5yieldEv
 545              	_ZN3TCB5yieldEv:
 546              	.LFB47:
  38:src/tcb.cpp   **** 
  39:src/tcb.cpp   **** void TCB::yield(){
GAS LISTING /tmp/cceo0zJu.s 			page 16


 547              		.loc 1 39 18 is_stmt 1
 548              		.cfi_startproc
 549 0310 130101FF 		addi	sp,sp,-16
 550              		.cfi_def_cfa_offset 16
 551 0314 23348100 		sd	s0,8(sp)
 552              		.cfi_offset 8, -8
 553 0318 13040101 		addi	s0,sp,16
 554              		.cfi_def_cfa 8, 0
  40:src/tcb.cpp   ****     uint64 sysCallNr=0x13UL;
 555              		.loc 1 40 5
 556              	.LVL28:
  41:src/tcb.cpp   ****     __asm__ volatile("mv a0, %0" : : [sysCallNr] "r" (sysCallNr));
 557              		.loc 1 41 5
 558              		.loc 1 41 66 is_stmt 0
 559 031c 93073001 		li	a5,19
 560              	#APP
 561              	# 41 "src/tcb.cpp" 1
  42              	    __asm__ volatile ("ecall");
 562              		mv a0, a5
 563              	# 0 "" 2
 564              		.loc 1 42 5 is_stmt 1
 565              		.loc 1 42 31 is_stmt 0
 566              	# 42 "src/tcb.cpp" 1
  43              	
  44:src/tcb.cpp   **** };
 567              		ecall
 568              	# 0 "" 2
 569              		.loc 1 44 1
 570              	#NO_APP
 571 0328 03348100 		ld	s0,8(sp)
 572              		.cfi_restore 8
 573              		.cfi_def_cfa 2, 16
 574 032c 13010101 		addi	sp,sp,16
 575              		.cfi_def_cfa_offset 0
 576 0330 67800000 		jr	ra
 577              		.cfi_endproc
 578              	.LFE47:
 580              		.align	2
 581              		.globl	_ZN3TCB13threadWrapperEv
 583              	_ZN3TCB13threadWrapperEv:
 584              	.LFB49:
  45:src/tcb.cpp   **** 
  46:src/tcb.cpp   **** void TCB::dispatch() {
  47:src/tcb.cpp   ****     TCB *old = running;
  48:src/tcb.cpp   ****     if (!old->isFinished()) {
  49:src/tcb.cpp   ****         Scheduler::put(old);
  50:src/tcb.cpp   ****     }
  51:src/tcb.cpp   ****     running = Scheduler::get();
  52:src/tcb.cpp   **** 
  53:src/tcb.cpp   ****     TCB::contextSwitch(&old->context, &running->context);
  54:src/tcb.cpp   **** }
  55:src/tcb.cpp   **** 
  56:src/tcb.cpp   **** void TCB::threadWrapper() {
 585              		.loc 1 56 27 is_stmt 1
 586              		.cfi_startproc
 587 0334 130101FE 		addi	sp,sp,-32
 588              		.cfi_def_cfa_offset 32
GAS LISTING /tmp/cceo0zJu.s 			page 17


 589 0338 233C1100 		sd	ra,24(sp)
 590 033c 23388100 		sd	s0,16(sp)
 591 0340 23349100 		sd	s1,8(sp)
 592              		.cfi_offset 1, -8
 593              		.cfi_offset 8, -16
 594              		.cfi_offset 9, -24
 595 0344 13040102 		addi	s0,sp,32
 596              		.cfi_def_cfa 8, 0
  57:src/tcb.cpp   ****     RiscV::popSppSpie();
 597              		.loc 1 57 5
 598              		.loc 1 57 22 is_stmt 0
 599 0348 97000000 		call	_ZN5RiscV10popSppSpieEv@plt
 599      E7800000 
 600              	.LVL29:
  58:src/tcb.cpp   ****     running->body(running->arguments);
 601              		.loc 1 58 5 is_stmt 1
 602              		.loc 1 58 14 is_stmt 0
 603 0350 97040000 		lla	s1,.LANCHOR0
 603      93840400 
 604 0358 83B70400 		ld	a5,0(s1)
 605 035c 03B70700 		ld	a4,0(a5)
 606              		.loc 1 58 18
 607 0360 03B58702 		ld	a0,40(a5)
 608 0364 E7000700 		jalr	a4
 609              	.LVL30:
  59:src/tcb.cpp   ****     running->setFinished(true);
 610              		.loc 1 59 5 is_stmt 1
 611              		.loc 1 59 25 is_stmt 0
 612 0368 93051000 		li	a1,1
 613 036c 03B50400 		ld	a0,0(s1)
 614 0370 97000000 		call	_ZN3TCB11setFinishedEb
 614      E7800000 
 615              	.LVL31:
  60:src/tcb.cpp   ****     TCB::yield();
 616              		.loc 1 60 5 is_stmt 1
 617              		.loc 1 60 15 is_stmt 0
 618 0378 97000000 		call	_ZN3TCB5yieldEv
 618      E7800000 
 619              	.LVL32:
  61:src/tcb.cpp   **** }
 620              		.loc 1 61 1
 621 0380 83308101 		ld	ra,24(sp)
 622              		.cfi_restore 1
 623 0384 03340101 		ld	s0,16(sp)
 624              		.cfi_restore 8
 625              		.cfi_def_cfa 2, 32
 626 0388 83348100 		ld	s1,8(sp)
 627              		.cfi_restore 9
 628 038c 13010102 		addi	sp,sp,32
 629              		.cfi_def_cfa_offset 0
 630 0390 67800000 		jr	ra
 631              		.cfi_endproc
 632              	.LFE49:
 634              		.align	2
 635              		.globl	_ZN3TCB8dispatchEv
 637              	_ZN3TCB8dispatchEv:
 638              	.LFB48:
GAS LISTING /tmp/cceo0zJu.s 			page 18


  46:src/tcb.cpp   ****     TCB *old = running;
 639              		.loc 1 46 22 is_stmt 1
 640              		.cfi_startproc
 641 0394 130101FE 		addi	sp,sp,-32
 642              		.cfi_def_cfa_offset 32
 643 0398 233C1100 		sd	ra,24(sp)
 644 039c 23388100 		sd	s0,16(sp)
 645 03a0 23349100 		sd	s1,8(sp)
 646              		.cfi_offset 1, -8
 647              		.cfi_offset 8, -16
 648              		.cfi_offset 9, -24
 649 03a4 13040102 		addi	s0,sp,32
 650              		.cfi_def_cfa 8, 0
  47:src/tcb.cpp   ****     if (!old->isFinished()) {
 651              		.loc 1 47 5
  47:src/tcb.cpp   ****     if (!old->isFinished()) {
 652              		.loc 1 47 10 is_stmt 0
 653 03a8 97040000 		ld	s1,.LANCHOR0
 653      83B40400 
 654              	.LVL33:
  48:src/tcb.cpp   ****         Scheduler::put(old);
 655              		.loc 1 48 5 is_stmt 1
  48:src/tcb.cpp   ****         Scheduler::put(old);
 656              		.loc 1 48 25 is_stmt 0
 657 03b0 13850400 		mv	a0,s1
 658 03b4 97000000 		call	_ZNK3TCB10isFinishedEv
 658      E7800000 
 659              	.LVL34:
  48:src/tcb.cpp   ****         Scheduler::put(old);
 660              		.loc 1 48 5
 661 03bc 630C0502 		beqz	a0,.L46
 662              	.L44:
  51:src/tcb.cpp   **** 
 663              		.loc 1 51 5 is_stmt 1
  51:src/tcb.cpp   **** 
 664              		.loc 1 51 29 is_stmt 0
 665 03c0 97000000 		call	_ZN9Scheduler3getEv@plt
 665      E7800000 
 666              	.LVL35:
  51:src/tcb.cpp   **** 
 667              		.loc 1 51 13
 668 03c8 97070000 		sd	a0,.LANCHOR0,a5
 668      23B0A700 
  53:src/tcb.cpp   **** }
 669              		.loc 1 53 5 is_stmt 1
  53:src/tcb.cpp   **** }
 670              		.loc 1 53 23 is_stmt 0
 671 03d0 93050501 		addi	a1,a0,16
 672 03d4 13850401 		addi	a0,s1,16
 673 03d8 97000000 		call	_ZN3TCB13contextSwitchEPNS_7ContextES1_@plt
 673      E7800000 
 674              	.LVL36:
  54:src/tcb.cpp   **** 
 675              		.loc 1 54 1
 676 03e0 83308101 		ld	ra,24(sp)
 677              		.cfi_remember_state
 678              		.cfi_restore 1
GAS LISTING /tmp/cceo0zJu.s 			page 19


 679 03e4 03340101 		ld	s0,16(sp)
 680              		.cfi_restore 8
 681              		.cfi_def_cfa 2, 32
 682 03e8 83348100 		ld	s1,8(sp)
 683              		.cfi_restore 9
 684              	.LVL37:
 685 03ec 13010102 		addi	sp,sp,32
 686              		.cfi_def_cfa_offset 0
 687 03f0 67800000 		jr	ra
 688              	.LVL38:
 689              	.L46:
 690              		.cfi_restore_state
  49:src/tcb.cpp   ****     }
 691              		.loc 1 49 9 is_stmt 1
  49:src/tcb.cpp   ****     }
 692              		.loc 1 49 23 is_stmt 0
 693 03f4 13850400 		mv	a0,s1
 694 03f8 97000000 		call	_ZN9Scheduler3putEP3TCB@plt
 694      E7800000 
 695              	.LVL39:
 696 0400 6FF01FFC 		j	.L44
 697              		.cfi_endproc
 698              	.LFE48:
 700              		.globl	_ZN3TCB16timeSliceCounterE
 701              		.globl	_ZN3TCB7runningE
 702              		.bss
 703              		.align	3
 704              		.set	.LANCHOR0,. + 0
 707              	_ZN3TCB7runningE:
 708 0000 00000000 		.zero	8
 708      00000000 
 711              	_ZN3TCB16timeSliceCounterE:
 712 0008 00000000 		.zero	8
 712      00000000 
 713              		.text
 714              	.Letext0:
 715              		.file 3 "src/../h/../lib/hw.h"
 716              		.file 4 "src/../h/../h/Scheduler.hpp"
 717              		.file 5 "src/../h/tcb.hpp"
 718              		.file 6 "src/../h/RiscV.hpp"
GAS LISTING /tmp/cceo0zJu.s 			page 20


DEFINED SYMBOLS
                            *ABS*:0000000000000000 tcb.cpp
     /tmp/cceo0zJu.s:9      .text:0000000000000000 _ZNK3TCB10isFinishedEv
     /tmp/cceo0zJu.s:13     .text:0000000000000000 .L0 
     /tmp/cceo0zJu.s:15     .text:0000000000000000 .L0 
     /tmp/cceo0zJu.s:16     .text:0000000000000004 .L0 
     /tmp/cceo0zJu.s:18     .text:0000000000000008 .L0 
     /tmp/cceo0zJu.s:20     .text:000000000000000c .L0 
     /tmp/cceo0zJu.s:22     .text:000000000000000c .L0 
     /tmp/cceo0zJu.s:23     .text:000000000000000c .L0 
     /tmp/cceo0zJu.s:26     .text:0000000000000014 .L0 
     /tmp/cceo0zJu.s:27     .text:0000000000000014 .L0 
     /tmp/cceo0zJu.s:29     .text:0000000000000018 .L0 
     /tmp/cceo0zJu.s:31     .text:000000000000001c .L0 
     /tmp/cceo0zJu.s:37     .text:000000000000001c _ZN3TCB11setFinishedEb
     /tmp/cceo0zJu.s:40     .text:000000000000001c .L0 
     /tmp/cceo0zJu.s:42     .text:000000000000001c .L0 
     /tmp/cceo0zJu.s:43     .text:0000000000000020 .L0 
     /tmp/cceo0zJu.s:45     .text:0000000000000024 .L0 
     /tmp/cceo0zJu.s:47     .text:0000000000000028 .L0 
     /tmp/cceo0zJu.s:49     .text:0000000000000028 .L0 
     /tmp/cceo0zJu.s:50     .text:0000000000000028 .L0 
     /tmp/cceo0zJu.s:52     .text:000000000000002c .L0 
     /tmp/cceo0zJu.s:53     .text:0000000000000030 .L0 
     /tmp/cceo0zJu.s:54     .text:0000000000000030 .L0 
     /tmp/cceo0zJu.s:56     .text:0000000000000034 .L0 
     /tmp/cceo0zJu.s:58     .text:0000000000000038 .L0 
     /tmp/cceo0zJu.s:64     .text:0000000000000038 _ZN3TCB12createThreadEPFvPvEPPS_S0_
     /tmp/cceo0zJu.s:67     .text:0000000000000038 .L0 
     /tmp/cceo0zJu.s:69     .text:0000000000000038 .L0 
     /tmp/cceo0zJu.s:70     .text:000000000000003c .L0 
     /tmp/cceo0zJu.s:74     .text:0000000000000048 .L0 
     /tmp/cceo0zJu.s:75     .text:0000000000000048 .L0 
     /tmp/cceo0zJu.s:76     .text:0000000000000048 .L0 
     /tmp/cceo0zJu.s:78     .text:000000000000004c .L0 
     /tmp/cceo0zJu.s:83     .text:0000000000000050 .L0 
     /tmp/cceo0zJu.s:86     .text:0000000000000050 .L0 
     /tmp/cceo0zJu.s:87     .text:0000000000000050 .L0 
     /tmp/cceo0zJu.s:89     .text:0000000000000050 .L0 
     /tmp/cceo0zJu.s:90     .text:0000000000000050 .L0 
     /tmp/cceo0zJu.s:95     .text:000000000000005c .L0 
     /tmp/cceo0zJu.s:98     .text:0000000000000060 .L0 
     /tmp/cceo0zJu.s:99     .text:0000000000000060 .L0 
     /tmp/cceo0zJu.s:103    .text:0000000000000070 .L0 
     /tmp/cceo0zJu.s:105    .text:0000000000000074 .L0 
     /tmp/cceo0zJu.s:106    .text:0000000000000074 .L0 
     /tmp/cceo0zJu.s:109    .text:000000000000007c .L0 
     /tmp/cceo0zJu.s:111    .text:0000000000000080 .L0 
     /tmp/cceo0zJu.s:112    .text:0000000000000080 .L0 
     /tmp/cceo0zJu.s:114    .text:0000000000000084 .L0 
     /tmp/cceo0zJu.s:118    .text:000000000000008c .L0 
     /tmp/cceo0zJu.s:119    .text:000000000000008c .L0 
     /tmp/cceo0zJu.s:121    .text:0000000000000090 .L0 
     /tmp/cceo0zJu.s:124    .text:0000000000000098 .L0 
     /tmp/cceo0zJu.s:126    .text:000000000000009c .L0 
     /tmp/cceo0zJu.s:127    .text:000000000000009c .L0 
     /tmp/cceo0zJu.s:130    .text:00000000000000a0 .L0 
GAS LISTING /tmp/cceo0zJu.s 			page 21


     /tmp/cceo0zJu.s:131    .text:00000000000000a0 .L0 
     /tmp/cceo0zJu.s:133    .text:00000000000000a4 .L0 
     /tmp/cceo0zJu.s:135    .text:00000000000000a8 .L0 
     /tmp/cceo0zJu.s:136    .text:00000000000000a8 .L0 
     /tmp/cceo0zJu.s:138    .text:00000000000000ac .L0 
     /tmp/cceo0zJu.s:140    .text:00000000000000b0 .L0 
     /tmp/cceo0zJu.s:141    .text:00000000000000b0 .L0 
     /tmp/cceo0zJu.s:146    .text:00000000000000b4 .L0 
     /tmp/cceo0zJu.s:154    .text:00000000000000bc .L0 
     /tmp/cceo0zJu.s:155    .text:00000000000000bc .L0 
     /tmp/cceo0zJu.s:161    .text:00000000000000cc .L0 
     /tmp/cceo0zJu.s:162    .text:00000000000000cc .L0 
     /tmp/cceo0zJu.s:165    .text:00000000000000d0 .L0 
     /tmp/cceo0zJu.s:166    .text:00000000000000d0 .L0 
     /tmp/cceo0zJu.s:168    .text:00000000000000d4 .L0 
     /tmp/cceo0zJu.s:169    .text:00000000000000d4 .L0 
     /tmp/cceo0zJu.s:171    .text:00000000000000d8 .L0 
     /tmp/cceo0zJu.s:172    .text:00000000000000d8 .L0 
     /tmp/cceo0zJu.s:174    .text:00000000000000dc .L0 
     /tmp/cceo0zJu.s:176    .text:00000000000000e0 .L0 
     /tmp/cceo0zJu.s:177    .text:00000000000000e0 .L0 
     /tmp/cceo0zJu.s:180    .text:00000000000000e4 .L0 
     /tmp/cceo0zJu.s:181    .text:00000000000000e4 .L0 
     /tmp/cceo0zJu.s:183    .text:00000000000000e8 .L0 
     /tmp/cceo0zJu.s:185    .text:00000000000000ec .L0 
     /tmp/cceo0zJu.s:186    .text:00000000000000ec .L0 
     /tmp/cceo0zJu.s:189    .text:00000000000000f0 .L0 
     /tmp/cceo0zJu.s:190    .text:00000000000000f0 .L0 
     /tmp/cceo0zJu.s:192    .text:00000000000000f4 .L0 
     /tmp/cceo0zJu.s:194    .text:00000000000000f8 .L0 
     /tmp/cceo0zJu.s:195    .text:00000000000000f8 .L0 
     /tmp/cceo0zJu.s:197    .text:00000000000000fc .L0 
     /tmp/cceo0zJu.s:199    .text:0000000000000100 .L0 
     /tmp/cceo0zJu.s:200    .text:0000000000000100 .L0 
     /tmp/cceo0zJu.s:203    .text:0000000000000104 .L0 
     /tmp/cceo0zJu.s:205    .text:0000000000000108 .L0 
     /tmp/cceo0zJu.s:207    .text:000000000000010c .L0 
     /tmp/cceo0zJu.s:208    .text:000000000000010c .L0 
     /tmp/cceo0zJu.s:210    .text:0000000000000110 .L0 
     /tmp/cceo0zJu.s:213    .text:000000000000011c .L0 
     /tmp/cceo0zJu.s:214    .text:000000000000011c .L0 
     /tmp/cceo0zJu.s:216    .text:0000000000000120 .L0 
     /tmp/cceo0zJu.s:218    .text:0000000000000124 .L0 
     /tmp/cceo0zJu.s:219    .text:0000000000000124 .L0 
     /tmp/cceo0zJu.s:221    .text:0000000000000128 .L0 
     /tmp/cceo0zJu.s:222    .text:0000000000000128 .L0 
     /tmp/cceo0zJu.s:224    .text:000000000000012c .L0 
     /tmp/cceo0zJu.s:225    .text:000000000000012c .L0 
     /tmp/cceo0zJu.s:235    .text:0000000000000130 .L0 
     /tmp/cceo0zJu.s:237    .text:0000000000000134 .L0 
     /tmp/cceo0zJu.s:238    .text:0000000000000134 .L0 
     /tmp/cceo0zJu.s:240    .text:0000000000000138 .L0 
     /tmp/cceo0zJu.s:241    .text:0000000000000138 .L0 
     /tmp/cceo0zJu.s:243    .text:000000000000013c .L0 
     /tmp/cceo0zJu.s:245    .text:0000000000000140 .L0 
     /tmp/cceo0zJu.s:246    .text:0000000000000140 .L0 
     /tmp/cceo0zJu.s:251    .text:0000000000000144 .L0 
GAS LISTING /tmp/cceo0zJu.s 			page 22


     /tmp/cceo0zJu.s:252    .text:0000000000000144 .L0 
     /tmp/cceo0zJu.s:254    .text:0000000000000144 .L0 
     /tmp/cceo0zJu.s:255    .text:0000000000000144 .L0 
     /tmp/cceo0zJu.s:260    .text:0000000000000150 .L0 
     /tmp/cceo0zJu.s:263    .text:0000000000000154 .L0 
     /tmp/cceo0zJu.s:264    .text:0000000000000154 .L0 
     /tmp/cceo0zJu.s:268    .text:0000000000000164 .L0 
     /tmp/cceo0zJu.s:270    .text:0000000000000168 .L0 
     /tmp/cceo0zJu.s:271    .text:0000000000000168 .L0 
     /tmp/cceo0zJu.s:274    .text:0000000000000170 .L0 
     /tmp/cceo0zJu.s:276    .text:0000000000000174 .L0 
     /tmp/cceo0zJu.s:277    .text:0000000000000174 .L0 
     /tmp/cceo0zJu.s:279    .text:0000000000000178 .L0 
     /tmp/cceo0zJu.s:284    .text:0000000000000184 .L0 
     /tmp/cceo0zJu.s:285    .text:0000000000000184 .L0 
     /tmp/cceo0zJu.s:289    .text:0000000000000190 .L0 
     /tmp/cceo0zJu.s:292    .text:0000000000000198 .L0 
     /tmp/cceo0zJu.s:294    .text:000000000000019c .L0 
     /tmp/cceo0zJu.s:295    .text:000000000000019c .L0 
     /tmp/cceo0zJu.s:298    .text:00000000000001a0 .L0 
     /tmp/cceo0zJu.s:299    .text:00000000000001a0 .L0 
     /tmp/cceo0zJu.s:301    .text:00000000000001a4 .L0 
     /tmp/cceo0zJu.s:303    .text:00000000000001a8 .L0 
     /tmp/cceo0zJu.s:304    .text:00000000000001a8 .L0 
     /tmp/cceo0zJu.s:306    .text:00000000000001ac .L0 
     /tmp/cceo0zJu.s:308    .text:00000000000001b0 .L0 
     /tmp/cceo0zJu.s:309    .text:00000000000001b0 .L0 
     /tmp/cceo0zJu.s:324    .text:00000000000001b4 .L0 
     /tmp/cceo0zJu.s:325    .text:00000000000001b4 .L0 
     /tmp/cceo0zJu.s:327    .text:00000000000001b8 .L0 
     /tmp/cceo0zJu.s:342    .text:00000000000001c8 .L0 
     /tmp/cceo0zJu.s:350    .text:00000000000001d0 .L0 
     /tmp/cceo0zJu.s:351    .text:00000000000001d0 .L0 
     /tmp/cceo0zJu.s:357    .text:00000000000001e0 .L0 
     /tmp/cceo0zJu.s:358    .text:00000000000001e0 .L0 
     /tmp/cceo0zJu.s:363    .text:00000000000001ec .L0 
     /tmp/cceo0zJu.s:364    .text:00000000000001ec .L0 
     /tmp/cceo0zJu.s:366    .text:00000000000001f0 .L0 
     /tmp/cceo0zJu.s:367    .text:00000000000001f0 .L0 
     /tmp/cceo0zJu.s:369    .text:00000000000001f4 .L0 
     /tmp/cceo0zJu.s:370    .text:00000000000001f4 .L0 
     /tmp/cceo0zJu.s:372    .text:00000000000001f8 .L0 
     /tmp/cceo0zJu.s:374    .text:00000000000001fc .L0 
     /tmp/cceo0zJu.s:375    .text:00000000000001fc .L0 
     /tmp/cceo0zJu.s:378    .text:0000000000000200 .L0 
     /tmp/cceo0zJu.s:379    .text:0000000000000200 .L0 
     /tmp/cceo0zJu.s:381    .text:0000000000000204 .L0 
     /tmp/cceo0zJu.s:383    .text:0000000000000208 .L0 
     /tmp/cceo0zJu.s:384    .text:0000000000000208 .L0 
     /tmp/cceo0zJu.s:387    .text:000000000000020c .L0 
     /tmp/cceo0zJu.s:388    .text:000000000000020c .L0 
     /tmp/cceo0zJu.s:390    .text:0000000000000210 .L0 
     /tmp/cceo0zJu.s:392    .text:0000000000000214 .L0 
     /tmp/cceo0zJu.s:393    .text:0000000000000214 .L0 
     /tmp/cceo0zJu.s:395    .text:0000000000000218 .L0 
     /tmp/cceo0zJu.s:397    .text:000000000000021c .L0 
     /tmp/cceo0zJu.s:398    .text:000000000000021c .L0 
GAS LISTING /tmp/cceo0zJu.s 			page 23


     /tmp/cceo0zJu.s:401    .text:0000000000000220 .L0 
     /tmp/cceo0zJu.s:405    .text:000000000000022c .L0 
     /tmp/cceo0zJu.s:407    .text:0000000000000230 .L0 
     /tmp/cceo0zJu.s:408    .text:0000000000000230 .L0 
     /tmp/cceo0zJu.s:410    .text:0000000000000234 .L0 
     /tmp/cceo0zJu.s:413    .text:0000000000000240 .L0 
     /tmp/cceo0zJu.s:414    .text:0000000000000240 .L0 
     /tmp/cceo0zJu.s:416    .text:0000000000000244 .L0 
     /tmp/cceo0zJu.s:418    .text:0000000000000248 .L0 
     /tmp/cceo0zJu.s:419    .text:0000000000000248 .L0 
     /tmp/cceo0zJu.s:421    .text:000000000000024c .L0 
     /tmp/cceo0zJu.s:422    .text:000000000000024c .L0 
     /tmp/cceo0zJu.s:424    .text:0000000000000250 .L0 
     /tmp/cceo0zJu.s:425    .text:0000000000000250 .L0 
     /tmp/cceo0zJu.s:431    .text:0000000000000258 .L0 
     /tmp/cceo0zJu.s:432    .text:0000000000000258 .L0 
     /tmp/cceo0zJu.s:434    .text:000000000000025c .L0 
     /tmp/cceo0zJu.s:446    .text:000000000000026c .L0 
     /tmp/cceo0zJu.s:450    .text:0000000000000270 .L0 
     /tmp/cceo0zJu.s:452    .text:0000000000000274 .L0 
     /tmp/cceo0zJu.s:454    .text:0000000000000278 .L0 
     /tmp/cceo0zJu.s:455    .text:0000000000000278 .L0 
     /tmp/cceo0zJu.s:583    .text:0000000000000334 _ZN3TCB13threadWrapperEv
     /tmp/cceo0zJu.s:457    .text:000000000000027c .L0 
     /tmp/cceo0zJu.s:460    .text:0000000000000284 .L0 
     /tmp/cceo0zJu.s:462    .text:0000000000000288 .L0 
     /tmp/cceo0zJu.s:464    .text:000000000000028c .L0 
     /tmp/cceo0zJu.s:465    .text:000000000000028c .L0 
     /tmp/cceo0zJu.s:467    .text:0000000000000290 .L0 
     /tmp/cceo0zJu.s:469    .text:0000000000000294 .L0 
     /tmp/cceo0zJu.s:471    .text:0000000000000298 .L0 
     /tmp/cceo0zJu.s:475    .text:00000000000002a0 .L0 
     /tmp/cceo0zJu.s:477    .text:00000000000002a4 .L0 
     /tmp/cceo0zJu.s:478    .text:00000000000002a4 .L0 
     /tmp/cceo0zJu.s:480    .text:00000000000002a8 .L0 
     /tmp/cceo0zJu.s:482    .text:00000000000002ac .L0 
     /tmp/cceo0zJu.s:483    .text:00000000000002ac .L0 
     /tmp/cceo0zJu.s:485    .text:00000000000002b4 .L0 
     /tmp/cceo0zJu.s:488    .text:00000000000002b8 .L0 
     /tmp/cceo0zJu.s:490    .text:00000000000002bc .L0 
     /tmp/cceo0zJu.s:491    .text:00000000000002bc .L0 
     /tmp/cceo0zJu.s:497    .text:00000000000002c8 .L0 
     /tmp/cceo0zJu.s:498    .text:00000000000002c8 .L0 
     /tmp/cceo0zJu.s:500    .text:00000000000002cc .L0 
     /tmp/cceo0zJu.s:502    .text:00000000000002d0 .L0 
     /tmp/cceo0zJu.s:505    .text:00000000000002d4 .L0 
     /tmp/cceo0zJu.s:506    .text:00000000000002d8 .L0 
     /tmp/cceo0zJu.s:507    .text:00000000000002d8 .L0 
     /tmp/cceo0zJu.s:509    .text:00000000000002dc .L0 
     /tmp/cceo0zJu.s:510    .text:00000000000002dc .L0 
     /tmp/cceo0zJu.s:512    .text:00000000000002e0 .L0 
     /tmp/cceo0zJu.s:515    .text:00000000000002e4 .L0 
     /tmp/cceo0zJu.s:519    .text:00000000000002e8 .L0 
     /tmp/cceo0zJu.s:521    .text:00000000000002e8 .L0 
     /tmp/cceo0zJu.s:525    .text:00000000000002f0 .L0 
     /tmp/cceo0zJu.s:529    .text:00000000000002f8 .L0 
     /tmp/cceo0zJu.s:530    .text:00000000000002f8 .L0 
GAS LISTING /tmp/cceo0zJu.s 			page 24


     /tmp/cceo0zJu.s:532    .text:00000000000002fc .L0 
     /tmp/cceo0zJu.s:537    .text:0000000000000308 .L0 
     /tmp/cceo0zJu.s:539    .text:0000000000000310 .L0 
     /tmp/cceo0zJu.s:545    .text:0000000000000310 _ZN3TCB5yieldEv
     /tmp/cceo0zJu.s:548    .text:0000000000000310 .L0 
     /tmp/cceo0zJu.s:549    .text:0000000000000310 .L0 
     /tmp/cceo0zJu.s:550    .text:0000000000000314 .L0 
     /tmp/cceo0zJu.s:552    .text:0000000000000318 .L0 
     /tmp/cceo0zJu.s:554    .text:000000000000031c .L0 
     /tmp/cceo0zJu.s:557    .text:000000000000031c .L0 
     /tmp/cceo0zJu.s:558    .text:000000000000031c .L0 
     /tmp/cceo0zJu.s:559    .text:000000000000031c .L0 
     /tmp/cceo0zJu.s:565    .text:0000000000000324 .L0 
         src/tcb.cpp:42     .text:0000000000000324 .L0 
     /tmp/cceo0zJu.s:571    .text:0000000000000328 .L0 
     /tmp/cceo0zJu.s:572    .text:000000000000032c .L0 
     /tmp/cceo0zJu.s:573    .text:000000000000032c .L0 
     /tmp/cceo0zJu.s:575    .text:0000000000000330 .L0 
     /tmp/cceo0zJu.s:577    .text:0000000000000334 .L0 
     /tmp/cceo0zJu.s:586    .text:0000000000000334 .L0 
     /tmp/cceo0zJu.s:587    .text:0000000000000334 .L0 
     /tmp/cceo0zJu.s:588    .text:0000000000000338 .L0 
     /tmp/cceo0zJu.s:592    .text:0000000000000344 .L0 
     /tmp/cceo0zJu.s:593    .text:0000000000000344 .L0 
     /tmp/cceo0zJu.s:594    .text:0000000000000344 .L0 
     /tmp/cceo0zJu.s:596    .text:0000000000000348 .L0 
     /tmp/cceo0zJu.s:598    .text:0000000000000348 .L0 
     /tmp/cceo0zJu.s:599    .text:0000000000000348 .L0 
     /tmp/cceo0zJu.s:602    .text:0000000000000350 .L0 
     /tmp/cceo0zJu.s:603    .text:0000000000000350 .L0 
     /tmp/cceo0zJu.s:607    .text:0000000000000360 .L0 
     /tmp/cceo0zJu.s:611    .text:0000000000000368 .L0 
     /tmp/cceo0zJu.s:612    .text:0000000000000368 .L0 
     /tmp/cceo0zJu.s:617    .text:0000000000000378 .L0 
     /tmp/cceo0zJu.s:618    .text:0000000000000378 .L0 
     /tmp/cceo0zJu.s:621    .text:0000000000000380 .L0 
     /tmp/cceo0zJu.s:622    .text:0000000000000384 .L0 
     /tmp/cceo0zJu.s:624    .text:0000000000000388 .L0 
     /tmp/cceo0zJu.s:625    .text:0000000000000388 .L0 
     /tmp/cceo0zJu.s:627    .text:000000000000038c .L0 
     /tmp/cceo0zJu.s:629    .text:0000000000000390 .L0 
     /tmp/cceo0zJu.s:631    .text:0000000000000394 .L0 
     /tmp/cceo0zJu.s:637    .text:0000000000000394 _ZN3TCB8dispatchEv
     /tmp/cceo0zJu.s:640    .text:0000000000000394 .L0 
     /tmp/cceo0zJu.s:641    .text:0000000000000394 .L0 
     /tmp/cceo0zJu.s:642    .text:0000000000000398 .L0 
     /tmp/cceo0zJu.s:646    .text:00000000000003a4 .L0 
     /tmp/cceo0zJu.s:647    .text:00000000000003a4 .L0 
     /tmp/cceo0zJu.s:648    .text:00000000000003a4 .L0 
     /tmp/cceo0zJu.s:650    .text:00000000000003a8 .L0 
     /tmp/cceo0zJu.s:652    .text:00000000000003a8 .L0 
     /tmp/cceo0zJu.s:653    .text:00000000000003a8 .L0 
     /tmp/cceo0zJu.s:656    .text:00000000000003b0 .L0 
     /tmp/cceo0zJu.s:657    .text:00000000000003b0 .L0 
     /tmp/cceo0zJu.s:661    .text:00000000000003bc .L0 
     /tmp/cceo0zJu.s:664    .text:00000000000003c0 .L0 
     /tmp/cceo0zJu.s:665    .text:00000000000003c0 .L0 
GAS LISTING /tmp/cceo0zJu.s 			page 25


     /tmp/cceo0zJu.s:668    .text:00000000000003c8 .L0 
     /tmp/cceo0zJu.s:670    .text:00000000000003d0 .L0 
     /tmp/cceo0zJu.s:671    .text:00000000000003d0 .L0 
     /tmp/cceo0zJu.s:676    .text:00000000000003e0 .L0 
     /tmp/cceo0zJu.s:677    .text:00000000000003e4 .L0 
     /tmp/cceo0zJu.s:678    .text:00000000000003e4 .L0 
     /tmp/cceo0zJu.s:680    .text:00000000000003e8 .L0 
     /tmp/cceo0zJu.s:681    .text:00000000000003e8 .L0 
     /tmp/cceo0zJu.s:683    .text:00000000000003ec .L0 
     /tmp/cceo0zJu.s:686    .text:00000000000003f0 .L0 
     /tmp/cceo0zJu.s:690    .text:00000000000003f4 .L0 
     /tmp/cceo0zJu.s:692    .text:00000000000003f4 .L0 
     /tmp/cceo0zJu.s:693    .text:00000000000003f4 .L0 
     /tmp/cceo0zJu.s:697    .text:0000000000000404 .L0 
     /tmp/cceo0zJu.s:711    .bss:0000000000000008 _ZN3TCB16timeSliceCounterE
     /tmp/cceo0zJu.s:707    .bss:0000000000000000 _ZN3TCB7runningE
     /tmp/cceo0zJu.s:704    .bss:0000000000000000 .LANCHOR0
     /tmp/cceo0zJu.s:719    .text:0000000000000404 .L0 
     /tmp/cceo0zJu.s:90     .text:0000000000000050 .L0 
     /tmp/cceo0zJu.s:99     .text:0000000000000060 .L0 
     /tmp/cceo0zJu.s:155    .text:00000000000000bc .L0 
     /tmp/cceo0zJu.s:210    .text:0000000000000110 .L0 
     /tmp/cceo0zJu.s:255    .text:0000000000000144 .L0 
     /tmp/cceo0zJu.s:264    .text:0000000000000154 .L0 
     /tmp/cceo0zJu.s:327    .text:00000000000001b8 .L0 
     /tmp/cceo0zJu.s:351    .text:00000000000001d0 .L0 
     /tmp/cceo0zJu.s:410    .text:0000000000000234 .L0 
     /tmp/cceo0zJu.s:434    .text:000000000000025c .L0 
     /tmp/cceo0zJu.s:457    .text:000000000000027c .L0 
     /tmp/cceo0zJu.s:483    .text:00000000000002ac .L0 
     /tmp/cceo0zJu.s:532    .text:00000000000002fc .L0 
     /tmp/cceo0zJu.s:603    .text:0000000000000350 .L0 
     /tmp/cceo0zJu.s:653    .text:00000000000003a8 .L0 
     /tmp/cceo0zJu.s:668    .text:00000000000003c8 .L0 
     /tmp/cceo0zJu.s:227    .text:0000000000000130 .L6
     /tmp/cceo0zJu.s:142    .text:00000000000000b4 .L30
     /tmp/cceo0zJu.s:158    .text:00000000000000cc .L8
     /tmp/cceo0zJu.s:150    .text:00000000000000bc .L9
     /tmp/cceo0zJu.s:93     .text:000000000000005c .L7
     /tmp/cceo0zJu.s:128    .text:00000000000000a0 .L10
     /tmp/cceo0zJu.s:311    .text:00000000000001b4 .L12
     /tmp/cceo0zJu.s:187    .text:00000000000000f0 .L14
     /tmp/cceo0zJu.s:438    .text:000000000000026c .L31
     /tmp/cceo0zJu.s:448    .text:0000000000000270 .L15
     /tmp/cceo0zJu.s:331    .text:00000000000001c8 .L32
     /tmp/cceo0zJu.s:354    .text:00000000000001e0 .L18
     /tmp/cceo0zJu.s:346    .text:00000000000001d0 .L19
     /tmp/cceo0zJu.s:178    .text:00000000000000e4 .L13
     /tmp/cceo0zJu.s:258    .text:0000000000000150 .L17
     /tmp/cceo0zJu.s:296    .text:00000000000001a0 .L20
     /tmp/cceo0zJu.s:429    .text:0000000000000258 .L22
     /tmp/cceo0zJu.s:385    .text:000000000000020c .L24
     /tmp/cceo0zJu.s:376    .text:0000000000000200 .L23
     /tmp/cceo0zJu.s:518    .text:00000000000002e8 .L33
     /tmp/cceo0zJu.s:523    .text:00000000000002f0 .L34
     /tmp/cceo0zJu.s:527    .text:00000000000002f8 .L37
     /tmp/cceo0zJu.s:495    .text:00000000000002c8 .L28
GAS LISTING /tmp/cceo0zJu.s 			page 26


     /tmp/cceo0zJu.s:535    .text:0000000000000308 .L38
     /tmp/cceo0zJu.s:458    .text:0000000000000284 .L25
     /tmp/cceo0zJu.s:473    .text:00000000000002a0 .L26
     /tmp/cceo0zJu.s:486    .text:00000000000002b8 .L27
     /tmp/cceo0zJu.s:503    .text:00000000000002d4 .L29
     /tmp/cceo0zJu.s:689    .text:00000000000003f4 .L46
     /tmp/cceo0zJu.s:662    .text:00000000000003c0 .L44
     /tmp/cceo0zJu.s:1825   .debug_abbrev:0000000000000000 .Ldebug_abbrev0
     /tmp/cceo0zJu.s:3265   .debug_str:00000000000006c4 .LASF129
     /tmp/cceo0zJu.s:3167   .debug_str:000000000000041d .LASF130
     /tmp/cceo0zJu.s:3113   .debug_str:0000000000000210 .LASF131
     /tmp/cceo0zJu.s:5      .text:0000000000000000 .Ltext0
     /tmp/cceo0zJu.s:714    .text:0000000000000404 .Letext0
     /tmp/cceo0zJu.s:3035   .debug_line:0000000000000000 .Ldebug_line0
     /tmp/cceo0zJu.s:3189   .debug_str:00000000000004aa .LASF0
     /tmp/cceo0zJu.s:3203   .debug_str:0000000000000507 .LASF1
     /tmp/cceo0zJu.s:3171   .debug_str:0000000000000444 .LASF2
     /tmp/cceo0zJu.s:3141   .debug_str:0000000000000335 .LASF4
     /tmp/cceo0zJu.s:3243   .debug_str:0000000000000617 .LASF3
     /tmp/cceo0zJu.s:3063   .debug_str:00000000000000b5 .LASF5
     /tmp/cceo0zJu.s:3205   .debug_str:000000000000051a .LASF6
     /tmp/cceo0zJu.s:3187   .debug_str:0000000000000497 .LASF7
     /tmp/cceo0zJu.s:3281   .debug_str:000000000000082c .LASF8
     /tmp/cceo0zJu.s:3127   .debug_str:0000000000000293 .LASF9
     /tmp/cceo0zJu.s:3215   .debug_str:0000000000000569 .LASF10
     /tmp/cceo0zJu.s:3271   .debug_str:00000000000007ac .LASF11
     /tmp/cceo0zJu.s:3065   .debug_str:00000000000000bc .LASF12
     /tmp/cceo0zJu.s:3041   .debug_str:0000000000000022 .LASF13
     /tmp/cceo0zJu.s:3081   .debug_str:0000000000000112 .LASF14
     /tmp/cceo0zJu.s:3233   .debug_str:00000000000005cb .LASF15
     /tmp/cceo0zJu.s:3091   .debug_str:0000000000000162 .LASF16
     /tmp/cceo0zJu.s:3259   .debug_str:0000000000000696 .LASF23
     /tmp/cceo0zJu.s:3111   .debug_str:0000000000000208 .LASF41
     /tmp/cceo0zJu.s:3309   .debug_str:0000000000000927 .LASF17
     /tmp/cceo0zJu.s:3295   .debug_str:00000000000008a1 .LASF18
     /tmp/cceo0zJu.s:3261   .debug_str:00000000000006a7 .LASF19
     /tmp/cceo0zJu.s:3213   .debug_str:000000000000055f .LASF20
     /tmp/cceo0zJu.s:3195   .debug_str:00000000000004c6 .LASF21
     /tmp/cceo0zJu.s:3227   .debug_str:00000000000005ae .LASF22
     /tmp/cceo0zJu.s:3249   .debug_str:0000000000000643 .LASF24
     /tmp/cceo0zJu.s:3209   .debug_str:0000000000000538 .LASF25
     /tmp/cceo0zJu.s:3183   .debug_str:0000000000000482 .LASF26
     /tmp/cceo0zJu.s:3093   .debug_str:0000000000000178 .LASF27
     /tmp/cceo0zJu.s:3267   .debug_str:0000000000000788 .LASF40
     /tmp/cceo0zJu.s:3153   .debug_str:0000000000000369 .LASF56
     /tmp/cceo0zJu.s:3073   .debug_str:00000000000000eb .LASF58
     /tmp/cceo0zJu.s:3303   .debug_str:00000000000008c7 .LASF60
     /tmp/cceo0zJu.s:3077   .debug_str:0000000000000100 .LASF28
     /tmp/cceo0zJu.s:3129   .debug_str:00000000000002a1 .LASF30
     /tmp/cceo0zJu.s:3241   .debug_str:0000000000000609 .LASF29
     /tmp/cceo0zJu.s:3101   .debug_str:00000000000001b7 .LASF31
     /tmp/cceo0zJu.s:3103   .debug_str:00000000000001de .LASF32
     /tmp/cceo0zJu.s:3305   .debug_str:00000000000008e7 .LASF33
     /tmp/cceo0zJu.s:3219   .debug_str:000000000000058d .LASF34
     /tmp/cceo0zJu.s:3157   .debug_str:000000000000039b .LASF35
     /tmp/cceo0zJu.s:3247   .debug_str:0000000000000639 .LASF36
     /tmp/cceo0zJu.s:3275   .debug_str:00000000000007d3 .LASF37
GAS LISTING /tmp/cceo0zJu.s 			page 27


     /tmp/cceo0zJu.s:3211   .debug_str:0000000000000555 .LASF38
     /tmp/cceo0zJu.s:3287   .debug_str:000000000000085f .LASF39
     /tmp/cceo0zJu.s:3137   .debug_str:00000000000002f9 .LASF132
     /tmp/cceo0zJu.s:3059   .debug_str:0000000000000087 .LASF133
     /tmp/cceo0zJu.s:3245   .debug_str:0000000000000629 .LASF134
     /tmp/cceo0zJu.s:3045   .debug_str:000000000000003b .LASF42
     /tmp/cceo0zJu.s:3293   .debug_str:0000000000000894 .LASF43
     /tmp/cceo0zJu.s:3143   .debug_str:000000000000033c .LASF44
     /tmp/cceo0zJu.s:3123   .debug_str:000000000000026c .LASF45
     /tmp/cceo0zJu.s:3039   .debug_str:0000000000000016 .LASF46
     /tmp/cceo0zJu.s:3253   .debug_str:000000000000066c .LASF47
     /tmp/cceo0zJu.s:3229   .debug_str:00000000000005b3 .LASF48
     /tmp/cceo0zJu.s:3257   .debug_str:0000000000000683 .LASF49
     /tmp/cceo0zJu.s:3075   .debug_str:00000000000000f3 .LASF50
     /tmp/cceo0zJu.s:3097   .debug_str:00000000000001a9 .LASF51
     /tmp/cceo0zJu.s:3223   .debug_str:000000000000059d .LASF52
     /tmp/cceo0zJu.s:3155   .debug_str:000000000000038e .LASF53
     /tmp/cceo0zJu.s:3161   .debug_str:00000000000003cb .LASF54
     /tmp/cceo0zJu.s:3225   .debug_str:00000000000005a9 .LASF135
     /tmp/cceo0zJu.s:3085   .debug_str:0000000000000131 .LASF64
     /tmp/cceo0zJu.s:3169   .debug_str:0000000000000429 .LASF66
     /tmp/cceo0zJu.s:3049   .debug_str:000000000000004d .LASF55
     /tmp/cceo0zJu.s:3087   .debug_str:0000000000000141 .LASF57
     /tmp/cceo0zJu.s:3207   .debug_str:000000000000052d .LASF59
     /tmp/cceo0zJu.s:3125   .debug_str:000000000000027c .LASF61
     /tmp/cceo0zJu.s:3173   .debug_str:0000000000000452 .LASF62
     /tmp/cceo0zJu.s:3311   .debug_str:000000000000092c .LASF63
     /tmp/cceo0zJu.s:3235   .debug_str:00000000000005e1 .LASF65
     /tmp/cceo0zJu.s:3179   .debug_str:000000000000046c .LASF67
     /tmp/cceo0zJu.s:3201   .debug_str:00000000000004ff .LASF136
     /tmp/cceo0zJu.s:3147   .debug_str:0000000000000351 .LASF68
     /tmp/cceo0zJu.s:3193   .debug_str:00000000000004c0 .LASF69
     /tmp/cceo0zJu.s:3151   .debug_str:0000000000000361 .LASF70
     /tmp/cceo0zJu.s:3145   .debug_str:0000000000000348 .LASF71
     /tmp/cceo0zJu.s:3301   .debug_str:00000000000008bd .LASF72
     /tmp/cceo0zJu.s:3159   .debug_str:00000000000003bd .LASF74
     /tmp/cceo0zJu.s:3131   .debug_str:00000000000002c1 .LASF76
     /tmp/cceo0zJu.s:3291   .debug_str:0000000000000886 .LASF73
     /tmp/cceo0zJu.s:3139   .debug_str:000000000000030d .LASF137
     /tmp/cceo0zJu.s:3191   .debug_str:00000000000004b7 .LASF75
     /tmp/cceo0zJu.s:3107   .debug_str:00000000000001f0 .LASF77
     /tmp/cceo0zJu.s:3071   .debug_str:00000000000000da .LASF78
     /tmp/cceo0zJu.s:3133   .debug_str:00000000000002da .LASF138
     /tmp/cceo0zJu.s:3109   .debug_str:0000000000000203 .LASF79
     /tmp/cceo0zJu.s:3069   .debug_str:00000000000000d4 .LASF80
     /tmp/cceo0zJu.s:3231   .debug_str:00000000000005c0 .LASF81
     /tmp/cceo0zJu.s:3263   .debug_str:00000000000006ac .LASF82
     /tmp/cceo0zJu.s:3057   .debug_str:0000000000000079 .LASF83
     /tmp/cceo0zJu.s:3285   .debug_str:0000000000000844 .LASF84
     /tmp/cceo0zJu.s:3115   .debug_str:000000000000022e .LASF85
     /tmp/cceo0zJu.s:3237   .debug_str:00000000000005e7 .LASF86
     /tmp/cceo0zJu.s:3043   .debug_str:0000000000000032 .LASF87
     /tmp/cceo0zJu.s:3121   .debug_str:0000000000000257 .LASF88
     /tmp/cceo0zJu.s:3099   .debug_str:00000000000001ae .LASF89
     /tmp/cceo0zJu.s:3217   .debug_str:0000000000000578 .LASF90
     /tmp/cceo0zJu.s:3177   .debug_str:0000000000000465 .LASF91
     /tmp/cceo0zJu.s:3083   .debug_str:000000000000011e .LASF92
GAS LISTING /tmp/cceo0zJu.s 			page 28


     /tmp/cceo0zJu.s:3255   .debug_str:000000000000067c .LASF93
     /tmp/cceo0zJu.s:3163   .debug_str:00000000000003ef .LASF94
     /tmp/cceo0zJu.s:3119   .debug_str:000000000000024f .LASF95
     /tmp/cceo0zJu.s:3117   .debug_str:000000000000023b .LASF96
     /tmp/cceo0zJu.s:3239   .debug_str:0000000000000601 .LASF97
     /tmp/cceo0zJu.s:3197   .debug_str:00000000000004cf .LASF98
     /tmp/cceo0zJu.s:3105   .debug_str:00000000000001e8 .LASF99
     /tmp/cceo0zJu.s:3095   .debug_str:0000000000000195 .LASF100
     /tmp/cceo0zJu.s:3067   .debug_str:00000000000000cc .LASF101
     /tmp/cceo0zJu.s:3135   .debug_str:00000000000002e5 .LASF102
     /tmp/cceo0zJu.s:3221   .debug_str:0000000000000596 .LASF103
     /tmp/cceo0zJu.s:3055   .debug_str:0000000000000066 .LASF104
     /tmp/cceo0zJu.s:3053   .debug_str:000000000000005f .LASF105
     /tmp/cceo0zJu.s:3289   .debug_str:0000000000000873 .LASF106
     /tmp/cceo0zJu.s:3181   .debug_str:000000000000047c .LASF107
     /tmp/cceo0zJu.s:3307   .debug_str:0000000000000915 .LASF108
     /tmp/cceo0zJu.s:3051   .debug_str:0000000000000059 .LASF109
     /tmp/cceo0zJu.s:3299   .debug_str:00000000000008ab .LASF110
     /tmp/cceo0zJu.s:3185   .debug_str:000000000000048c .LASF111
     /tmp/cceo0zJu.s:3269   .debug_str:0000000000000794 .LASF112
     /tmp/cceo0zJu.s:3149   .debug_str:0000000000000356 .LASF113
     /tmp/cceo0zJu.s:3273   .debug_str:00000000000007bb .LASF114
     /tmp/cceo0zJu.s:3079   .debug_str:0000000000000108 .LASF115
     /tmp/cceo0zJu.s:3037   .debug_str:0000000000000000 .LASF116
     /tmp/cceo0zJu.s:3047   .debug_str:0000000000000043 .LASF117
     /tmp/cceo0zJu.s:3061   .debug_str:000000000000009f .LASF118
     /tmp/cceo0zJu.s:3251   .debug_str:000000000000065d .LASF119
     /tmp/cceo0zJu.s:3199   .debug_str:00000000000004e3 .LASF120
     /tmp/cceo0zJu.s:3279   .debug_str:0000000000000817 .LASF121
     /tmp/cceo0zJu.s:3277   .debug_str:00000000000007f5 .LASF122
     /tmp/cceo0zJu.s:3313   .debug_str:0000000000000943 .LASF123
     /tmp/cceo0zJu.s:3165   .debug_str:0000000000000402 .LASF124
     /tmp/cceo0zJu.s:584    .text:0000000000000334 .LFB49
     /tmp/cceo0zJu.s:632    .text:0000000000000394 .LFE49
     /tmp/cceo0zJu.s:600    .text:0000000000000350 .LVL29
     /tmp/cceo0zJu.s:615    .text:0000000000000378 .LVL31
     /tmp/cceo0zJu.s:619    .text:0000000000000380 .LVL32
     /tmp/cceo0zJu.s:638    .text:0000000000000394 .LFB48
     /tmp/cceo0zJu.s:698    .text:0000000000000404 .LFE48
     /tmp/cceo0zJu.s:2778   .debug_loc:0000000000000000 .LLST10
     /tmp/cceo0zJu.s:659    .text:00000000000003bc .LVL34
     /tmp/cceo0zJu.s:666    .text:00000000000003c8 .LVL35
     /tmp/cceo0zJu.s:674    .text:00000000000003e0 .LVL36
     /tmp/cceo0zJu.s:695    .text:0000000000000400 .LVL39
     /tmp/cceo0zJu.s:546    .text:0000000000000310 .LFB47
     /tmp/cceo0zJu.s:578    .text:0000000000000334 .LFE47
     /tmp/cceo0zJu.s:3089   .debug_str:0000000000000158 .LASF125
     /tmp/cceo0zJu.s:65     .text:0000000000000038 .LFB46
     /tmp/cceo0zJu.s:540    .text:0000000000000310 .LFE46
     /tmp/cceo0zJu.s:2789   .debug_loc:0000000000000036 .LLST1
     /tmp/cceo0zJu.s:3175   .debug_str:000000000000045e .LASF126
     /tmp/cceo0zJu.s:2814   .debug_loc:0000000000000098 .LLST2
     /tmp/cceo0zJu.s:2836   .debug_loc:00000000000000f7 .LLST3
     /tmp/cceo0zJu.s:84     .text:0000000000000050 .LBB18
     /tmp/cceo0zJu.s:3003   .debug_ranges:0000000000000000 .Ldebug_ranges0
     /tmp/cceo0zJu.s:2872   .debug_loc:0000000000000182 .LLST4
     /tmp/cceo0zJu.s:2887   .debug_loc:00000000000001bc .LLST5
GAS LISTING /tmp/cceo0zJu.s 			page 29


     /tmp/cceo0zJu.s:2908   .debug_loc:000000000000021b .LLST6
     /tmp/cceo0zJu.s:249    .text:0000000000000144 .LBB31
     /tmp/cceo0zJu.s:2919   .debug_loc:0000000000000251 .LLST7
     /tmp/cceo0zJu.s:2940   .debug_loc:00000000000002a3 .LLST8
     /tmp/cceo0zJu.s:355    .text:00000000000001e0 .LBB36
     /tmp/cceo0zJu.s:439    .text:000000000000026c .LBE36
     /tmp/cceo0zJu.s:2965   .debug_loc:0000000000000315 .LLST9
     /tmp/cceo0zJu.s:494    .text:00000000000002c8 .LVL24
     /tmp/cceo0zJu.s:38     .text:000000000000001c .LFB45
     /tmp/cceo0zJu.s:59     .text:0000000000000038 .LFE45
     /tmp/cceo0zJu.s:3297   .debug_str:00000000000008a6 .LASF127
     /tmp/cceo0zJu.s:10     .text:0000000000000000 .LFB44
     /tmp/cceo0zJu.s:32     .text:000000000000001c .LFE44
     /tmp/cceo0zJu.s:2976   .debug_loc:000000000000034b .LLST0
     /tmp/cceo0zJu.s:3283   .debug_str:000000000000083c .LASF128
     /tmp/cceo0zJu.s:654    .text:00000000000003b0 .LVL33
     /tmp/cceo0zJu.s:684    .text:00000000000003ec .LVL37
     /tmp/cceo0zJu.s:688    .text:00000000000003f4 .LVL38
     /tmp/cceo0zJu.s:68     .text:0000000000000038 .LVL3
     /tmp/cceo0zJu.s:492    .text:00000000000002c0 .LVL23
     /tmp/cceo0zJu.s:517    .text:00000000000002e8 .LVL26
     /tmp/cceo0zJu.s:534    .text:0000000000000308 .LVL27
     /tmp/cceo0zJu.s:92     .text:000000000000005c .LVL5
     /tmp/cceo0zJu.s:513    .text:00000000000002e0 .LVL25
     /tmp/cceo0zJu.s:257    .text:0000000000000150 .LVL12
     /tmp/cceo0zJu.s:310    .text:00000000000001b4 .LVL13
     /tmp/cceo0zJu.s:330    .text:00000000000001c8 .LVL14
     /tmp/cceo0zJu.s:437    .text:000000000000026c .LVL21
     /tmp/cceo0zJu.s:447    .text:0000000000000270 .LVL22
     /tmp/cceo0zJu.s:81     .text:0000000000000050 .LVL4
     /tmp/cceo0zJu.s:226    .text:0000000000000130 .LVL10
     /tmp/cceo0zJu.s:147    .text:00000000000000b8 .LVL6
     /tmp/cceo0zJu.s:149    .text:00000000000000bc .LVL7
     /tmp/cceo0zJu.s:201    .text:0000000000000104 .LVL9
     /tmp/cceo0zJu.s:163    .text:00000000000000d0 .LVL8
     /tmp/cceo0zJu.s:247    .text:0000000000000144 .LVL11
     /tmp/cceo0zJu.s:426    .text:0000000000000254 .LVL19
     /tmp/cceo0zJu.s:428    .text:0000000000000258 .LVL20
     /tmp/cceo0zJu.s:343    .text:00000000000001cc .LVL15
     /tmp/cceo0zJu.s:345    .text:00000000000001d0 .LVL16
     /tmp/cceo0zJu.s:399    .text:0000000000000220 .LVL18
     /tmp/cceo0zJu.s:361    .text:00000000000001ec .LVL17
     /tmp/cceo0zJu.s:14     .text:0000000000000000 .LVL0
     /tmp/cceo0zJu.s:24     .text:0000000000000010 .LVL1
     /tmp/cceo0zJu.s:720    .debug_info:0000000000000000 .Ldebug_info0
     /tmp/cceo0zJu.s:233    .text:0000000000000130 .LBE18
     /tmp/cceo0zJu.s:317    .text:00000000000001b4 .LBB41
     /tmp/cceo0zJu.s:337    .text:00000000000001c8 .LBE41
     /tmp/cceo0zJu.s:88     .text:0000000000000050 .LBB20
     /tmp/cceo0zJu.s:231    .text:0000000000000130 .LBE20
     /tmp/cceo0zJu.s:319    .text:00000000000001b4 .LBB29
     /tmp/cceo0zJu.s:335    .text:00000000000001c8 .LBE29
     /tmp/cceo0zJu.s:159    .text:00000000000000cc .LBB23
     /tmp/cceo0zJu.s:228    .text:0000000000000130 .LBE23
     /tmp/cceo0zJu.s:322    .text:00000000000001b4 .LBB24
     /tmp/cceo0zJu.s:332    .text:00000000000001c8 .LBE24
     /tmp/cceo0zJu.s:316    .text:00000000000001b4 .LBE31
GAS LISTING /tmp/cceo0zJu.s 			page 30


     /tmp/cceo0zJu.s:338    .text:00000000000001c8 .LBB42
     /tmp/cceo0zJu.s:444    .text:000000000000026c .LBE42
     /tmp/cceo0zJu.s:253    .text:0000000000000144 .LBB33
     /tmp/cceo0zJu.s:314    .text:00000000000001b4 .LBE33
     /tmp/cceo0zJu.s:340    .text:00000000000001c8 .LBB39
     /tmp/cceo0zJu.s:442    .text:000000000000026c .LBE39

UNDEFINED SYMBOLS
_ZN16MemoryAllocation9fmem_headE
_ZN9Scheduler3putEP3TCB
_ZN5RiscV10popSppSpieEv
_ZN9Scheduler3getEv
_ZN3TCB13contextSwitchEPNS_7ContextES1_
