GAS LISTING /tmp/ccg0UQxT.s 			page 1


   1              		.file	"tcb.cpp"
   2              		.option pic
   3              		.option norelax
   4              		.text
   5              	.Ltext0:
   6              		.align	2
   7              		.globl	_ZNK3TCB10isFinishedEv
   9              	_ZNK3TCB10isFinishedEv:
  10              	.LFB48:
  11              		.file 1 "src/tcb.cpp"
   1:src/tcb.cpp   **** //
   2:src/tcb.cpp   **** // Created by os on 8/14/22.
   3:src/tcb.cpp   **** //
   4:src/tcb.cpp   **** 
   5:src/tcb.cpp   **** #include "../h/tcb.hpp"
   6:src/tcb.cpp   **** #include "../h/RiscV.hpp"
   7:src/tcb.cpp   **** 
   8:src/tcb.cpp   **** 
   9:src/tcb.cpp   **** 
  10:src/tcb.cpp   **** bool TCB::isFinished() const {
  12              		.loc 1 10 30
  13              		.cfi_startproc
  14              	.LVL0:
  15 0000 130101FF 		addi	sp,sp,-16
  16              		.cfi_def_cfa_offset 16
  17 0004 23348100 		sd	s0,8(sp)
  18              		.cfi_offset 8, -8
  19 0008 13040101 		addi	s0,sp,16
  20              		.cfi_def_cfa 8, 0
  11:src/tcb.cpp   ****     return finished;
  21              		.loc 1 11 5
  12:src/tcb.cpp   **** }
  22              		.loc 1 12 1 is_stmt 0
  23 000c 03450502 		lbu	a0,32(a0)
  24              	.LVL1:
  25 0010 03348100 		ld	s0,8(sp)
  26              		.cfi_restore 8
  27              		.cfi_def_cfa 2, 16
  28 0014 13010101 		addi	sp,sp,16
  29              		.cfi_def_cfa_offset 0
  30 0018 67800000 		jr	ra
  31              		.cfi_endproc
  32              	.LFE48:
  34              		.align	2
  35              		.globl	_ZN3TCB11setFinishedEb
  37              	_ZN3TCB11setFinishedEb:
  38              	.LFB49:
  13:src/tcb.cpp   **** 
  14:src/tcb.cpp   **** void TCB::setFinished(bool finished) {
  39              		.loc 1 14 38 is_stmt 1
  40              		.cfi_startproc
  41              	.LVL2:
  42 001c 130101FF 		addi	sp,sp,-16
  43              		.cfi_def_cfa_offset 16
  44 0020 23348100 		sd	s0,8(sp)
  45              		.cfi_offset 8, -8
  46 0024 13040101 		addi	s0,sp,16
GAS LISTING /tmp/ccg0UQxT.s 			page 2


  47              		.cfi_def_cfa 8, 0
  15:src/tcb.cpp   ****     TCB::finished=finished;
  48              		.loc 1 15 5
  49              		.loc 1 15 18 is_stmt 0
  50 0028 2300B502 		sb	a1,32(a0)
  16:src/tcb.cpp   **** }
  51              		.loc 1 16 1
  52 002c 03348100 		ld	s0,8(sp)
  53              		.cfi_restore 8
  54              		.cfi_def_cfa 2, 16
  55 0030 13010101 		addi	sp,sp,16
  56              		.cfi_def_cfa_offset 0
  57 0034 67800000 		jr	ra
  58              		.cfi_endproc
  59              	.LFE49:
  61              		.align	2
  62              		.globl	_ZN3TCB12createThreadEPFvPvEPPS_S0_b
  64              	_ZN3TCB12createThreadEPFvPvEPPS_S0_b:
  65              	.LFB50:
  17:src/tcb.cpp   **** TCB* TCB::running = nullptr;
  18:src/tcb.cpp   **** 
  19:src/tcb.cpp   **** uint64 TCB::timeSliceCounter=0;
  20:src/tcb.cpp   **** 
  21:src/tcb.cpp   **** int TCB::createThread(TCB::Body body, TCB** handle , void* arguments, bool started) {
  66              		.loc 1 21 85 is_stmt 1
  67              		.cfi_startproc
  68              	.LVL3:
  69 0038 130101FE 		addi	sp,sp,-32
  70              		.cfi_def_cfa_offset 32
  71 003c 233C1100 		sd	ra,24(sp)
  72 0040 23388100 		sd	s0,16(sp)
  73 0044 23349100 		sd	s1,8(sp)
  74              		.cfi_offset 1, -8
  75              		.cfi_offset 8, -16
  76              		.cfi_offset 9, -24
  77 0048 13040102 		addi	s0,sp,32
  78              		.cfi_def_cfa 8, 0
  79 004c 93840500 		mv	s1,a1
  22:src/tcb.cpp   ****     //*handle = new TCB(body, TIME_SLICE, arguments);
  23:src/tcb.cpp   ****     *handle = (TCB*) MemoryAllocation::mem_alloc(MemoryAllocation::bytesToBlocks(sizeof(TCB)));
  80              		.loc 1 23 5
  81              	.LVL4:
  82              		.file 2 "src/../h/../h/../h/MemoryAllocation.hpp"
   1:src/../h/../h/../h/MemoryAllocation.hpp **** #include "../lib/hw.h"
   2:src/../h/../h/../h/MemoryAllocation.hpp **** 
   3:src/../h/../h/../h/MemoryAllocation.hpp **** 
   4:src/../h/../h/../h/MemoryAllocation.hpp **** #ifndef PROJECT_BASE_MEMORYALLOCATION_HPP
   5:src/../h/../h/../h/MemoryAllocation.hpp **** #define PROJECT_BASE_MEMORYALLOCATION_HPP
   6:src/../h/../h/../h/MemoryAllocation.hpp **** 
   7:src/../h/../h/../h/MemoryAllocation.hpp **** 
   8:src/../h/../h/../h/MemoryAllocation.hpp **** class MemoryAllocation {
   9:src/../h/../h/../h/MemoryAllocation.hpp **** 
  10:src/../h/../h/../h/MemoryAllocation.hpp ****     //===========================DEFINICIJA SINGLETON KLASE POCETAK=======================k
  11:src/../h/../h/../h/MemoryAllocation.hpp **** private:
  12:src/../h/../h/../h/MemoryAllocation.hpp **** 
  13:src/../h/../h/../h/MemoryAllocation.hpp ****     struct FreeMem {
  14:src/../h/../h/../h/MemoryAllocation.hpp ****         FreeMem *next;
GAS LISTING /tmp/ccg0UQxT.s 			page 3


  15:src/../h/../h/../h/MemoryAllocation.hpp ****         FreeMem *prev;
  16:src/../h/../h/../h/MemoryAllocation.hpp ****         size_t size;
  17:src/../h/../h/../h/MemoryAllocation.hpp ****     };
  18:src/../h/../h/../h/MemoryAllocation.hpp **** 
  19:src/../h/../h/../h/MemoryAllocation.hpp **** 
  20:src/../h/../h/../h/MemoryAllocation.hpp ****     static FreeMem *fmem_head; //koja pocetna vrednost?
  21:src/../h/../h/../h/MemoryAllocation.hpp **** 
  22:src/../h/../h/../h/MemoryAllocation.hpp **** 
  23:src/../h/../h/../h/MemoryAllocation.hpp **** 
  24:src/../h/../h/../h/MemoryAllocation.hpp ****     static MemoryAllocation *instance;
  25:src/../h/../h/../h/MemoryAllocation.hpp ****     int data;
  26:src/../h/../h/../h/MemoryAllocation.hpp **** 
  27:src/../h/../h/../h/MemoryAllocation.hpp **** 
  28:src/../h/../h/../h/MemoryAllocation.hpp ****     MemoryAllocation() { //OVO SE SADA NIGGDE
  29:src/../h/../h/../h/MemoryAllocation.hpp ****         fmem_head->size = (size_t) ((char *) HEAP_END_ADDR -
  30:src/../h/../h/../h/MemoryAllocation.hpp ****                                     (char *) HEAP_START_ADDR); //da li smem ovo da castujem u size_
  31:src/../h/../h/../h/MemoryAllocation.hpp ****         fmem_head->next = nullptr;
  32:src/../h/../h/../h/MemoryAllocation.hpp ****         fmem_head->prev = nullptr;
  33:src/../h/../h/../h/MemoryAllocation.hpp ****         data = 0;
  34:src/../h/../h/../h/MemoryAllocation.hpp ****     }
  35:src/../h/../h/../h/MemoryAllocation.hpp **** 
  36:src/../h/../h/../h/MemoryAllocation.hpp ****     MemoryAllocation(MemoryAllocation const &);
  37:src/../h/../h/../h/MemoryAllocation.hpp **** 
  38:src/../h/../h/../h/MemoryAllocation.hpp ****     void operator=(MemoryAllocation const &);
  39:src/../h/../h/../h/MemoryAllocation.hpp **** 
  40:src/../h/../h/../h/MemoryAllocation.hpp **** public:
  41:src/../h/../h/../h/MemoryAllocation.hpp **** 
  42:src/../h/../h/../h/MemoryAllocation.hpp **** 
  43:src/../h/../h/../h/MemoryAllocation.hpp ****     static MemoryAllocation *getInstance() {
  44:src/../h/../h/../h/MemoryAllocation.hpp ****         if (!instance) {
  45:src/../h/../h/../h/MemoryAllocation.hpp ****             fmem_head =  (FreeMem*) HEAP_START_ADDR;
  46:src/../h/../h/../h/MemoryAllocation.hpp ****             fmem_head->size = (size_t) ((char *) HEAP_END_ADDR -
  47:src/../h/../h/../h/MemoryAllocation.hpp ****                                         (char *) HEAP_START_ADDR); //da li smem ovo da castujem u s
  48:src/../h/../h/../h/MemoryAllocation.hpp ****             fmem_head->next = nullptr;
  49:src/../h/../h/../h/MemoryAllocation.hpp ****             fmem_head->prev = nullptr;
  50:src/../h/../h/../h/MemoryAllocation.hpp ****             static MemoryAllocation* instance;
  51:src/../h/../h/../h/MemoryAllocation.hpp ****             return instance;
  52:src/../h/../h/../h/MemoryAllocation.hpp ****         }
  53:src/../h/../h/../h/MemoryAllocation.hpp ****         return instance;
  54:src/../h/../h/../h/MemoryAllocation.hpp ****     }
  55:src/../h/../h/../h/MemoryAllocation.hpp **** 
  56:src/../h/../h/../h/MemoryAllocation.hpp **** 
  57:src/../h/../h/../h/MemoryAllocation.hpp ****     int getData() {
  58:src/../h/../h/../h/MemoryAllocation.hpp ****         return this->data;
  59:src/../h/../h/../h/MemoryAllocation.hpp ****     }
  60:src/../h/../h/../h/MemoryAllocation.hpp **** 
  61:src/../h/../h/../h/MemoryAllocation.hpp ****     void setData(int data) {
  62:src/../h/../h/../h/MemoryAllocation.hpp ****         this->data = data;
  63:src/../h/../h/../h/MemoryAllocation.hpp ****     }
  64:src/../h/../h/../h/MemoryAllocation.hpp **** 
  65:src/../h/../h/../h/MemoryAllocation.hpp ****     /*MemoryAllocation(MemoryAllocation const&) = delete;
  66:src/../h/../h/../h/MemoryAllocation.hpp ****     void operator=(MemoryAllocation const&)  = delete;*/
  67:src/../h/../h/../h/MemoryAllocation.hpp **** //===========================DEFINICIJA SINGLETON KLASE KRAJ========================
  68:src/../h/../h/../h/MemoryAllocation.hpp ****     static int bytesToBlocks(size_t size){
  69:src/../h/../h/../h/MemoryAllocation.hpp ****         return (size+sizeof(FreeMem)+MEM_BLOCK_SIZE-1)/MEM_BLOCK_SIZE;
  83              		.loc 2 69 9
  84              	.LBB24:
GAS LISTING /tmp/ccg0UQxT.s 			page 4


  85              	.LBB25:
  70:src/../h/../h/../h/MemoryAllocation.hpp ****     }
  71:src/../h/../h/../h/MemoryAllocation.hpp **** 
  72:src/../h/../h/../h/MemoryAllocation.hpp **** 
  73:src/../h/../h/../h/MemoryAllocation.hpp **** //===========================METODE ZA ALOKACIJU MEMORIJE===========================
  74:src/../h/../h/../h/MemoryAllocation.hpp ****     static void tryToJoin (FreeMem* curr) {
  75:src/../h/../h/../h/MemoryAllocation.hpp ****         if (!curr) return;
  76:src/../h/../h/../h/MemoryAllocation.hpp ****         if (curr->next && (char*)curr+curr->size == (char*)(curr->next)) {
  77:src/../h/../h/../h/MemoryAllocation.hpp ****         // Remove the cur->next segment:
  78:src/../h/../h/../h/MemoryAllocation.hpp ****             curr->size += curr->next->size;
  79:src/../h/../h/../h/MemoryAllocation.hpp ****             curr->next = curr->next->next;
  80:src/../h/../h/../h/MemoryAllocation.hpp ****             if (curr->next) curr->next->prev = curr;
  81:src/../h/../h/../h/MemoryAllocation.hpp ****             return;
  82:src/../h/../h/../h/MemoryAllocation.hpp ****         }
  83:src/../h/../h/../h/MemoryAllocation.hpp **** 
  84:src/../h/../h/../h/MemoryAllocation.hpp ****     }
  85:src/../h/../h/../h/MemoryAllocation.hpp **** 
  86:src/../h/../h/../h/MemoryAllocation.hpp ****     //===================================== mem_free, ali sa ptr ===============
  87:src/../h/../h/../h/MemoryAllocation.hpp ****         static int mem_free(void* ptr) { //radi i kada posaljem sa &
  88:src/../h/../h/../h/MemoryAllocation.hpp ****         FreeMem* cur=0;
  89:src/../h/../h/../h/MemoryAllocation.hpp ****         if(!fmem_head || ptr < (char*)fmem_head)
  90:src/../h/../h/../h/MemoryAllocation.hpp ****         {
  91:src/../h/../h/../h/MemoryAllocation.hpp ****             cur=nullptr;
  92:src/../h/../h/../h/MemoryAllocation.hpp ****         }else {
  93:src/../h/../h/../h/MemoryAllocation.hpp ****                 for (cur=fmem_head; cur->next!=ptr && ptr>(char*)(cur->next); cur=cur->next); //moz
  94:src/../h/../h/../h/MemoryAllocation.hpp ****             }
  95:src/../h/../h/../h/MemoryAllocation.hpp ****                 FreeMem* newSeg = (FreeMem*)ptr;
  96:src/../h/../h/../h/MemoryAllocation.hpp ****                 newSeg->next=nullptr;
  97:src/../h/../h/../h/MemoryAllocation.hpp ****                 newSeg->prev=nullptr;
  98:src/../h/../h/../h/MemoryAllocation.hpp ****                 newSeg->size=bytesToBlocks(sizeof(ptr))*MEM_BLOCK_SIZE;
  99:src/../h/../h/../h/MemoryAllocation.hpp ****                         //sizeof(ptr);
 100:src/../h/../h/../h/MemoryAllocation.hpp ****                 newSeg->prev=cur;
 101:src/../h/../h/../h/MemoryAllocation.hpp ****                 if(cur) {
 102:src/../h/../h/../h/MemoryAllocation.hpp ****                     newSeg->next = cur->next;
 103:src/../h/../h/../h/MemoryAllocation.hpp ****                 }
 104:src/../h/../h/../h/MemoryAllocation.hpp ****                 else {
 105:src/../h/../h/../h/MemoryAllocation.hpp ****                     newSeg->next = fmem_head;
 106:src/../h/../h/../h/MemoryAllocation.hpp ****                 }
 107:src/../h/../h/../h/MemoryAllocation.hpp ****                 if(newSeg->next) {
 108:src/../h/../h/../h/MemoryAllocation.hpp ****                     newSeg->next->prev=newSeg;
 109:src/../h/../h/../h/MemoryAllocation.hpp ****                 }
 110:src/../h/../h/../h/MemoryAllocation.hpp ****                 if (cur) {
 111:src/../h/../h/../h/MemoryAllocation.hpp ****                     cur->next = newSeg; //zasto ovde odjednom uzme vrednost x8000 umesto x8000f...?
 112:src/../h/../h/../h/MemoryAllocation.hpp ****                 }
 113:src/../h/../h/../h/MemoryAllocation.hpp ****                 else {
 114:src/../h/../h/../h/MemoryAllocation.hpp ****                     fmem_head = newSeg;
 115:src/../h/../h/../h/MemoryAllocation.hpp ****                 }
 116:src/../h/../h/../h/MemoryAllocation.hpp ****                 // Try to merge with the previous and next segments:
 117:src/../h/../h/../h/MemoryAllocation.hpp ****             tryToJoin(newSeg);
 118:src/../h/../h/../h/MemoryAllocation.hpp ****             tryToJoin(cur);
 119:src/../h/../h/../h/MemoryAllocation.hpp ****             //mozda da fmem_head nije jednako starom fmem_headu?
 120:src/../h/../h/../h/MemoryAllocation.hpp ****             if(newSeg==nullptr){
 121:src/../h/../h/../h/MemoryAllocation.hpp ****                 return -1;
 122:src/../h/../h/../h/MemoryAllocation.hpp ****             }else{return 0;}
 123:src/../h/../h/../h/MemoryAllocation.hpp **** 
 124:src/../h/../h/../h/MemoryAllocation.hpp **** 
 125:src/../h/../h/../h/MemoryAllocation.hpp ****     }
GAS LISTING /tmp/ccg0UQxT.s 			page 5


 126:src/../h/../h/../h/MemoryAllocation.hpp ****     //===================================== kraj probe ==========================
 127:src/../h/../h/../h/MemoryAllocation.hpp **** 
 128:src/../h/../h/../h/MemoryAllocation.hpp **** 
 129:src/../h/../h/../h/MemoryAllocation.hpp **** 
 130:src/../h/../h/../h/MemoryAllocation.hpp ****     /*int mem_free(char* addr, size_t size) {
 131:src/../h/../h/../h/MemoryAllocation.hpp ****         // Find the place where to insert the new free segment (just after cur):
 132:src/../h/../h/../h/MemoryAllocation.hpp ****         FreeMem* cur=0;
 133:src/../h/../h/../h/MemoryAllocation.hpp ****         if (!fmem_head || addr<(char*)fmem_head)
 134:src/../h/../h/../h/MemoryAllocation.hpp ****             cur = 0; // insert as the first
 135:src/../h/../h/../h/MemoryAllocation.hpp ****         else
 136:src/../h/../h/../h/MemoryAllocation.hpp ****             for (cur=fmem_head; cur->next!=0 && addr>(char*)(cur->next);
 137:src/../h/../h/../h/MemoryAllocation.hpp ****                  cur=cur->next);
 138:src/../h/../h/../h/MemoryAllocation.hpp ****             // Insert the new segment after cur:
 139:src/../h/../h/../h/MemoryAllocation.hpp ****         FreeMem* newSeg = (FreeMem*)addr;
 140:src/../h/../h/../h/MemoryAllocation.hpp ****         newSeg->size = size;
 141:src/../h/../h/../h/MemoryAllocation.hpp ****         newSeg->prev = cur;
 142:src/../h/../h/../h/MemoryAllocation.hpp ****         if (cur) newSeg->next = cur->next;
 143:src/../h/../h/../h/MemoryAllocation.hpp ****         else newSeg->next = fmem_head;
 144:src/../h/../h/../h/MemoryAllocation.hpp ****         if (newSeg->next) newSeg->next->prev = newSeg;
 145:src/../h/../h/../h/MemoryAllocation.hpp ****         if (cur) cur->next = newSeg;
 146:src/../h/../h/../h/MemoryAllocation.hpp ****         else fmem_head = newSeg;
 147:src/../h/../h/../h/MemoryAllocation.hpp ****             // Try to merge with the previous and next segments:
 148:src/../h/../h/../h/MemoryAllocation.hpp ****         tryToJoin(newSeg);
 149:src/../h/../h/../h/MemoryAllocation.hpp ****         tryToJoin(cur);
 150:src/../h/../h/../h/MemoryAllocation.hpp ****     }*/
 151:src/../h/../h/../h/MemoryAllocation.hpp **** 
 152:src/../h/../h/../h/MemoryAllocation.hpp ****     static void* mem_alloc(size_t size) {//uopste ne radi, iako u lotsofsmallmallocs pise da radi
 153:src/../h/../h/../h/MemoryAllocation.hpp ****         //size_t x=sizeof(fmem_head);
 154:src/../h/../h/../h/MemoryAllocation.hpp ****         //pozovi ovde samo bytes to blocks od size, da ne moras to da radis iz maina
 155:src/../h/../h/../h/MemoryAllocation.hpp ****         size=(size)*(size_t)MEM_BLOCK_SIZE; //kada je ovo ukljuceno, pravi problem u memfree, so il
  86              		.loc 2 155 9
 156:src/../h/../h/../h/MemoryAllocation.hpp ****         for (FreeMem* cur = fmem_head; cur != nullptr; cur=cur->next){ // U DRUGOJ ITERACIJI FMEM_H
  87              		.loc 2 156 9
  88              	.LBB26:
  89              		.loc 2 156 23 is_stmt 0
  90 0050 97070000 		la	a5,_ZN16MemoryAllocation9fmem_headE
  90      83B70700 
  91 0058 83B70700 		ld	a5,0(a5)
  92              	.LVL5:
  93              	.L7:
  94              		.loc 2 156 44 is_stmt 1
  95 005c 638A070C 		beqz	a5,.L6
  96              	.LBB27:
 157:src/../h/../h/../h/MemoryAllocation.hpp ****             cur->next=fmem_head->next;
  97              		.loc 2 157 13
  98              		.loc 2 157 34 is_stmt 0
  99 0060 17070000 		la	a4,_ZN16MemoryAllocation9fmem_headE
  99      03370700 
 100 0068 83350700 		ld	a1,0(a4)
 101 006c 83B50500 		ld	a1,0(a1)
 102              		.loc 2 157 22
 103 0070 23B0B700 		sd	a1,0(a5)
 158:src/../h/../h/../h/MemoryAllocation.hpp ****             cur->prev=fmem_head->prev;
 104              		.loc 2 158 13 is_stmt 1
 105              		.loc 2 158 34 is_stmt 0
 106 0074 03370700 		ld	a4,0(a4)
 107 0078 03388700 		ld	a6,8(a4)
GAS LISTING /tmp/ccg0UQxT.s 			page 6


 108              		.loc 2 158 22
 109 007c 23B40701 		sd	a6,8(a5)
 159:src/../h/../h/../h/MemoryAllocation.hpp ****             if (cur->size<size) continue;
 110              		.loc 2 159 13 is_stmt 1
 111              		.loc 2 159 22 is_stmt 0
 112 0080 03B70701 		ld	a4,16(a5)
 113              		.loc 2 159 13
 114 0084 9308F007 		li	a7,127
 115 0088 63F6E802 		bleu	a4,a7,.L29
 160:src/../h/../h/../h/MemoryAllocation.hpp ****             if (cur->size-size<=sizeof(FreeMem)){
 116              		.loc 2 160 13 is_stmt 1
 117              	.LBB28:
 118              		.loc 2 160 26 is_stmt 0
 119 008c 130707F8 		addi	a4,a4,-128
 120              		.loc 2 160 13
 121 0090 93088001 		li	a7,24
 122 0094 63ECE802 		bgtu	a4,a7,.L8
 161:src/../h/../h/../h/MemoryAllocation.hpp ****                 if (cur->prev) cur->prev->next = cur->next;
 123              		.loc 2 161 17 is_stmt 1
 124 0098 63020802 		beqz	a6,.L9
 125              		.loc 2 161 32
 126              		.loc 2 161 48 is_stmt 0
 127 009c 2330B800 		sd	a1,0(a6)
 128              	.L10:
 162:src/../h/../h/../h/MemoryAllocation.hpp ****                 else fmem_head = cur->next;
 163:src/../h/../h/../h/MemoryAllocation.hpp ****                 if (cur->next) cur->next->prev = cur->prev;
 129              		.loc 2 163 17 is_stmt 1
 130              		.loc 2 163 26 is_stmt 0
 131 00a0 03B70700 		ld	a4,0(a5)
 132              		.loc 2 163 17
 133 00a4 63060708 		beqz	a4,.L6
 134              		.loc 2 163 32 is_stmt 1
 135              		.loc 2 163 55 is_stmt 0
 136 00a8 83B58700 		ld	a1,8(a5)
 137              		.loc 2 163 48
 138 00ac 2334B700 		sd	a1,8(a4)
 164:src/../h/../h/../h/MemoryAllocation.hpp ****                 return cur;
 139              		.loc 2 164 17 is_stmt 1
 140              		.loc 2 164 24 is_stmt 0
 141 00b0 6F000008 		j	.L6
 142              	.L29:
 143              	.LBE28:
 144              	.LBE27:
 156:src/../h/../h/../h/MemoryAllocation.hpp ****             cur->next=fmem_head->next;
 145              		.loc 2 156 59
 146 00b4 93870500 		mv	a5,a1
 147              	.LVL6:
 148 00b8 6FF05FFA 		j	.L7
 149              	.LVL7:
 150              	.L9:
 151              	.LBB33:
 152              	.LBB31:
 162:src/../h/../h/../h/MemoryAllocation.hpp ****                 else fmem_head = cur->next;
 153              		.loc 2 162 22 is_stmt 1
 162:src/../h/../h/../h/MemoryAllocation.hpp ****                 else fmem_head = cur->next;
 154              		.loc 2 162 32 is_stmt 0
 155 00bc 17070000 		la	a4,_ZN16MemoryAllocation9fmem_headE
GAS LISTING /tmp/ccg0UQxT.s 			page 7


 155      03370700 
 156 00c4 2330B700 		sd	a1,0(a4)
 157 00c8 6FF09FFD 		j	.L10
 158              	.L8:
 159              	.LBB29:
 165:src/../h/../h/../h/MemoryAllocation.hpp ****             }else {
 166:src/../h/../h/../h/MemoryAllocation.hpp ****                 FreeMem* newfrgm = (FreeMem*)((char*)cur+size);
 160              		.loc 2 166 17 is_stmt 1
 161              		.loc 2 166 26 is_stmt 0
 162 00cc 13870708 		addi	a4,a5,128
 163              	.LVL8:
 167:src/../h/../h/../h/MemoryAllocation.hpp ****                 newfrgm->prev=nullptr;
 164              		.loc 2 167 17 is_stmt 1
 165              		.loc 2 167 30 is_stmt 0
 166 00d0 23340700 		sd	zero,8(a4)
 168:src/../h/../h/../h/MemoryAllocation.hpp ****                 newfrgm->next=nullptr;
 167              		.loc 2 168 17 is_stmt 1
 168              		.loc 2 168 30 is_stmt 0
 169 00d4 23B00708 		sd	zero,128(a5)
 169:src/../h/../h/../h/MemoryAllocation.hpp ****                 //newfrgm->size=cur->size-size;// DODATO TOKOM PROBE NITI
 170:src/../h/../h/../h/MemoryAllocation.hpp ****                 if (cur && cur->prev) cur->prev->next = newfrgm;
 170              		.loc 2 170 17 is_stmt 1
 171              		.loc 2 170 33 is_stmt 0
 172 00d8 83B58700 		ld	a1,8(a5)
 173              		.loc 2 170 25
 174 00dc 638C050C 		beqz	a1,.L12
 175              		.loc 2 170 39 is_stmt 1
 176              		.loc 2 170 55 is_stmt 0
 177 00e0 23B0E500 		sd	a4,0(a1)
 178              	.L13:
 171:src/../h/../h/../h/MemoryAllocation.hpp ****                 else fmem_head = newfrgm+sizeof(fmem_head); // ovo sam dodao sizeof da bi mi radio 
 172:src/../h/../h/../h/MemoryAllocation.hpp ****                 if (cur && cur->next) cur->next->prev = newfrgm;
 179              		.loc 2 172 17 is_stmt 1
 180              		.loc 2 172 33 is_stmt 0
 181 00e4 83B50700 		ld	a1,0(a5)
 182              		.loc 2 172 25
 183 00e8 63840500 		beqz	a1,.L14
 184              		.loc 2 172 39 is_stmt 1
 185              		.loc 2 172 55 is_stmt 0
 186 00ec 23B4E500 		sd	a4,8(a1)
 187              	.L14:
 173:src/../h/../h/../h/MemoryAllocation.hpp ****                 newfrgm->prev = cur->prev;
 188              		.loc 2 173 17 is_stmt 1
 189              		.loc 2 173 38 is_stmt 0
 190 00f0 03B88700 		ld	a6,8(a5)
 191              		.loc 2 173 31
 192 00f4 23340701 		sd	a6,8(a4)
 174:src/../h/../h/../h/MemoryAllocation.hpp ****                 newfrgm->next = cur->next;
 193              		.loc 2 174 17 is_stmt 1
 194              		.loc 2 174 38 is_stmt 0
 195 00f8 83B50700 		ld	a1,0(a5)
 196              		.loc 2 174 31
 197 00fc 2330B700 		sd	a1,0(a4)
 175:src/../h/../h/../h/MemoryAllocation.hpp ****                 newfrgm->size = cur->size-size;
 198              		.loc 2 175 17 is_stmt 1
 199              		.loc 2 175 38 is_stmt 0
 200 0100 83B70701 		ld	a5,16(a5)
GAS LISTING /tmp/ccg0UQxT.s 			page 8


 201              	.LVL9:
 202              		.loc 2 175 42
 203 0104 938707F8 		addi	a5,a5,-128
 204              		.loc 2 175 31
 205 0108 2338F700 		sd	a5,16(a4)
 176:src/../h/../h/../h/MemoryAllocation.hpp ****                 fmem_head =newfrgm+sizeof(fmem_head);
 206              		.loc 2 176 17 is_stmt 1
 207              		.loc 2 176 35 is_stmt 0
 208 010c 9305070C 		addi	a1,a4,192
 209              		.loc 2 176 27
 210 0110 97080000 		la	a7,_ZN16MemoryAllocation9fmem_headE
 210      83B80800 
 211 0118 23B0B800 		sd	a1,0(a7)
 177:src/../h/../h/../h/MemoryAllocation.hpp ****                 fmem_head->next=newfrgm->next;
 212              		.loc 2 177 17 is_stmt 1
 213              		.loc 2 177 42 is_stmt 0
 214 011c 83380700 		ld	a7,0(a4)
 215              		.loc 2 177 32
 216 0120 2330170D 		sd	a7,192(a4)
 178:src/../h/../h/../h/MemoryAllocation.hpp ****                 fmem_head->prev=newfrgm->prev;
 217              		.loc 2 178 17 is_stmt 1
 218              		.loc 2 178 32 is_stmt 0
 219 0124 2334070D 		sd	a6,200(a4)
 179:src/../h/../h/../h/MemoryAllocation.hpp ****                 fmem_head->size=newfrgm->size;
 220              		.loc 2 179 17 is_stmt 1
 221              		.loc 2 179 32 is_stmt 0
 222 0128 2338F70C 		sd	a5,208(a4)
 180:src/../h/../h/../h/MemoryAllocation.hpp ****                 //fmem_head = (FreeMem*) (char*)newfrgm;
 181:src/../h/../h/../h/MemoryAllocation.hpp ****                 return newfrgm;
 223              		.loc 2 181 17 is_stmt 1
 224              		.loc 2 181 24 is_stmt 0
 225 012c 93070700 		mv	a5,a4
 226              	.LVL10:
 227              	.L6:
 228              	.LBE29:
 229              	.LBE31:
 230              	.LBE33:
 231              	.LBE26:
 232              	.LBE25:
 233              	.LBE24:
 234              		.loc 1 23 13
 235 0130 23B0F400 		sd	a5,0(s1)
  24:src/tcb.cpp   ****     (*handle)->body=body;
 236              		.loc 1 24 5 is_stmt 1
 237              		.loc 1 24 20 is_stmt 0
 238 0134 23B0A700 		sd	a0,0(a5)
  25:src/tcb.cpp   ****     (*handle)->arguments=arguments;
 239              		.loc 1 25 5 is_stmt 1
 240              		.loc 1 25 6 is_stmt 0
 241 0138 83B70400 		ld	a5,0(s1)
 242              		.loc 1 25 25
 243 013c 23B4C702 		sd	a2,40(a5)
  26:src/tcb.cpp   ****     (*handle)->stack = body ? (uint64*) MemoryAllocation::mem_alloc(MemoryAllocation::bytesToBlocks
 244              		.loc 1 26 5 is_stmt 1
 245              		.loc 1 26 29 is_stmt 0
 246 0140 63060512 		beqz	a0,.L30
 247              	.LVL11:
GAS LISTING /tmp/ccg0UQxT.s 			page 9


  69:src/../h/../h/../h/MemoryAllocation.hpp ****     }
 248              		.loc 2 69 9 is_stmt 1
 249              	.LBB37:
 250              	.LBB38:
 155:src/../h/../h/../h/MemoryAllocation.hpp ****         for (FreeMem* cur = fmem_head; cur != nullptr; cur=cur->next){ // U DRUGOJ ITERACIJI FMEM_H
 251              		.loc 2 155 9
 156:src/../h/../h/../h/MemoryAllocation.hpp ****             cur->next=fmem_head->next;
 252              		.loc 2 156 9
 253              	.LBB39:
 156:src/../h/../h/../h/MemoryAllocation.hpp ****             cur->next=fmem_head->next;
 254              		.loc 2 156 23 is_stmt 0
 255 0144 97070000 		la	a5,_ZN16MemoryAllocation9fmem_headE
 255      83B70700 
 256 014c 83B70700 		ld	a5,0(a5)
 257              	.LVL12:
 258              	.L17:
 156:src/../h/../h/../h/MemoryAllocation.hpp ****             cur->next=fmem_head->next;
 259              		.loc 2 156 44 is_stmt 1
 260 0150 63800712 		beqz	a5,.L15
 261              	.LBB40:
 157:src/../h/../h/../h/MemoryAllocation.hpp ****             cur->prev=fmem_head->prev;
 262              		.loc 2 157 13
 157:src/../h/../h/../h/MemoryAllocation.hpp ****             cur->prev=fmem_head->prev;
 263              		.loc 2 157 34 is_stmt 0
 264 0154 17070000 		la	a4,_ZN16MemoryAllocation9fmem_headE
 264      03370700 
 265 015c 03360700 		ld	a2,0(a4)
 266 0160 83350600 		ld	a1,0(a2)
 157:src/../h/../h/../h/MemoryAllocation.hpp ****             cur->prev=fmem_head->prev;
 267              		.loc 2 157 22
 268 0164 23B0B700 		sd	a1,0(a5)
 158:src/../h/../h/../h/MemoryAllocation.hpp ****             if (cur->size<size) continue;
 269              		.loc 2 158 13 is_stmt 1
 158:src/../h/../h/../h/MemoryAllocation.hpp ****             if (cur->size<size) continue;
 270              		.loc 2 158 34 is_stmt 0
 271 0168 03370700 		ld	a4,0(a4)
 272 016c 03388700 		ld	a6,8(a4)
 158:src/../h/../h/../h/MemoryAllocation.hpp ****             if (cur->size<size) continue;
 273              		.loc 2 158 22
 274 0170 23B40701 		sd	a6,8(a5)
 159:src/../h/../h/../h/MemoryAllocation.hpp ****             if (cur->size-size<=sizeof(FreeMem)){
 275              		.loc 2 159 13 is_stmt 1
 159:src/../h/../h/../h/MemoryAllocation.hpp ****             if (cur->size-size<=sizeof(FreeMem)){
 276              		.loc 2 159 22 is_stmt 0
 277 0174 03B70701 		ld	a4,16(a5)
 159:src/../h/../h/../h/MemoryAllocation.hpp ****             if (cur->size-size<=sizeof(FreeMem)){
 278              		.loc 2 159 13
 279 0178 37160000 		li	a2,4096
 280 017c 1306F603 		addi	a2,a2,63
 281 0180 6374E604 		bleu	a4,a2,.L31
 160:src/../h/../h/../h/MemoryAllocation.hpp ****                 if (cur->prev) cur->prev->next = cur->next;
 282              		.loc 2 160 13 is_stmt 1
 283              	.LBB41:
 160:src/../h/../h/../h/MemoryAllocation.hpp ****                 if (cur->prev) cur->prev->next = cur->next;
 284              		.loc 2 160 26 is_stmt 0
 285 0184 37F6FFFF 		li	a2,-4096
 286 0188 130606FC 		addi	a2,a2,-64
GAS LISTING /tmp/ccg0UQxT.s 			page 10


 287 018c 3307C700 		add	a4,a4,a2
 160:src/../h/../h/../h/MemoryAllocation.hpp ****                 if (cur->prev) cur->prev->next = cur->next;
 288              		.loc 2 160 13
 289 0190 13068001 		li	a2,24
 290 0194 6366E604 		bgtu	a4,a2,.L18
 161:src/../h/../h/../h/MemoryAllocation.hpp ****                 else fmem_head = cur->next;
 291              		.loc 2 161 17 is_stmt 1
 292 0198 630C0802 		beqz	a6,.L19
 161:src/../h/../h/../h/MemoryAllocation.hpp ****                 else fmem_head = cur->next;
 293              		.loc 2 161 32
 161:src/../h/../h/../h/MemoryAllocation.hpp ****                 else fmem_head = cur->next;
 294              		.loc 2 161 48 is_stmt 0
 295 019c 2330B800 		sd	a1,0(a6)
 296              	.L20:
 163:src/../h/../h/../h/MemoryAllocation.hpp ****                 return cur;
 297              		.loc 2 163 17 is_stmt 1
 163:src/../h/../h/../h/MemoryAllocation.hpp ****                 return cur;
 298              		.loc 2 163 26 is_stmt 0
 299 01a0 03B70700 		ld	a4,0(a5)
 163:src/../h/../h/../h/MemoryAllocation.hpp ****                 return cur;
 300              		.loc 2 163 17
 301 01a4 6306070C 		beqz	a4,.L15
 163:src/../h/../h/../h/MemoryAllocation.hpp ****                 return cur;
 302              		.loc 2 163 32 is_stmt 1
 163:src/../h/../h/../h/MemoryAllocation.hpp ****                 return cur;
 303              		.loc 2 163 55 is_stmt 0
 304 01a8 03B68700 		ld	a2,8(a5)
 163:src/../h/../h/../h/MemoryAllocation.hpp ****                 return cur;
 305              		.loc 2 163 48
 306 01ac 2334C700 		sd	a2,8(a4)
 164:src/../h/../h/../h/MemoryAllocation.hpp ****             }else {
 307              		.loc 2 164 17 is_stmt 1
 164:src/../h/../h/../h/MemoryAllocation.hpp ****             }else {
 308              		.loc 2 164 24 is_stmt 0
 309 01b0 6F00000C 		j	.L15
 310              	.LVL13:
 311              	.L12:
 312              	.LBE41:
 313              	.LBE40:
 314              	.LBE39:
 315              	.LBE38:
 316              	.LBE37:
 317              	.LBB47:
 318              	.LBB36:
 319              	.LBB35:
 320              	.LBB34:
 321              	.LBB32:
 322              	.LBB30:
 171:src/../h/../h/../h/MemoryAllocation.hpp ****                 if (cur && cur->next) cur->next->prev = newfrgm;
 323              		.loc 2 171 22 is_stmt 1
 171:src/../h/../h/../h/MemoryAllocation.hpp ****                 if (cur && cur->next) cur->next->prev = newfrgm;
 324              		.loc 2 171 41 is_stmt 0
 325 01b4 9305070C 		addi	a1,a4,192
 171:src/../h/../h/../h/MemoryAllocation.hpp ****                 if (cur && cur->next) cur->next->prev = newfrgm;
 326              		.loc 2 171 32
 327 01b8 17080000 		la	a6,_ZN16MemoryAllocation9fmem_headE
 327      03380800 
GAS LISTING /tmp/ccg0UQxT.s 			page 11


 328 01c0 2330B800 		sd	a1,0(a6)
 329 01c4 6FF01FF2 		j	.L13
 330              	.LVL14:
 331              	.L31:
 332              	.LBE30:
 333              	.LBE32:
 334              	.LBE34:
 335              	.LBE35:
 336              	.LBE36:
 337              	.LBE47:
 338              	.LBB48:
 339              	.LBB46:
 340              	.LBB45:
 156:src/../h/../h/../h/MemoryAllocation.hpp ****             cur->next=fmem_head->next;
 341              		.loc 2 156 59
 342 01c8 93870500 		mv	a5,a1
 343              	.LVL15:
 344 01cc 6FF05FF8 		j	.L17
 345              	.LVL16:
 346              	.L19:
 347              	.LBB44:
 348              	.LBB43:
 162:src/../h/../h/../h/MemoryAllocation.hpp ****                 if (cur->next) cur->next->prev = cur->prev;
 349              		.loc 2 162 22 is_stmt 1
 162:src/../h/../h/../h/MemoryAllocation.hpp ****                 if (cur->next) cur->next->prev = cur->prev;
 350              		.loc 2 162 32 is_stmt 0
 351 01d0 17070000 		la	a4,_ZN16MemoryAllocation9fmem_headE
 351      03370700 
 352 01d8 2330B700 		sd	a1,0(a4)
 353 01dc 6FF05FFC 		j	.L20
 354              	.L18:
 355              	.LBB42:
 166:src/../h/../h/../h/MemoryAllocation.hpp ****                 newfrgm->prev=nullptr;
 356              		.loc 2 166 17 is_stmt 1
 166:src/../h/../h/../h/MemoryAllocation.hpp ****                 newfrgm->prev=nullptr;
 357              		.loc 2 166 26 is_stmt 0
 358 01e0 37170000 		li	a4,4096
 359 01e4 13070704 		addi	a4,a4,64
 360 01e8 3387E700 		add	a4,a5,a4
 361              	.LVL17:
 167:src/../h/../h/../h/MemoryAllocation.hpp ****                 newfrgm->next=nullptr;
 362              		.loc 2 167 17 is_stmt 1
 167:src/../h/../h/../h/MemoryAllocation.hpp ****                 newfrgm->next=nullptr;
 363              		.loc 2 167 30 is_stmt 0
 364 01ec 23340700 		sd	zero,8(a4)
 168:src/../h/../h/../h/MemoryAllocation.hpp ****                 //newfrgm->size=cur->size-size;// DODATO TOKOM PROBE NITI
 365              		.loc 2 168 17 is_stmt 1
 168:src/../h/../h/../h/MemoryAllocation.hpp ****                 //newfrgm->size=cur->size-size;// DODATO TOKOM PROBE NITI
 366              		.loc 2 168 30 is_stmt 0
 367 01f0 23300700 		sd	zero,0(a4)
 170:src/../h/../h/../h/MemoryAllocation.hpp ****                 else fmem_head = newfrgm+sizeof(fmem_head); // ovo sam dodao sizeof da bi mi radio 
 368              		.loc 2 170 17 is_stmt 1
 170:src/../h/../h/../h/MemoryAllocation.hpp ****                 else fmem_head = newfrgm+sizeof(fmem_head); // ovo sam dodao sizeof da bi mi radio 
 369              		.loc 2 170 33 is_stmt 0
 370 01f4 03B68700 		ld	a2,8(a5)
 170:src/../h/../h/../h/MemoryAllocation.hpp ****                 else fmem_head = newfrgm+sizeof(fmem_head); // ovo sam dodao sizeof da bi mi radio 
 371              		.loc 2 170 25
GAS LISTING /tmp/ccg0UQxT.s 			page 12


 372 01f8 63000606 		beqz	a2,.L22
 170:src/../h/../h/../h/MemoryAllocation.hpp ****                 else fmem_head = newfrgm+sizeof(fmem_head); // ovo sam dodao sizeof da bi mi radio 
 373              		.loc 2 170 39 is_stmt 1
 170:src/../h/../h/../h/MemoryAllocation.hpp ****                 else fmem_head = newfrgm+sizeof(fmem_head); // ovo sam dodao sizeof da bi mi radio 
 374              		.loc 2 170 55 is_stmt 0
 375 01fc 2330E600 		sd	a4,0(a2)
 376              	.L23:
 172:src/../h/../h/../h/MemoryAllocation.hpp ****                 newfrgm->prev = cur->prev;
 377              		.loc 2 172 17 is_stmt 1
 172:src/../h/../h/../h/MemoryAllocation.hpp ****                 newfrgm->prev = cur->prev;
 378              		.loc 2 172 33 is_stmt 0
 379 0200 03B60700 		ld	a2,0(a5)
 172:src/../h/../h/../h/MemoryAllocation.hpp ****                 newfrgm->prev = cur->prev;
 380              		.loc 2 172 25
 381 0204 63040600 		beqz	a2,.L24
 172:src/../h/../h/../h/MemoryAllocation.hpp ****                 newfrgm->prev = cur->prev;
 382              		.loc 2 172 39 is_stmt 1
 172:src/../h/../h/../h/MemoryAllocation.hpp ****                 newfrgm->prev = cur->prev;
 383              		.loc 2 172 55 is_stmt 0
 384 0208 2334E600 		sd	a4,8(a2)
 385              	.L24:
 173:src/../h/../h/../h/MemoryAllocation.hpp ****                 newfrgm->next = cur->next;
 386              		.loc 2 173 17 is_stmt 1
 173:src/../h/../h/../h/MemoryAllocation.hpp ****                 newfrgm->next = cur->next;
 387              		.loc 2 173 38 is_stmt 0
 388 020c 83B58700 		ld	a1,8(a5)
 173:src/../h/../h/../h/MemoryAllocation.hpp ****                 newfrgm->next = cur->next;
 389              		.loc 2 173 31
 390 0210 2334B700 		sd	a1,8(a4)
 174:src/../h/../h/../h/MemoryAllocation.hpp ****                 newfrgm->size = cur->size-size;
 391              		.loc 2 174 17 is_stmt 1
 174:src/../h/../h/../h/MemoryAllocation.hpp ****                 newfrgm->size = cur->size-size;
 392              		.loc 2 174 38 is_stmt 0
 393 0214 03B60700 		ld	a2,0(a5)
 174:src/../h/../h/../h/MemoryAllocation.hpp ****                 newfrgm->size = cur->size-size;
 394              		.loc 2 174 31
 395 0218 2330C700 		sd	a2,0(a4)
 175:src/../h/../h/../h/MemoryAllocation.hpp ****                 fmem_head =newfrgm+sizeof(fmem_head);
 396              		.loc 2 175 17 is_stmt 1
 175:src/../h/../h/../h/MemoryAllocation.hpp ****                 fmem_head =newfrgm+sizeof(fmem_head);
 397              		.loc 2 175 38 is_stmt 0
 398 021c 83B70701 		ld	a5,16(a5)
 399              	.LVL18:
 175:src/../h/../h/../h/MemoryAllocation.hpp ****                 fmem_head =newfrgm+sizeof(fmem_head);
 400              		.loc 2 175 42
 401 0220 37F6FFFF 		li	a2,-4096
 402 0224 130606FC 		addi	a2,a2,-64
 403 0228 B387C700 		add	a5,a5,a2
 175:src/../h/../h/../h/MemoryAllocation.hpp ****                 fmem_head =newfrgm+sizeof(fmem_head);
 404              		.loc 2 175 31
 405 022c 2338F700 		sd	a5,16(a4)
 176:src/../h/../h/../h/MemoryAllocation.hpp ****                 fmem_head->next=newfrgm->next;
 406              		.loc 2 176 17 is_stmt 1
 176:src/../h/../h/../h/MemoryAllocation.hpp ****                 fmem_head->next=newfrgm->next;
 407              		.loc 2 176 35 is_stmt 0
 408 0230 1306070C 		addi	a2,a4,192
 176:src/../h/../h/../h/MemoryAllocation.hpp ****                 fmem_head->next=newfrgm->next;
GAS LISTING /tmp/ccg0UQxT.s 			page 13


 409              		.loc 2 176 27
 410 0234 17080000 		la	a6,_ZN16MemoryAllocation9fmem_headE
 410      03380800 
 411 023c 2330C800 		sd	a2,0(a6)
 177:src/../h/../h/../h/MemoryAllocation.hpp ****                 fmem_head->prev=newfrgm->prev;
 412              		.loc 2 177 17 is_stmt 1
 177:src/../h/../h/../h/MemoryAllocation.hpp ****                 fmem_head->prev=newfrgm->prev;
 413              		.loc 2 177 42 is_stmt 0
 414 0240 03380700 		ld	a6,0(a4)
 177:src/../h/../h/../h/MemoryAllocation.hpp ****                 fmem_head->prev=newfrgm->prev;
 415              		.loc 2 177 32
 416 0244 2330070D 		sd	a6,192(a4)
 178:src/../h/../h/../h/MemoryAllocation.hpp ****                 fmem_head->size=newfrgm->size;
 417              		.loc 2 178 17 is_stmt 1
 178:src/../h/../h/../h/MemoryAllocation.hpp ****                 fmem_head->size=newfrgm->size;
 418              		.loc 2 178 32 is_stmt 0
 419 0248 2334B70C 		sd	a1,200(a4)
 179:src/../h/../h/../h/MemoryAllocation.hpp ****                 //fmem_head = (FreeMem*) (char*)newfrgm;
 420              		.loc 2 179 17 is_stmt 1
 179:src/../h/../h/../h/MemoryAllocation.hpp ****                 //fmem_head = (FreeMem*) (char*)newfrgm;
 421              		.loc 2 179 32 is_stmt 0
 422 024c 2338F70C 		sd	a5,208(a4)
 423              		.loc 2 181 17 is_stmt 1
 424              		.loc 2 181 24 is_stmt 0
 425 0250 93070700 		mv	a5,a4
 426              	.LVL19:
 427 0254 6F00C001 		j	.L15
 428              	.LVL20:
 429              	.L22:
 171:src/../h/../h/../h/MemoryAllocation.hpp ****                 if (cur && cur->next) cur->next->prev = newfrgm;
 430              		.loc 2 171 22 is_stmt 1
 171:src/../h/../h/../h/MemoryAllocation.hpp ****                 if (cur && cur->next) cur->next->prev = newfrgm;
 431              		.loc 2 171 41 is_stmt 0
 432 0258 1306070C 		addi	a2,a4,192
 171:src/../h/../h/../h/MemoryAllocation.hpp ****                 if (cur && cur->next) cur->next->prev = newfrgm;
 433              		.loc 2 171 32
 434 025c 97050000 		la	a1,_ZN16MemoryAllocation9fmem_headE
 434      83B50500 
 435 0264 23B0C500 		sd	a2,0(a1)
 436 0268 6FF09FF9 		j	.L23
 437              	.LVL21:
 438              	.L30:
 439              	.LBE42:
 440              	.LBE43:
 441              	.LBE44:
 442              	.LBE45:
 443              	.LBE46:
 444              	.LBE48:
 445              		.loc 1 26 29
 446 026c 93070000 		li	a5,0
 447              	.LVL22:
 448              	.L15:
 449              		.loc 1 26 6 discriminator 4
 450 0270 03B70400 		ld	a4,0(s1)
 451              		.loc 1 26 22 discriminator 4
 452 0274 2334F700 		sd	a5,8(a4)
  27:src/tcb.cpp   ****     (*handle)->context.ra = body ? (uint64)&threadWrapper : 0;
GAS LISTING /tmp/ccg0UQxT.s 			page 14


 453              		.loc 1 27 5 is_stmt 1 discriminator 4
 454              		.loc 1 27 34 is_stmt 0 discriminator 4
 455 0278 63000508 		beqz	a0,.L32
 456              		.loc 1 27 34 discriminator 1
 457 027c 17070000 		lla	a4,_ZN3TCB13threadWrapperEv
 457      13070700 
 458              	.L25:
 459              		.loc 1 27 6 discriminator 4
 460 0284 83B70400 		ld	a5,0(s1)
 461              		.loc 1 27 27 discriminator 4
 462 0288 23B8E700 		sd	a4,16(a5)
  28:src/tcb.cpp   ****     (*handle)->context.sp = (*handle)->stack ? (uint64) &(*handle)->stack[DEFAULT_STACK_SIZE] : 0;
 463              		.loc 1 28 5 is_stmt 1 discriminator 4
 464              		.loc 1 28 30 is_stmt 0 discriminator 4
 465 028c 03B70400 		ld	a4,0(s1)
 466              		.loc 1 28 40 discriminator 4
 467 0290 83378700 		ld	a5,8(a4)
 468              		.loc 1 28 46 discriminator 4
 469 0294 63860706 		beqz	a5,.L33
 470              		.loc 1 28 57 discriminator 1
 471 0298 37860000 		li	a2,32768
 472 029c B387C700 		add	a5,a5,a2
 473              	.L26:
 474              		.loc 1 28 27 discriminator 4
 475 02a0 233CF700 		sd	a5,24(a4)
  29:src/tcb.cpp   ****     (*handle)->finished=false;
 476              		.loc 1 29 5 is_stmt 1 discriminator 4
 477              		.loc 1 29 6 is_stmt 0 discriminator 4
 478 02a4 83B70400 		ld	a5,0(s1)
 479              		.loc 1 29 24 discriminator 4
 480 02a8 23800702 		sb	zero,32(a5)
  30:src/tcb.cpp   ****     (*handle)->semBlocked=nullptr;
 481              		.loc 1 30 5 is_stmt 1 discriminator 4
 482              		.loc 1 30 6 is_stmt 0 discriminator 4
 483 02ac 83B70400 		ld	a5,0(s1)
 484              		.loc 1 30 26 discriminator 4
 485 02b0 23B80702 		sd	zero,48(a5)
  31:src/tcb.cpp   ****     (*handle)->timeSlice=TIME_SLICE;
 486              		.loc 1 31 5 is_stmt 1 discriminator 4
 487              		.loc 1 31 6 is_stmt 0 discriminator 4
 488 02b4 83B70400 		ld	a5,0(s1)
 489              		.loc 1 31 25 discriminator 4
 490 02b8 13072000 		li	a4,2
 491 02bc 23BCE702 		sd	a4,56(a5)
  32:src/tcb.cpp   ****     (*handle)->threadStarted=started;
 492              		.loc 1 32 5 is_stmt 1 discriminator 4
 493              		.loc 1 32 6 is_stmt 0 discriminator 4
 494 02c0 83B70400 		ld	a5,0(s1)
 495              		.loc 1 32 29 discriminator 4
 496 02c4 2380D704 		sb	a3,64(a5)
  33:src/tcb.cpp   ****     if (body != nullptr && (*handle)->isStarted()==true) { Scheduler::put(*handle); }
 497              		.loc 1 33 5 is_stmt 1 discriminator 4
 498              		.loc 1 33 25 is_stmt 0 discriminator 4
 499 02c8 63080500 		beqz	a0,.L27
 500              		.loc 1 33 48 discriminator 1
 501 02cc 03B50400 		ld	a0,0(s1)
 502              	.LVL23:
GAS LISTING /tmp/ccg0UQxT.s 			page 15


 503              	.LBB49:
 504              	.LBB50:
 505              		.file 3 "src/../h/tcb.hpp"
   1:src/../h/tcb.hpp **** //
   2:src/../h/tcb.hpp **** // Created by os on 8/14/22.
   3:src/../h/tcb.hpp **** //
   4:src/../h/tcb.hpp **** 
   5:src/../h/tcb.hpp **** #ifndef PROJECT_BASE_TCB_HPP
   6:src/../h/tcb.hpp **** #define PROJECT_BASE_TCB_HPP
   7:src/../h/tcb.hpp **** #include "../lib/hw.h"
   8:src/../h/tcb.hpp **** #include "../h/Scheduler.hpp"
   9:src/../h/tcb.hpp **** #include "../h/MemoryAllocation.hpp"
  10:src/../h/tcb.hpp **** #include "../h/semaphore.hpp"
  11:src/../h/tcb.hpp **** #include "../h/printing.hpp"
  12:src/../h/tcb.hpp **** 
  13:src/../h/tcb.hpp **** class TCB {
  14:src/../h/tcb.hpp **** 
  15:src/../h/tcb.hpp **** public:
  16:src/../h/tcb.hpp ****     void* operator new(uint64 n){//promenjeno uint64 u size_t
  17:src/../h/tcb.hpp ****         return MemoryAllocation::mem_alloc(MemoryAllocation::bytesToBlocks(n)); //njemu je samo __m
  18:src/../h/tcb.hpp ****         //return __mem_alloc(n);
  19:src/../h/tcb.hpp ****     }
  20:src/../h/tcb.hpp **** 
  21:src/../h/tcb.hpp ****     void* operator new[](uint64 n){
  22:src/../h/tcb.hpp ****         return MemoryAllocation::mem_alloc(MemoryAllocation::bytesToBlocks(n));
  23:src/../h/tcb.hpp ****         //return __mem_alloc(n);
  24:src/../h/tcb.hpp ****     }
  25:src/../h/tcb.hpp **** 
  26:src/../h/tcb.hpp ****     void operator delete(void *p) noexcept {
  27:src/../h/tcb.hpp ****         MemoryAllocation::mem_free(p);
  28:src/../h/tcb.hpp ****         //__mem_free(p);
  29:src/../h/tcb.hpp ****     }
  30:src/../h/tcb.hpp **** 
  31:src/../h/tcb.hpp ****     void operator delete[] (void *p) noexcept{
  32:src/../h/tcb.hpp ****         MemoryAllocation::mem_free(p);
  33:src/../h/tcb.hpp ****         //__mem_free(p);
  34:src/../h/tcb.hpp ****     }
  35:src/../h/tcb.hpp **** 
  36:src/../h/tcb.hpp ****     ~TCB() { delete[] stack; }
  37:src/../h/tcb.hpp **** 
  38:src/../h/tcb.hpp ****     using Body = void (*)(void*); //mislim da mora da se promeni ovaj body sa nekim argumentima, i 
  39:src/../h/tcb.hpp **** 
  40:src/../h/tcb.hpp ****     static int createThread(Body body, TCB** handle, void* arguments, bool started);
  41:src/../h/tcb.hpp **** 
  42:src/../h/tcb.hpp ****     static void thread_dispatch(){dispatch();}
  43:src/../h/tcb.hpp **** 
  44:src/../h/tcb.hpp ****     static int thread_exit(){
  45:src/../h/tcb.hpp ****         running->setFinished(true);
  46:src/../h/tcb.hpp ****         dispatch();
  47:src/../h/tcb.hpp ****         //running nullptr->negativna
  48:src/../h/tcb.hpp ****         return 0;
  49:src/../h/tcb.hpp ****     };
  50:src/../h/tcb.hpp **** 
  51:src/../h/tcb.hpp ****     void setStarted(TCB** handle){
  52:src/../h/tcb.hpp ****         (*handle)->threadStarted=true;
  53:src/../h/tcb.hpp ****     }
  54:src/../h/tcb.hpp **** 
GAS LISTING /tmp/ccg0UQxT.s 			page 16


  55:src/../h/tcb.hpp ****     bool isStarted() {
  56:src/../h/tcb.hpp ****         return threadStarted;
 506              		.loc 3 56 9 is_stmt 1 discriminator 1
 507              		.loc 3 56 16 is_stmt 0 discriminator 1
 508 02d0 83470504 		lbu	a5,64(a0)
 509              	.LVL24:
 510              	.LBE50:
 511              	.LBE49:
 512              		.loc 1 33 25 discriminator 1
 513 02d4 639A0702 		bnez	a5,.L36
 514              	.LVL25:
 515              	.L27:
  34:src/tcb.cpp   ****     if(*handle==nullptr){
 516              		.loc 1 34 5 is_stmt 1
 517              		.loc 1 34 8 is_stmt 0
 518 02d8 83B70400 		ld	a5,0(s1)
 519              		.loc 1 34 5
 520 02dc 638C0702 		beqz	a5,.L37
  35:src/tcb.cpp   ****         return -1;
  36:src/tcb.cpp   ****     }else{return 0;}
 521              		.loc 1 36 18
 522 02e0 13050000 		li	a0,0
 523              	.L28:
  37:src/tcb.cpp   **** }
 524              		.loc 1 37 1
 525 02e4 83308101 		ld	ra,24(sp)
 526              		.cfi_remember_state
 527              		.cfi_restore 1
 528 02e8 03340101 		ld	s0,16(sp)
 529              		.cfi_restore 8
 530              		.cfi_def_cfa 2, 32
 531 02ec 83348100 		ld	s1,8(sp)
 532              		.cfi_restore 9
 533              	.LVL26:
 534 02f0 13010102 		addi	sp,sp,32
 535              		.cfi_def_cfa_offset 0
 536 02f4 67800000 		jr	ra
 537              	.LVL27:
 538              	.L32:
 539              		.cfi_restore_state
  27:src/tcb.cpp   ****     (*handle)->context.sp = (*handle)->stack ? (uint64) &(*handle)->stack[DEFAULT_STACK_SIZE] : 0;
 540              		.loc 1 27 34
 541 02f8 13070000 		li	a4,0
 542 02fc 6FF09FF8 		j	.L25
 543              	.L33:
  28:src/tcb.cpp   ****     (*handle)->finished=false;
 544              		.loc 1 28 46
 545 0300 93070000 		li	a5,0
 546 0304 6FF0DFF9 		j	.L26
 547              	.LVL28:
 548              	.L36:
  33:src/tcb.cpp   ****     if(*handle==nullptr){
 549              		.loc 1 33 60 is_stmt 1
  33:src/tcb.cpp   ****     if(*handle==nullptr){
 550              		.loc 1 33 74 is_stmt 0
 551 0308 97000000 		call	_ZN9Scheduler3putEP3TCB@plt
 551      E7800000 
GAS LISTING /tmp/ccg0UQxT.s 			page 17


 552              	.LVL29:
 553 0310 6FF09FFC 		j	.L27
 554              	.L37:
  35:src/tcb.cpp   ****     }else{return 0;}
 555              		.loc 1 35 17
 556 0314 1305F0FF 		li	a0,-1
 557 0318 6FF0DFFC 		j	.L28
 558              		.cfi_endproc
 559              	.LFE50:
 561              		.align	2
 562              		.globl	_ZN3TCB5yieldEv
 564              	_ZN3TCB5yieldEv:
 565              	.LFB51:
  38:src/tcb.cpp   **** 
  39:src/tcb.cpp   **** void TCB::yield(){
 566              		.loc 1 39 18 is_stmt 1
 567              		.cfi_startproc
 568 031c 130101FF 		addi	sp,sp,-16
 569              		.cfi_def_cfa_offset 16
 570 0320 23348100 		sd	s0,8(sp)
 571              		.cfi_offset 8, -8
 572 0324 13040101 		addi	s0,sp,16
 573              		.cfi_def_cfa 8, 0
  40:src/tcb.cpp   ****     uint64 sysCallNr=0x13UL;
 574              		.loc 1 40 5
 575              	.LVL30:
  41:src/tcb.cpp   ****     __asm__ volatile("mv a0, %0" : : [sysCallNr] "r" (sysCallNr));
 576              		.loc 1 41 5
 577              		.loc 1 41 66 is_stmt 0
 578 0328 93073001 		li	a5,19
 579              	#APP
 580              	# 41 "src/tcb.cpp" 1
  42              	    __asm__ volatile ("ecall");
 581              		mv a0, a5
 582              	# 0 "" 2
 583              		.loc 1 42 5 is_stmt 1
 584              		.loc 1 42 31 is_stmt 0
 585              	# 42 "src/tcb.cpp" 1
  43              	
  44:src/tcb.cpp   **** };
 586              		ecall
 587              	# 0 "" 2
 588              		.loc 1 44 1
 589              	#NO_APP
 590 0334 03348100 		ld	s0,8(sp)
 591              		.cfi_restore 8
 592              		.cfi_def_cfa 2, 16
 593 0338 13010101 		addi	sp,sp,16
 594              		.cfi_def_cfa_offset 0
 595 033c 67800000 		jr	ra
 596              		.cfi_endproc
 597              	.LFE51:
 599              		.align	2
 600              		.globl	_ZN3TCB13threadWrapperEv
 602              	_ZN3TCB13threadWrapperEv:
 603              	.LFB53:
  45:src/tcb.cpp   **** 
GAS LISTING /tmp/ccg0UQxT.s 			page 18


  46:src/tcb.cpp   **** void TCB::dispatch() {
  47:src/tcb.cpp   ****     TCB *old = running;
  48:src/tcb.cpp   ****     if (old->semBlocked==nullptr && !old->isFinished()) {
  49:src/tcb.cpp   ****         Scheduler::put(old);
  50:src/tcb.cpp   ****     }
  51:src/tcb.cpp   ****     running = Scheduler::get();
  52:src/tcb.cpp   **** 
  53:src/tcb.cpp   ****     TCB::contextSwitch(&old->context, &running->context);
  54:src/tcb.cpp   **** }
  55:src/tcb.cpp   **** 
  56:src/tcb.cpp   **** void TCB::threadWrapper() {
 604              		.loc 1 56 27 is_stmt 1
 605              		.cfi_startproc
 606 0340 130101FE 		addi	sp,sp,-32
 607              		.cfi_def_cfa_offset 32
 608 0344 233C1100 		sd	ra,24(sp)
 609 0348 23388100 		sd	s0,16(sp)
 610 034c 23349100 		sd	s1,8(sp)
 611              		.cfi_offset 1, -8
 612              		.cfi_offset 8, -16
 613              		.cfi_offset 9, -24
 614 0350 13040102 		addi	s0,sp,32
 615              		.cfi_def_cfa 8, 0
  57:src/tcb.cpp   ****     //RiscV::popSppSpie();
  58:src/tcb.cpp   ****     __asm__ volatile ("csrw sepc, ra");
 616              		.loc 1 58 5
 617              		.loc 1 58 39 is_stmt 0
 618              	#APP
 619              	# 58 "src/tcb.cpp" 1
  59              	    //__asm__ volatile ("sret");
  60:src/tcb.cpp   ****     running->body(running->arguments);
 620              		csrw sepc, ra
 621              	# 0 "" 2
 622              		.loc 1 60 5 is_stmt 1
 623              		.loc 1 60 14 is_stmt 0
 624              	#NO_APP
 625 0358 97040000 		lla	s1,.LANCHOR0
 625      93840400 
 626 0360 83B70400 		ld	a5,0(s1)
 627 0364 03B70700 		ld	a4,0(a5)
 628              		.loc 1 60 18
 629 0368 03B58702 		ld	a0,40(a5)
 630 036c E7000700 		jalr	a4
 631              	.LVL31:
  61:src/tcb.cpp   ****     running->setFinished(true);
 632              		.loc 1 61 5 is_stmt 1
 633              		.loc 1 61 25 is_stmt 0
 634 0370 93051000 		li	a1,1
 635 0374 03B50400 		ld	a0,0(s1)
 636 0378 97000000 		call	_ZN3TCB11setFinishedEb
 636      E7800000 
 637              	.LVL32:
  62:src/tcb.cpp   ****     TCB::yield();
 638              		.loc 1 62 5 is_stmt 1
 639              		.loc 1 62 15 is_stmt 0
 640 0380 97000000 		call	_ZN3TCB5yieldEv
 640      E7800000 
GAS LISTING /tmp/ccg0UQxT.s 			page 19


 641              	.LVL33:
  63:src/tcb.cpp   **** }
 642              		.loc 1 63 1
 643 0388 83308101 		ld	ra,24(sp)
 644              		.cfi_restore 1
 645 038c 03340101 		ld	s0,16(sp)
 646              		.cfi_restore 8
 647              		.cfi_def_cfa 2, 32
 648 0390 83348100 		ld	s1,8(sp)
 649              		.cfi_restore 9
 650 0394 13010102 		addi	sp,sp,32
 651              		.cfi_def_cfa_offset 0
 652 0398 67800000 		jr	ra
 653              		.cfi_endproc
 654              	.LFE53:
 656              		.align	2
 657              		.globl	_ZN3TCB8dispatchEv
 659              	_ZN3TCB8dispatchEv:
 660              	.LFB52:
  46:src/tcb.cpp   ****     TCB *old = running;
 661              		.loc 1 46 22 is_stmt 1
 662              		.cfi_startproc
 663 039c 130101FE 		addi	sp,sp,-32
 664              		.cfi_def_cfa_offset 32
 665 03a0 233C1100 		sd	ra,24(sp)
 666 03a4 23388100 		sd	s0,16(sp)
 667 03a8 23349100 		sd	s1,8(sp)
 668              		.cfi_offset 1, -8
 669              		.cfi_offset 8, -16
 670              		.cfi_offset 9, -24
 671 03ac 13040102 		addi	s0,sp,32
 672              		.cfi_def_cfa 8, 0
  47:src/tcb.cpp   ****     if (old->semBlocked==nullptr && !old->isFinished()) {
 673              		.loc 1 47 5
  47:src/tcb.cpp   ****     if (old->semBlocked==nullptr && !old->isFinished()) {
 674              		.loc 1 47 10 is_stmt 0
 675 03b0 97040000 		ld	s1,.LANCHOR0
 675      83B40400 
 676              	.LVL34:
  48:src/tcb.cpp   ****         Scheduler::put(old);
 677              		.loc 1 48 5 is_stmt 1
  48:src/tcb.cpp   ****         Scheduler::put(old);
 678              		.loc 1 48 14 is_stmt 0
 679 03b8 83B70403 		ld	a5,48(s1)
  48:src/tcb.cpp   ****         Scheduler::put(old);
 680              		.loc 1 48 34
 681 03bc 638C0702 		beqz	a5,.L45
 682              	.L43:
  51:src/tcb.cpp   **** 
 683              		.loc 1 51 5 is_stmt 1
  51:src/tcb.cpp   **** 
 684              		.loc 1 51 29 is_stmt 0
 685 03c0 97000000 		call	_ZN9Scheduler3getEv@plt
 685      E7800000 
 686              	.LVL35:
  51:src/tcb.cpp   **** 
 687              		.loc 1 51 13
GAS LISTING /tmp/ccg0UQxT.s 			page 20


 688 03c8 97070000 		sd	a0,.LANCHOR0,a5
 688      23B0A700 
  53:src/tcb.cpp   **** }
 689              		.loc 1 53 5 is_stmt 1
  53:src/tcb.cpp   **** }
 690              		.loc 1 53 23 is_stmt 0
 691 03d0 93050501 		addi	a1,a0,16
 692 03d4 13850401 		addi	a0,s1,16
 693 03d8 97000000 		call	_ZN3TCB13contextSwitchEPNS_7ContextES1_@plt
 693      E7800000 
 694              	.LVL36:
  54:src/tcb.cpp   **** 
 695              		.loc 1 54 1
 696 03e0 83308101 		ld	ra,24(sp)
 697              		.cfi_remember_state
 698              		.cfi_restore 1
 699 03e4 03340101 		ld	s0,16(sp)
 700              		.cfi_restore 8
 701              		.cfi_def_cfa 2, 32
 702 03e8 83348100 		ld	s1,8(sp)
 703              		.cfi_restore 9
 704              	.LVL37:
 705 03ec 13010102 		addi	sp,sp,32
 706              		.cfi_def_cfa_offset 0
 707 03f0 67800000 		jr	ra
 708              	.LVL38:
 709              	.L45:
 710              		.cfi_restore_state
  48:src/tcb.cpp   ****         Scheduler::put(old);
 711              		.loc 1 48 53 discriminator 1
 712 03f4 13850400 		mv	a0,s1
 713 03f8 97000000 		call	_ZNK3TCB10isFinishedEv
 713      E7800000 
 714              	.LVL39:
  48:src/tcb.cpp   ****         Scheduler::put(old);
 715              		.loc 1 48 34 discriminator 1
 716 0400 E31005FC 		bnez	a0,.L43
  49:src/tcb.cpp   ****     }
 717              		.loc 1 49 9 is_stmt 1
  49:src/tcb.cpp   ****     }
 718              		.loc 1 49 23 is_stmt 0
 719 0404 13850400 		mv	a0,s1
 720 0408 97000000 		call	_ZN9Scheduler3putEP3TCB@plt
 720      E7800000 
 721              	.LVL40:
 722 0410 6FF01FFB 		j	.L43
 723              		.cfi_endproc
 724              	.LFE52:
 726              		.align	2
 727              		.globl	_ZN3TCB11startThreadEPPS_PFvPvE
 729              	_ZN3TCB11startThreadEPPS_PFvPvE:
 730              	.LFB54:
  64:src/tcb.cpp   **** 
  65:src/tcb.cpp   **** void TCB::startThread(TCB **handle, TCB::Body body) {
 731              		.loc 1 65 53 is_stmt 1
 732              		.cfi_startproc
 733              	.LVL41:
GAS LISTING /tmp/ccg0UQxT.s 			page 21


 734 0414 130101FF 		addi	sp,sp,-16
 735              		.cfi_def_cfa_offset 16
 736 0418 23341100 		sd	ra,8(sp)
 737 041c 23308100 		sd	s0,0(sp)
 738              		.cfi_offset 1, -8
 739              		.cfi_offset 8, -16
 740 0420 13040101 		addi	s0,sp,16
 741              		.cfi_def_cfa 8, 0
  66:src/tcb.cpp   ****     (*handle)->body=body;
 742              		.loc 1 66 5
 743              		.loc 1 66 6 is_stmt 0
 744 0424 83370500 		ld	a5,0(a0)
 745              		.loc 1 66 20
 746 0428 23B0B700 		sd	a1,0(a5)
  67:src/tcb.cpp   ****     (*handle)->stack = body ? (uint64*) MemoryAllocation::mem_alloc(MemoryAllocation::bytesToBlocks
 747              		.loc 1 67 5 is_stmt 1
 748              		.loc 1 67 29 is_stmt 0
 749 042c 638C0510 		beqz	a1,.L59
 750              	.LVL42:
  69:src/../h/../h/../h/MemoryAllocation.hpp ****     }
 751              		.loc 2 69 9 is_stmt 1
 752              	.LBB57:
 753              	.LBB58:
 155:src/../h/../h/../h/MemoryAllocation.hpp ****         for (FreeMem* cur = fmem_head; cur != nullptr; cur=cur->next){ // U DRUGOJ ITERACIJI FMEM_H
 754              		.loc 2 155 9
 156:src/../h/../h/../h/MemoryAllocation.hpp ****             cur->next=fmem_head->next;
 755              		.loc 2 156 9
 756              	.LBB59:
 156:src/../h/../h/../h/MemoryAllocation.hpp ****             cur->next=fmem_head->next;
 757              		.loc 2 156 23 is_stmt 0
 758 0430 97070000 		la	a5,_ZN16MemoryAllocation9fmem_headE
 758      83B70700 
 759 0438 83B70700 		ld	a5,0(a5)
 760              	.LVL43:
 761              	.L49:
 156:src/../h/../h/../h/MemoryAllocation.hpp ****             cur->next=fmem_head->next;
 762              		.loc 2 156 44 is_stmt 1
 763 043c 63860710 		beqz	a5,.L47
 764              	.LBB60:
 157:src/../h/../h/../h/MemoryAllocation.hpp ****             cur->prev=fmem_head->prev;
 765              		.loc 2 157 13
 157:src/../h/../h/../h/MemoryAllocation.hpp ****             cur->prev=fmem_head->prev;
 766              		.loc 2 157 34 is_stmt 0
 767 0440 17070000 		la	a4,_ZN16MemoryAllocation9fmem_headE
 767      03370700 
 768 0448 83360700 		ld	a3,0(a4)
 769 044c 03B60600 		ld	a2,0(a3)
 157:src/../h/../h/../h/MemoryAllocation.hpp ****             cur->prev=fmem_head->prev;
 770              		.loc 2 157 22
 771 0450 23B0C700 		sd	a2,0(a5)
 158:src/../h/../h/../h/MemoryAllocation.hpp ****             if (cur->size<size) continue;
 772              		.loc 2 158 13 is_stmt 1
 158:src/../h/../h/../h/MemoryAllocation.hpp ****             if (cur->size<size) continue;
 773              		.loc 2 158 34 is_stmt 0
 774 0454 03370700 		ld	a4,0(a4)
 775 0458 03388700 		ld	a6,8(a4)
 158:src/../h/../h/../h/MemoryAllocation.hpp ****             if (cur->size<size) continue;
GAS LISTING /tmp/ccg0UQxT.s 			page 22


 776              		.loc 2 158 22
 777 045c 23B40701 		sd	a6,8(a5)
 159:src/../h/../h/../h/MemoryAllocation.hpp ****             if (cur->size-size<=sizeof(FreeMem)){
 778              		.loc 2 159 13 is_stmt 1
 159:src/../h/../h/../h/MemoryAllocation.hpp ****             if (cur->size-size<=sizeof(FreeMem)){
 779              		.loc 2 159 22 is_stmt 0
 780 0460 03B70701 		ld	a4,16(a5)
 159:src/../h/../h/../h/MemoryAllocation.hpp ****             if (cur->size-size<=sizeof(FreeMem)){
 781              		.loc 2 159 13
 782 0464 B7160000 		li	a3,4096
 783 0468 9386F603 		addi	a3,a3,63
 784 046c 63FAE602 		bleu	a4,a3,.L60
 160:src/../h/../h/../h/MemoryAllocation.hpp ****                 if (cur->prev) cur->prev->next = cur->next;
 785              		.loc 2 160 13 is_stmt 1
 786              	.LBB61:
 160:src/../h/../h/../h/MemoryAllocation.hpp ****                 if (cur->prev) cur->prev->next = cur->next;
 787              		.loc 2 160 26 is_stmt 0
 788 0470 B7F6FFFF 		li	a3,-4096
 789 0474 938606FC 		addi	a3,a3,-64
 790 0478 3307D700 		add	a4,a4,a3
 160:src/../h/../h/../h/MemoryAllocation.hpp ****                 if (cur->prev) cur->prev->next = cur->next;
 791              		.loc 2 160 13
 792 047c 93068001 		li	a3,24
 793 0480 63ECE602 		bgtu	a4,a3,.L50
 161:src/../h/../h/../h/MemoryAllocation.hpp ****                 else fmem_head = cur->next;
 794              		.loc 2 161 17 is_stmt 1
 795 0484 63020802 		beqz	a6,.L51
 161:src/../h/../h/../h/MemoryAllocation.hpp ****                 else fmem_head = cur->next;
 796              		.loc 2 161 32
 161:src/../h/../h/../h/MemoryAllocation.hpp ****                 else fmem_head = cur->next;
 797              		.loc 2 161 48 is_stmt 0
 798 0488 2330C800 		sd	a2,0(a6)
 799              	.L52:
 163:src/../h/../h/../h/MemoryAllocation.hpp ****                 return cur;
 800              		.loc 2 163 17 is_stmt 1
 163:src/../h/../h/../h/MemoryAllocation.hpp ****                 return cur;
 801              		.loc 2 163 26 is_stmt 0
 802 048c 03B70700 		ld	a4,0(a5)
 163:src/../h/../h/../h/MemoryAllocation.hpp ****                 return cur;
 803              		.loc 2 163 17
 804 0490 630C070A 		beqz	a4,.L47
 163:src/../h/../h/../h/MemoryAllocation.hpp ****                 return cur;
 805              		.loc 2 163 32 is_stmt 1
 163:src/../h/../h/../h/MemoryAllocation.hpp ****                 return cur;
 806              		.loc 2 163 55 is_stmt 0
 807 0494 83B68700 		ld	a3,8(a5)
 163:src/../h/../h/../h/MemoryAllocation.hpp ****                 return cur;
 808              		.loc 2 163 48
 809 0498 2334D700 		sd	a3,8(a4)
 164:src/../h/../h/../h/MemoryAllocation.hpp ****             }else {
 810              		.loc 2 164 17 is_stmt 1
 164:src/../h/../h/../h/MemoryAllocation.hpp ****             }else {
 811              		.loc 2 164 24 is_stmt 0
 812 049c 6F00C00A 		j	.L47
 813              	.L60:
 814              	.LBE61:
 815              	.LBE60:
GAS LISTING /tmp/ccg0UQxT.s 			page 23


 156:src/../h/../h/../h/MemoryAllocation.hpp ****             cur->next=fmem_head->next;
 816              		.loc 2 156 59
 817 04a0 93070600 		mv	a5,a2
 818              	.LVL44:
 819 04a4 6FF09FF9 		j	.L49
 820              	.LVL45:
 821              	.L51:
 822              	.LBB64:
 823              	.LBB63:
 162:src/../h/../h/../h/MemoryAllocation.hpp ****                 if (cur->next) cur->next->prev = cur->prev;
 824              		.loc 2 162 22 is_stmt 1
 162:src/../h/../h/../h/MemoryAllocation.hpp ****                 if (cur->next) cur->next->prev = cur->prev;
 825              		.loc 2 162 32 is_stmt 0
 826 04a8 17070000 		la	a4,_ZN16MemoryAllocation9fmem_headE
 826      03370700 
 827 04b0 2330C700 		sd	a2,0(a4)
 828 04b4 6FF09FFD 		j	.L52
 829              	.L50:
 830              	.LBB62:
 166:src/../h/../h/../h/MemoryAllocation.hpp ****                 newfrgm->prev=nullptr;
 831              		.loc 2 166 17 is_stmt 1
 166:src/../h/../h/../h/MemoryAllocation.hpp ****                 newfrgm->prev=nullptr;
 832              		.loc 2 166 26 is_stmt 0
 833 04b8 37170000 		li	a4,4096
 834 04bc 13070704 		addi	a4,a4,64
 835 04c0 3387E700 		add	a4,a5,a4
 836              	.LVL46:
 167:src/../h/../h/../h/MemoryAllocation.hpp ****                 newfrgm->next=nullptr;
 837              		.loc 2 167 17 is_stmt 1
 167:src/../h/../h/../h/MemoryAllocation.hpp ****                 newfrgm->next=nullptr;
 838              		.loc 2 167 30 is_stmt 0
 839 04c4 23340700 		sd	zero,8(a4)
 168:src/../h/../h/../h/MemoryAllocation.hpp ****                 //newfrgm->size=cur->size-size;// DODATO TOKOM PROBE NITI
 840              		.loc 2 168 17 is_stmt 1
 168:src/../h/../h/../h/MemoryAllocation.hpp ****                 //newfrgm->size=cur->size-size;// DODATO TOKOM PROBE NITI
 841              		.loc 2 168 30 is_stmt 0
 842 04c8 23300700 		sd	zero,0(a4)
 170:src/../h/../h/../h/MemoryAllocation.hpp ****                 else fmem_head = newfrgm+sizeof(fmem_head); // ovo sam dodao sizeof da bi mi radio 
 843              		.loc 2 170 17 is_stmt 1
 170:src/../h/../h/../h/MemoryAllocation.hpp ****                 else fmem_head = newfrgm+sizeof(fmem_head); // ovo sam dodao sizeof da bi mi radio 
 844              		.loc 2 170 33 is_stmt 0
 845 04cc 83B68700 		ld	a3,8(a5)
 170:src/../h/../h/../h/MemoryAllocation.hpp ****                 else fmem_head = newfrgm+sizeof(fmem_head); // ovo sam dodao sizeof da bi mi radio 
 846              		.loc 2 170 25
 847 04d0 63800606 		beqz	a3,.L54
 170:src/../h/../h/../h/MemoryAllocation.hpp ****                 else fmem_head = newfrgm+sizeof(fmem_head); // ovo sam dodao sizeof da bi mi radio 
 848              		.loc 2 170 39 is_stmt 1
 170:src/../h/../h/../h/MemoryAllocation.hpp ****                 else fmem_head = newfrgm+sizeof(fmem_head); // ovo sam dodao sizeof da bi mi radio 
 849              		.loc 2 170 55 is_stmt 0
 850 04d4 23B0E600 		sd	a4,0(a3)
 851              	.L55:
 172:src/../h/../h/../h/MemoryAllocation.hpp ****                 newfrgm->prev = cur->prev;
 852              		.loc 2 172 17 is_stmt 1
 172:src/../h/../h/../h/MemoryAllocation.hpp ****                 newfrgm->prev = cur->prev;
 853              		.loc 2 172 33 is_stmt 0
 854 04d8 83B60700 		ld	a3,0(a5)
 172:src/../h/../h/../h/MemoryAllocation.hpp ****                 newfrgm->prev = cur->prev;
GAS LISTING /tmp/ccg0UQxT.s 			page 24


 855              		.loc 2 172 25
 856 04dc 63840600 		beqz	a3,.L56
 172:src/../h/../h/../h/MemoryAllocation.hpp ****                 newfrgm->prev = cur->prev;
 857              		.loc 2 172 39 is_stmt 1
 172:src/../h/../h/../h/MemoryAllocation.hpp ****                 newfrgm->prev = cur->prev;
 858              		.loc 2 172 55 is_stmt 0
 859 04e0 23B4E600 		sd	a4,8(a3)
 860              	.L56:
 173:src/../h/../h/../h/MemoryAllocation.hpp ****                 newfrgm->next = cur->next;
 861              		.loc 2 173 17 is_stmt 1
 173:src/../h/../h/../h/MemoryAllocation.hpp ****                 newfrgm->next = cur->next;
 862              		.loc 2 173 38 is_stmt 0
 863 04e4 03B68700 		ld	a2,8(a5)
 173:src/../h/../h/../h/MemoryAllocation.hpp ****                 newfrgm->next = cur->next;
 864              		.loc 2 173 31
 865 04e8 2334C700 		sd	a2,8(a4)
 174:src/../h/../h/../h/MemoryAllocation.hpp ****                 newfrgm->size = cur->size-size;
 866              		.loc 2 174 17 is_stmt 1
 174:src/../h/../h/../h/MemoryAllocation.hpp ****                 newfrgm->size = cur->size-size;
 867              		.loc 2 174 38 is_stmt 0
 868 04ec 83B60700 		ld	a3,0(a5)
 174:src/../h/../h/../h/MemoryAllocation.hpp ****                 newfrgm->size = cur->size-size;
 869              		.loc 2 174 31
 870 04f0 2330D700 		sd	a3,0(a4)
 175:src/../h/../h/../h/MemoryAllocation.hpp ****                 fmem_head =newfrgm+sizeof(fmem_head);
 871              		.loc 2 175 17 is_stmt 1
 175:src/../h/../h/../h/MemoryAllocation.hpp ****                 fmem_head =newfrgm+sizeof(fmem_head);
 872              		.loc 2 175 38 is_stmt 0
 873 04f4 83B70701 		ld	a5,16(a5)
 874              	.LVL47:
 175:src/../h/../h/../h/MemoryAllocation.hpp ****                 fmem_head =newfrgm+sizeof(fmem_head);
 875              		.loc 2 175 42
 876 04f8 B7F6FFFF 		li	a3,-4096
 877 04fc 938606FC 		addi	a3,a3,-64
 878 0500 B387D700 		add	a5,a5,a3
 175:src/../h/../h/../h/MemoryAllocation.hpp ****                 fmem_head =newfrgm+sizeof(fmem_head);
 879              		.loc 2 175 31
 880 0504 2338F700 		sd	a5,16(a4)
 176:src/../h/../h/../h/MemoryAllocation.hpp ****                 fmem_head->next=newfrgm->next;
 881              		.loc 2 176 17 is_stmt 1
 176:src/../h/../h/../h/MemoryAllocation.hpp ****                 fmem_head->next=newfrgm->next;
 882              		.loc 2 176 35 is_stmt 0
 883 0508 9306070C 		addi	a3,a4,192
 176:src/../h/../h/../h/MemoryAllocation.hpp ****                 fmem_head->next=newfrgm->next;
 884              		.loc 2 176 27
 885 050c 17080000 		la	a6,_ZN16MemoryAllocation9fmem_headE
 885      03380800 
 886 0514 2330D800 		sd	a3,0(a6)
 177:src/../h/../h/../h/MemoryAllocation.hpp ****                 fmem_head->prev=newfrgm->prev;
 887              		.loc 2 177 17 is_stmt 1
 177:src/../h/../h/../h/MemoryAllocation.hpp ****                 fmem_head->prev=newfrgm->prev;
 888              		.loc 2 177 42 is_stmt 0
 889 0518 03380700 		ld	a6,0(a4)
 177:src/../h/../h/../h/MemoryAllocation.hpp ****                 fmem_head->prev=newfrgm->prev;
 890              		.loc 2 177 32
 891 051c 2330070D 		sd	a6,192(a4)
 178:src/../h/../h/../h/MemoryAllocation.hpp ****                 fmem_head->size=newfrgm->size;
GAS LISTING /tmp/ccg0UQxT.s 			page 25


 892              		.loc 2 178 17 is_stmt 1
 178:src/../h/../h/../h/MemoryAllocation.hpp ****                 fmem_head->size=newfrgm->size;
 893              		.loc 2 178 32 is_stmt 0
 894 0520 2334C70C 		sd	a2,200(a4)
 179:src/../h/../h/../h/MemoryAllocation.hpp ****                 //fmem_head = (FreeMem*) (char*)newfrgm;
 895              		.loc 2 179 17 is_stmt 1
 179:src/../h/../h/../h/MemoryAllocation.hpp ****                 //fmem_head = (FreeMem*) (char*)newfrgm;
 896              		.loc 2 179 32 is_stmt 0
 897 0524 2338F70C 		sd	a5,208(a4)
 898              		.loc 2 181 17 is_stmt 1
 899              		.loc 2 181 24 is_stmt 0
 900 0528 93070700 		mv	a5,a4
 901              	.LVL48:
 902 052c 6F00C001 		j	.L47
 903              	.LVL49:
 904              	.L54:
 171:src/../h/../h/../h/MemoryAllocation.hpp ****                 if (cur && cur->next) cur->next->prev = newfrgm;
 905              		.loc 2 171 22 is_stmt 1
 171:src/../h/../h/../h/MemoryAllocation.hpp ****                 if (cur && cur->next) cur->next->prev = newfrgm;
 906              		.loc 2 171 41 is_stmt 0
 907 0530 9306070C 		addi	a3,a4,192
 171:src/../h/../h/../h/MemoryAllocation.hpp ****                 if (cur && cur->next) cur->next->prev = newfrgm;
 908              		.loc 2 171 32
 909 0534 17060000 		la	a2,_ZN16MemoryAllocation9fmem_headE
 909      03360600 
 910 053c 2330D600 		sd	a3,0(a2)
 911 0540 6FF09FF9 		j	.L55
 912              	.LVL50:
 913              	.L59:
 914              	.LBE62:
 915              	.LBE63:
 916              	.LBE64:
 917              	.LBE59:
 918              	.LBE58:
 919              	.LBE57:
 920              		.loc 1 67 29
 921 0544 93070000 		li	a5,0
 922              	.L47:
 923              		.loc 1 67 6 discriminator 4
 924 0548 03370500 		ld	a4,0(a0)
 925              		.loc 1 67 22 discriminator 4
 926 054c 2334F700 		sd	a5,8(a4)
  68:src/tcb.cpp   ****     (*handle)->context.ra = body ? (uint64)&threadWrapper : 0;
 927              		.loc 1 68 5 is_stmt 1 discriminator 4
 928              		.loc 1 68 34 is_stmt 0 discriminator 4
 929 0550 638A0504 		beqz	a1,.L61
 930              		.loc 1 68 34 discriminator 1
 931 0554 17070000 		lla	a4,_ZN3TCB13threadWrapperEv
 931      13070700 
 932              	.L57:
 933              		.loc 1 68 6 discriminator 4
 934 055c 83370500 		ld	a5,0(a0)
 935              		.loc 1 68 27 discriminator 4
 936 0560 23B8E700 		sd	a4,16(a5)
  69:src/tcb.cpp   ****     (*handle)->context.sp = (*handle)->stack ? (uint64) &(*handle)->stack[DEFAULT_STACK_SIZE] : 0;
 937              		.loc 1 69 5 is_stmt 1 discriminator 4
 938              		.loc 1 69 30 is_stmt 0 discriminator 4
GAS LISTING /tmp/ccg0UQxT.s 			page 26


 939 0564 03370500 		ld	a4,0(a0)
 940              		.loc 1 69 40 discriminator 4
 941 0568 83378700 		ld	a5,8(a4)
 942              		.loc 1 69 46 discriminator 4
 943 056c 63800704 		beqz	a5,.L62
 944              		.loc 1 69 57 discriminator 1
 945 0570 B7860000 		li	a3,32768
 946 0574 B387D700 		add	a5,a5,a3
 947              	.L58:
 948              		.loc 1 69 27 discriminator 4
 949 0578 233CF700 		sd	a5,24(a4)
  70:src/tcb.cpp   ****     (*handle)->threadStarted=true;
 950              		.loc 1 70 5 is_stmt 1 discriminator 4
 951              		.loc 1 70 6 is_stmt 0 discriminator 4
 952 057c 83370500 		ld	a5,0(a0)
 953              		.loc 1 70 29 discriminator 4
 954 0580 13071000 		li	a4,1
 955 0584 2380E704 		sb	a4,64(a5)
  71:src/tcb.cpp   ****     //printString("setuje started\n");
  72:src/tcb.cpp   ****     Scheduler::put(*handle); //vidi nekako da startuje handle nad kojim pozivas, mada mislim da ce 
 956              		.loc 1 72 5 is_stmt 1 discriminator 4
 957              		.loc 1 72 19 is_stmt 0 discriminator 4
 958 0588 03350500 		ld	a0,0(a0)
 959              	.LVL51:
 960 058c 97000000 		call	_ZN9Scheduler3putEP3TCB@plt
 960      E7800000 
 961              	.LVL52:
  73:src/tcb.cpp   **** }
 962              		.loc 1 73 1 discriminator 4
 963 0594 83308100 		ld	ra,8(sp)
 964              		.cfi_remember_state
 965              		.cfi_restore 1
 966 0598 03340100 		ld	s0,0(sp)
 967              		.cfi_restore 8
 968              		.cfi_def_cfa 2, 16
 969 059c 13010101 		addi	sp,sp,16
 970              		.cfi_def_cfa_offset 0
 971 05a0 67800000 		jr	ra
 972              	.LVL53:
 973              	.L61:
 974              		.cfi_restore_state
  68:src/tcb.cpp   ****     (*handle)->context.sp = (*handle)->stack ? (uint64) &(*handle)->stack[DEFAULT_STACK_SIZE] : 0;
 975              		.loc 1 68 34
 976 05a4 13070000 		li	a4,0
 977 05a8 6FF05FFB 		j	.L57
 978              	.L62:
  69:src/tcb.cpp   ****     (*handle)->threadStarted=true;
 979              		.loc 1 69 46
 980 05ac 93070000 		li	a5,0
 981 05b0 6FF09FFC 		j	.L58
 982              		.cfi_endproc
 983              	.LFE54:
 985              		.globl	_ZN3TCB16timeSliceCounterE
 986              		.globl	_ZN3TCB7runningE
 987              		.bss
 988              		.align	3
 989              		.set	.LANCHOR0,. + 0
GAS LISTING /tmp/ccg0UQxT.s 			page 27


 992              	_ZN3TCB7runningE:
 993 0000 00000000 		.zero	8
 993      00000000 
 996              	_ZN3TCB16timeSliceCounterE:
 997 0008 00000000 		.zero	8
 997      00000000 
 998              		.text
 999              	.Letext0:
 1000              		.file 4 "src/../h/../lib/hw.h"
 1001              		.file 5 "src/../h/../h/Scheduler.hpp"
 1002              		.file 6 "src/../h/../h/semaphore.hpp"
 1003              		.file 7 "src/../h/../h/../h/syscall_c.hpp"
GAS LISTING /tmp/ccg0UQxT.s 			page 28


DEFINED SYMBOLS
                            *ABS*:0000000000000000 tcb.cpp
     /tmp/ccg0UQxT.s:9      .text:0000000000000000 _ZNK3TCB10isFinishedEv
     /tmp/ccg0UQxT.s:13     .text:0000000000000000 .L0 
     /tmp/ccg0UQxT.s:15     .text:0000000000000000 .L0 
     /tmp/ccg0UQxT.s:16     .text:0000000000000004 .L0 
     /tmp/ccg0UQxT.s:18     .text:0000000000000008 .L0 
     /tmp/ccg0UQxT.s:20     .text:000000000000000c .L0 
     /tmp/ccg0UQxT.s:22     .text:000000000000000c .L0 
     /tmp/ccg0UQxT.s:23     .text:000000000000000c .L0 
     /tmp/ccg0UQxT.s:26     .text:0000000000000014 .L0 
     /tmp/ccg0UQxT.s:27     .text:0000000000000014 .L0 
     /tmp/ccg0UQxT.s:29     .text:0000000000000018 .L0 
     /tmp/ccg0UQxT.s:31     .text:000000000000001c .L0 
     /tmp/ccg0UQxT.s:37     .text:000000000000001c _ZN3TCB11setFinishedEb
     /tmp/ccg0UQxT.s:40     .text:000000000000001c .L0 
     /tmp/ccg0UQxT.s:42     .text:000000000000001c .L0 
     /tmp/ccg0UQxT.s:43     .text:0000000000000020 .L0 
     /tmp/ccg0UQxT.s:45     .text:0000000000000024 .L0 
     /tmp/ccg0UQxT.s:47     .text:0000000000000028 .L0 
     /tmp/ccg0UQxT.s:49     .text:0000000000000028 .L0 
     /tmp/ccg0UQxT.s:50     .text:0000000000000028 .L0 
     /tmp/ccg0UQxT.s:52     .text:000000000000002c .L0 
     /tmp/ccg0UQxT.s:53     .text:0000000000000030 .L0 
     /tmp/ccg0UQxT.s:54     .text:0000000000000030 .L0 
     /tmp/ccg0UQxT.s:56     .text:0000000000000034 .L0 
     /tmp/ccg0UQxT.s:58     .text:0000000000000038 .L0 
     /tmp/ccg0UQxT.s:64     .text:0000000000000038 _ZN3TCB12createThreadEPFvPvEPPS_S0_b
     /tmp/ccg0UQxT.s:67     .text:0000000000000038 .L0 
     /tmp/ccg0UQxT.s:69     .text:0000000000000038 .L0 
     /tmp/ccg0UQxT.s:70     .text:000000000000003c .L0 
     /tmp/ccg0UQxT.s:74     .text:0000000000000048 .L0 
     /tmp/ccg0UQxT.s:75     .text:0000000000000048 .L0 
     /tmp/ccg0UQxT.s:76     .text:0000000000000048 .L0 
     /tmp/ccg0UQxT.s:78     .text:000000000000004c .L0 
     /tmp/ccg0UQxT.s:83     .text:0000000000000050 .L0 
     /tmp/ccg0UQxT.s:86     .text:0000000000000050 .L0 
     /tmp/ccg0UQxT.s:87     .text:0000000000000050 .L0 
     /tmp/ccg0UQxT.s:89     .text:0000000000000050 .L0 
     /tmp/ccg0UQxT.s:90     .text:0000000000000050 .L0 
     /tmp/ccg0UQxT.s:95     .text:000000000000005c .L0 
     /tmp/ccg0UQxT.s:98     .text:0000000000000060 .L0 
     /tmp/ccg0UQxT.s:99     .text:0000000000000060 .L0 
     /tmp/ccg0UQxT.s:103    .text:0000000000000070 .L0 
     /tmp/ccg0UQxT.s:105    .text:0000000000000074 .L0 
     /tmp/ccg0UQxT.s:106    .text:0000000000000074 .L0 
     /tmp/ccg0UQxT.s:109    .text:000000000000007c .L0 
     /tmp/ccg0UQxT.s:111    .text:0000000000000080 .L0 
     /tmp/ccg0UQxT.s:112    .text:0000000000000080 .L0 
     /tmp/ccg0UQxT.s:114    .text:0000000000000084 .L0 
     /tmp/ccg0UQxT.s:118    .text:000000000000008c .L0 
     /tmp/ccg0UQxT.s:119    .text:000000000000008c .L0 
     /tmp/ccg0UQxT.s:121    .text:0000000000000090 .L0 
     /tmp/ccg0UQxT.s:124    .text:0000000000000098 .L0 
     /tmp/ccg0UQxT.s:126    .text:000000000000009c .L0 
     /tmp/ccg0UQxT.s:127    .text:000000000000009c .L0 
     /tmp/ccg0UQxT.s:130    .text:00000000000000a0 .L0 
GAS LISTING /tmp/ccg0UQxT.s 			page 29


     /tmp/ccg0UQxT.s:131    .text:00000000000000a0 .L0 
     /tmp/ccg0UQxT.s:133    .text:00000000000000a4 .L0 
     /tmp/ccg0UQxT.s:135    .text:00000000000000a8 .L0 
     /tmp/ccg0UQxT.s:136    .text:00000000000000a8 .L0 
     /tmp/ccg0UQxT.s:138    .text:00000000000000ac .L0 
     /tmp/ccg0UQxT.s:140    .text:00000000000000b0 .L0 
     /tmp/ccg0UQxT.s:141    .text:00000000000000b0 .L0 
     /tmp/ccg0UQxT.s:146    .text:00000000000000b4 .L0 
     /tmp/ccg0UQxT.s:154    .text:00000000000000bc .L0 
     /tmp/ccg0UQxT.s:155    .text:00000000000000bc .L0 
     /tmp/ccg0UQxT.s:161    .text:00000000000000cc .L0 
     /tmp/ccg0UQxT.s:162    .text:00000000000000cc .L0 
     /tmp/ccg0UQxT.s:165    .text:00000000000000d0 .L0 
     /tmp/ccg0UQxT.s:166    .text:00000000000000d0 .L0 
     /tmp/ccg0UQxT.s:168    .text:00000000000000d4 .L0 
     /tmp/ccg0UQxT.s:169    .text:00000000000000d4 .L0 
     /tmp/ccg0UQxT.s:171    .text:00000000000000d8 .L0 
     /tmp/ccg0UQxT.s:172    .text:00000000000000d8 .L0 
     /tmp/ccg0UQxT.s:174    .text:00000000000000dc .L0 
     /tmp/ccg0UQxT.s:176    .text:00000000000000e0 .L0 
     /tmp/ccg0UQxT.s:177    .text:00000000000000e0 .L0 
     /tmp/ccg0UQxT.s:180    .text:00000000000000e4 .L0 
     /tmp/ccg0UQxT.s:181    .text:00000000000000e4 .L0 
     /tmp/ccg0UQxT.s:183    .text:00000000000000e8 .L0 
     /tmp/ccg0UQxT.s:185    .text:00000000000000ec .L0 
     /tmp/ccg0UQxT.s:186    .text:00000000000000ec .L0 
     /tmp/ccg0UQxT.s:189    .text:00000000000000f0 .L0 
     /tmp/ccg0UQxT.s:190    .text:00000000000000f0 .L0 
     /tmp/ccg0UQxT.s:192    .text:00000000000000f4 .L0 
     /tmp/ccg0UQxT.s:194    .text:00000000000000f8 .L0 
     /tmp/ccg0UQxT.s:195    .text:00000000000000f8 .L0 
     /tmp/ccg0UQxT.s:197    .text:00000000000000fc .L0 
     /tmp/ccg0UQxT.s:199    .text:0000000000000100 .L0 
     /tmp/ccg0UQxT.s:200    .text:0000000000000100 .L0 
     /tmp/ccg0UQxT.s:203    .text:0000000000000104 .L0 
     /tmp/ccg0UQxT.s:205    .text:0000000000000108 .L0 
     /tmp/ccg0UQxT.s:207    .text:000000000000010c .L0 
     /tmp/ccg0UQxT.s:208    .text:000000000000010c .L0 
     /tmp/ccg0UQxT.s:210    .text:0000000000000110 .L0 
     /tmp/ccg0UQxT.s:213    .text:000000000000011c .L0 
     /tmp/ccg0UQxT.s:214    .text:000000000000011c .L0 
     /tmp/ccg0UQxT.s:216    .text:0000000000000120 .L0 
     /tmp/ccg0UQxT.s:218    .text:0000000000000124 .L0 
     /tmp/ccg0UQxT.s:219    .text:0000000000000124 .L0 
     /tmp/ccg0UQxT.s:221    .text:0000000000000128 .L0 
     /tmp/ccg0UQxT.s:222    .text:0000000000000128 .L0 
     /tmp/ccg0UQxT.s:224    .text:000000000000012c .L0 
     /tmp/ccg0UQxT.s:225    .text:000000000000012c .L0 
     /tmp/ccg0UQxT.s:235    .text:0000000000000130 .L0 
     /tmp/ccg0UQxT.s:237    .text:0000000000000134 .L0 
     /tmp/ccg0UQxT.s:238    .text:0000000000000134 .L0 
     /tmp/ccg0UQxT.s:240    .text:0000000000000138 .L0 
     /tmp/ccg0UQxT.s:241    .text:0000000000000138 .L0 
     /tmp/ccg0UQxT.s:243    .text:000000000000013c .L0 
     /tmp/ccg0UQxT.s:245    .text:0000000000000140 .L0 
     /tmp/ccg0UQxT.s:246    .text:0000000000000140 .L0 
     /tmp/ccg0UQxT.s:251    .text:0000000000000144 .L0 
GAS LISTING /tmp/ccg0UQxT.s 			page 30


     /tmp/ccg0UQxT.s:252    .text:0000000000000144 .L0 
     /tmp/ccg0UQxT.s:254    .text:0000000000000144 .L0 
     /tmp/ccg0UQxT.s:255    .text:0000000000000144 .L0 
     /tmp/ccg0UQxT.s:260    .text:0000000000000150 .L0 
     /tmp/ccg0UQxT.s:263    .text:0000000000000154 .L0 
     /tmp/ccg0UQxT.s:264    .text:0000000000000154 .L0 
     /tmp/ccg0UQxT.s:268    .text:0000000000000164 .L0 
     /tmp/ccg0UQxT.s:270    .text:0000000000000168 .L0 
     /tmp/ccg0UQxT.s:271    .text:0000000000000168 .L0 
     /tmp/ccg0UQxT.s:274    .text:0000000000000170 .L0 
     /tmp/ccg0UQxT.s:276    .text:0000000000000174 .L0 
     /tmp/ccg0UQxT.s:277    .text:0000000000000174 .L0 
     /tmp/ccg0UQxT.s:279    .text:0000000000000178 .L0 
     /tmp/ccg0UQxT.s:284    .text:0000000000000184 .L0 
     /tmp/ccg0UQxT.s:285    .text:0000000000000184 .L0 
     /tmp/ccg0UQxT.s:289    .text:0000000000000190 .L0 
     /tmp/ccg0UQxT.s:292    .text:0000000000000198 .L0 
     /tmp/ccg0UQxT.s:294    .text:000000000000019c .L0 
     /tmp/ccg0UQxT.s:295    .text:000000000000019c .L0 
     /tmp/ccg0UQxT.s:298    .text:00000000000001a0 .L0 
     /tmp/ccg0UQxT.s:299    .text:00000000000001a0 .L0 
     /tmp/ccg0UQxT.s:301    .text:00000000000001a4 .L0 
     /tmp/ccg0UQxT.s:303    .text:00000000000001a8 .L0 
     /tmp/ccg0UQxT.s:304    .text:00000000000001a8 .L0 
     /tmp/ccg0UQxT.s:306    .text:00000000000001ac .L0 
     /tmp/ccg0UQxT.s:308    .text:00000000000001b0 .L0 
     /tmp/ccg0UQxT.s:309    .text:00000000000001b0 .L0 
     /tmp/ccg0UQxT.s:324    .text:00000000000001b4 .L0 
     /tmp/ccg0UQxT.s:325    .text:00000000000001b4 .L0 
     /tmp/ccg0UQxT.s:327    .text:00000000000001b8 .L0 
     /tmp/ccg0UQxT.s:342    .text:00000000000001c8 .L0 
     /tmp/ccg0UQxT.s:350    .text:00000000000001d0 .L0 
     /tmp/ccg0UQxT.s:351    .text:00000000000001d0 .L0 
     /tmp/ccg0UQxT.s:357    .text:00000000000001e0 .L0 
     /tmp/ccg0UQxT.s:358    .text:00000000000001e0 .L0 
     /tmp/ccg0UQxT.s:363    .text:00000000000001ec .L0 
     /tmp/ccg0UQxT.s:364    .text:00000000000001ec .L0 
     /tmp/ccg0UQxT.s:366    .text:00000000000001f0 .L0 
     /tmp/ccg0UQxT.s:367    .text:00000000000001f0 .L0 
     /tmp/ccg0UQxT.s:369    .text:00000000000001f4 .L0 
     /tmp/ccg0UQxT.s:370    .text:00000000000001f4 .L0 
     /tmp/ccg0UQxT.s:372    .text:00000000000001f8 .L0 
     /tmp/ccg0UQxT.s:374    .text:00000000000001fc .L0 
     /tmp/ccg0UQxT.s:375    .text:00000000000001fc .L0 
     /tmp/ccg0UQxT.s:378    .text:0000000000000200 .L0 
     /tmp/ccg0UQxT.s:379    .text:0000000000000200 .L0 
     /tmp/ccg0UQxT.s:381    .text:0000000000000204 .L0 
     /tmp/ccg0UQxT.s:383    .text:0000000000000208 .L0 
     /tmp/ccg0UQxT.s:384    .text:0000000000000208 .L0 
     /tmp/ccg0UQxT.s:387    .text:000000000000020c .L0 
     /tmp/ccg0UQxT.s:388    .text:000000000000020c .L0 
     /tmp/ccg0UQxT.s:390    .text:0000000000000210 .L0 
     /tmp/ccg0UQxT.s:392    .text:0000000000000214 .L0 
     /tmp/ccg0UQxT.s:393    .text:0000000000000214 .L0 
     /tmp/ccg0UQxT.s:395    .text:0000000000000218 .L0 
     /tmp/ccg0UQxT.s:397    .text:000000000000021c .L0 
     /tmp/ccg0UQxT.s:398    .text:000000000000021c .L0 
GAS LISTING /tmp/ccg0UQxT.s 			page 31


     /tmp/ccg0UQxT.s:401    .text:0000000000000220 .L0 
     /tmp/ccg0UQxT.s:405    .text:000000000000022c .L0 
     /tmp/ccg0UQxT.s:407    .text:0000000000000230 .L0 
     /tmp/ccg0UQxT.s:408    .text:0000000000000230 .L0 
     /tmp/ccg0UQxT.s:410    .text:0000000000000234 .L0 
     /tmp/ccg0UQxT.s:413    .text:0000000000000240 .L0 
     /tmp/ccg0UQxT.s:414    .text:0000000000000240 .L0 
     /tmp/ccg0UQxT.s:416    .text:0000000000000244 .L0 
     /tmp/ccg0UQxT.s:418    .text:0000000000000248 .L0 
     /tmp/ccg0UQxT.s:419    .text:0000000000000248 .L0 
     /tmp/ccg0UQxT.s:421    .text:000000000000024c .L0 
     /tmp/ccg0UQxT.s:422    .text:000000000000024c .L0 
     /tmp/ccg0UQxT.s:424    .text:0000000000000250 .L0 
     /tmp/ccg0UQxT.s:425    .text:0000000000000250 .L0 
     /tmp/ccg0UQxT.s:431    .text:0000000000000258 .L0 
     /tmp/ccg0UQxT.s:432    .text:0000000000000258 .L0 
     /tmp/ccg0UQxT.s:434    .text:000000000000025c .L0 
     /tmp/ccg0UQxT.s:446    .text:000000000000026c .L0 
     /tmp/ccg0UQxT.s:450    .text:0000000000000270 .L0 
     /tmp/ccg0UQxT.s:452    .text:0000000000000274 .L0 
     /tmp/ccg0UQxT.s:454    .text:0000000000000278 .L0 
     /tmp/ccg0UQxT.s:455    .text:0000000000000278 .L0 
     /tmp/ccg0UQxT.s:602    .text:0000000000000340 _ZN3TCB13threadWrapperEv
     /tmp/ccg0UQxT.s:457    .text:000000000000027c .L0 
     /tmp/ccg0UQxT.s:460    .text:0000000000000284 .L0 
     /tmp/ccg0UQxT.s:462    .text:0000000000000288 .L0 
     /tmp/ccg0UQxT.s:464    .text:000000000000028c .L0 
     /tmp/ccg0UQxT.s:465    .text:000000000000028c .L0 
     /tmp/ccg0UQxT.s:467    .text:0000000000000290 .L0 
     /tmp/ccg0UQxT.s:469    .text:0000000000000294 .L0 
     /tmp/ccg0UQxT.s:471    .text:0000000000000298 .L0 
     /tmp/ccg0UQxT.s:475    .text:00000000000002a0 .L0 
     /tmp/ccg0UQxT.s:477    .text:00000000000002a4 .L0 
     /tmp/ccg0UQxT.s:478    .text:00000000000002a4 .L0 
     /tmp/ccg0UQxT.s:480    .text:00000000000002a8 .L0 
     /tmp/ccg0UQxT.s:482    .text:00000000000002ac .L0 
     /tmp/ccg0UQxT.s:483    .text:00000000000002ac .L0 
     /tmp/ccg0UQxT.s:485    .text:00000000000002b0 .L0 
     /tmp/ccg0UQxT.s:487    .text:00000000000002b4 .L0 
     /tmp/ccg0UQxT.s:488    .text:00000000000002b4 .L0 
     /tmp/ccg0UQxT.s:490    .text:00000000000002b8 .L0 
     /tmp/ccg0UQxT.s:493    .text:00000000000002c0 .L0 
     /tmp/ccg0UQxT.s:494    .text:00000000000002c0 .L0 
     /tmp/ccg0UQxT.s:496    .text:00000000000002c4 .L0 
     /tmp/ccg0UQxT.s:498    .text:00000000000002c8 .L0 
     /tmp/ccg0UQxT.s:499    .text:00000000000002c8 .L0 
     /tmp/ccg0UQxT.s:501    .text:00000000000002cc .L0 
     /tmp/ccg0UQxT.s:507    .text:00000000000002d0 .L0 
     /tmp/ccg0UQxT.s:508    .text:00000000000002d0 .L0 
     /tmp/ccg0UQxT.s:513    .text:00000000000002d4 .L0 
     /tmp/ccg0UQxT.s:517    .text:00000000000002d8 .L0 
     /tmp/ccg0UQxT.s:518    .text:00000000000002d8 .L0 
     /tmp/ccg0UQxT.s:520    .text:00000000000002dc .L0 
     /tmp/ccg0UQxT.s:522    .text:00000000000002e0 .L0 
     /tmp/ccg0UQxT.s:525    .text:00000000000002e4 .L0 
     /tmp/ccg0UQxT.s:526    .text:00000000000002e8 .L0 
     /tmp/ccg0UQxT.s:527    .text:00000000000002e8 .L0 
GAS LISTING /tmp/ccg0UQxT.s 			page 32


     /tmp/ccg0UQxT.s:529    .text:00000000000002ec .L0 
     /tmp/ccg0UQxT.s:530    .text:00000000000002ec .L0 
     /tmp/ccg0UQxT.s:532    .text:00000000000002f0 .L0 
     /tmp/ccg0UQxT.s:535    .text:00000000000002f4 .L0 
     /tmp/ccg0UQxT.s:539    .text:00000000000002f8 .L0 
     /tmp/ccg0UQxT.s:541    .text:00000000000002f8 .L0 
     /tmp/ccg0UQxT.s:545    .text:0000000000000300 .L0 
     /tmp/ccg0UQxT.s:550    .text:0000000000000308 .L0 
     /tmp/ccg0UQxT.s:551    .text:0000000000000308 .L0 
     /tmp/ccg0UQxT.s:556    .text:0000000000000314 .L0 
     /tmp/ccg0UQxT.s:558    .text:000000000000031c .L0 
     /tmp/ccg0UQxT.s:564    .text:000000000000031c _ZN3TCB5yieldEv
     /tmp/ccg0UQxT.s:567    .text:000000000000031c .L0 
     /tmp/ccg0UQxT.s:568    .text:000000000000031c .L0 
     /tmp/ccg0UQxT.s:569    .text:0000000000000320 .L0 
     /tmp/ccg0UQxT.s:571    .text:0000000000000324 .L0 
     /tmp/ccg0UQxT.s:573    .text:0000000000000328 .L0 
     /tmp/ccg0UQxT.s:576    .text:0000000000000328 .L0 
     /tmp/ccg0UQxT.s:577    .text:0000000000000328 .L0 
     /tmp/ccg0UQxT.s:578    .text:0000000000000328 .L0 
     /tmp/ccg0UQxT.s:584    .text:0000000000000330 .L0 
         src/tcb.cpp:42     .text:0000000000000330 .L0 
     /tmp/ccg0UQxT.s:590    .text:0000000000000334 .L0 
     /tmp/ccg0UQxT.s:591    .text:0000000000000338 .L0 
     /tmp/ccg0UQxT.s:592    .text:0000000000000338 .L0 
     /tmp/ccg0UQxT.s:594    .text:000000000000033c .L0 
     /tmp/ccg0UQxT.s:596    .text:0000000000000340 .L0 
     /tmp/ccg0UQxT.s:605    .text:0000000000000340 .L0 
     /tmp/ccg0UQxT.s:606    .text:0000000000000340 .L0 
     /tmp/ccg0UQxT.s:607    .text:0000000000000344 .L0 
     /tmp/ccg0UQxT.s:611    .text:0000000000000350 .L0 
     /tmp/ccg0UQxT.s:612    .text:0000000000000350 .L0 
     /tmp/ccg0UQxT.s:613    .text:0000000000000350 .L0 
     /tmp/ccg0UQxT.s:615    .text:0000000000000354 .L0 
     /tmp/ccg0UQxT.s:617    .text:0000000000000354 .L0 
         src/tcb.cpp:58     .text:0000000000000354 .L0 
     /tmp/ccg0UQxT.s:623    .text:0000000000000358 .L0 
     /tmp/ccg0UQxT.s:625    .text:0000000000000358 .L0 
     /tmp/ccg0UQxT.s:629    .text:0000000000000368 .L0 
     /tmp/ccg0UQxT.s:633    .text:0000000000000370 .L0 
     /tmp/ccg0UQxT.s:634    .text:0000000000000370 .L0 
     /tmp/ccg0UQxT.s:639    .text:0000000000000380 .L0 
     /tmp/ccg0UQxT.s:640    .text:0000000000000380 .L0 
     /tmp/ccg0UQxT.s:643    .text:0000000000000388 .L0 
     /tmp/ccg0UQxT.s:644    .text:000000000000038c .L0 
     /tmp/ccg0UQxT.s:646    .text:0000000000000390 .L0 
     /tmp/ccg0UQxT.s:647    .text:0000000000000390 .L0 
     /tmp/ccg0UQxT.s:649    .text:0000000000000394 .L0 
     /tmp/ccg0UQxT.s:651    .text:0000000000000398 .L0 
     /tmp/ccg0UQxT.s:653    .text:000000000000039c .L0 
     /tmp/ccg0UQxT.s:659    .text:000000000000039c _ZN3TCB8dispatchEv
     /tmp/ccg0UQxT.s:662    .text:000000000000039c .L0 
     /tmp/ccg0UQxT.s:663    .text:000000000000039c .L0 
     /tmp/ccg0UQxT.s:664    .text:00000000000003a0 .L0 
     /tmp/ccg0UQxT.s:668    .text:00000000000003ac .L0 
     /tmp/ccg0UQxT.s:669    .text:00000000000003ac .L0 
     /tmp/ccg0UQxT.s:670    .text:00000000000003ac .L0 
GAS LISTING /tmp/ccg0UQxT.s 			page 33


     /tmp/ccg0UQxT.s:672    .text:00000000000003b0 .L0 
     /tmp/ccg0UQxT.s:674    .text:00000000000003b0 .L0 
     /tmp/ccg0UQxT.s:675    .text:00000000000003b0 .L0 
     /tmp/ccg0UQxT.s:678    .text:00000000000003b8 .L0 
     /tmp/ccg0UQxT.s:679    .text:00000000000003b8 .L0 
     /tmp/ccg0UQxT.s:681    .text:00000000000003bc .L0 
     /tmp/ccg0UQxT.s:684    .text:00000000000003c0 .L0 
     /tmp/ccg0UQxT.s:685    .text:00000000000003c0 .L0 
     /tmp/ccg0UQxT.s:688    .text:00000000000003c8 .L0 
     /tmp/ccg0UQxT.s:690    .text:00000000000003d0 .L0 
     /tmp/ccg0UQxT.s:691    .text:00000000000003d0 .L0 
     /tmp/ccg0UQxT.s:696    .text:00000000000003e0 .L0 
     /tmp/ccg0UQxT.s:697    .text:00000000000003e4 .L0 
     /tmp/ccg0UQxT.s:698    .text:00000000000003e4 .L0 
     /tmp/ccg0UQxT.s:700    .text:00000000000003e8 .L0 
     /tmp/ccg0UQxT.s:701    .text:00000000000003e8 .L0 
     /tmp/ccg0UQxT.s:703    .text:00000000000003ec .L0 
     /tmp/ccg0UQxT.s:706    .text:00000000000003f0 .L0 
     /tmp/ccg0UQxT.s:710    .text:00000000000003f4 .L0 
     /tmp/ccg0UQxT.s:712    .text:00000000000003f4 .L0 
     /tmp/ccg0UQxT.s:716    .text:0000000000000400 .L0 
     /tmp/ccg0UQxT.s:718    .text:0000000000000404 .L0 
     /tmp/ccg0UQxT.s:719    .text:0000000000000404 .L0 
     /tmp/ccg0UQxT.s:723    .text:0000000000000414 .L0 
     /tmp/ccg0UQxT.s:729    .text:0000000000000414 _ZN3TCB11startThreadEPPS_PFvPvE
     /tmp/ccg0UQxT.s:732    .text:0000000000000414 .L0 
     /tmp/ccg0UQxT.s:734    .text:0000000000000414 .L0 
     /tmp/ccg0UQxT.s:735    .text:0000000000000418 .L0 
     /tmp/ccg0UQxT.s:738    .text:0000000000000420 .L0 
     /tmp/ccg0UQxT.s:739    .text:0000000000000420 .L0 
     /tmp/ccg0UQxT.s:741    .text:0000000000000424 .L0 
     /tmp/ccg0UQxT.s:743    .text:0000000000000424 .L0 
     /tmp/ccg0UQxT.s:744    .text:0000000000000424 .L0 
     /tmp/ccg0UQxT.s:746    .text:0000000000000428 .L0 
     /tmp/ccg0UQxT.s:748    .text:000000000000042c .L0 
     /tmp/ccg0UQxT.s:749    .text:000000000000042c .L0 
     /tmp/ccg0UQxT.s:754    .text:0000000000000430 .L0 
     /tmp/ccg0UQxT.s:755    .text:0000000000000430 .L0 
     /tmp/ccg0UQxT.s:757    .text:0000000000000430 .L0 
     /tmp/ccg0UQxT.s:758    .text:0000000000000430 .L0 
     /tmp/ccg0UQxT.s:763    .text:000000000000043c .L0 
     /tmp/ccg0UQxT.s:766    .text:0000000000000440 .L0 
     /tmp/ccg0UQxT.s:767    .text:0000000000000440 .L0 
     /tmp/ccg0UQxT.s:771    .text:0000000000000450 .L0 
     /tmp/ccg0UQxT.s:773    .text:0000000000000454 .L0 
     /tmp/ccg0UQxT.s:774    .text:0000000000000454 .L0 
     /tmp/ccg0UQxT.s:777    .text:000000000000045c .L0 
     /tmp/ccg0UQxT.s:779    .text:0000000000000460 .L0 
     /tmp/ccg0UQxT.s:780    .text:0000000000000460 .L0 
     /tmp/ccg0UQxT.s:782    .text:0000000000000464 .L0 
     /tmp/ccg0UQxT.s:787    .text:0000000000000470 .L0 
     /tmp/ccg0UQxT.s:788    .text:0000000000000470 .L0 
     /tmp/ccg0UQxT.s:792    .text:000000000000047c .L0 
     /tmp/ccg0UQxT.s:795    .text:0000000000000484 .L0 
     /tmp/ccg0UQxT.s:797    .text:0000000000000488 .L0 
     /tmp/ccg0UQxT.s:798    .text:0000000000000488 .L0 
     /tmp/ccg0UQxT.s:801    .text:000000000000048c .L0 
GAS LISTING /tmp/ccg0UQxT.s 			page 34


     /tmp/ccg0UQxT.s:802    .text:000000000000048c .L0 
     /tmp/ccg0UQxT.s:804    .text:0000000000000490 .L0 
     /tmp/ccg0UQxT.s:806    .text:0000000000000494 .L0 
     /tmp/ccg0UQxT.s:807    .text:0000000000000494 .L0 
     /tmp/ccg0UQxT.s:809    .text:0000000000000498 .L0 
     /tmp/ccg0UQxT.s:811    .text:000000000000049c .L0 
     /tmp/ccg0UQxT.s:812    .text:000000000000049c .L0 
     /tmp/ccg0UQxT.s:817    .text:00000000000004a0 .L0 
     /tmp/ccg0UQxT.s:825    .text:00000000000004a8 .L0 
     /tmp/ccg0UQxT.s:826    .text:00000000000004a8 .L0 
     /tmp/ccg0UQxT.s:832    .text:00000000000004b8 .L0 
     /tmp/ccg0UQxT.s:833    .text:00000000000004b8 .L0 
     /tmp/ccg0UQxT.s:838    .text:00000000000004c4 .L0 
     /tmp/ccg0UQxT.s:839    .text:00000000000004c4 .L0 
     /tmp/ccg0UQxT.s:841    .text:00000000000004c8 .L0 
     /tmp/ccg0UQxT.s:842    .text:00000000000004c8 .L0 
     /tmp/ccg0UQxT.s:844    .text:00000000000004cc .L0 
     /tmp/ccg0UQxT.s:845    .text:00000000000004cc .L0 
     /tmp/ccg0UQxT.s:847    .text:00000000000004d0 .L0 
     /tmp/ccg0UQxT.s:849    .text:00000000000004d4 .L0 
     /tmp/ccg0UQxT.s:850    .text:00000000000004d4 .L0 
     /tmp/ccg0UQxT.s:853    .text:00000000000004d8 .L0 
     /tmp/ccg0UQxT.s:854    .text:00000000000004d8 .L0 
     /tmp/ccg0UQxT.s:856    .text:00000000000004dc .L0 
     /tmp/ccg0UQxT.s:858    .text:00000000000004e0 .L0 
     /tmp/ccg0UQxT.s:859    .text:00000000000004e0 .L0 
     /tmp/ccg0UQxT.s:862    .text:00000000000004e4 .L0 
     /tmp/ccg0UQxT.s:863    .text:00000000000004e4 .L0 
     /tmp/ccg0UQxT.s:865    .text:00000000000004e8 .L0 
     /tmp/ccg0UQxT.s:867    .text:00000000000004ec .L0 
     /tmp/ccg0UQxT.s:868    .text:00000000000004ec .L0 
     /tmp/ccg0UQxT.s:870    .text:00000000000004f0 .L0 
     /tmp/ccg0UQxT.s:872    .text:00000000000004f4 .L0 
     /tmp/ccg0UQxT.s:873    .text:00000000000004f4 .L0 
     /tmp/ccg0UQxT.s:876    .text:00000000000004f8 .L0 
     /tmp/ccg0UQxT.s:880    .text:0000000000000504 .L0 
     /tmp/ccg0UQxT.s:882    .text:0000000000000508 .L0 
     /tmp/ccg0UQxT.s:883    .text:0000000000000508 .L0 
     /tmp/ccg0UQxT.s:885    .text:000000000000050c .L0 
     /tmp/ccg0UQxT.s:888    .text:0000000000000518 .L0 
     /tmp/ccg0UQxT.s:889    .text:0000000000000518 .L0 
     /tmp/ccg0UQxT.s:891    .text:000000000000051c .L0 
     /tmp/ccg0UQxT.s:893    .text:0000000000000520 .L0 
     /tmp/ccg0UQxT.s:894    .text:0000000000000520 .L0 
     /tmp/ccg0UQxT.s:896    .text:0000000000000524 .L0 
     /tmp/ccg0UQxT.s:897    .text:0000000000000524 .L0 
     /tmp/ccg0UQxT.s:899    .text:0000000000000528 .L0 
     /tmp/ccg0UQxT.s:900    .text:0000000000000528 .L0 
     /tmp/ccg0UQxT.s:906    .text:0000000000000530 .L0 
     /tmp/ccg0UQxT.s:907    .text:0000000000000530 .L0 
     /tmp/ccg0UQxT.s:909    .text:0000000000000534 .L0 
     /tmp/ccg0UQxT.s:921    .text:0000000000000544 .L0 
     /tmp/ccg0UQxT.s:924    .text:0000000000000548 .L0 
     /tmp/ccg0UQxT.s:926    .text:000000000000054c .L0 
     /tmp/ccg0UQxT.s:928    .text:0000000000000550 .L0 
     /tmp/ccg0UQxT.s:929    .text:0000000000000550 .L0 
     /tmp/ccg0UQxT.s:931    .text:0000000000000554 .L0 
GAS LISTING /tmp/ccg0UQxT.s 			page 35


     /tmp/ccg0UQxT.s:934    .text:000000000000055c .L0 
     /tmp/ccg0UQxT.s:936    .text:0000000000000560 .L0 
     /tmp/ccg0UQxT.s:938    .text:0000000000000564 .L0 
     /tmp/ccg0UQxT.s:939    .text:0000000000000564 .L0 
     /tmp/ccg0UQxT.s:941    .text:0000000000000568 .L0 
     /tmp/ccg0UQxT.s:943    .text:000000000000056c .L0 
     /tmp/ccg0UQxT.s:945    .text:0000000000000570 .L0 
     /tmp/ccg0UQxT.s:949    .text:0000000000000578 .L0 
     /tmp/ccg0UQxT.s:951    .text:000000000000057c .L0 
     /tmp/ccg0UQxT.s:952    .text:000000000000057c .L0 
     /tmp/ccg0UQxT.s:954    .text:0000000000000580 .L0 
     /tmp/ccg0UQxT.s:957    .text:0000000000000588 .L0 
     /tmp/ccg0UQxT.s:958    .text:0000000000000588 .L0 
     /tmp/ccg0UQxT.s:963    .text:0000000000000594 .L0 
     /tmp/ccg0UQxT.s:964    .text:0000000000000598 .L0 
     /tmp/ccg0UQxT.s:965    .text:0000000000000598 .L0 
     /tmp/ccg0UQxT.s:967    .text:000000000000059c .L0 
     /tmp/ccg0UQxT.s:968    .text:000000000000059c .L0 
     /tmp/ccg0UQxT.s:970    .text:00000000000005a0 .L0 
     /tmp/ccg0UQxT.s:974    .text:00000000000005a4 .L0 
     /tmp/ccg0UQxT.s:976    .text:00000000000005a4 .L0 
     /tmp/ccg0UQxT.s:980    .text:00000000000005ac .L0 
     /tmp/ccg0UQxT.s:982    .text:00000000000005b4 .L0 
     /tmp/ccg0UQxT.s:996    .bss:0000000000000008 _ZN3TCB16timeSliceCounterE
     /tmp/ccg0UQxT.s:992    .bss:0000000000000000 _ZN3TCB7runningE
     /tmp/ccg0UQxT.s:989    .bss:0000000000000000 .LANCHOR0
     /tmp/ccg0UQxT.s:1004   .text:00000000000005b4 .L0 
     /tmp/ccg0UQxT.s:90     .text:0000000000000050 .L0 
     /tmp/ccg0UQxT.s:99     .text:0000000000000060 .L0 
     /tmp/ccg0UQxT.s:155    .text:00000000000000bc .L0 
     /tmp/ccg0UQxT.s:210    .text:0000000000000110 .L0 
     /tmp/ccg0UQxT.s:255    .text:0000000000000144 .L0 
     /tmp/ccg0UQxT.s:264    .text:0000000000000154 .L0 
     /tmp/ccg0UQxT.s:327    .text:00000000000001b8 .L0 
     /tmp/ccg0UQxT.s:351    .text:00000000000001d0 .L0 
     /tmp/ccg0UQxT.s:410    .text:0000000000000234 .L0 
     /tmp/ccg0UQxT.s:434    .text:000000000000025c .L0 
     /tmp/ccg0UQxT.s:457    .text:000000000000027c .L0 
     /tmp/ccg0UQxT.s:625    .text:0000000000000358 .L0 
     /tmp/ccg0UQxT.s:675    .text:00000000000003b0 .L0 
     /tmp/ccg0UQxT.s:688    .text:00000000000003c8 .L0 
     /tmp/ccg0UQxT.s:758    .text:0000000000000430 .L0 
     /tmp/ccg0UQxT.s:767    .text:0000000000000440 .L0 
     /tmp/ccg0UQxT.s:826    .text:00000000000004a8 .L0 
     /tmp/ccg0UQxT.s:885    .text:000000000000050c .L0 
     /tmp/ccg0UQxT.s:909    .text:0000000000000534 .L0 
     /tmp/ccg0UQxT.s:931    .text:0000000000000554 .L0 
     /tmp/ccg0UQxT.s:227    .text:0000000000000130 .L6
     /tmp/ccg0UQxT.s:142    .text:00000000000000b4 .L29
     /tmp/ccg0UQxT.s:158    .text:00000000000000cc .L8
     /tmp/ccg0UQxT.s:150    .text:00000000000000bc .L9
     /tmp/ccg0UQxT.s:93     .text:000000000000005c .L7
     /tmp/ccg0UQxT.s:128    .text:00000000000000a0 .L10
     /tmp/ccg0UQxT.s:311    .text:00000000000001b4 .L12
     /tmp/ccg0UQxT.s:187    .text:00000000000000f0 .L14
     /tmp/ccg0UQxT.s:438    .text:000000000000026c .L30
     /tmp/ccg0UQxT.s:448    .text:0000000000000270 .L15
GAS LISTING /tmp/ccg0UQxT.s 			page 36


     /tmp/ccg0UQxT.s:331    .text:00000000000001c8 .L31
     /tmp/ccg0UQxT.s:354    .text:00000000000001e0 .L18
     /tmp/ccg0UQxT.s:346    .text:00000000000001d0 .L19
     /tmp/ccg0UQxT.s:178    .text:00000000000000e4 .L13
     /tmp/ccg0UQxT.s:258    .text:0000000000000150 .L17
     /tmp/ccg0UQxT.s:296    .text:00000000000001a0 .L20
     /tmp/ccg0UQxT.s:429    .text:0000000000000258 .L22
     /tmp/ccg0UQxT.s:385    .text:000000000000020c .L24
     /tmp/ccg0UQxT.s:376    .text:0000000000000200 .L23
     /tmp/ccg0UQxT.s:538    .text:00000000000002f8 .L32
     /tmp/ccg0UQxT.s:543    .text:0000000000000300 .L33
     /tmp/ccg0UQxT.s:515    .text:00000000000002d8 .L27
     /tmp/ccg0UQxT.s:548    .text:0000000000000308 .L36
     /tmp/ccg0UQxT.s:554    .text:0000000000000314 .L37
     /tmp/ccg0UQxT.s:458    .text:0000000000000284 .L25
     /tmp/ccg0UQxT.s:473    .text:00000000000002a0 .L26
     /tmp/ccg0UQxT.s:523    .text:00000000000002e4 .L28
     /tmp/ccg0UQxT.s:709    .text:00000000000003f4 .L45
     /tmp/ccg0UQxT.s:682    .text:00000000000003c0 .L43
     /tmp/ccg0UQxT.s:913    .text:0000000000000544 .L59
     /tmp/ccg0UQxT.s:922    .text:0000000000000548 .L47
     /tmp/ccg0UQxT.s:813    .text:00000000000004a0 .L60
     /tmp/ccg0UQxT.s:829    .text:00000000000004b8 .L50
     /tmp/ccg0UQxT.s:821    .text:00000000000004a8 .L51
     /tmp/ccg0UQxT.s:761    .text:000000000000043c .L49
     /tmp/ccg0UQxT.s:799    .text:000000000000048c .L52
     /tmp/ccg0UQxT.s:904    .text:0000000000000530 .L54
     /tmp/ccg0UQxT.s:860    .text:00000000000004e4 .L56
     /tmp/ccg0UQxT.s:851    .text:00000000000004d8 .L55
     /tmp/ccg0UQxT.s:973    .text:00000000000005a4 .L61
     /tmp/ccg0UQxT.s:978    .text:00000000000005ac .L62
     /tmp/ccg0UQxT.s:932    .text:000000000000055c .L57
     /tmp/ccg0UQxT.s:947    .text:0000000000000578 .L58
     /tmp/ccg0UQxT.s:2199   .debug_abbrev:0000000000000000 .Ldebug_abbrev0
     /tmp/ccg0UQxT.s:3800   .debug_str:000000000000069a .LASF114
     /tmp/ccg0UQxT.s:3666   .debug_str:0000000000000242 .LASF115
     /tmp/ccg0UQxT.s:3652   .debug_str:00000000000001d1 .LASF116
     /tmp/ccg0UQxT.s:5      .text:0000000000000000 .Ltext0
     /tmp/ccg0UQxT.s:999    .text:00000000000005b4 .Letext0
     /tmp/ccg0UQxT.s:3584   .debug_line:0000000000000000 .Ldebug_line0
     /tmp/ccg0UQxT.s:3668   .debug_str:000000000000024e .LASF0
     /tmp/ccg0UQxT.s:3686   .debug_str:00000000000002d9 .LASF1
     /tmp/ccg0UQxT.s:3754   .debug_str:0000000000000538 .LASF2
     /tmp/ccg0UQxT.s:3762   .debug_str:0000000000000581 .LASF4
     /tmp/ccg0UQxT.s:3672   .debug_str:0000000000000265 .LASF3
     /tmp/ccg0UQxT.s:3596   .debug_str:0000000000000051 .LASF5
     /tmp/ccg0UQxT.s:3740   .debug_str:00000000000004d8 .LASF6
     /tmp/ccg0UQxT.s:3676   .debug_str:0000000000000280 .LASF7
     /tmp/ccg0UQxT.s:3650   .debug_str:00000000000001c1 .LASF8
     /tmp/ccg0UQxT.s:3656   .debug_str:00000000000001fb .LASF9
     /tmp/ccg0UQxT.s:3616   .debug_str:00000000000000d5 .LASF10
     /tmp/ccg0UQxT.s:3642   .debug_str:0000000000000197 .LASF11
     /tmp/ccg0UQxT.s:3626   .debug_str:000000000000010d .LASF12
     /tmp/ccg0UQxT.s:3614   .debug_str:00000000000000c5 .LASF13
     /tmp/ccg0UQxT.s:3782   .debug_str:0000000000000621 .LASF14
     /tmp/ccg0UQxT.s:3638   .debug_str:000000000000016a .LASF15
     /tmp/ccg0UQxT.s:3778   .debug_str:00000000000005fe .LASF16
GAS LISTING /tmp/ccg0UQxT.s 			page 37


     /tmp/ccg0UQxT.s:3694   .debug_str:0000000000000318 .LASF23
     /tmp/ccg0UQxT.s:3796   .debug_str:000000000000068a .LASF41
     /tmp/ccg0UQxT.s:3618   .debug_str:00000000000000e4 .LASF17
     /tmp/ccg0UQxT.s:3598   .debug_str:0000000000000058 .LASF18
     /tmp/ccg0UQxT.s:3684   .debug_str:00000000000002d4 .LASF19
     /tmp/ccg0UQxT.s:3774   .debug_str:00000000000005e1 .LASF20
     /tmp/ccg0UQxT.s:3624   .debug_str:0000000000000104 .LASF21
     /tmp/ccg0UQxT.s:3680   .debug_str:00000000000002c1 .LASF22
     /tmp/ccg0UQxT.s:3710   .debug_str:00000000000003ac .LASF24
     /tmp/ccg0UQxT.s:3756   .debug_str:0000000000000546 .LASF25
     /tmp/ccg0UQxT.s:3758   .debug_str:0000000000000563 .LASF26
     /tmp/ccg0UQxT.s:3714   .debug_str:00000000000003dd .LASF27
     /tmp/ccg0UQxT.s:3818   .debug_str:00000000000007fa .LASF40
     /tmp/ccg0UQxT.s:3706   .debug_str:000000000000037d .LASF56
     /tmp/ccg0UQxT.s:3828   .debug_str:000000000000084d .LASF60
     /tmp/ccg0UQxT.s:3792   .debug_str:000000000000065e .LASF62
     /tmp/ccg0UQxT.s:3704   .debug_str:0000000000000375 .LASF28
     /tmp/ccg0UQxT.s:3726   .debug_str:000000000000046c .LASF30
     /tmp/ccg0UQxT.s:3682   .debug_str:00000000000002c6 .LASF29
     /tmp/ccg0UQxT.s:3732   .debug_str:000000000000049a .LASF31
     /tmp/ccg0UQxT.s:3670   .debug_str:000000000000025b .LASF32
     /tmp/ccg0UQxT.s:3678   .debug_str:0000000000000293 .LASF33
     /tmp/ccg0UQxT.s:3786   .debug_str:0000000000000636 .LASF34
     /tmp/ccg0UQxT.s:3824   .debug_str:0000000000000825 .LASF35
     /tmp/ccg0UQxT.s:3708   .debug_str:00000000000003a2 .LASF36
     /tmp/ccg0UQxT.s:3810   .debug_str:000000000000079c .LASF37
     /tmp/ccg0UQxT.s:3648   .debug_str:00000000000001b7 .LASF38
     /tmp/ccg0UQxT.s:3790   .debug_str:000000000000064a .LASF39
     /tmp/ccg0UQxT.s:3822   .debug_str:0000000000000811 .LASF117
     /tmp/ccg0UQxT.s:3664   .debug_str:000000000000022a .LASF118
     /tmp/ccg0UQxT.s:3722   .debug_str:0000000000000437 .LASF119
     /tmp/ccg0UQxT.s:3620   .debug_str:00000000000000e9 .LASF42
     /tmp/ccg0UQxT.s:3830   .debug_str:0000000000000855 .LASF43
     /tmp/ccg0UQxT.s:3654   .debug_str:00000000000001ef .LASF44
     /tmp/ccg0UQxT.s:3610   .debug_str:000000000000009a .LASF45
     /tmp/ccg0UQxT.s:3646   .debug_str:00000000000001ab .LASF46
     /tmp/ccg0UQxT.s:3588   .debug_str:0000000000000005 .LASF47
     /tmp/ccg0UQxT.s:3700   .debug_str:000000000000035c .LASF48
     /tmp/ccg0UQxT.s:3776   .debug_str:00000000000005eb .LASF49
     /tmp/ccg0UQxT.s:3658   .debug_str:0000000000000209 .LASF50
     /tmp/ccg0UQxT.s:3764   .debug_str:0000000000000588 .LASF51
     /tmp/ccg0UQxT.s:3594   .debug_str:0000000000000045 .LASF52
     /tmp/ccg0UQxT.s:3780   .debug_str:0000000000000614 .LASF53
     /tmp/ccg0UQxT.s:3724   .debug_str:0000000000000447 .LASF54
     /tmp/ccg0UQxT.s:3734   .debug_str:00000000000004c1 .LASF120
     /tmp/ccg0UQxT.s:3748   .debug_str:0000000000000519 .LASF70
     /tmp/ccg0UQxT.s:3770   .debug_str:00000000000005be .LASF72
     /tmp/ccg0UQxT.s:3702   .debug_str:0000000000000369 .LASF55
     /tmp/ccg0UQxT.s:3640   .debug_str:0000000000000180 .LASF57
     /tmp/ccg0UQxT.s:3746   .debug_str:000000000000050e .LASF58
     /tmp/ccg0UQxT.s:3698   .debug_str:0000000000000343 .LASF59
     /tmp/ccg0UQxT.s:3716   .debug_str:00000000000003fa .LASF61
     /tmp/ccg0UQxT.s:3760   .debug_str:000000000000056d .LASF63
     /tmp/ccg0UQxT.s:3794   .debug_str:000000000000067e .LASF64
     /tmp/ccg0UQxT.s:3766   .debug_str:000000000000058d .LASF65
     /tmp/ccg0UQxT.s:3788   .debug_str:000000000000063f .LASF66
     /tmp/ccg0UQxT.s:3712   .debug_str:00000000000003c6 .LASF67
GAS LISTING /tmp/ccg0UQxT.s 			page 38


     /tmp/ccg0UQxT.s:3604   .debug_str:0000000000000076 .LASF68
     /tmp/ccg0UQxT.s:3812   .debug_str:00000000000007be .LASF69
     /tmp/ccg0UQxT.s:3688   .debug_str:00000000000002ec .LASF71
     /tmp/ccg0UQxT.s:3802   .debug_str:000000000000075e .LASF73
     /tmp/ccg0UQxT.s:3690   .debug_str:00000000000002f2 .LASF74
     /tmp/ccg0UQxT.s:3744   .debug_str:00000000000004f6 .LASF75
     /tmp/ccg0UQxT.s:3798   .debug_str:0000000000000692 .LASF121
     /tmp/ccg0UQxT.s:3586   .debug_str:0000000000000000 .LASF76
     /tmp/ccg0UQxT.s:3826   .debug_str:0000000000000847 .LASF77
     /tmp/ccg0UQxT.s:3808   .debug_str:0000000000000794 .LASF78
     /tmp/ccg0UQxT.s:3784   .debug_str:000000000000062d .LASF79
     /tmp/ccg0UQxT.s:3738   .debug_str:00000000000004ce .LASF80
     /tmp/ccg0UQxT.s:3742   .debug_str:00000000000004eb .LASF81
     /tmp/ccg0UQxT.s:3804   .debug_str:000000000000076e .LASF82
     /tmp/ccg0UQxT.s:3660   .debug_str:0000000000000216 .LASF83
     /tmp/ccg0UQxT.s:3608   .debug_str:000000000000008c .LASF85
     /tmp/ccg0UQxT.s:3692   .debug_str:00000000000002ff .LASF87
     /tmp/ccg0UQxT.s:3628   .debug_str:000000000000011d .LASF84
     /tmp/ccg0UQxT.s:3592   .debug_str:000000000000001d .LASF122
     /tmp/ccg0UQxT.s:3634   .debug_str:000000000000014b .LASF86
     /tmp/ccg0UQxT.s:3622   .debug_str:00000000000000f1 .LASF88
     /tmp/ccg0UQxT.s:3768   .debug_str:00000000000005ad .LASF89
     /tmp/ccg0UQxT.s:3820   .debug_str:0000000000000806 .LASF123
     /tmp/ccg0UQxT.s:3750   .debug_str:0000000000000529 .LASF90
     /tmp/ccg0UQxT.s:3752   .debug_str:000000000000052e .LASF91
     /tmp/ccg0UQxT.s:3662   .debug_str:0000000000000224 .LASF92
     /tmp/ccg0UQxT.s:3720   .debug_str:0000000000000420 .LASF93
     /tmp/ccg0UQxT.s:3632   .debug_str:0000000000000143 .LASF94
     /tmp/ccg0UQxT.s:3718   .debug_str:0000000000000404 .LASF95
     /tmp/ccg0UQxT.s:3674   .debug_str:0000000000000277 .LASF96
     /tmp/ccg0UQxT.s:3612   .debug_str:00000000000000aa .LASF97
     /tmp/ccg0UQxT.s:3736   .debug_str:00000000000004c6 .LASF98
     /tmp/ccg0UQxT.s:3696   .debug_str:0000000000000329 .LASF99
     /tmp/ccg0UQxT.s:3606   .debug_str:0000000000000082 .LASF100
     /tmp/ccg0UQxT.s:3806   .debug_str:0000000000000778 .LASF101
     /tmp/ccg0UQxT.s:3730   .debug_str:0000000000000494 .LASF102
     /tmp/ccg0UQxT.s:3636   .debug_str:0000000000000154 .LASF103
     /tmp/ccg0UQxT.s:3590   .debug_str:0000000000000015 .LASF104
     /tmp/ccg0UQxT.s:3630   .debug_str:000000000000012b .LASF105
     /tmp/ccg0UQxT.s:3728   .debug_str:000000000000048c .LASF106
     /tmp/ccg0UQxT.s:3600   .debug_str:000000000000005d .LASF107
     /tmp/ccg0UQxT.s:3814   .debug_str:00000000000007d5 .LASF108
     /tmp/ccg0UQxT.s:730    .text:0000000000000414 .LFB54
     /tmp/ccg0UQxT.s:983    .text:00000000000005b4 .LFE54
     /tmp/ccg0UQxT.s:3832   .debug_str:0000000000000862 .LASF109
     /tmp/ccg0UQxT.s:3212   .debug_loc:0000000000000000 .LLST13
     /tmp/ccg0UQxT.s:3230   .debug_loc:000000000000004c .LLST14
     /tmp/ccg0UQxT.s:752    .text:0000000000000430 .LBB57
     /tmp/ccg0UQxT.s:919    .text:0000000000000544 .LBE57
     /tmp/ccg0UQxT.s:3248   .debug_loc:0000000000000098 .LLST15
     /tmp/ccg0UQxT.s:756    .text:0000000000000430 .LBB59
     /tmp/ccg0UQxT.s:917    .text:0000000000000544 .LBE59
     /tmp/ccg0UQxT.s:3263   .debug_loc:00000000000000d4 .LLST16
     /tmp/ccg0UQxT.s:830    .text:00000000000004b8 .LBB62
     /tmp/ccg0UQxT.s:914    .text:0000000000000544 .LBE62
     /tmp/ccg0UQxT.s:3284   .debug_loc:0000000000000133 .LLST17
     /tmp/ccg0UQxT.s:961    .text:0000000000000594 .LVL52
GAS LISTING /tmp/ccg0UQxT.s 			page 39


     /tmp/ccg0UQxT.s:603    .text:0000000000000340 .LFB53
     /tmp/ccg0UQxT.s:654    .text:000000000000039c .LFE53
     /tmp/ccg0UQxT.s:637    .text:0000000000000380 .LVL32
     /tmp/ccg0UQxT.s:641    .text:0000000000000388 .LVL33
     /tmp/ccg0UQxT.s:660    .text:000000000000039c .LFB52
     /tmp/ccg0UQxT.s:724    .text:0000000000000414 .LFE52
     /tmp/ccg0UQxT.s:3295   .debug_loc:0000000000000169 .LLST12
     /tmp/ccg0UQxT.s:686    .text:00000000000003c8 .LVL35
     /tmp/ccg0UQxT.s:694    .text:00000000000003e0 .LVL36
     /tmp/ccg0UQxT.s:714    .text:0000000000000400 .LVL39
     /tmp/ccg0UQxT.s:721    .text:0000000000000410 .LVL40
     /tmp/ccg0UQxT.s:565    .text:000000000000031c .LFB51
     /tmp/ccg0UQxT.s:597    .text:0000000000000340 .LFE51
     /tmp/ccg0UQxT.s:3816   .debug_str:00000000000007f0 .LASF110
     /tmp/ccg0UQxT.s:65     .text:0000000000000038 .LFB50
     /tmp/ccg0UQxT.s:559    .text:000000000000031c .LFE50
     /tmp/ccg0UQxT.s:3306   .debug_loc:000000000000019f .LLST1
     /tmp/ccg0UQxT.s:3331   .debug_loc:0000000000000201 .LLST2
     /tmp/ccg0UQxT.s:3353   .debug_loc:0000000000000260 .LLST3
     /tmp/ccg0UQxT.s:3602   .debug_str:000000000000006e .LASF111
     /tmp/ccg0UQxT.s:3389   .debug_loc:00000000000002eb .LLST4
     /tmp/ccg0UQxT.s:84     .text:0000000000000050 .LBB24
     /tmp/ccg0UQxT.s:3552   .debug_ranges:0000000000000000 .Ldebug_ranges0
     /tmp/ccg0UQxT.s:3414   .debug_loc:000000000000034d .LLST5
     /tmp/ccg0UQxT.s:3429   .debug_loc:0000000000000387 .LLST6
     /tmp/ccg0UQxT.s:3450   .debug_loc:00000000000003e6 .LLST7
     /tmp/ccg0UQxT.s:249    .text:0000000000000144 .LBB37
     /tmp/ccg0UQxT.s:3461   .debug_loc:000000000000041c .LLST8
     /tmp/ccg0UQxT.s:3482   .debug_loc:000000000000046e .LLST9
     /tmp/ccg0UQxT.s:355    .text:00000000000001e0 .LBB42
     /tmp/ccg0UQxT.s:439    .text:000000000000026c .LBE42
     /tmp/ccg0UQxT.s:3507   .debug_loc:00000000000004e0 .LLST10
     /tmp/ccg0UQxT.s:503    .text:00000000000002d0 .LBB49
     /tmp/ccg0UQxT.s:511    .text:00000000000002d4 .LBE49
     /tmp/ccg0UQxT.s:3518   .debug_loc:0000000000000516 .LLST11
     /tmp/ccg0UQxT.s:552    .text:0000000000000310 .LVL29
     /tmp/ccg0UQxT.s:38     .text:000000000000001c .LFB49
     /tmp/ccg0UQxT.s:59     .text:0000000000000038 .LFE49
     /tmp/ccg0UQxT.s:3644   .debug_str:00000000000001a6 .LASF112
     /tmp/ccg0UQxT.s:10     .text:0000000000000000 .LFB48
     /tmp/ccg0UQxT.s:32     .text:000000000000001c .LFE48
     /tmp/ccg0UQxT.s:3525   .debug_loc:0000000000000539 .LLST0
     /tmp/ccg0UQxT.s:3772   .debug_str:00000000000005d9 .LASF113
     /tmp/ccg0UQxT.s:733    .text:0000000000000414 .LVL41
     /tmp/ccg0UQxT.s:959    .text:000000000000058c .LVL51
     /tmp/ccg0UQxT.s:972    .text:00000000000005a4 .LVL53
     /tmp/ccg0UQxT.s:750    .text:0000000000000430 .LVL42
     /tmp/ccg0UQxT.s:901    .text:000000000000052c .LVL48
     /tmp/ccg0UQxT.s:903    .text:0000000000000530 .LVL49
     /tmp/ccg0UQxT.s:912    .text:0000000000000544 .LVL50
     /tmp/ccg0UQxT.s:760    .text:000000000000043c .LVL43
     /tmp/ccg0UQxT.s:818    .text:00000000000004a4 .LVL44
     /tmp/ccg0UQxT.s:820    .text:00000000000004a8 .LVL45
     /tmp/ccg0UQxT.s:874    .text:00000000000004f8 .LVL47
     /tmp/ccg0UQxT.s:836    .text:00000000000004c4 .LVL46
     /tmp/ccg0UQxT.s:676    .text:00000000000003b8 .LVL34
     /tmp/ccg0UQxT.s:704    .text:00000000000003ec .LVL37
GAS LISTING /tmp/ccg0UQxT.s 			page 40


     /tmp/ccg0UQxT.s:708    .text:00000000000003f4 .LVL38
     /tmp/ccg0UQxT.s:68     .text:0000000000000038 .LVL3
     /tmp/ccg0UQxT.s:502    .text:00000000000002d0 .LVL23
     /tmp/ccg0UQxT.s:537    .text:00000000000002f8 .LVL27
     /tmp/ccg0UQxT.s:547    .text:0000000000000308 .LVL28
     /tmp/ccg0UQxT.s:92     .text:000000000000005c .LVL5
     /tmp/ccg0UQxT.s:533    .text:00000000000002f0 .LVL26
     /tmp/ccg0UQxT.s:257    .text:0000000000000150 .LVL12
     /tmp/ccg0UQxT.s:310    .text:00000000000001b4 .LVL13
     /tmp/ccg0UQxT.s:330    .text:00000000000001c8 .LVL14
     /tmp/ccg0UQxT.s:437    .text:000000000000026c .LVL21
     /tmp/ccg0UQxT.s:447    .text:0000000000000270 .LVL22
     /tmp/ccg0UQxT.s:514    .text:00000000000002d8 .LVL25
     /tmp/ccg0UQxT.s:81     .text:0000000000000050 .LVL4
     /tmp/ccg0UQxT.s:226    .text:0000000000000130 .LVL10
     /tmp/ccg0UQxT.s:147    .text:00000000000000b8 .LVL6
     /tmp/ccg0UQxT.s:149    .text:00000000000000bc .LVL7
     /tmp/ccg0UQxT.s:201    .text:0000000000000104 .LVL9
     /tmp/ccg0UQxT.s:163    .text:00000000000000d0 .LVL8
     /tmp/ccg0UQxT.s:247    .text:0000000000000144 .LVL11
     /tmp/ccg0UQxT.s:426    .text:0000000000000254 .LVL19
     /tmp/ccg0UQxT.s:428    .text:0000000000000258 .LVL20
     /tmp/ccg0UQxT.s:343    .text:00000000000001cc .LVL15
     /tmp/ccg0UQxT.s:345    .text:00000000000001d0 .LVL16
     /tmp/ccg0UQxT.s:399    .text:0000000000000220 .LVL18
     /tmp/ccg0UQxT.s:361    .text:00000000000001ec .LVL17
     /tmp/ccg0UQxT.s:509    .text:00000000000002d4 .LVL24
     /tmp/ccg0UQxT.s:14     .text:0000000000000000 .LVL0
     /tmp/ccg0UQxT.s:24     .text:0000000000000010 .LVL1
     /tmp/ccg0UQxT.s:1005   .debug_info:0000000000000000 .Ldebug_info0
     /tmp/ccg0UQxT.s:233    .text:0000000000000130 .LBE24
     /tmp/ccg0UQxT.s:317    .text:00000000000001b4 .LBB47
     /tmp/ccg0UQxT.s:337    .text:00000000000001c8 .LBE47
     /tmp/ccg0UQxT.s:88     .text:0000000000000050 .LBB26
     /tmp/ccg0UQxT.s:231    .text:0000000000000130 .LBE26
     /tmp/ccg0UQxT.s:319    .text:00000000000001b4 .LBB35
     /tmp/ccg0UQxT.s:335    .text:00000000000001c8 .LBE35
     /tmp/ccg0UQxT.s:159    .text:00000000000000cc .LBB29
     /tmp/ccg0UQxT.s:228    .text:0000000000000130 .LBE29
     /tmp/ccg0UQxT.s:322    .text:00000000000001b4 .LBB30
     /tmp/ccg0UQxT.s:332    .text:00000000000001c8 .LBE30
     /tmp/ccg0UQxT.s:316    .text:00000000000001b4 .LBE37
     /tmp/ccg0UQxT.s:338    .text:00000000000001c8 .LBB48
     /tmp/ccg0UQxT.s:444    .text:000000000000026c .LBE48
     /tmp/ccg0UQxT.s:253    .text:0000000000000144 .LBB39
     /tmp/ccg0UQxT.s:314    .text:00000000000001b4 .LBE39
     /tmp/ccg0UQxT.s:340    .text:00000000000001c8 .LBB45
     /tmp/ccg0UQxT.s:442    .text:000000000000026c .LBE45

UNDEFINED SYMBOLS
_ZN16MemoryAllocation9fmem_headE
_ZN9Scheduler3putEP3TCB
_ZN9Scheduler3getEv
_ZN3TCB13contextSwitchEPNS_7ContextES1_
