GAS LISTING /tmp/ccBQKAh7.s 			page 1


   1              		.file	"tcb.cpp"
   2              		.option pic
   3              		.option norelax
   4              		.text
   5              	.Ltext0:
   6              		.align	2
   7              		.globl	_ZNK3TCB10isFinishedEv
   9              	_ZNK3TCB10isFinishedEv:
  10              	.LFB32:
  11              		.file 1 "src/tcb.cpp"
   1:src/tcb.cpp   **** //
   2:src/tcb.cpp   **** // Created by os on 8/14/22.
   3:src/tcb.cpp   **** //
   4:src/tcb.cpp   **** 
   5:src/tcb.cpp   **** #include "../h/tcb.hpp"
   6:src/tcb.cpp   **** #include "../h/RiscV.hpp"
   7:src/tcb.cpp   **** 
   8:src/tcb.cpp   **** 
   9:src/tcb.cpp   **** 
  10:src/tcb.cpp   **** bool TCB::isFinished() const {
  12              		.loc 1 10 30
  13              		.cfi_startproc
  14              	.LVL0:
  15 0000 130101FF 		addi	sp,sp,-16
  16              		.cfi_def_cfa_offset 16
  17 0004 23348100 		sd	s0,8(sp)
  18              		.cfi_offset 8, -8
  19 0008 13040101 		addi	s0,sp,16
  20              		.cfi_def_cfa 8, 0
  11:src/tcb.cpp   ****     return finished;
  21              		.loc 1 11 5
  12:src/tcb.cpp   **** }
  22              		.loc 1 12 1 is_stmt 0
  23 000c 03458502 		lbu	a0,40(a0)
  24              	.LVL1:
  25 0010 03348100 		ld	s0,8(sp)
  26              		.cfi_restore 8
  27              		.cfi_def_cfa 2, 16
  28 0014 13010101 		addi	sp,sp,16
  29              		.cfi_def_cfa_offset 0
  30 0018 67800000 		jr	ra
  31              		.cfi_endproc
  32              	.LFE32:
  34              		.align	2
  35              		.globl	_ZN3TCB11setFinishedEb
  37              	_ZN3TCB11setFinishedEb:
  38              	.LFB33:
  13:src/tcb.cpp   **** 
  14:src/tcb.cpp   **** void TCB::setFinished(bool finished) {
  39              		.loc 1 14 38 is_stmt 1
  40              		.cfi_startproc
  41              	.LVL2:
  42 001c 130101FF 		addi	sp,sp,-16
  43              		.cfi_def_cfa_offset 16
  44 0020 23348100 		sd	s0,8(sp)
  45              		.cfi_offset 8, -8
  46 0024 13040101 		addi	s0,sp,16
GAS LISTING /tmp/ccBQKAh7.s 			page 2


  47              		.cfi_def_cfa 8, 0
  15:src/tcb.cpp   ****     TCB::finished = finished;
  48              		.loc 1 15 5
  49              		.loc 1 15 19 is_stmt 0
  50 0028 2304B502 		sb	a1,40(a0)
  16:src/tcb.cpp   **** }
  51              		.loc 1 16 1
  52 002c 03348100 		ld	s0,8(sp)
  53              		.cfi_restore 8
  54              		.cfi_def_cfa 2, 16
  55 0030 13010101 		addi	sp,sp,16
  56              		.cfi_def_cfa_offset 0
  57 0034 67800000 		jr	ra
  58              		.cfi_endproc
  59              	.LFE33:
  61              		.align	2
  62              		.globl	_ZN3TCB12createThreadEPFvvE
  64              	_ZN3TCB12createThreadEPFvvE:
  65              	.LFB34:
  17:src/tcb.cpp   **** TCB* TCB::running = nullptr;
  18:src/tcb.cpp   **** 
  19:src/tcb.cpp   **** uint64 TCB::timeSliceCounter=0;
  20:src/tcb.cpp   **** 
  21:src/tcb.cpp   **** TCB* TCB::createThread(TCB::Body body) {
  66              		.loc 1 21 40 is_stmt 1
  67              		.cfi_startproc
  68              		.cfi_personality 0x9b,DW.ref.__gxx_personality_v0
  69              		.cfi_lsda 0x1b,.LLSDA34
  70              	.LVL3:
  71 0038 130101FE 		addi	sp,sp,-32
  72              		.cfi_def_cfa_offset 32
  73 003c 233C1100 		sd	ra,24(sp)
  74 0040 23388100 		sd	s0,16(sp)
  75 0044 23349100 		sd	s1,8(sp)
  76 0048 23302101 		sd	s2,0(sp)
  77              		.cfi_offset 1, -8
  78              		.cfi_offset 8, -16
  79              		.cfi_offset 9, -24
  80              		.cfi_offset 18, -32
  81 004c 13040102 		addi	s0,sp,32
  82              		.cfi_def_cfa 8, 0
  83 0050 13090500 		mv	s2,a0
  22:src/tcb.cpp   ****     return new TCB(body, TIME_SLICE);
  84              		.loc 1 22 5
  85              		.loc 1 22 36 is_stmt 0
  86 0054 13050003 		li	a0,48
  87              	.LVL4:
  88              	.LEHB0:
  89 0058 97000000 		call	_Znwm@plt
  89      E7800000 
  90              	.LVL5:
  91              	.LEHE0:
  92 0060 93040500 		mv	s1,a0
  93              	.LVL6:
  94              	.LBB5:
  95              	.LBB6:
  96              		.file 2 "src/../h/tcb.hpp"
GAS LISTING /tmp/ccBQKAh7.s 			page 3


   1:src/../h/tcb.hpp **** //
   2:src/../h/tcb.hpp **** // Created by os on 8/14/22.
   3:src/../h/tcb.hpp **** //
   4:src/../h/tcb.hpp **** 
   5:src/../h/tcb.hpp **** #ifndef PROJECT_BASE_TCB_HPP
   6:src/../h/tcb.hpp **** #define PROJECT_BASE_TCB_HPP
   7:src/../h/tcb.hpp **** #include "../lib/hw.h"
   8:src/../h/tcb.hpp **** #include "../h/Scheduler.hpp"
   9:src/../h/tcb.hpp **** 
  10:src/../h/tcb.hpp **** class TCB {
  11:src/../h/tcb.hpp **** 
  12:src/../h/tcb.hpp **** public:
  13:src/../h/tcb.hpp ****     ~TCB() { delete[] stack; }
  14:src/../h/tcb.hpp **** 
  15:src/../h/tcb.hpp ****     using Body = void (*)();
  16:src/../h/tcb.hpp **** 
  17:src/../h/tcb.hpp ****     static TCB *createThread(Body body);
  18:src/../h/tcb.hpp **** 
  19:src/../h/tcb.hpp ****     bool isFinished() const;
  20:src/../h/tcb.hpp **** 
  21:src/../h/tcb.hpp ****     void setFinished(bool finished);
  22:src/../h/tcb.hpp **** 
  23:src/../h/tcb.hpp ****     static void yield();
  24:src/../h/tcb.hpp **** 
  25:src/../h/tcb.hpp ****     static TCB *running;
  26:src/../h/tcb.hpp **** 
  27:src/../h/tcb.hpp ****     inline uint64 getTimeSlice() const { return timeSlice; };
  28:src/../h/tcb.hpp **** private:
  29:src/../h/tcb.hpp ****     explicit TCB(Body body, uint64 timeSlice) :
  30:src/../h/tcb.hpp ****             body(body),
  31:src/../h/tcb.hpp ****             stack(body != nullptr ? new uint64[1024] : nullptr),
  32:src/../h/tcb.hpp ****             context({(uint64)&threadWrapper,
  33:src/../h/tcb.hpp ****                      stack != nullptr ? (uint64) &stack[1024] : 0
  34:src/../h/tcb.hpp ****                     }
  35:src/../h/tcb.hpp ****             ),
  36:src/../h/tcb.hpp ****             timeSlice(timeSlice),
  37:src/../h/tcb.hpp ****             finished(false) {
  97              		.loc 2 37 27
  98 0064 23302501 		sd	s2,0(a0)
  31:src/../h/tcb.hpp ****             context({(uint64)&threadWrapper,
  99              		.loc 2 31 35
 100 0068 630A0900 		beqz	s2,.L10
  31:src/../h/tcb.hpp ****             context({(uint64)&threadWrapper,
 101              		.loc 2 31 52
 102 006c 37250000 		li	a0,8192
 103              	.LEHB1:
 104 0070 97000000 		call	_Znam@plt
 104      E7800000 
 105              	.LVL7:
 106 0078 6F008000 		j	.L6
 107              	.L10:
  31:src/../h/tcb.hpp ****             context({(uint64)&threadWrapper,
 108              		.loc 2 31 35
 109 007c 13050000 		li	a0,0
 110              	.L6:
 111              		.loc 2 37 27
 112 0080 23B4A400 		sd	a0,8(s1)
GAS LISTING /tmp/ccBQKAh7.s 			page 4


 113 0084 97070000 		lla	a5,_ZN3TCB13threadWrapperEv
 113      93870700 
 114 008c 23B8F400 		sd	a5,16(s1)
  33:src/../h/tcb.hpp ****                     }
 115              		.loc 2 33 39
 116 0090 63080502 		beqz	a0,.L11
  33:src/../h/tcb.hpp ****                     }
 117              		.loc 2 33 50
 118 0094 B7270000 		li	a5,8192
 119 0098 B307F500 		add	a5,a0,a5
 120              	.L7:
 121              		.loc 2 37 27
 122 009c 23BCF400 		sd	a5,24(s1)
 123 00a0 93072000 		li	a5,2
 124 00a4 23B0F402 		sd	a5,32(s1)
 125 00a8 23840402 		sb	zero,40(s1)
  38:src/../h/tcb.hpp ****         if (body != nullptr) { Scheduler::put(this); }
 126              		.loc 2 38 9 is_stmt 1
 127 00ac 630C0902 		beqz	s2,.L5
 128              		.loc 2 38 32
 129              		.loc 2 38 46 is_stmt 0
 130 00b0 13850400 		mv	a0,s1
 131 00b4 97000000 		call	_ZN9Scheduler3putEP3TCB@plt
 131      E7800000 
 132              	.LVL8:
 133              	.LEHE1:
 134 00bc 6F008002 		j	.L5
 135              	.L11:
  33:src/../h/tcb.hpp ****                     }
 136              		.loc 2 33 39
 137 00c0 93070000 		li	a5,0
 138 00c4 6FF09FFD 		j	.L7
 139              	.L12:
 140 00c8 13090500 		mv	s2,a0
 141              	.LVL9:
 142              	.LBE6:
 143              	.LBE5:
 144              		.loc 1 22 36
 145 00cc 13850400 		mv	a0,s1
 146 00d0 97000000 		call	_ZdlPv@plt
 146      E7800000 
 147              	.LVL10:
 148 00d8 13050900 		mv	a0,s2
 149              	.LEHB2:
 150 00dc 97000000 		call	_Unwind_Resume@plt
 150      E7800000 
 151              	.LVL11:
 152              	.LEHE2:
 153              	.L5:
  23:src/tcb.cpp   **** }
 154              		.loc 1 23 1
 155 00e4 13850400 		mv	a0,s1
 156 00e8 83308101 		ld	ra,24(sp)
 157              		.cfi_restore 1
 158 00ec 03340101 		ld	s0,16(sp)
 159              		.cfi_restore 8
 160              		.cfi_def_cfa 2, 32
GAS LISTING /tmp/ccBQKAh7.s 			page 5


 161 00f0 83348100 		ld	s1,8(sp)
 162              		.cfi_restore 9
 163              	.LVL12:
 164 00f4 03390100 		ld	s2,0(sp)
 165              		.cfi_restore 18
 166              	.LVL13:
 167 00f8 13010102 		addi	sp,sp,32
 168              		.cfi_def_cfa_offset 0
 169 00fc 67800000 		jr	ra
 170              		.cfi_endproc
 171              	.LFE34:
 172              		.globl	__gxx_personality_v0
 173              		.section	.gcc_except_table,"a",@progbits
 174              	.LLSDA34:
 175 0000 FF       		.byte	0xff
 176 0001 FF       		.byte	0xff
 177 0002 03       		.byte	0x3
 178 0003 27       		.byte	0x27
 179 0004 00000000 		.4byte	.LEHB0-.LFB34
 180 0008 00000000 		.4byte	.LEHE0-.LEHB0
 181 000c 00000000 		.4byte	0
 182 0010 00       		.byte	0
 183 0011 00000000 		.4byte	.LEHB1-.LFB34
 184 0015 00000000 		.4byte	.LEHE1-.LEHB1
 185 0019 00000000 		.4byte	.L12-.LFB34
 186 001d 00       		.byte	0
 187 001e 00000000 		.4byte	.LEHB2-.LFB34
 188 0022 00000000 		.4byte	.LEHE2-.LEHB2
 189 0026 00000000 		.4byte	0
 190 002a 00       		.byte	0
 191              		.text
 193              		.align	2
 194              		.globl	_ZN3TCB5yieldEv
 196              	_ZN3TCB5yieldEv:
 197              	.LFB35:
  24:src/tcb.cpp   **** 
  25:src/tcb.cpp   **** void TCB::yield(){
 198              		.loc 1 25 18 is_stmt 1
 199              		.cfi_startproc
 200 0100 130101FF 		addi	sp,sp,-16
 201              		.cfi_def_cfa_offset 16
 202 0104 23348100 		sd	s0,8(sp)
 203              		.cfi_offset 8, -8
 204 0108 13040101 		addi	s0,sp,16
 205              		.cfi_def_cfa 8, 0
  26:src/tcb.cpp   **** 
  27:src/tcb.cpp   **** 
  28:src/tcb.cpp   **** 
  29:src/tcb.cpp   ****     __asm__ volatile ("ecall");
 206              		.loc 1 29 5
 207              		.loc 1 29 31 is_stmt 0
 208              	#APP
 209              	# 29 "src/tcb.cpp" 1
  30              	
  31:src/tcb.cpp   **** };
 210              		ecall
 211              	# 0 "" 2
GAS LISTING /tmp/ccBQKAh7.s 			page 6


 212              		.loc 1 31 1
 213              	#NO_APP
 214 0110 03348100 		ld	s0,8(sp)
 215              		.cfi_restore 8
 216              		.cfi_def_cfa 2, 16
 217 0114 13010101 		addi	sp,sp,16
 218              		.cfi_def_cfa_offset 0
 219 0118 67800000 		jr	ra
 220              		.cfi_endproc
 221              	.LFE35:
 223              		.align	2
 224              		.globl	_ZN3TCB13threadWrapperEv
 226              	_ZN3TCB13threadWrapperEv:
 227              	.LFB37:
  32:src/tcb.cpp   **** 
  33:src/tcb.cpp   **** void TCB::dispatch() {
  34:src/tcb.cpp   ****     TCB *old = running;
  35:src/tcb.cpp   ****     if (!old->isFinished()) {
  36:src/tcb.cpp   ****         Scheduler::put(old);
  37:src/tcb.cpp   ****     }
  38:src/tcb.cpp   ****     running = Scheduler::get();
  39:src/tcb.cpp   **** 
  40:src/tcb.cpp   ****     TCB::contextSwitch(&old->context, &running->context);
  41:src/tcb.cpp   **** }
  42:src/tcb.cpp   **** 
  43:src/tcb.cpp   **** void TCB::threadWrapper() {
 228              		.loc 1 43 27 is_stmt 1
 229              		.cfi_startproc
 230 011c 130101FE 		addi	sp,sp,-32
 231              		.cfi_def_cfa_offset 32
 232 0120 233C1100 		sd	ra,24(sp)
 233 0124 23388100 		sd	s0,16(sp)
 234 0128 23349100 		sd	s1,8(sp)
 235              		.cfi_offset 1, -8
 236              		.cfi_offset 8, -16
 237              		.cfi_offset 9, -24
 238 012c 13040102 		addi	s0,sp,32
 239              		.cfi_def_cfa 8, 0
  44:src/tcb.cpp   ****     RiscV::popSppSpie();
 240              		.loc 1 44 5
 241              		.loc 1 44 22 is_stmt 0
 242 0130 97000000 		call	_ZN5RiscV10popSppSpieEv@plt
 242      E7800000 
 243              	.LVL14:
  45:src/tcb.cpp   ****     running->body();
 244              		.loc 1 45 5 is_stmt 1
 245              		.loc 1 45 14 is_stmt 0
 246 0138 97040000 		lla	s1,.LANCHOR0
 246      93840400 
 247 0140 83B70400 		ld	a5,0(s1)
 248 0144 83B70700 		ld	a5,0(a5)
 249              		.loc 1 45 18
 250 0148 E7800700 		jalr	a5
 251              	.LVL15:
  46:src/tcb.cpp   ****     running->setFinished(true);
 252              		.loc 1 46 5 is_stmt 1
 253              		.loc 1 46 25 is_stmt 0
GAS LISTING /tmp/ccBQKAh7.s 			page 7


 254 014c 93051000 		li	a1,1
 255 0150 03B50400 		ld	a0,0(s1)
 256 0154 97000000 		call	_ZN3TCB11setFinishedEb
 256      E7800000 
 257              	.LVL16:
  47:src/tcb.cpp   ****     TCB::yield();
 258              		.loc 1 47 5 is_stmt 1
 259              		.loc 1 47 15 is_stmt 0
 260 015c 97000000 		call	_ZN3TCB5yieldEv
 260      E7800000 
 261              	.LVL17:
  48:src/tcb.cpp   **** }
 262              		.loc 1 48 1
 263 0164 83308101 		ld	ra,24(sp)
 264              		.cfi_restore 1
 265 0168 03340101 		ld	s0,16(sp)
 266              		.cfi_restore 8
 267              		.cfi_def_cfa 2, 32
 268 016c 83348100 		ld	s1,8(sp)
 269              		.cfi_restore 9
 270 0170 13010102 		addi	sp,sp,32
 271              		.cfi_def_cfa_offset 0
 272 0174 67800000 		jr	ra
 273              		.cfi_endproc
 274              	.LFE37:
 276              		.align	2
 277              		.globl	_ZN3TCB8dispatchEv
 279              	_ZN3TCB8dispatchEv:
 280              	.LFB36:
  33:src/tcb.cpp   ****     TCB *old = running;
 281              		.loc 1 33 22 is_stmt 1
 282              		.cfi_startproc
 283 0178 130101FE 		addi	sp,sp,-32
 284              		.cfi_def_cfa_offset 32
 285 017c 233C1100 		sd	ra,24(sp)
 286 0180 23388100 		sd	s0,16(sp)
 287 0184 23349100 		sd	s1,8(sp)
 288              		.cfi_offset 1, -8
 289              		.cfi_offset 8, -16
 290              		.cfi_offset 9, -24
 291 0188 13040102 		addi	s0,sp,32
 292              		.cfi_def_cfa 8, 0
  34:src/tcb.cpp   ****     if (!old->isFinished()) {
 293              		.loc 1 34 5
  34:src/tcb.cpp   ****     if (!old->isFinished()) {
 294              		.loc 1 34 10 is_stmt 0
 295 018c 97040000 		ld	s1,.LANCHOR0
 295      83B40400 
 296              	.LVL18:
  35:src/tcb.cpp   ****         Scheduler::put(old);
 297              		.loc 1 35 5 is_stmt 1
  35:src/tcb.cpp   ****         Scheduler::put(old);
 298              		.loc 1 35 25 is_stmt 0
 299 0194 13850400 		mv	a0,s1
 300 0198 97000000 		call	_ZNK3TCB10isFinishedEv
 300      E7800000 
 301              	.LVL19:
GAS LISTING /tmp/ccBQKAh7.s 			page 8


  35:src/tcb.cpp   ****         Scheduler::put(old);
 302              		.loc 1 35 5
 303 01a0 630C0502 		beqz	a0,.L21
 304              	.L19:
  38:src/tcb.cpp   **** 
 305              		.loc 1 38 5 is_stmt 1
  38:src/tcb.cpp   **** 
 306              		.loc 1 38 29 is_stmt 0
 307 01a4 97000000 		call	_ZN9Scheduler3getEv@plt
 307      E7800000 
 308              	.LVL20:
  38:src/tcb.cpp   **** 
 309              		.loc 1 38 13
 310 01ac 97070000 		sd	a0,.LANCHOR0,a5
 310      23B0A700 
  40:src/tcb.cpp   **** }
 311              		.loc 1 40 5 is_stmt 1
  40:src/tcb.cpp   **** }
 312              		.loc 1 40 23 is_stmt 0
 313 01b4 93050501 		addi	a1,a0,16
 314 01b8 13850401 		addi	a0,s1,16
 315 01bc 97000000 		call	_ZN3TCB13contextSwitchEPNS_7ContextES1_@plt
 315      E7800000 
 316              	.LVL21:
  41:src/tcb.cpp   **** 
 317              		.loc 1 41 1
 318 01c4 83308101 		ld	ra,24(sp)
 319              		.cfi_remember_state
 320              		.cfi_restore 1
 321 01c8 03340101 		ld	s0,16(sp)
 322              		.cfi_restore 8
 323              		.cfi_def_cfa 2, 32
 324 01cc 83348100 		ld	s1,8(sp)
 325              		.cfi_restore 9
 326              	.LVL22:
 327 01d0 13010102 		addi	sp,sp,32
 328              		.cfi_def_cfa_offset 0
 329 01d4 67800000 		jr	ra
 330              	.LVL23:
 331              	.L21:
 332              		.cfi_restore_state
  36:src/tcb.cpp   ****     }
 333              		.loc 1 36 9 is_stmt 1
  36:src/tcb.cpp   ****     }
 334              		.loc 1 36 23 is_stmt 0
 335 01d8 13850400 		mv	a0,s1
 336 01dc 97000000 		call	_ZN9Scheduler3putEP3TCB@plt
 336      E7800000 
 337              	.LVL24:
 338 01e4 6FF01FFC 		j	.L19
 339              		.cfi_endproc
 340              	.LFE36:
 342              		.globl	_ZN3TCB16timeSliceCounterE
 343              		.globl	_ZN3TCB7runningE
 344              		.bss
 345              		.align	3
 346              		.set	.LANCHOR0,. + 0
GAS LISTING /tmp/ccBQKAh7.s 			page 9


 349              	_ZN3TCB7runningE:
 350 0000 00000000 		.zero	8
 350      00000000 
 353              	_ZN3TCB16timeSliceCounterE:
 354 0008 00000000 		.zero	8
 354      00000000 
 355              		.text
 356              	.Letext0:
 357              		.file 3 "src/../h/../lib/hw.h"
 358              		.file 4 "src/../h/../h/Scheduler.hpp"
 359              		.file 5 "src/../h/RiscV.hpp"
 2477              		.align	3
 2480              	DW.ref.__gxx_personality_v0:
 2481 0000 00000000 		.dword	__gxx_personality_v0
 2481      00000000 
 2482              		.ident	"GCC: (Ubuntu 9.4.0-1ubuntu1~20.04) 9.4.0"
 2483              		.section	.note.GNU-stack,"",@progbits
GAS LISTING /tmp/ccBQKAh7.s 			page 10


DEFINED SYMBOLS
                            *ABS*:0000000000000000 tcb.cpp
     /tmp/ccBQKAh7.s:9      .text:0000000000000000 _ZNK3TCB10isFinishedEv
     /tmp/ccBQKAh7.s:13     .text:0000000000000000 .L0 
     /tmp/ccBQKAh7.s:15     .text:0000000000000000 .L0 
     /tmp/ccBQKAh7.s:16     .text:0000000000000004 .L0 
     /tmp/ccBQKAh7.s:18     .text:0000000000000008 .L0 
     /tmp/ccBQKAh7.s:20     .text:000000000000000c .L0 
     /tmp/ccBQKAh7.s:22     .text:000000000000000c .L0 
     /tmp/ccBQKAh7.s:23     .text:000000000000000c .L0 
     /tmp/ccBQKAh7.s:26     .text:0000000000000014 .L0 
     /tmp/ccBQKAh7.s:27     .text:0000000000000014 .L0 
     /tmp/ccBQKAh7.s:29     .text:0000000000000018 .L0 
     /tmp/ccBQKAh7.s:31     .text:000000000000001c .L0 
     /tmp/ccBQKAh7.s:37     .text:000000000000001c _ZN3TCB11setFinishedEb
     /tmp/ccBQKAh7.s:40     .text:000000000000001c .L0 
     /tmp/ccBQKAh7.s:42     .text:000000000000001c .L0 
     /tmp/ccBQKAh7.s:43     .text:0000000000000020 .L0 
     /tmp/ccBQKAh7.s:45     .text:0000000000000024 .L0 
     /tmp/ccBQKAh7.s:47     .text:0000000000000028 .L0 
     /tmp/ccBQKAh7.s:49     .text:0000000000000028 .L0 
     /tmp/ccBQKAh7.s:50     .text:0000000000000028 .L0 
     /tmp/ccBQKAh7.s:52     .text:000000000000002c .L0 
     /tmp/ccBQKAh7.s:53     .text:0000000000000030 .L0 
     /tmp/ccBQKAh7.s:54     .text:0000000000000030 .L0 
     /tmp/ccBQKAh7.s:56     .text:0000000000000034 .L0 
     /tmp/ccBQKAh7.s:58     .text:0000000000000038 .L0 
     /tmp/ccBQKAh7.s:64     .text:0000000000000038 _ZN3TCB12createThreadEPFvvE
     /tmp/ccBQKAh7.s:67     .text:0000000000000038 .L0 
     /tmp/ccBQKAh7.s:2480   .data.rel.local.DW.ref.__gxx_personality_v0:0000000000000000 DW.ref.__gxx_personality_v0
     /tmp/ccBQKAh7.s:71     .text:0000000000000038 .L0 
     /tmp/ccBQKAh7.s:72     .text:000000000000003c .L0 
     /tmp/ccBQKAh7.s:77     .text:000000000000004c .L0 
     /tmp/ccBQKAh7.s:78     .text:000000000000004c .L0 
     /tmp/ccBQKAh7.s:79     .text:000000000000004c .L0 
     /tmp/ccBQKAh7.s:80     .text:000000000000004c .L0 
     /tmp/ccBQKAh7.s:82     .text:0000000000000050 .L0 
     /tmp/ccBQKAh7.s:85     .text:0000000000000054 .L0 
     /tmp/ccBQKAh7.s:86     .text:0000000000000054 .L0 
     /tmp/ccBQKAh7.s:98     .text:0000000000000064 .L0 
     /tmp/ccBQKAh7.s:100    .text:0000000000000068 .L0 
     /tmp/ccBQKAh7.s:102    .text:000000000000006c .L0 
     /tmp/ccBQKAh7.s:109    .text:000000000000007c .L0 
     /tmp/ccBQKAh7.s:112    .text:0000000000000080 .L0 
     /tmp/ccBQKAh7.s:226    .text:000000000000011c _ZN3TCB13threadWrapperEv
     /tmp/ccBQKAh7.s:116    .text:0000000000000090 .L0 
     /tmp/ccBQKAh7.s:118    .text:0000000000000094 .L0 
     /tmp/ccBQKAh7.s:122    .text:000000000000009c .L0 
     /tmp/ccBQKAh7.s:127    .text:00000000000000ac .L0 
     /tmp/ccBQKAh7.s:129    .text:00000000000000b0 .L0 
     /tmp/ccBQKAh7.s:130    .text:00000000000000b0 .L0 
     /tmp/ccBQKAh7.s:137    .text:00000000000000c0 .L0 
     /tmp/ccBQKAh7.s:145    .text:00000000000000cc .L0 
     /tmp/ccBQKAh7.s:155    .text:00000000000000e4 .L0 
     /tmp/ccBQKAh7.s:157    .text:00000000000000ec .L0 
     /tmp/ccBQKAh7.s:159    .text:00000000000000f0 .L0 
     /tmp/ccBQKAh7.s:160    .text:00000000000000f0 .L0 
GAS LISTING /tmp/ccBQKAh7.s 			page 11


     /tmp/ccBQKAh7.s:162    .text:00000000000000f4 .L0 
     /tmp/ccBQKAh7.s:165    .text:00000000000000f8 .L0 
     /tmp/ccBQKAh7.s:168    .text:00000000000000fc .L0 
     /tmp/ccBQKAh7.s:170    .text:0000000000000100 .L0 
     /tmp/ccBQKAh7.s:196    .text:0000000000000100 _ZN3TCB5yieldEv
     /tmp/ccBQKAh7.s:199    .text:0000000000000100 .L0 
     /tmp/ccBQKAh7.s:200    .text:0000000000000100 .L0 
     /tmp/ccBQKAh7.s:201    .text:0000000000000104 .L0 
     /tmp/ccBQKAh7.s:203    .text:0000000000000108 .L0 
     /tmp/ccBQKAh7.s:205    .text:000000000000010c .L0 
     /tmp/ccBQKAh7.s:207    .text:000000000000010c .L0 
         src/tcb.cpp:29     .text:000000000000010c .L0 
     /tmp/ccBQKAh7.s:214    .text:0000000000000110 .L0 
     /tmp/ccBQKAh7.s:215    .text:0000000000000114 .L0 
     /tmp/ccBQKAh7.s:216    .text:0000000000000114 .L0 
     /tmp/ccBQKAh7.s:218    .text:0000000000000118 .L0 
     /tmp/ccBQKAh7.s:220    .text:000000000000011c .L0 
     /tmp/ccBQKAh7.s:229    .text:000000000000011c .L0 
     /tmp/ccBQKAh7.s:230    .text:000000000000011c .L0 
     /tmp/ccBQKAh7.s:231    .text:0000000000000120 .L0 
     /tmp/ccBQKAh7.s:235    .text:000000000000012c .L0 
     /tmp/ccBQKAh7.s:236    .text:000000000000012c .L0 
     /tmp/ccBQKAh7.s:237    .text:000000000000012c .L0 
     /tmp/ccBQKAh7.s:239    .text:0000000000000130 .L0 
     /tmp/ccBQKAh7.s:241    .text:0000000000000130 .L0 
     /tmp/ccBQKAh7.s:242    .text:0000000000000130 .L0 
     /tmp/ccBQKAh7.s:245    .text:0000000000000138 .L0 
     /tmp/ccBQKAh7.s:246    .text:0000000000000138 .L0 
     /tmp/ccBQKAh7.s:250    .text:0000000000000148 .L0 
     /tmp/ccBQKAh7.s:253    .text:000000000000014c .L0 
     /tmp/ccBQKAh7.s:254    .text:000000000000014c .L0 
     /tmp/ccBQKAh7.s:259    .text:000000000000015c .L0 
     /tmp/ccBQKAh7.s:260    .text:000000000000015c .L0 
     /tmp/ccBQKAh7.s:263    .text:0000000000000164 .L0 
     /tmp/ccBQKAh7.s:264    .text:0000000000000168 .L0 
     /tmp/ccBQKAh7.s:266    .text:000000000000016c .L0 
     /tmp/ccBQKAh7.s:267    .text:000000000000016c .L0 
     /tmp/ccBQKAh7.s:269    .text:0000000000000170 .L0 
     /tmp/ccBQKAh7.s:271    .text:0000000000000174 .L0 
     /tmp/ccBQKAh7.s:273    .text:0000000000000178 .L0 
     /tmp/ccBQKAh7.s:279    .text:0000000000000178 _ZN3TCB8dispatchEv
     /tmp/ccBQKAh7.s:282    .text:0000000000000178 .L0 
     /tmp/ccBQKAh7.s:283    .text:0000000000000178 .L0 
     /tmp/ccBQKAh7.s:284    .text:000000000000017c .L0 
     /tmp/ccBQKAh7.s:288    .text:0000000000000188 .L0 
     /tmp/ccBQKAh7.s:289    .text:0000000000000188 .L0 
     /tmp/ccBQKAh7.s:290    .text:0000000000000188 .L0 
     /tmp/ccBQKAh7.s:292    .text:000000000000018c .L0 
     /tmp/ccBQKAh7.s:294    .text:000000000000018c .L0 
     /tmp/ccBQKAh7.s:295    .text:000000000000018c .L0 
     /tmp/ccBQKAh7.s:298    .text:0000000000000194 .L0 
     /tmp/ccBQKAh7.s:299    .text:0000000000000194 .L0 
     /tmp/ccBQKAh7.s:303    .text:00000000000001a0 .L0 
     /tmp/ccBQKAh7.s:306    .text:00000000000001a4 .L0 
     /tmp/ccBQKAh7.s:307    .text:00000000000001a4 .L0 
     /tmp/ccBQKAh7.s:310    .text:00000000000001ac .L0 
     /tmp/ccBQKAh7.s:312    .text:00000000000001b4 .L0 
GAS LISTING /tmp/ccBQKAh7.s 			page 12


     /tmp/ccBQKAh7.s:313    .text:00000000000001b4 .L0 
     /tmp/ccBQKAh7.s:318    .text:00000000000001c4 .L0 
     /tmp/ccBQKAh7.s:319    .text:00000000000001c8 .L0 
     /tmp/ccBQKAh7.s:320    .text:00000000000001c8 .L0 
     /tmp/ccBQKAh7.s:322    .text:00000000000001cc .L0 
     /tmp/ccBQKAh7.s:323    .text:00000000000001cc .L0 
     /tmp/ccBQKAh7.s:325    .text:00000000000001d0 .L0 
     /tmp/ccBQKAh7.s:328    .text:00000000000001d4 .L0 
     /tmp/ccBQKAh7.s:332    .text:00000000000001d8 .L0 
     /tmp/ccBQKAh7.s:334    .text:00000000000001d8 .L0 
     /tmp/ccBQKAh7.s:335    .text:00000000000001d8 .L0 
     /tmp/ccBQKAh7.s:339    .text:00000000000001e8 .L0 
     /tmp/ccBQKAh7.s:353    .bss:0000000000000008 _ZN3TCB16timeSliceCounterE
     /tmp/ccBQKAh7.s:349    .bss:0000000000000000 _ZN3TCB7runningE
     /tmp/ccBQKAh7.s:346    .bss:0000000000000000 .LANCHOR0
     /tmp/ccBQKAh7.s:360    .text:00000000000001e8 .L0 
     /tmp/ccBQKAh7.s:113    .text:0000000000000084 .L0 
     /tmp/ccBQKAh7.s:246    .text:0000000000000138 .L0 
     /tmp/ccBQKAh7.s:295    .text:000000000000018c .L0 
     /tmp/ccBQKAh7.s:310    .text:00000000000001ac .L0 
     /tmp/ccBQKAh7.s:107    .text:000000000000007c .L10
     /tmp/ccBQKAh7.s:110    .text:0000000000000080 .L6
     /tmp/ccBQKAh7.s:135    .text:00000000000000c0 .L11
     /tmp/ccBQKAh7.s:153    .text:00000000000000e4 .L5
     /tmp/ccBQKAh7.s:120    .text:000000000000009c .L7
     /tmp/ccBQKAh7.s:331    .text:00000000000001d8 .L21
     /tmp/ccBQKAh7.s:304    .text:00000000000001a4 .L19
     /tmp/ccBQKAh7.s:88     .text:0000000000000058 .LEHB0
     /tmp/ccBQKAh7.s:65     .text:0000000000000038 .LFB34
     /tmp/ccBQKAh7.s:91     .text:0000000000000060 .LEHE0
     /tmp/ccBQKAh7.s:103    .text:0000000000000070 .LEHB1
     /tmp/ccBQKAh7.s:133    .text:00000000000000bc .LEHE1
     /tmp/ccBQKAh7.s:139    .text:00000000000000c8 .L12
     /tmp/ccBQKAh7.s:149    .text:00000000000000dc .LEHB2
     /tmp/ccBQKAh7.s:152    .text:00000000000000e4 .LEHE2
     /tmp/ccBQKAh7.s:1234   .debug_abbrev:0000000000000000 .Ldebug_abbrev0
     /tmp/ccBQKAh7.s:2440   .debug_str:000000000000055b .LASF97
     /tmp/ccBQKAh7.s:2360   .debug_str:0000000000000336 .LASF98
     /tmp/ccBQKAh7.s:2316   .debug_str:00000000000001d0 .LASF99
     /tmp/ccBQKAh7.s:5      .text:0000000000000000 .Ltext0
     /tmp/ccBQKAh7.s:356    .text:00000000000001e8 .Letext0
     /tmp/ccBQKAh7.s:2252   .debug_line:0000000000000000 .Ldebug_line0
     /tmp/ccBQKAh7.s:2380   .debug_str:00000000000003c6 .LASF0
     /tmp/ccBQKAh7.s:2392   .debug_str:0000000000000410 .LASF1
     /tmp/ccBQKAh7.s:2366   .debug_str:000000000000034f .LASF2
     /tmp/ccBQKAh7.s:2340   .debug_str:00000000000002be .LASF4
     /tmp/ccBQKAh7.s:2424   .debug_str:00000000000004f8 .LASF3
     /tmp/ccBQKAh7.s:2278   .debug_str:00000000000000b8 .LASF5
     /tmp/ccBQKAh7.s:2394   .debug_str:0000000000000423 .LASF6
     /tmp/ccBQKAh7.s:2378   .debug_str:00000000000003b3 .LASF7
     /tmp/ccBQKAh7.s:2452   .debug_str:0000000000000692 .LASF8
     /tmp/ccBQKAh7.s:2328   .debug_str:000000000000023c .LASF9
     /tmp/ccBQKAh7.s:2404   .debug_str:000000000000046e .LASF10
     /tmp/ccBQKAh7.s:2444   .debug_str:0000000000000637 .LASF11
     /tmp/ccBQKAh7.s:2282   .debug_str:00000000000000ce .LASF12
     /tmp/ccBQKAh7.s:2258   .debug_str:000000000000001e .LASF13
     /tmp/ccBQKAh7.s:2292   .debug_str:0000000000000129 .LASF14
GAS LISTING /tmp/ccBQKAh7.s 			page 13


     /tmp/ccBQKAh7.s:2416   .debug_str:00000000000004bc .LASF15
     /tmp/ccBQKAh7.s:2296   .debug_str:000000000000014d .LASF16
     /tmp/ccBQKAh7.s:2400   .debug_str:0000000000000452 .LASF17
     /tmp/ccBQKAh7.s:2456   .debug_str:00000000000006bd .LASF38
     /tmp/ccBQKAh7.s:2336   .debug_str:0000000000000282 .LASF100
     /tmp/ccBQKAh7.s:2288   .debug_str:0000000000000107 .LASF101
     /tmp/ccBQKAh7.s:2426   .debug_str:000000000000050a .LASF102
     /tmp/ccBQKAh7.s:2264   .debug_str:0000000000000053 .LASF103
     /tmp/ccBQKAh7.s:2302   .debug_str:0000000000000187 .LASF18
     /tmp/ccBQKAh7.s:2410   .debug_str:00000000000004a0 .LASF20
     /tmp/ccBQKAh7.s:2352   .debug_str:00000000000002fb .LASF19
     /tmp/ccBQKAh7.s:2406   .debug_str:000000000000047d .LASF21
     /tmp/ccBQKAh7.s:2412   .debug_str:00000000000004ac .LASF104
     /tmp/ccBQKAh7.s:2396   .debug_str:0000000000000436 .LASF24
     /tmp/ccBQKAh7.s:2326   .debug_str:0000000000000225 .LASF26
     /tmp/ccBQKAh7.s:2368   .debug_str:000000000000035d .LASF22
     /tmp/ccBQKAh7.s:2470   .debug_str:0000000000000717 .LASF23
     /tmp/ccBQKAh7.s:2418   .debug_str:00000000000004d2 .LASF42
     /tmp/ccBQKAh7.s:2376   .debug_str:00000000000003a3 .LASF44
     /tmp/ccBQKAh7.s:2308   .debug_str:00000000000001a8 .LASF105
     /tmp/ccBQKAh7.s:2358   .debug_str:0000000000000329 .LASF25
     /tmp/ccBQKAh7.s:2274   .debug_str:0000000000000089 .LASF27
     /tmp/ccBQKAh7.s:2432   .debug_str:0000000000000530 .LASF106
     /tmp/ccBQKAh7.s:2346   .debug_str:00000000000002e3 .LASF28
     /tmp/ccBQKAh7.s:2384   .debug_str:00000000000003dc .LASF29
     /tmp/ccBQKAh7.s:2350   .debug_str:00000000000002f3 .LASF30
     /tmp/ccBQKAh7.s:2390   .debug_str:0000000000000406 .LASF31
     /tmp/ccBQKAh7.s:2344   .debug_str:00000000000002da .LASF32
     /tmp/ccBQKAh7.s:2354   .debug_str:0000000000000308 .LASF34
     /tmp/ccBQKAh7.s:2330   .debug_str:000000000000024a .LASF36
     /tmp/ccBQKAh7.s:2460   .debug_str:00000000000006e4 .LASF33
     /tmp/ccBQKAh7.s:2338   .debug_str:0000000000000296 .LASF107
     /tmp/ccBQKAh7.s:2382   .debug_str:00000000000003d3 .LASF35
     /tmp/ccBQKAh7.s:2312   .debug_str:00000000000001b8 .LASF37
     /tmp/ccBQKAh7.s:2286   .debug_str:00000000000000f6 .LASF39
     /tmp/ccBQKAh7.s:2332   .debug_str:0000000000000263 .LASF108
     /tmp/ccBQKAh7.s:2314   .debug_str:00000000000001cb .LASF40
     /tmp/ccBQKAh7.s:2362   .debug_str:0000000000000342 .LASF41
     /tmp/ccBQKAh7.s:2414   .debug_str:00000000000004b1 .LASF43
     /tmp/ccBQKAh7.s:2284   .debug_str:00000000000000de .LASF45
     /tmp/ccBQKAh7.s:2272   .debug_str:000000000000007b .LASF46
     /tmp/ccBQKAh7.s:2454   .debug_str:00000000000006a2 .LASF47
     /tmp/ccBQKAh7.s:2438   .debug_str:000000000000054e .LASF48
     /tmp/ccBQKAh7.s:2420   .debug_str:00000000000004d8 .LASF49
     /tmp/ccBQKAh7.s:2260   .debug_str:000000000000002e .LASF50
     /tmp/ccBQKAh7.s:2322   .debug_str:000000000000020a .LASF52
     /tmp/ccBQKAh7.s:2304   .debug_str:000000000000018c .LASF54
     /tmp/ccBQKAh7.s:2372   .debug_str:0000000000000384 .LASF56
     /tmp/ccBQKAh7.s:2428   .debug_str:000000000000051a .LASF51
     /tmp/ccBQKAh7.s:2306   .debug_str:0000000000000195 .LASF53
     /tmp/ccBQKAh7.s:2436   .debug_str:0000000000000547 .LASF55
     /tmp/ccBQKAh7.s:2356   .debug_str:0000000000000316 .LASF57
     /tmp/ccBQKAh7.s:2320   .debug_str:0000000000000202 .LASF58
     /tmp/ccBQKAh7.s:2318   .debug_str:00000000000001ee .LASF59
     /tmp/ccBQKAh7.s:2256   .debug_str:0000000000000016 .LASF60
     /tmp/ccBQKAh7.s:2388   .debug_str:00000000000003f2 .LASF61
     /tmp/ccBQKAh7.s:2310   .debug_str:00000000000001b0 .LASF62
GAS LISTING /tmp/ccBQKAh7.s 			page 14


     /tmp/ccBQKAh7.s:2300   .debug_str:0000000000000173 .LASF63
     /tmp/ccBQKAh7.s:2468   .debug_str:000000000000070f .LASF64
     /tmp/ccBQKAh7.s:2334   .debug_str:000000000000026e .LASF65
     /tmp/ccBQKAh7.s:2408   .debug_str:0000000000000499 .LASF66
     /tmp/ccBQKAh7.s:2270   .debug_str:0000000000000068 .LASF67
     /tmp/ccBQKAh7.s:2268   .debug_str:0000000000000061 .LASF68
     /tmp/ccBQKAh7.s:2458   .debug_str:00000000000006d1 .LASF69
     /tmp/ccBQKAh7.s:2324   .debug_str:000000000000021f .LASF70
     /tmp/ccBQKAh7.s:2402   .debug_str:000000000000045c .LASF71
     /tmp/ccBQKAh7.s:2266   .debug_str:000000000000005b .LASF72
     /tmp/ccBQKAh7.s:2448   .debug_str:000000000000065e .LASF73
     /tmp/ccBQKAh7.s:2466   .debug_str:0000000000000704 .LASF74
     /tmp/ccBQKAh7.s:2442   .debug_str:000000000000061f .LASF75
     /tmp/ccBQKAh7.s:2348   .debug_str:00000000000002e8 .LASF76
     /tmp/ccBQKAh7.s:2446   .debug_str:0000000000000646 .LASF77
     /tmp/ccBQKAh7.s:2290   .debug_str:000000000000011f .LASF78
     /tmp/ccBQKAh7.s:2254   .debug_str:0000000000000000 .LASF79
     /tmp/ccBQKAh7.s:2374   .debug_str:0000000000000399 .LASF80
     /tmp/ccBQKAh7.s:2276   .debug_str:00000000000000a2 .LASF81
     /tmp/ccBQKAh7.s:2430   .debug_str:0000000000000521 .LASF82
     /tmp/ccBQKAh7.s:2262   .debug_str:0000000000000037 .LASF83
     /tmp/ccBQKAh7.s:2342   .debug_str:00000000000002c5 .LASF84
     /tmp/ccBQKAh7.s:2450   .debug_str:0000000000000670 .LASF85
     /tmp/ccBQKAh7.s:2472   .debug_str:000000000000072e .LASF86
     /tmp/ccBQKAh7.s:2370   .debug_str:0000000000000369 .LASF87
     /tmp/ccBQKAh7.s:227    .text:000000000000011c .LFB37
     /tmp/ccBQKAh7.s:274    .text:0000000000000178 .LFE37
     /tmp/ccBQKAh7.s:243    .text:0000000000000138 .LVL14
     /tmp/ccBQKAh7.s:257    .text:000000000000015c .LVL16
     /tmp/ccBQKAh7.s:261    .text:0000000000000164 .LVL17
     /tmp/ccBQKAh7.s:280    .text:0000000000000178 .LFB36
     /tmp/ccBQKAh7.s:340    .text:00000000000001e8 .LFE36
     /tmp/ccBQKAh7.s:2149   .debug_loc:0000000000000000 .LLST4
     /tmp/ccBQKAh7.s:301    .text:00000000000001a0 .LVL19
     /tmp/ccBQKAh7.s:308    .text:00000000000001ac .LVL20
     /tmp/ccBQKAh7.s:316    .text:00000000000001c4 .LVL21
     /tmp/ccBQKAh7.s:337    .text:00000000000001e4 .LVL24
     /tmp/ccBQKAh7.s:197    .text:0000000000000100 .LFB35
     /tmp/ccBQKAh7.s:221    .text:000000000000011c .LFE35
     /tmp/ccBQKAh7.s:171    .text:0000000000000100 .LFE34
     /tmp/ccBQKAh7.s:2160   .debug_loc:0000000000000036 .LLST1
     /tmp/ccBQKAh7.s:94     .text:0000000000000064 .LBB5
     /tmp/ccBQKAh7.s:143    .text:00000000000000cc .LBE5
     /tmp/ccBQKAh7.s:2189   .debug_loc:00000000000000ab .LLST2
     /tmp/ccBQKAh7.s:2214   .debug_loc:000000000000010d .LLST3
     /tmp/ccBQKAh7.s:105    .text:0000000000000078 .LVL7
     /tmp/ccBQKAh7.s:132    .text:00000000000000bc .LVL8
     /tmp/ccBQKAh7.s:90     .text:0000000000000060 .LVL5
     /tmp/ccBQKAh7.s:147    .text:00000000000000d8 .LVL10
     /tmp/ccBQKAh7.s:151    .text:00000000000000e4 .LVL11
     /tmp/ccBQKAh7.s:38     .text:000000000000001c .LFB33
     /tmp/ccBQKAh7.s:59     .text:0000000000000038 .LFE33
     /tmp/ccBQKAh7.s:2464   .debug_str:00000000000006ff .LASF88
     /tmp/ccBQKAh7.s:10     .text:0000000000000000 .LFB32
     /tmp/ccBQKAh7.s:32     .text:000000000000001c .LFE32
     /tmp/ccBQKAh7.s:2225   .debug_loc:0000000000000143 .LLST0
     /tmp/ccBQKAh7.s:2398   .debug_str:0000000000000441 .LASF109
GAS LISTING /tmp/ccBQKAh7.s 			page 15


     /tmp/ccBQKAh7.s:2434   .debug_str:0000000000000541 .LASF89
     /tmp/ccBQKAh7.s:2386   .debug_str:00000000000003e2 .LASF91
     /tmp/ccBQKAh7.s:2422   .debug_str:00000000000004f2 .LASF90
     /tmp/ccBQKAh7.s:2462   .debug_str:00000000000006f2 .LASF92
     /tmp/ccBQKAh7.s:2364   .debug_str:0000000000000348 .LASF93
     /tmp/ccBQKAh7.s:2298   .debug_str:0000000000000163 .LASF94
     /tmp/ccBQKAh7.s:2280   .debug_str:00000000000000bf .LASF95
     /tmp/ccBQKAh7.s:2294   .debug_str:0000000000000135 .LASF96
     /tmp/ccBQKAh7.s:296    .text:0000000000000194 .LVL18
     /tmp/ccBQKAh7.s:326    .text:00000000000001d0 .LVL22
     /tmp/ccBQKAh7.s:330    .text:00000000000001d8 .LVL23
     /tmp/ccBQKAh7.s:70     .text:0000000000000038 .LVL3
     /tmp/ccBQKAh7.s:87     .text:0000000000000058 .LVL4
     /tmp/ccBQKAh7.s:141    .text:00000000000000cc .LVL9
     /tmp/ccBQKAh7.s:166    .text:00000000000000f8 .LVL13
     /tmp/ccBQKAh7.s:93     .text:0000000000000064 .LVL6
     /tmp/ccBQKAh7.s:163    .text:00000000000000f4 .LVL12
     /tmp/ccBQKAh7.s:14     .text:0000000000000000 .LVL0
     /tmp/ccBQKAh7.s:24     .text:0000000000000010 .LVL1
     /tmp/ccBQKAh7.s:361    .debug_info:0000000000000000 .Ldebug_info0
     /tmp/ccBQKAh7.s:174    .gcc_except_table:0000000000000000 .LLSDA34

UNDEFINED SYMBOLS
_Znwm
_Znam
_ZN9Scheduler3putEP3TCB
_ZdlPv
_Unwind_Resume
__gxx_personality_v0
_ZN5RiscV10popSppSpieEv
_ZN9Scheduler3getEv
_ZN3TCB13contextSwitchEPNS_7ContextES1_
