GAS LISTING /tmp/ccBQKAh7.s 			page 1


   1              		.file	"tcb.cpp"
   2              		.option pic
   3              		.option norelax
   4              		.text
   5              	.Ltext0:
   6              		.align	2
   7              		.globl	_ZNK3TCB10isFinishedEv
   9              	_ZNK3TCB10isFinishedEv:
  10              	.LFB32:
  11              		.file 1 "src/tcb.cpp"
   1:src/tcb.cpp   **** //
   2:src/tcb.cpp   **** // Created by os on 8/14/22.
   3:src/tcb.cpp   **** //
   4:src/tcb.cpp   **** 
   5:src/tcb.cpp   **** #include "../h/tcb.hpp"
   6:src/tcb.cpp   **** #include "../h/RiscV.hpp"
   7:src/tcb.cpp   **** 
   8:src/tcb.cpp   **** 
   9:src/tcb.cpp   **** 
  10:src/tcb.cpp   **** bool TCB::isFinished() const {
  12              		.loc 1 10 30
  13              		.cfi_startproc
  14              	.LVL0:
  15 0000 130101FF 		addi	sp,sp,-16
  16              		.cfi_def_cfa_offset 16
  17 0004 23348100 		sd	s0,8(sp)
  18              		.cfi_offset 8, -8
  19 0008 13040101 		addi	s0,sp,16
  20              		.cfi_def_cfa 8, 0
  11:src/tcb.cpp   ****     return finished;
  21              		.loc 1 11 5
  12:src/tcb.cpp   **** }
  22              		.loc 1 12 1 is_stmt 0
  23 000c 03458502 		lbu	a0,40(a0)
  24              	.LVL1:
  25 0010 03348100 		ld	s0,8(sp)
  26              		.cfi_restore 8
  27              		.cfi_def_cfa 2, 16
  28 0014 13010101 		addi	sp,sp,16
  29              		.cfi_def_cfa_offset 0
  30 0018 67800000 		jr	ra
  31              		.cfi_endproc
  32              	.LFE32:
  34              		.align	2
  35              		.globl	_ZN3TCB11setFinishedEb
  37              	_ZN3TCB11setFinishedEb:
  38              	.LFB33:
  13:src/tcb.cpp   **** 
  14:src/tcb.cpp   **** void TCB::setFinished(bool finished) {
  39              		.loc 1 14 38 is_stmt 1
  40              		.cfi_startproc
  41              	.LVL2:
  42 001c 130101FF 		addi	sp,sp,-16
  43              		.cfi_def_cfa_offset 16
  44 0020 23348100 		sd	s0,8(sp)
  45              		.cfi_offset 8, -8
  46 0024 13040101 		addi	s0,sp,16
GAS LISTING /tmp/ccBQKAh7.s 			page 2


  47              		.cfi_def_cfa 8, 0
  15:src/tcb.cpp   ****     TCB::finished = finished;
  48              		.loc 1 15 5
  49              		.loc 1 15 19 is_stmt 0
  50 0028 2304B502 		sb	a1,40(a0)
  16:src/tcb.cpp   **** }
  51              		.loc 1 16 1
  52 002c 03348100 		ld	s0,8(sp)
  53              		.cfi_restore 8
  54              		.cfi_def_cfa 2, 16
  55 0030 13010101 		addi	sp,sp,16
  56              		.cfi_def_cfa_offset 0
  57 0034 67800000 		jr	ra
  58              		.cfi_endproc
  59              	.LFE33:
  61              		.align	2
  62              		.globl	_ZN3TCB12createThreadEPFvvE
  64              	_ZN3TCB12createThreadEPFvvE:
  65              	.LFB34:
  17:src/tcb.cpp   **** TCB* TCB::running = nullptr;
  18:src/tcb.cpp   **** 
  19:src/tcb.cpp   **** uint64 TCB::timeSliceCounter=0;
  20:src/tcb.cpp   **** 
  21:src/tcb.cpp   **** TCB* TCB::createThread(TCB::Body body) {
  66              		.loc 1 21 40 is_stmt 1
  67              		.cfi_startproc
  68              		.cfi_personality 0x9b,DW.ref.__gxx_personality_v0
  69              		.cfi_lsda 0x1b,.LLSDA34
  70              	.LVL3:
  71 0038 130101FE 		addi	sp,sp,-32
  72              		.cfi_def_cfa_offset 32
  73 003c 233C1100 		sd	ra,24(sp)
  74 0040 23388100 		sd	s0,16(sp)
  75 0044 23349100 		sd	s1,8(sp)
  76 0048 23302101 		sd	s2,0(sp)
  77              		.cfi_offset 1, -8
  78              		.cfi_offset 8, -16
  79              		.cfi_offset 9, -24
  80              		.cfi_offset 18, -32
  81 004c 13040102 		addi	s0,sp,32
  82              		.cfi_def_cfa 8, 0
  83 0050 13090500 		mv	s2,a0
  22:src/tcb.cpp   ****     return new TCB(body, TIME_SLICE);
  84              		.loc 1 22 5
  85              		.loc 1 22 36 is_stmt 0
  86 0054 13050003 		li	a0,48
  87              	.LVL4:
  88              	.LEHB0:
  89 0058 97000000 		call	_Znwm@plt
  89      E7800000 
  90              	.LVL5:
  91              	.LEHE0:
  92 0060 93040500 		mv	s1,a0
  93              	.LVL6:
  94              	.LBB5:
  95              	.LBB6:
  96              		.file 2 "src/../h/tcb.hpp"
GAS LISTING /tmp/ccBQKAh7.s 			page 3


   1:src/../h/tcb.hpp **** //
   2:src/../h/tcb.hpp **** // Created by os on 8/14/22.
   3:src/../h/tcb.hpp **** //
   4:src/../h/tcb.hpp **** 
   5:src/../h/tcb.hpp **** #ifndef PROJECT_BASE_TCB_HPP
   6:src/../h/tcb.hpp **** #define PROJECT_BASE_TCB_HPP
   7:src/../h/tcb.hpp **** #include "../lib/hw.h"
   8:src/../h/tcb.hpp **** #include "../h/Scheduler.hpp"
   9:src/../h/tcb.hpp **** 
  10:src/../h/tcb.hpp **** class TCB {
  11:src/../h/tcb.hpp **** 
  12:src/../h/tcb.hpp **** public:
  13:src/../h/tcb.hpp ****     ~TCB() { delete[] stack; }
  14:src/../h/tcb.hpp **** 
  15:src/../h/tcb.hpp ****     using Body = void (*)();
  16:src/../h/tcb.hpp **** 
  17:src/../h/tcb.hpp ****     static TCB *createThread(Body body);
  18:src/../h/tcb.hpp **** 
  19:src/../h/tcb.hpp ****     bool isFinished() const;
  20:src/../h/tcb.hpp **** 
  21:src/../h/tcb.hpp ****     void setFinished(bool finished);
  22:src/../h/tcb.hpp **** 
  23:src/../h/tcb.hpp ****     static void yield();
  24:src/../h/tcb.hpp **** 
  25:src/../h/tcb.hpp ****     static TCB *running;
  26:src/../h/tcb.hpp **** 
  27:src/../h/tcb.hpp ****     inline uint64 getTimeSlice() const { return timeSlice; };
  28:src/../h/tcb.hpp **** private:
  29:src/../h/tcb.hpp ****     explicit TCB(Body body, uint64 timeSlice) :
  30:src/../h/tcb.hpp ****             body(body),
  31:src/../h/tcb.hpp ****             stack(body != nullptr ? new uint64[1024] : nullptr),
  32:src/../h/tcb.hpp ****             context({(uint64)&threadWrapper,
  33:src/../h/tcb.hpp ****                      stack != nullptr ? (uint64) &stack[1024] : 0
  34:src/../h/tcb.hpp ****                     }
  35:src/../h/tcb.hpp ****             ),
  36:src/../h/tcb.hpp ****             timeSlice(timeSlice),
  37:src/../h/tcb.hpp ****             finished(false) {
  97              		.loc 2 37 27
  98 0064 23302501 		sd	s2,0(a0)
  31:src/../h/tcb.hpp ****             context({(uint64)&threadWrapper,
  99              		.loc 2 31 35
 100 0068 630A0900 		beqz	s2,.L10
  31:src/../h/tcb.hpp ****             context({(uint64)&threadWrapper,
 101              		.loc 2 31 52
 102 006c 37250000 		li	a0,8192
 103              	.LEHB1:
 104 0070 97000000 		call	_Znam@plt
 104      E7800000 
 105              	.LVL7:
 106 0078 6F008000 		j	.L6
 107              	.L10:
  31:src/../h/tcb.hpp ****             context({(uint64)&threadWrapper,
 108              		.loc 2 31 35
 109 007c 13050000 		li	a0,0
 110              	.L6:
 111              		.loc 2 37 27
 112 0080 23B4A400 		sd	a0,8(s1)
GAS LISTING /tmp/ccBQKAh7.s 			page 4


 113 0084 97070000 		lla	a5,_ZN3TCB13threadWrapperEv
 113      93870700 
 114 008c 23B8F400 		sd	a5,16(s1)
  33:src/../h/tcb.hpp ****                     }
 115              		.loc 2 33 39
 116 0090 63080502 		beqz	a0,.L11
  33:src/../h/tcb.hpp ****                     }
 117              		.loc 2 33 50
 118 0094 B7270000 		li	a5,8192
 119 0098 B307F500 		add	a5,a0,a5
 120              	.L7:
 121              		.loc 2 37 27
 122 009c 23BCF400 		sd	a5,24(s1)
 123 00a0 93072000 		li	a5,2
 124 00a4 23B0F402 		sd	a5,32(s1)
 125 00a8 23840402 		sb	zero,40(s1)
  38:src/../h/tcb.hpp ****         if (body != nullptr) { Scheduler::put(this); }
 126              		.loc 2 38 9 is_stmt 1
 127 00ac 630C0902 		beqz	s2,.L5
 128              		.loc 2 38 32
 129              		.loc 2 38 46 is_stmt 0
 130 00b0 13850400 		mv	a0,s1
 131 00b4 97000000 		call	_ZN9Scheduler3putEP3TCB@plt
 131      E7800000 
 132              	.LVL8:
 133              	.LEHE1:
 134 00bc 6F008002 		j	.L5
 135              	.L11:
  33:src/../h/tcb.hpp ****                     }
 136              		.loc 2 33 39
 137 00c0 93070000 		li	a5,0
 138 00c4 6FF09FFD 		j	.L7
 139              	.L12:
 140 00c8 13090500 		mv	s2,a0
 141              	.LVL9:
 142              	.LBE6:
 143              	.LBE5:
 144              		.loc 1 22 36
 145 00cc 13850400 		mv	a0,s1
 146 00d0 97000000 		call	_ZdlPv@plt
 146      E7800000 
 147              	.LVL10:
 148 00d8 13050900 		mv	a0,s2
 149              	.LEHB2:
 150 00dc 97000000 		call	_Unwind_Resume@plt
 150      E7800000 
 151              	.LVL11:
 152              	.LEHE2:
 153              	.L5:
  23:src/tcb.cpp   **** }
 154              		.loc 1 23 1
 155 00e4 13850400 		mv	a0,s1
 156 00e8 83308101 		ld	ra,24(sp)
 157              		.cfi_restore 1
 158 00ec 03340101 		ld	s0,16(sp)
 159              		.cfi_restore 8
 160              		.cfi_def_cfa 2, 32
GAS LISTING /tmp/ccBQKAh7.s 			page 5


 161 00f0 83348100 		ld	s1,8(sp)
 162              		.cfi_restore 9
 163              	.LVL12:
 164 00f4 03390100 		ld	s2,0(sp)
 165              		.cfi_restore 18
 166              	.LVL13:
 167 00f8 13010102 		addi	sp,sp,32
 168              		.cfi_def_cfa_offset 0
 169 00fc 67800000 		jr	ra
 170              		.cfi_endproc
 171              	.LFE34:
 172              		.globl	__gxx_personality_v0
 173              		.section	.gcc_except_table,"a",@progbits
 174              	.LLSDA34:
 175 0000 FF       		.byte	0xff
 176 0001 FF       		.byte	0xff
 177 0002 03       		.byte	0x3
 178 0003 27       		.byte	0x27
 179 0004 00000000 		.4byte	.LEHB0-.LFB34
 180 0008 00000000 		.4byte	.LEHE0-.LEHB0
 181 000c 00000000 		.4byte	0
 182 0010 00       		.byte	0
 183 0011 00000000 		.4byte	.LEHB1-.LFB34
 184 0015 00000000 		.4byte	.LEHE1-.LEHB1
 185 0019 00000000 		.4byte	.L12-.LFB34
 186 001d 00       		.byte	0
 187 001e 00000000 		.4byte	.LEHB2-.LFB34
 188 0022 00000000 		.4byte	.LEHE2-.LEHB2
 189 0026 00000000 		.4byte	0
 190 002a 00       		.byte	0
 191              		.text
 193              		.align	2
 194              		.globl	_ZN3TCB5yieldEv
 196              	_ZN3TCB5yieldEv:
 197              	.LFB35:
  24:src/tcb.cpp   **** 
  25:src/tcb.cpp   **** void TCB::yield(){
 198              		.loc 1 25 18 is_stmt 1
 199              		.cfi_startproc
 200 0100 130101FF 		addi	sp,sp,-16
 201              		.cfi_def_cfa_offset 16
 202 0104 23348100 		sd	s0,8(sp)
 203              		.cfi_offset 8, -8
 204 0108 13040101 		addi	s0,sp,16
 205              		.cfi_def_cfa 8, 0
  26:src/tcb.cpp   **** 
  27:src/tcb.cpp   **** 
  28:src/tcb.cpp   **** 
  29:src/tcb.cpp   ****     __asm__ volatile ("ecall");
 206              		.loc 1 29 5
 207              		.loc 1 29 31 is_stmt 0
 208              	#APP
 209              	# 29 "src/tcb.cpp" 1
  30              	
  31:src/tcb.cpp   **** };
 210              		ecall
 211              	# 0 "" 2
GAS LISTING /tmp/ccBQKAh7.s 			page 6


 212              		.loc 1 31 1
 213              	#NO_APP
 214 0110 03348100 		ld	s0,8(sp)
 215              		.cfi_restore 8
 216              		.cfi_def_cfa 2, 16
 217 0114 13010101 		addi	sp,sp,16
 218              		.cfi_def_cfa_offset 0
 219 0118 67800000 		jr	ra
 220              		.cfi_endproc
 221              	.LFE35:
 223              		.align	2
 224              		.globl	_ZN3TCB13threadWrapperEv
 226              	_ZN3TCB13threadWrapperEv:
 227              	.LFB37:
  32:src/tcb.cpp   **** 
  33:src/tcb.cpp   **** void TCB::dispatch() {
  34:src/tcb.cpp   ****     TCB *old = running;
  35:src/tcb.cpp   ****     if (!old->isFinished()) {
  36:src/tcb.cpp   ****         Scheduler::put(old);
  37:src/tcb.cpp   ****     }
  38:src/tcb.cpp   ****     running = Scheduler::get();
  39:src/tcb.cpp   **** 
  40:src/tcb.cpp   ****     TCB::contextSwitch(&old->context, &running->context);
  41:src/tcb.cpp   **** }
  42:src/tcb.cpp   **** 
  43:src/tcb.cpp   **** void TCB::threadWrapper() {
 228              		.loc 1 43 27 is_stmt 1
 229              		.cfi_startproc
 230 011c 130101FE 		addi	sp,sp,-32
 231              		.cfi_def_cfa_offset 32
 232 0120 233C1100 		sd	ra,24(sp)
 233 0124 23388100 		sd	s0,16(sp)
 234 0128 23349100 		sd	s1,8(sp)
 235              		.cfi_offset 1, -8
 236              		.cfi_offset 8, -16
 237              		.cfi_offset 9, -24
 238 012c 13040102 		addi	s0,sp,32
 239              		.cfi_def_cfa 8, 0
  44:src/tcb.cpp   ****     RiscV::popSppSpie();
 240              		.loc 1 44 5
 241              		.loc 1 44 22 is_stmt 0
 242 0130 97000000 		call	_ZN5RiscV10popSppSpieEv@plt
 242      E7800000 
 243              	.LVL14:
  45:src/tcb.cpp   ****     running->body();
 244              		.loc 1 45 5 is_stmt 1
 245              		.loc 1 45 14 is_stmt 0
 246 0138 97040000 		lla	s1,.LANCHOR0
 246      93840400 
 247 0140 83B70400 		ld	a5,0(s1)
 248 0144 83B70700 		ld	a5,0(a5)
 249              		.loc 1 45 18
 250 0148 E7800700 		jalr	a5
 251              	.LVL15:
  46:src/tcb.cpp   ****     running->setFinished(true);
 252              		.loc 1 46 5 is_stmt 1
 253              		.loc 1 46 25 is_stmt 0
GAS LISTING /tmp/ccBQKAh7.s 			page 7


 254 014c 93051000 		li	a1,1
 255 0150 03B50400 		ld	a0,0(s1)
 256 0154 97000000 		call	_ZN3TCB11setFinishedEb
 256      E7800000 
 257              	.LVL16:
  47:src/tcb.cpp   ****     TCB::yield();
 258              		.loc 1 47 5 is_stmt 1
 259              		.loc 1 47 15 is_stmt 0
 260 015c 97000000 		call	_ZN3TCB5yieldEv
 260      E7800000 
 261              	.LVL17:
  48:src/tcb.cpp   **** }
 262              		.loc 1 48 1
 263 0164 83308101 		ld	ra,24(sp)
 264              		.cfi_restore 1
 265 0168 03340101 		ld	s0,16(sp)
 266              		.cfi_restore 8
 267              		.cfi_def_cfa 2, 32
 268 016c 83348100 		ld	s1,8(sp)
 269              		.cfi_restore 9
 270 0170 13010102 		addi	sp,sp,32
 271              		.cfi_def_cfa_offset 0
 272 0174 67800000 		jr	ra
 273              		.cfi_endproc
 274              	.LFE37:
 276              		.align	2
 277              		.globl	_ZN3TCB8dispatchEv
 279              	_ZN3TCB8dispatchEv:
 280              	.LFB36:
  33:src/tcb.cpp   ****     TCB *old = running;
 281              		.loc 1 33 22 is_stmt 1
 282              		.cfi_startproc
 283 0178 130101FE 		addi	sp,sp,-32
 284              		.cfi_def_cfa_offset 32
 285 017c 233C1100 		sd	ra,24(sp)
 286 0180 23388100 		sd	s0,16(sp)
 287 0184 23349100 		sd	s1,8(sp)
 288              		.cfi_offset 1, -8
 289              		.cfi_offset 8, -16
 290              		.cfi_offset 9, -24
 291 0188 13040102 		addi	s0,sp,32
 292              		.cfi_def_cfa 8, 0
  34:src/tcb.cpp   ****     if (!old->isFinished()) {
 293              		.loc 1 34 5
  34:src/tcb.cpp   ****     if (!old->isFinished()) {
 294              		.loc 1 34 10 is_stmt 0
 295 018c 97040000 		ld	s1,.LANCHOR0
 295      83B40400 
 296              	.LVL18:
  35:src/tcb.cpp   ****         Scheduler::put(old);
 297              		.loc 1 35 5 is_stmt 1
  35:src/tcb.cpp   ****         Scheduler::put(old);
 298              		.loc 1 35 25 is_stmt 0
 299 0194 13850400 		mv	a0,s1
 300 0198 97000000 		call	_ZNK3TCB10isFinishedEv
 300      E7800000 
 301              	.LVL19:
GAS LISTING /tmp/ccBQKAh7.s 			page 8


  35:src/tcb.cpp   ****         Scheduler::put(old);
 302              		.loc 1 35 5
 303 01a0 630C0502 		beqz	a0,.L21
 304              	.L19:
  38:src/tcb.cpp   **** 
 305              		.loc 1 38 5 is_stmt 1
  38:src/tcb.cpp   **** 
 306              		.loc 1 38 29 is_stmt 0
 307 01a4 97000000 		call	_ZN9Scheduler3getEv@plt
 307      E7800000 
 308              	.LVL20:
  38:src/tcb.cpp   **** 
 309              		.loc 1 38 13
 310 01ac 97070000 		sd	a0,.LANCHOR0,a5
 310      23B0A700 
  40:src/tcb.cpp   **** }
 311              		.loc 1 40 5 is_stmt 1
  40:src/tcb.cpp   **** }
 312              		.loc 1 40 23 is_stmt 0
 313 01b4 93050501 		addi	a1,a0,16
 314 01b8 13850401 		addi	a0,s1,16
 315 01bc 97000000 		call	_ZN3TCB13contextSwitchEPNS_7ContextES1_@plt
 315      E7800000 
 316              	.LVL21:
  41:src/tcb.cpp   **** 
 317              		.loc 1 41 1
 318 01c4 83308101 		ld	ra,24(sp)
 319              		.cfi_remember_state
 320              		.cfi_restore 1
 321 01c8 03340101 		ld	s0,16(sp)
 322              		.cfi_restore 8
 323              		.cfi_def_cfa 2, 32
 324 01cc 83348100 		ld	s1,8(sp)
 325              		.cfi_restore 9
 326              	.LVL22:
 327 01d0 13010102 		addi	sp,sp,32
 328              		.cfi_def_cfa_offset 0
 329 01d4 67800000 		jr	ra
 330              	.LVL23:
 331              	.L21:
 332              		.cfi_restore_state
  36:src/tcb.cpp   ****     }
 333              		.loc 1 36 9 is_stmt 1
  36:src/tcb.cpp   ****     }
 334              		.loc 1 36 23 is_stmt 0
 335 01d8 13850400 		mv	a0,s1
 336 01dc 97000000 		call	_ZN9Scheduler3putEP3TCB@plt
 336      E7800000 
 337              	.LVL24:
 338 01e4 6FF01FFC 		j	.L19
 339              		.cfi_endproc
 340              	.LFE36:
 342              		.globl	_ZN3TCB16timeSliceCounterE
 343              		.globl	_ZN3TCB7runningE
 344              		.bss
 345              		.align	3
 346              		.set	.LANCHOR0,. + 0
GAS LISTING /tmp/ccBQKAh7.s 			page 9


 349              	_ZN3TCB7runningE:
 350 0000 00000000 		.zero	8
 350      00000000 
 353              	_ZN3TCB16timeSliceCounterE:
 354 0008 00000000 		.zero	8
 354      00000000 
 355              		.text
 356              	.Letext0:
 357              		.file 3 "src/../h/../lib/hw.h"
 358              		.file 4 "src/../h/../h/Scheduler.hpp"
 359              		.file 5 "src/../h/RiscV.hpp"
 2477              		.align	3
 2480              	DW.ref.__gxx_personality_v0:
 2481 0000 00000000 		.dword	__gxx_personality_v0
 2481      00000000 
 2482              		.ident	"GCC: (Ubuntu 9.4.0-1ubuntu1~20.04) 9.4.0"
 2483              		.section	.note.GNU-stack,"",@progbits
GAS LISTING /tmp/ccBQKAh7.s 			page 10

