GAS LISTING /tmp/ccpiwlbU.s 			page 1


   1              		.file	"userMain.cpp"
   2              		.option pic
   3              		.option norelax
   4              		.text
   5              	.Ltext0:
   6              		.section	.text._ZN7WorkerAD2Ev,"axG",@progbits,_ZN7WorkerAD5Ev,comdat
   7              		.align	2
   8              		.weak	_ZN7WorkerAD2Ev
  10              	_ZN7WorkerAD2Ev:
  11              	.LFB72:
  12              		.file 1 "src/../test/Threads_CPP_API_test.hpp"
   1:src/../test/Threads_CPP_API_test.hpp **** #ifndef XV6_THREADS_CPP_API_TEST_HPP
   2:src/../test/Threads_CPP_API_test.hpp **** #define XV6_THREADS_CPP_API_TEST_HPP
   3:src/../test/Threads_CPP_API_test.hpp **** 
   4:src/../test/Threads_CPP_API_test.hpp **** #include "../h/syscall_cpp.hpp"
   5:src/../test/Threads_CPP_API_test.hpp **** 
   6:src/../test/Threads_CPP_API_test.hpp **** #include "../h/printing.hpp"
   7:src/../test/Threads_CPP_API_test.hpp **** 
   8:src/../test/Threads_CPP_API_test.hpp **** bool finishedA = false;
   9:src/../test/Threads_CPP_API_test.hpp **** bool finishedB = false;
  10:src/../test/Threads_CPP_API_test.hpp **** bool finishedC = false;
  11:src/../test/Threads_CPP_API_test.hpp **** bool finishedD = false;
  12:src/../test/Threads_CPP_API_test.hpp **** 
  13:src/../test/Threads_CPP_API_test.hpp **** uint64 fibonacci(uint64 n) {
  14:src/../test/Threads_CPP_API_test.hpp ****     if (n == 0 || n == 1) { return n; }
  15:src/../test/Threads_CPP_API_test.hpp ****     if (n % 10 == 0) { thread_dispatch(); }
  16:src/../test/Threads_CPP_API_test.hpp ****     return fibonacci(n - 1) + fibonacci(n - 2);
  17:src/../test/Threads_CPP_API_test.hpp **** }
  18:src/../test/Threads_CPP_API_test.hpp **** 
  19:src/../test/Threads_CPP_API_test.hpp **** class WorkerA: public Thread {
  13              		.loc 1 19 7
  14              		.cfi_startproc
  15              	.LVL0:
  16 0000 130101FF 		addi	sp,sp,-16
  17              		.cfi_def_cfa_offset 16
  18 0004 23341100 		sd	ra,8(sp)
  19 0008 23308100 		sd	s0,0(sp)
  20              		.cfi_offset 1, -8
  21              		.cfi_offset 8, -16
  22 000c 13040101 		addi	s0,sp,16
  23              		.cfi_def_cfa 8, 0
  24              	.LBB28:
  25              		.loc 1 19 7 is_stmt 0
  26 0010 97070000 		lla	a5,_ZTV7WorkerA+16
  26      93870700 
  27 0018 2330F500 		sd	a5,0(a0)
  28 001c 97000000 		call	_ZN6ThreadD2Ev@plt
  28      E7800000 
  29              	.LVL1:
  30              	.LBE28:
  31 0024 83308100 		ld	ra,8(sp)
  32              		.cfi_restore 1
  33 0028 03340100 		ld	s0,0(sp)
  34              		.cfi_restore 8
  35              		.cfi_def_cfa 2, 16
  36 002c 13010101 		addi	sp,sp,16
  37              		.cfi_def_cfa_offset 0
GAS LISTING /tmp/ccpiwlbU.s 			page 2


  38 0030 67800000 		jr	ra
  39              		.cfi_endproc
  40              	.LFE72:
  42              		.weak	_ZN7WorkerAD1Ev
  43              		.set	_ZN7WorkerAD1Ev,_ZN7WorkerAD2Ev
  44              		.section	.text._ZN7WorkerAD0Ev,"axG",@progbits,_ZN7WorkerAD5Ev,comdat
  45              		.align	2
  46              		.weak	_ZN7WorkerAD0Ev
  48              	_ZN7WorkerAD0Ev:
  49              	.LFB74:
  50              		.loc 1 19 7 is_stmt 1
  51              		.cfi_startproc
  52              	.LVL2:
  53 0000 130101FE 		addi	sp,sp,-32
  54              		.cfi_def_cfa_offset 32
  55 0004 233C1100 		sd	ra,24(sp)
  56 0008 23388100 		sd	s0,16(sp)
  57 000c 23349100 		sd	s1,8(sp)
  58              		.cfi_offset 1, -8
  59              		.cfi_offset 8, -16
  60              		.cfi_offset 9, -24
  61 0010 13040102 		addi	s0,sp,32
  62              		.cfi_def_cfa 8, 0
  63 0014 93040500 		mv	s1,a0
  64              	.LVL3:
  65              	.LBB29:
  66              	.LBB30:
  67              		.loc 1 19 7 is_stmt 0
  68 0018 97070000 		lla	a5,_ZTV7WorkerA+16
  68      93870700 
  69 0020 2330F500 		sd	a5,0(a0)
  70 0024 97000000 		call	_ZN6ThreadD2Ev@plt
  70      E7800000 
  71              	.LVL4:
  72              	.LBE30:
  73              	.LBE29:
  74 002c 13850400 		mv	a0,s1
  75 0030 97000000 		call	_ZdlPv@plt
  75      E7800000 
  76              	.LVL5:
  77 0038 83308101 		ld	ra,24(sp)
  78              		.cfi_restore 1
  79 003c 03340101 		ld	s0,16(sp)
  80              		.cfi_restore 8
  81              		.cfi_def_cfa 2, 32
  82 0040 83348100 		ld	s1,8(sp)
  83              		.cfi_restore 9
  84              	.LVL6:
  85 0044 13010102 		addi	sp,sp,32
  86              		.cfi_def_cfa_offset 0
  87 0048 67800000 		jr	ra
  88              		.cfi_endproc
  89              	.LFE74:
  91              		.section	.text._ZN7WorkerBD2Ev,"axG",@progbits,_ZN7WorkerBD5Ev,comdat
  92              		.align	2
  93              		.weak	_ZN7WorkerBD2Ev
  95              	_ZN7WorkerBD2Ev:
GAS LISTING /tmp/ccpiwlbU.s 			page 3


  96              	.LFB68:
  20:src/../test/Threads_CPP_API_test.hpp ****     void workerBodyA(void* arg);
  21:src/../test/Threads_CPP_API_test.hpp **** public:
  22:src/../test/Threads_CPP_API_test.hpp ****     WorkerA():Thread() {}
  23:src/../test/Threads_CPP_API_test.hpp **** 
  24:src/../test/Threads_CPP_API_test.hpp ****     void run() override {
  25:src/../test/Threads_CPP_API_test.hpp ****         workerBodyA(nullptr);
  26:src/../test/Threads_CPP_API_test.hpp ****     }
  27:src/../test/Threads_CPP_API_test.hpp **** };
  28:src/../test/Threads_CPP_API_test.hpp **** 
  29:src/../test/Threads_CPP_API_test.hpp **** class WorkerB: public Thread {
  97              		.loc 1 29 7 is_stmt 1
  98              		.cfi_startproc
  99              	.LVL7:
 100 0000 130101FF 		addi	sp,sp,-16
 101              		.cfi_def_cfa_offset 16
 102 0004 23341100 		sd	ra,8(sp)
 103 0008 23308100 		sd	s0,0(sp)
 104              		.cfi_offset 1, -8
 105              		.cfi_offset 8, -16
 106 000c 13040101 		addi	s0,sp,16
 107              		.cfi_def_cfa 8, 0
 108              	.LBB31:
 109              		.loc 1 29 7 is_stmt 0
 110 0010 97070000 		lla	a5,_ZTV7WorkerB+16
 110      93870700 
 111 0018 2330F500 		sd	a5,0(a0)
 112 001c 97000000 		call	_ZN6ThreadD2Ev@plt
 112      E7800000 
 113              	.LVL8:
 114              	.LBE31:
 115 0024 83308100 		ld	ra,8(sp)
 116              		.cfi_restore 1
 117 0028 03340100 		ld	s0,0(sp)
 118              		.cfi_restore 8
 119              		.cfi_def_cfa 2, 16
 120 002c 13010101 		addi	sp,sp,16
 121              		.cfi_def_cfa_offset 0
 122 0030 67800000 		jr	ra
 123              		.cfi_endproc
 124              	.LFE68:
 126              		.weak	_ZN7WorkerBD1Ev
 127              		.set	_ZN7WorkerBD1Ev,_ZN7WorkerBD2Ev
 128              		.section	.text._ZN7WorkerBD0Ev,"axG",@progbits,_ZN7WorkerBD5Ev,comdat
 129              		.align	2
 130              		.weak	_ZN7WorkerBD0Ev
 132              	_ZN7WorkerBD0Ev:
 133              	.LFB70:
 134              		.loc 1 29 7 is_stmt 1
 135              		.cfi_startproc
 136              	.LVL9:
 137 0000 130101FE 		addi	sp,sp,-32
 138              		.cfi_def_cfa_offset 32
 139 0004 233C1100 		sd	ra,24(sp)
 140 0008 23388100 		sd	s0,16(sp)
 141 000c 23349100 		sd	s1,8(sp)
 142              		.cfi_offset 1, -8
GAS LISTING /tmp/ccpiwlbU.s 			page 4


 143              		.cfi_offset 8, -16
 144              		.cfi_offset 9, -24
 145 0010 13040102 		addi	s0,sp,32
 146              		.cfi_def_cfa 8, 0
 147 0014 93040500 		mv	s1,a0
 148              	.LVL10:
 149              	.LBB32:
 150              	.LBB33:
 151              		.loc 1 29 7 is_stmt 0
 152 0018 97070000 		lla	a5,_ZTV7WorkerB+16
 152      93870700 
 153 0020 2330F500 		sd	a5,0(a0)
 154 0024 97000000 		call	_ZN6ThreadD2Ev@plt
 154      E7800000 
 155              	.LVL11:
 156              	.LBE33:
 157              	.LBE32:
 158 002c 13850400 		mv	a0,s1
 159 0030 97000000 		call	_ZdlPv@plt
 159      E7800000 
 160              	.LVL12:
 161 0038 83308101 		ld	ra,24(sp)
 162              		.cfi_restore 1
 163 003c 03340101 		ld	s0,16(sp)
 164              		.cfi_restore 8
 165              		.cfi_def_cfa 2, 32
 166 0040 83348100 		ld	s1,8(sp)
 167              		.cfi_restore 9
 168              	.LVL13:
 169 0044 13010102 		addi	sp,sp,32
 170              		.cfi_def_cfa_offset 0
 171 0048 67800000 		jr	ra
 172              		.cfi_endproc
 173              	.LFE70:
 175              		.section	.text._ZN7WorkerCD2Ev,"axG",@progbits,_ZN7WorkerCD5Ev,comdat
 176              		.align	2
 177              		.weak	_ZN7WorkerCD2Ev
 179              	_ZN7WorkerCD2Ev:
 180              	.LFB64:
  30:src/../test/Threads_CPP_API_test.hpp ****     void workerBodyB(void* arg);
  31:src/../test/Threads_CPP_API_test.hpp **** public:
  32:src/../test/Threads_CPP_API_test.hpp ****     WorkerB():Thread() {}
  33:src/../test/Threads_CPP_API_test.hpp **** 
  34:src/../test/Threads_CPP_API_test.hpp ****     void run() override {
  35:src/../test/Threads_CPP_API_test.hpp ****         workerBodyB(nullptr);
  36:src/../test/Threads_CPP_API_test.hpp ****     }
  37:src/../test/Threads_CPP_API_test.hpp **** };
  38:src/../test/Threads_CPP_API_test.hpp **** 
  39:src/../test/Threads_CPP_API_test.hpp **** class WorkerC: public Thread {
 181              		.loc 1 39 7 is_stmt 1
 182              		.cfi_startproc
 183              	.LVL14:
 184 0000 130101FF 		addi	sp,sp,-16
 185              		.cfi_def_cfa_offset 16
 186 0004 23341100 		sd	ra,8(sp)
 187 0008 23308100 		sd	s0,0(sp)
 188              		.cfi_offset 1, -8
GAS LISTING /tmp/ccpiwlbU.s 			page 5


 189              		.cfi_offset 8, -16
 190 000c 13040101 		addi	s0,sp,16
 191              		.cfi_def_cfa 8, 0
 192              	.LBB34:
 193              		.loc 1 39 7 is_stmt 0
 194 0010 97070000 		lla	a5,_ZTV7WorkerC+16
 194      93870700 
 195 0018 2330F500 		sd	a5,0(a0)
 196 001c 97000000 		call	_ZN6ThreadD2Ev@plt
 196      E7800000 
 197              	.LVL15:
 198              	.LBE34:
 199 0024 83308100 		ld	ra,8(sp)
 200              		.cfi_restore 1
 201 0028 03340100 		ld	s0,0(sp)
 202              		.cfi_restore 8
 203              		.cfi_def_cfa 2, 16
 204 002c 13010101 		addi	sp,sp,16
 205              		.cfi_def_cfa_offset 0
 206 0030 67800000 		jr	ra
 207              		.cfi_endproc
 208              	.LFE64:
 210              		.weak	_ZN7WorkerCD1Ev
 211              		.set	_ZN7WorkerCD1Ev,_ZN7WorkerCD2Ev
 212              		.section	.text._ZN7WorkerCD0Ev,"axG",@progbits,_ZN7WorkerCD5Ev,comdat
 213              		.align	2
 214              		.weak	_ZN7WorkerCD0Ev
 216              	_ZN7WorkerCD0Ev:
 217              	.LFB66:
 218              		.loc 1 39 7 is_stmt 1
 219              		.cfi_startproc
 220              	.LVL16:
 221 0000 130101FE 		addi	sp,sp,-32
 222              		.cfi_def_cfa_offset 32
 223 0004 233C1100 		sd	ra,24(sp)
 224 0008 23388100 		sd	s0,16(sp)
 225 000c 23349100 		sd	s1,8(sp)
 226              		.cfi_offset 1, -8
 227              		.cfi_offset 8, -16
 228              		.cfi_offset 9, -24
 229 0010 13040102 		addi	s0,sp,32
 230              		.cfi_def_cfa 8, 0
 231 0014 93040500 		mv	s1,a0
 232              	.LVL17:
 233              	.LBB35:
 234              	.LBB36:
 235              		.loc 1 39 7 is_stmt 0
 236 0018 97070000 		lla	a5,_ZTV7WorkerC+16
 236      93870700 
 237 0020 2330F500 		sd	a5,0(a0)
 238 0024 97000000 		call	_ZN6ThreadD2Ev@plt
 238      E7800000 
 239              	.LVL18:
 240              	.LBE36:
 241              	.LBE35:
 242 002c 13850400 		mv	a0,s1
 243 0030 97000000 		call	_ZdlPv@plt
GAS LISTING /tmp/ccpiwlbU.s 			page 6


 243      E7800000 
 244              	.LVL19:
 245 0038 83308101 		ld	ra,24(sp)
 246              		.cfi_restore 1
 247 003c 03340101 		ld	s0,16(sp)
 248              		.cfi_restore 8
 249              		.cfi_def_cfa 2, 32
 250 0040 83348100 		ld	s1,8(sp)
 251              		.cfi_restore 9
 252              	.LVL20:
 253 0044 13010102 		addi	sp,sp,32
 254              		.cfi_def_cfa_offset 0
 255 0048 67800000 		jr	ra
 256              		.cfi_endproc
 257              	.LFE66:
 259              		.section	.text._ZN7WorkerDD2Ev,"axG",@progbits,_ZN7WorkerDD5Ev,comdat
 260              		.align	2
 261              		.weak	_ZN7WorkerDD2Ev
 263              	_ZN7WorkerDD2Ev:
 264              	.LFB60:
  40:src/../test/Threads_CPP_API_test.hpp ****     void workerBodyC(void* arg);
  41:src/../test/Threads_CPP_API_test.hpp **** public:
  42:src/../test/Threads_CPP_API_test.hpp ****     WorkerC():Thread() {}
  43:src/../test/Threads_CPP_API_test.hpp **** 
  44:src/../test/Threads_CPP_API_test.hpp ****     void run() override {
  45:src/../test/Threads_CPP_API_test.hpp ****         workerBodyC(nullptr);
  46:src/../test/Threads_CPP_API_test.hpp ****     }
  47:src/../test/Threads_CPP_API_test.hpp **** };
  48:src/../test/Threads_CPP_API_test.hpp **** 
  49:src/../test/Threads_CPP_API_test.hpp **** class WorkerD: public Thread {
 265              		.loc 1 49 7 is_stmt 1
 266              		.cfi_startproc
 267              	.LVL21:
 268 0000 130101FF 		addi	sp,sp,-16
 269              		.cfi_def_cfa_offset 16
 270 0004 23341100 		sd	ra,8(sp)
 271 0008 23308100 		sd	s0,0(sp)
 272              		.cfi_offset 1, -8
 273              		.cfi_offset 8, -16
 274 000c 13040101 		addi	s0,sp,16
 275              		.cfi_def_cfa 8, 0
 276              	.LBB37:
 277              		.loc 1 49 7 is_stmt 0
 278 0010 97070000 		lla	a5,_ZTV7WorkerD+16
 278      93870700 
 279 0018 2330F500 		sd	a5,0(a0)
 280 001c 97000000 		call	_ZN6ThreadD2Ev@plt
 280      E7800000 
 281              	.LVL22:
 282              	.LBE37:
 283 0024 83308100 		ld	ra,8(sp)
 284              		.cfi_restore 1
 285 0028 03340100 		ld	s0,0(sp)
 286              		.cfi_restore 8
 287              		.cfi_def_cfa 2, 16
 288 002c 13010101 		addi	sp,sp,16
 289              		.cfi_def_cfa_offset 0
GAS LISTING /tmp/ccpiwlbU.s 			page 7


 290 0030 67800000 		jr	ra
 291              		.cfi_endproc
 292              	.LFE60:
 294              		.weak	_ZN7WorkerDD1Ev
 295              		.set	_ZN7WorkerDD1Ev,_ZN7WorkerDD2Ev
 296              		.section	.text._ZN7WorkerDD0Ev,"axG",@progbits,_ZN7WorkerDD5Ev,comdat
 297              		.align	2
 298              		.weak	_ZN7WorkerDD0Ev
 300              	_ZN7WorkerDD0Ev:
 301              	.LFB62:
 302              		.loc 1 49 7 is_stmt 1
 303              		.cfi_startproc
 304              	.LVL23:
 305 0000 130101FE 		addi	sp,sp,-32
 306              		.cfi_def_cfa_offset 32
 307 0004 233C1100 		sd	ra,24(sp)
 308 0008 23388100 		sd	s0,16(sp)
 309 000c 23349100 		sd	s1,8(sp)
 310              		.cfi_offset 1, -8
 311              		.cfi_offset 8, -16
 312              		.cfi_offset 9, -24
 313 0010 13040102 		addi	s0,sp,32
 314              		.cfi_def_cfa 8, 0
 315 0014 93040500 		mv	s1,a0
 316              	.LVL24:
 317              	.LBB38:
 318              	.LBB39:
 319              		.loc 1 49 7 is_stmt 0
 320 0018 97070000 		lla	a5,_ZTV7WorkerD+16
 320      93870700 
 321 0020 2330F500 		sd	a5,0(a0)
 322 0024 97000000 		call	_ZN6ThreadD2Ev@plt
 322      E7800000 
 323              	.LVL25:
 324              	.LBE39:
 325              	.LBE38:
 326 002c 13850400 		mv	a0,s1
 327 0030 97000000 		call	_ZdlPv@plt
 327      E7800000 
 328              	.LVL26:
 329 0038 83308101 		ld	ra,24(sp)
 330              		.cfi_restore 1
 331 003c 03340101 		ld	s0,16(sp)
 332              		.cfi_restore 8
 333              		.cfi_def_cfa 2, 32
 334 0040 83348100 		ld	s1,8(sp)
 335              		.cfi_restore 9
 336              	.LVL27:
 337 0044 13010102 		addi	sp,sp,32
 338              		.cfi_def_cfa_offset 0
 339 0048 67800000 		jr	ra
 340              		.cfi_endproc
 341              	.LFE62:
 343              		.text
 344              		.align	2
 345              		.globl	_Z9fibonaccim
 347              	_Z9fibonaccim:
GAS LISTING /tmp/ccpiwlbU.s 			page 8


 348              	.LFB36:
  13:src/../test/Threads_CPP_API_test.hpp ****     if (n == 0 || n == 1) { return n; }
 349              		.loc 1 13 28 is_stmt 1
 350              		.cfi_startproc
 351              	.LVL28:
 352 0000 130101FE 		addi	sp,sp,-32
 353              		.cfi_def_cfa_offset 32
 354 0004 233C1100 		sd	ra,24(sp)
 355 0008 23388100 		sd	s0,16(sp)
 356 000c 23349100 		sd	s1,8(sp)
 357 0010 23302101 		sd	s2,0(sp)
 358              		.cfi_offset 1, -8
 359              		.cfi_offset 8, -16
 360              		.cfi_offset 9, -24
 361              		.cfi_offset 18, -32
 362 0014 13040102 		addi	s0,sp,32
 363              		.cfi_def_cfa 8, 0
 364 0018 93040500 		mv	s1,a0
  14:src/../test/Threads_CPP_API_test.hpp ****     if (n % 10 == 0) { thread_dispatch(); }
 365              		.loc 1 14 5
 366 001c 93071000 		li	a5,1
 367 0020 63F8A702 		bleu	a0,a5,.L17
  15:src/../test/Threads_CPP_API_test.hpp ****     return fibonacci(n - 1) + fibonacci(n - 2);
 368              		.loc 1 15 5
  15:src/../test/Threads_CPP_API_test.hpp ****     return fibonacci(n - 1) + fibonacci(n - 2);
 369              		.loc 1 15 11 is_stmt 0
 370 0024 9307A000 		li	a5,10
 371 0028 B377F502 		remu	a5,a0,a5
  15:src/../test/Threads_CPP_API_test.hpp ****     return fibonacci(n - 1) + fibonacci(n - 2);
 372              		.loc 1 15 5
 373 002c 638E0702 		beqz	a5,.L22
 374              	.LVL29:
 375              	.L19:
  16:src/../test/Threads_CPP_API_test.hpp **** }
 376              		.loc 1 16 5 is_stmt 1
  16:src/../test/Threads_CPP_API_test.hpp **** }
 377              		.loc 1 16 21 is_stmt 0
 378 0030 1385F4FF 		addi	a0,s1,-1
 379 0034 97000000 		call	_Z9fibonaccim
 379      E7800000 
 380              	.LVL30:
 381 003c 13090500 		mv	s2,a0
  16:src/../test/Threads_CPP_API_test.hpp **** }
 382              		.loc 1 16 40
 383 0040 1385E4FF 		addi	a0,s1,-2
 384 0044 97000000 		call	_Z9fibonaccim
 384      E7800000 
 385              	.LVL31:
  16:src/../test/Threads_CPP_API_test.hpp **** }
 386              		.loc 1 16 46
 387 004c 3305A900 		add	a0,s2,a0
 388              	.L17:
  17:src/../test/Threads_CPP_API_test.hpp **** 
 389              		.loc 1 17 1
 390 0050 83308101 		ld	ra,24(sp)
 391              		.cfi_remember_state
 392              		.cfi_restore 1
GAS LISTING /tmp/ccpiwlbU.s 			page 9


 393 0054 03340101 		ld	s0,16(sp)
 394              		.cfi_restore 8
 395              		.cfi_def_cfa 2, 32
 396 0058 83348100 		ld	s1,8(sp)
 397              		.cfi_restore 9
 398              	.LVL32:
 399 005c 03390100 		ld	s2,0(sp)
 400              		.cfi_restore 18
 401 0060 13010102 		addi	sp,sp,32
 402              		.cfi_def_cfa_offset 0
 403 0064 67800000 		jr	ra
 404              	.LVL33:
 405              	.L22:
 406              		.cfi_restore_state
  15:src/../test/Threads_CPP_API_test.hpp ****     return fibonacci(n - 1) + fibonacci(n - 2);
 407              		.loc 1 15 24 is_stmt 1 discriminator 1
  15:src/../test/Threads_CPP_API_test.hpp ****     return fibonacci(n - 1) + fibonacci(n - 2);
 408              		.loc 1 15 39 is_stmt 0 discriminator 1
 409 0068 97000000 		call	_Z15thread_dispatchv@plt
 409      E7800000 
 410              	.LVL34:
 411 0070 6FF01FFC 		j	.L19
 412              		.cfi_endproc
 413              	.LFE36:
 415              		.section	.rodata.str1.8,"aMS",@progbits,1
 416              		.align	3
 417              	.LC0:
 418 0000 413A2069 		.string	"A: i="
 418      3D00
 419 0006 0000     		.align	3
 420              	.LC1:
 421 0008 0A00     		.string	"\n"
 422 000a 00000000 		.align	3
 422      0000
 423              	.LC2:
 424 0010 41206669 		.string	"A finished!\n"
 424      6E697368 
 424      6564210A 
 424      00
 425              		.text
 426              		.align	2
 427              		.globl	_ZN7WorkerA11workerBodyAEPv
 429              	_ZN7WorkerA11workerBodyAEPv:
 430              	.LFB53:
  50:src/../test/Threads_CPP_API_test.hpp ****     void workerBodyD(void* arg);
  51:src/../test/Threads_CPP_API_test.hpp **** public:
  52:src/../test/Threads_CPP_API_test.hpp ****     WorkerD():Thread() {}
  53:src/../test/Threads_CPP_API_test.hpp **** 
  54:src/../test/Threads_CPP_API_test.hpp ****     void run() override {
  55:src/../test/Threads_CPP_API_test.hpp ****         workerBodyD(nullptr);
  56:src/../test/Threads_CPP_API_test.hpp ****     }
  57:src/../test/Threads_CPP_API_test.hpp **** };
  58:src/../test/Threads_CPP_API_test.hpp **** 
  59:src/../test/Threads_CPP_API_test.hpp **** void WorkerA::workerBodyA(void *arg) {
 431              		.loc 1 59 38 is_stmt 1
 432              		.cfi_startproc
 433              	.LVL35:
GAS LISTING /tmp/ccpiwlbU.s 			page 10


 434 0074 130101FE 		addi	sp,sp,-32
 435              		.cfi_def_cfa_offset 32
 436 0078 233C1100 		sd	ra,24(sp)
 437 007c 23388100 		sd	s0,16(sp)
 438 0080 23349100 		sd	s1,8(sp)
 439 0084 23302101 		sd	s2,0(sp)
 440              		.cfi_offset 1, -8
 441              		.cfi_offset 8, -16
 442              		.cfi_offset 9, -24
 443              		.cfi_offset 18, -32
 444 0088 13040102 		addi	s0,sp,32
 445              		.cfi_def_cfa 8, 0
  60:src/../test/Threads_CPP_API_test.hpp ****     for (uint64 i = 0; i < 10; i++) {
 446              		.loc 1 60 5
 447              	.LVL36:
 448              	.LBB40:
 449              		.loc 1 60 17 is_stmt 0
 450 008c 13090000 		li	s2,0
 451 0090 6F008003 		j	.L29
 452              	.LVL37:
 453              	.L26:
 454              	.LBB41:
 455              	.LBB42:
 456              	.LBB43:
  61:src/../test/Threads_CPP_API_test.hpp ****         printString("A: i="); printInt(i); printString("\n");
  62:src/../test/Threads_CPP_API_test.hpp ****         for (uint64 j = 0; j < 10000; j++) {
  63:src/../test/Threads_CPP_API_test.hpp ****             for (uint64 k = 0; k < 30000; k++) { /* busy wait */ }
  64:src/../test/Threads_CPP_API_test.hpp ****             thread_dispatch();
 457              		.loc 1 64 13 is_stmt 1 discriminator 2
 458              		.loc 1 64 28 is_stmt 0 discriminator 2
 459 0094 97000000 		call	_Z15thread_dispatchv@plt
 459      E7800000 
 460              	.LVL38:
 461              	.LBE43:
  62:src/../test/Threads_CPP_API_test.hpp ****             for (uint64 k = 0; k < 30000; k++) { /* busy wait */ }
 462              		.loc 1 62 9 is_stmt 1 discriminator 2
 463 009c 93841400 		addi	s1,s1,1
 464              	.LVL39:
 465              	.L28:
  62:src/../test/Threads_CPP_API_test.hpp ****             for (uint64 k = 0; k < 30000; k++) { /* busy wait */ }
 466              		.loc 1 62 30 discriminator 1
 467 00a0 B7270000 		li	a5,8192
 468 00a4 9387F770 		addi	a5,a5,1807
 469 00a8 63EE9700 		bgtu	s1,a5,.L25
 470              	.LBB45:
 471              	.LBB44:
  63:src/../test/Threads_CPP_API_test.hpp ****             thread_dispatch();
 472              		.loc 1 63 25 is_stmt 0
 473 00ac 13070000 		li	a4,0
 474              	.L27:
 475              	.LVL40:
  63:src/../test/Threads_CPP_API_test.hpp ****             thread_dispatch();
 476              		.loc 1 63 34 is_stmt 1 discriminator 3
 477 00b0 B7770000 		li	a5,28672
 478 00b4 9387F752 		addi	a5,a5,1327
 479 00b8 E3EEE7FC 		bgtu	a4,a5,.L26
  63:src/../test/Threads_CPP_API_test.hpp ****             thread_dispatch();
GAS LISTING /tmp/ccpiwlbU.s 			page 11


 480              		.loc 1 63 13 discriminator 2
 481 00bc 13071700 		addi	a4,a4,1
 482              	.LVL41:
 483 00c0 6FF01FFF 		j	.L27
 484              	.LVL42:
 485              	.L25:
 486              	.LBE44:
 487              	.LBE45:
 488              	.LBE42:
 489              	.LBE41:
  60:src/../test/Threads_CPP_API_test.hpp ****         printString("A: i="); printInt(i); printString("\n");
 490              		.loc 1 60 5 discriminator 2
 491 00c4 13091900 		addi	s2,s2,1
 492              	.LVL43:
 493              	.L29:
  60:src/../test/Threads_CPP_API_test.hpp ****         printString("A: i="); printInt(i); printString("\n");
 494              		.loc 1 60 26 discriminator 1
 495 00c8 93079000 		li	a5,9
 496 00cc 63E02705 		bgtu	s2,a5,.L24
 497              	.LBB47:
  61:src/../test/Threads_CPP_API_test.hpp ****         for (uint64 j = 0; j < 10000; j++) {
 498              		.loc 1 61 9
  61:src/../test/Threads_CPP_API_test.hpp ****         for (uint64 j = 0; j < 10000; j++) {
 499              		.loc 1 61 20 is_stmt 0
 500 00d0 17050000 		lla	a0,.LC0
 500      13050500 
 501 00d8 97000000 		call	_Z11printStringPKc@plt
 501      E7800000 
 502              	.LVL44:
  61:src/../test/Threads_CPP_API_test.hpp ****         for (uint64 j = 0; j < 10000; j++) {
 503              		.loc 1 61 31 is_stmt 1
  61:src/../test/Threads_CPP_API_test.hpp ****         for (uint64 j = 0; j < 10000; j++) {
 504              		.loc 1 61 39 is_stmt 0
 505 00e0 13060000 		li	a2,0
 506 00e4 9305A000 		li	a1,10
 507 00e8 1B050900 		sext.w	a0,s2
 508 00ec 97000000 		call	_Z8printIntiii@plt
 508      E7800000 
 509              	.LVL45:
  61:src/../test/Threads_CPP_API_test.hpp ****         for (uint64 j = 0; j < 10000; j++) {
 510              		.loc 1 61 44 is_stmt 1
  61:src/../test/Threads_CPP_API_test.hpp ****         for (uint64 j = 0; j < 10000; j++) {
 511              		.loc 1 61 55 is_stmt 0
 512 00f4 17050000 		lla	a0,.LC1
 512      13050500 
 513 00fc 97000000 		call	_Z11printStringPKc@plt
 513      E7800000 
 514              	.LVL46:
  62:src/../test/Threads_CPP_API_test.hpp ****             for (uint64 k = 0; k < 30000; k++) { /* busy wait */ }
 515              		.loc 1 62 9 is_stmt 1
 516              	.LBB46:
  62:src/../test/Threads_CPP_API_test.hpp ****             for (uint64 k = 0; k < 30000; k++) { /* busy wait */ }
 517              		.loc 1 62 21 is_stmt 0
 518 0104 93040000 		li	s1,0
 519 0108 6FF09FF9 		j	.L28
 520              	.LVL47:
 521              	.L24:
GAS LISTING /tmp/ccpiwlbU.s 			page 12


 522              	.LBE46:
 523              	.LBE47:
 524              	.LBE40:
  65:src/../test/Threads_CPP_API_test.hpp ****         }
  66:src/../test/Threads_CPP_API_test.hpp ****     }
  67:src/../test/Threads_CPP_API_test.hpp ****     printString("A finished!\n");
 525              		.loc 1 67 5 is_stmt 1
 526              		.loc 1 67 16 is_stmt 0
 527 010c 17050000 		lla	a0,.LC2
 527      13050500 
 528 0114 97000000 		call	_Z11printStringPKc@plt
 528      E7800000 
 529              	.LVL48:
  68:src/../test/Threads_CPP_API_test.hpp ****     finishedA = true;
 530              		.loc 1 68 5 is_stmt 1
 531              		.loc 1 68 15 is_stmt 0
 532 011c 93071000 		li	a5,1
 533 0120 17070000 		sb	a5,.LANCHOR0,a4
 533      2300F700 
  69:src/../test/Threads_CPP_API_test.hpp **** }
 534              		.loc 1 69 1
 535 0128 83308101 		ld	ra,24(sp)
 536              		.cfi_restore 1
 537 012c 03340101 		ld	s0,16(sp)
 538              		.cfi_restore 8
 539              		.cfi_def_cfa 2, 32
 540 0130 83348100 		ld	s1,8(sp)
 541              		.cfi_restore 9
 542 0134 03390100 		ld	s2,0(sp)
 543              		.cfi_restore 18
 544              	.LVL49:
 545 0138 13010102 		addi	sp,sp,32
 546              		.cfi_def_cfa_offset 0
 547 013c 67800000 		jr	ra
 548              		.cfi_endproc
 549              	.LFE53:
 551              		.section	.text._ZN7WorkerA3runEv,"axG",@progbits,_ZN7WorkerA3runEv,comdat
 552              		.align	2
 553              		.weak	_ZN7WorkerA3runEv
 555              	_ZN7WorkerA3runEv:
 556              	.LFB40:
  24:src/../test/Threads_CPP_API_test.hpp ****         workerBodyA(nullptr);
 557              		.loc 1 24 10 is_stmt 1
 558              		.cfi_startproc
 559              	.LVL50:
 560 0000 130101FF 		addi	sp,sp,-16
 561              		.cfi_def_cfa_offset 16
 562 0004 23341100 		sd	ra,8(sp)
 563 0008 23308100 		sd	s0,0(sp)
 564              		.cfi_offset 1, -8
 565              		.cfi_offset 8, -16
 566 000c 13040101 		addi	s0,sp,16
 567              		.cfi_def_cfa 8, 0
  25:src/../test/Threads_CPP_API_test.hpp ****     }
 568              		.loc 1 25 9
  25:src/../test/Threads_CPP_API_test.hpp ****     }
 569              		.loc 1 25 20 is_stmt 0
GAS LISTING /tmp/ccpiwlbU.s 			page 13


 570 0010 93050000 		li	a1,0
 571 0014 97000000 		call	_ZN7WorkerA11workerBodyAEPv
 571      E7800000 
 572              	.LVL51:
  26:src/../test/Threads_CPP_API_test.hpp **** };
 573              		.loc 1 26 5
 574 001c 83308100 		ld	ra,8(sp)
 575              		.cfi_restore 1
 576 0020 03340100 		ld	s0,0(sp)
 577              		.cfi_restore 8
 578              		.cfi_def_cfa 2, 16
 579 0024 13010101 		addi	sp,sp,16
 580              		.cfi_def_cfa_offset 0
 581 0028 67800000 		jr	ra
 582              		.cfi_endproc
 583              	.LFE40:
 585              		.section	.rodata.str1.8
 586 001d 000000   		.align	3
 587              	.LC3:
 588 0020 423A2069 		.string	"B: i="
 588      3D00
 589 0026 0000     		.align	3
 590              	.LC4:
 591 0028 42206669 		.string	"B finished!\n"
 591      6E697368 
 591      6564210A 
 591      00
 592              		.text
 593              		.align	2
 594              		.globl	_ZN7WorkerB11workerBodyBEPv
 596              	_ZN7WorkerB11workerBodyBEPv:
 597              	.LFB54:
  70:src/../test/Threads_CPP_API_test.hpp **** 
  71:src/../test/Threads_CPP_API_test.hpp **** void WorkerB::workerBodyB(void *arg) {
 598              		.loc 1 71 38 is_stmt 1
 599              		.cfi_startproc
 600              	.LVL52:
 601 0140 130101FE 		addi	sp,sp,-32
 602              		.cfi_def_cfa_offset 32
 603 0144 233C1100 		sd	ra,24(sp)
 604 0148 23388100 		sd	s0,16(sp)
 605 014c 23349100 		sd	s1,8(sp)
 606 0150 23302101 		sd	s2,0(sp)
 607              		.cfi_offset 1, -8
 608              		.cfi_offset 8, -16
 609              		.cfi_offset 9, -24
 610              		.cfi_offset 18, -32
 611 0154 13040102 		addi	s0,sp,32
 612              		.cfi_def_cfa 8, 0
  72:src/../test/Threads_CPP_API_test.hpp ****     for (uint64 i = 0; i < 16; i++) {
 613              		.loc 1 72 5
 614              	.LVL53:
 615              	.LBB48:
 616              		.loc 1 72 17 is_stmt 0
 617 0158 13090000 		li	s2,0
 618 015c 6F008003 		j	.L39
 619              	.LVL54:
GAS LISTING /tmp/ccpiwlbU.s 			page 14


 620              	.L36:
 621              	.LBB49:
 622              	.LBB50:
 623              	.LBB51:
  73:src/../test/Threads_CPP_API_test.hpp ****         printString("B: i="); printInt(i); printString("\n");
  74:src/../test/Threads_CPP_API_test.hpp ****         for (uint64 j = 0; j < 10000; j++) {
  75:src/../test/Threads_CPP_API_test.hpp ****             for (uint64 k = 0; k < 30000; k++) { /* busy wait */ }
  76:src/../test/Threads_CPP_API_test.hpp ****             thread_dispatch();
 624              		.loc 1 76 13 is_stmt 1 discriminator 2
 625              		.loc 1 76 28 is_stmt 0 discriminator 2
 626 0160 97000000 		call	_Z15thread_dispatchv@plt
 626      E7800000 
 627              	.LVL55:
 628              	.LBE51:
  74:src/../test/Threads_CPP_API_test.hpp ****             for (uint64 k = 0; k < 30000; k++) { /* busy wait */ }
 629              		.loc 1 74 9 is_stmt 1 discriminator 2
 630 0168 93841400 		addi	s1,s1,1
 631              	.LVL56:
 632              	.L38:
  74:src/../test/Threads_CPP_API_test.hpp ****             for (uint64 k = 0; k < 30000; k++) { /* busy wait */ }
 633              		.loc 1 74 30 discriminator 1
 634 016c B7270000 		li	a5,8192
 635 0170 9387F770 		addi	a5,a5,1807
 636 0174 63EE9700 		bgtu	s1,a5,.L35
 637              	.LBB53:
 638              	.LBB52:
  75:src/../test/Threads_CPP_API_test.hpp ****             thread_dispatch();
 639              		.loc 1 75 25 is_stmt 0
 640 0178 13070000 		li	a4,0
 641              	.L37:
 642              	.LVL57:
  75:src/../test/Threads_CPP_API_test.hpp ****             thread_dispatch();
 643              		.loc 1 75 34 is_stmt 1 discriminator 3
 644 017c B7770000 		li	a5,28672
 645 0180 9387F752 		addi	a5,a5,1327
 646 0184 E3EEE7FC 		bgtu	a4,a5,.L36
  75:src/../test/Threads_CPP_API_test.hpp ****             thread_dispatch();
 647              		.loc 1 75 13 discriminator 2
 648 0188 13071700 		addi	a4,a4,1
 649              	.LVL58:
 650 018c 6FF01FFF 		j	.L37
 651              	.LVL59:
 652              	.L35:
 653              	.LBE52:
 654              	.LBE53:
 655              	.LBE50:
 656              	.LBE49:
  72:src/../test/Threads_CPP_API_test.hpp ****         printString("B: i="); printInt(i); printString("\n");
 657              		.loc 1 72 5 discriminator 2
 658 0190 13091900 		addi	s2,s2,1
 659              	.LVL60:
 660              	.L39:
  72:src/../test/Threads_CPP_API_test.hpp ****         printString("B: i="); printInt(i); printString("\n");
 661              		.loc 1 72 26 discriminator 1
 662 0194 9307F000 		li	a5,15
 663 0198 63E02705 		bgtu	s2,a5,.L34
 664              	.LBB55:
GAS LISTING /tmp/ccpiwlbU.s 			page 15


  73:src/../test/Threads_CPP_API_test.hpp ****         for (uint64 j = 0; j < 10000; j++) {
 665              		.loc 1 73 9
  73:src/../test/Threads_CPP_API_test.hpp ****         for (uint64 j = 0; j < 10000; j++) {
 666              		.loc 1 73 20 is_stmt 0
 667 019c 17050000 		lla	a0,.LC3
 667      13050500 
 668 01a4 97000000 		call	_Z11printStringPKc@plt
 668      E7800000 
 669              	.LVL61:
  73:src/../test/Threads_CPP_API_test.hpp ****         for (uint64 j = 0; j < 10000; j++) {
 670              		.loc 1 73 31 is_stmt 1
  73:src/../test/Threads_CPP_API_test.hpp ****         for (uint64 j = 0; j < 10000; j++) {
 671              		.loc 1 73 39 is_stmt 0
 672 01ac 13060000 		li	a2,0
 673 01b0 9305A000 		li	a1,10
 674 01b4 1B050900 		sext.w	a0,s2
 675 01b8 97000000 		call	_Z8printIntiii@plt
 675      E7800000 
 676              	.LVL62:
  73:src/../test/Threads_CPP_API_test.hpp ****         for (uint64 j = 0; j < 10000; j++) {
 677              		.loc 1 73 44 is_stmt 1
  73:src/../test/Threads_CPP_API_test.hpp ****         for (uint64 j = 0; j < 10000; j++) {
 678              		.loc 1 73 55 is_stmt 0
 679 01c0 17050000 		lla	a0,.LC1
 679      13050500 
 680 01c8 97000000 		call	_Z11printStringPKc@plt
 680      E7800000 
 681              	.LVL63:
  74:src/../test/Threads_CPP_API_test.hpp ****             for (uint64 k = 0; k < 30000; k++) { /* busy wait */ }
 682              		.loc 1 74 9 is_stmt 1
 683              	.LBB54:
  74:src/../test/Threads_CPP_API_test.hpp ****             for (uint64 k = 0; k < 30000; k++) { /* busy wait */ }
 684              		.loc 1 74 21 is_stmt 0
 685 01d0 93040000 		li	s1,0
 686 01d4 6FF09FF9 		j	.L38
 687              	.LVL64:
 688              	.L34:
 689              	.LBE54:
 690              	.LBE55:
 691              	.LBE48:
  77:src/../test/Threads_CPP_API_test.hpp ****         }
  78:src/../test/Threads_CPP_API_test.hpp ****     }
  79:src/../test/Threads_CPP_API_test.hpp ****     printString("B finished!\n");
 692              		.loc 1 79 5 is_stmt 1
 693              		.loc 1 79 16 is_stmt 0
 694 01d8 17050000 		lla	a0,.LC4
 694      13050500 
 695 01e0 97000000 		call	_Z11printStringPKc@plt
 695      E7800000 
 696              	.LVL65:
  80:src/../test/Threads_CPP_API_test.hpp ****     finishedB = true;
 697              		.loc 1 80 5 is_stmt 1
 698              		.loc 1 80 15 is_stmt 0
 699 01e8 93071000 		li	a5,1
 700 01ec 17070000 		sb	a5,.LANCHOR0+1,a4
 700      2300F700 
  81:src/../test/Threads_CPP_API_test.hpp ****     thread_dispatch();
GAS LISTING /tmp/ccpiwlbU.s 			page 16


 701              		.loc 1 81 5 is_stmt 1
 702              		.loc 1 81 20 is_stmt 0
 703 01f4 97000000 		call	_Z15thread_dispatchv@plt
 703      E7800000 
 704              	.LVL66:
  82:src/../test/Threads_CPP_API_test.hpp **** }
 705              		.loc 1 82 1
 706 01fc 83308101 		ld	ra,24(sp)
 707              		.cfi_restore 1
 708 0200 03340101 		ld	s0,16(sp)
 709              		.cfi_restore 8
 710              		.cfi_def_cfa 2, 32
 711 0204 83348100 		ld	s1,8(sp)
 712              		.cfi_restore 9
 713 0208 03390100 		ld	s2,0(sp)
 714              		.cfi_restore 18
 715              	.LVL67:
 716 020c 13010102 		addi	sp,sp,32
 717              		.cfi_def_cfa_offset 0
 718 0210 67800000 		jr	ra
 719              		.cfi_endproc
 720              	.LFE54:
 722              		.section	.text._ZN7WorkerB3runEv,"axG",@progbits,_ZN7WorkerB3runEv,comdat
 723              		.align	2
 724              		.weak	_ZN7WorkerB3runEv
 726              	_ZN7WorkerB3runEv:
 727              	.LFB44:
  34:src/../test/Threads_CPP_API_test.hpp ****         workerBodyB(nullptr);
 728              		.loc 1 34 10 is_stmt 1
 729              		.cfi_startproc
 730              	.LVL68:
 731 0000 130101FF 		addi	sp,sp,-16
 732              		.cfi_def_cfa_offset 16
 733 0004 23341100 		sd	ra,8(sp)
 734 0008 23308100 		sd	s0,0(sp)
 735              		.cfi_offset 1, -8
 736              		.cfi_offset 8, -16
 737 000c 13040101 		addi	s0,sp,16
 738              		.cfi_def_cfa 8, 0
  35:src/../test/Threads_CPP_API_test.hpp ****     }
 739              		.loc 1 35 9
  35:src/../test/Threads_CPP_API_test.hpp ****     }
 740              		.loc 1 35 20 is_stmt 0
 741 0010 93050000 		li	a1,0
 742 0014 97000000 		call	_ZN7WorkerB11workerBodyBEPv
 742      E7800000 
 743              	.LVL69:
  36:src/../test/Threads_CPP_API_test.hpp **** };
 744              		.loc 1 36 5
 745 001c 83308100 		ld	ra,8(sp)
 746              		.cfi_restore 1
 747 0020 03340100 		ld	s0,0(sp)
 748              		.cfi_restore 8
 749              		.cfi_def_cfa 2, 16
 750 0024 13010101 		addi	sp,sp,16
 751              		.cfi_def_cfa_offset 0
 752 0028 67800000 		jr	ra
GAS LISTING /tmp/ccpiwlbU.s 			page 17


 753              		.cfi_endproc
 754              	.LFE44:
 756              		.section	.rodata.str1.8
 757 0035 000000   		.align	3
 758              	.LC5:
 759 0038 433A2069 		.string	"C: i="
 759      3D00
 760 003e 0000     		.align	3
 761              	.LC6:
 762 0040 433A2064 		.string	"C: dispatch\n"
 762      69737061 
 762      7463680A 
 762      00
 763 004d 000000   		.align	3
 764              	.LC7:
 765 0050 433A2074 		.string	"C: t1="
 765      313D00
 766 0057 00       		.align	3
 767              	.LC8:
 768 0058 433A2066 		.string	"C: fibonaci="
 768      69626F6E 
 768      6163693D 
 768      00
 769              		.text
 770              		.align	2
 771              		.globl	_ZN7WorkerC11workerBodyCEPv
 773              	_ZN7WorkerC11workerBodyCEPv:
 774              	.LFB55:
  83:src/../test/Threads_CPP_API_test.hpp **** 
  84:src/../test/Threads_CPP_API_test.hpp **** void WorkerC::workerBodyC(void *arg) {
 775              		.loc 1 84 38 is_stmt 1
 776              		.cfi_startproc
 777              	.LVL70:
 778 0214 130101FE 		addi	sp,sp,-32
 779              		.cfi_def_cfa_offset 32
 780 0218 233C1100 		sd	ra,24(sp)
 781 021c 23388100 		sd	s0,16(sp)
 782 0220 23349100 		sd	s1,8(sp)
 783 0224 23302101 		sd	s2,0(sp)
 784              		.cfi_offset 1, -8
 785              		.cfi_offset 8, -16
 786              		.cfi_offset 9, -24
 787              		.cfi_offset 18, -32
 788 0228 13040102 		addi	s0,sp,32
 789              		.cfi_def_cfa 8, 0
  85:src/../test/Threads_CPP_API_test.hpp ****     uint8 i = 0;
 790              		.loc 1 85 5
 791              	.LVL71:
 792              		.loc 1 85 11 is_stmt 0
 793 022c 93040000 		li	s1,0
 794 0230 6F000004 		j	.L45
 795              	.LVL72:
 796              	.L49:
  86:src/../test/Threads_CPP_API_test.hpp ****     for (; i < 3; i++) {
  87:src/../test/Threads_CPP_API_test.hpp ****         printString("C: i="); printInt(i); printString("\n");
 797              		.loc 1 87 9 is_stmt 1 discriminator 1
 798              		.loc 1 87 20 is_stmt 0 discriminator 1
GAS LISTING /tmp/ccpiwlbU.s 			page 18


 799 0234 17050000 		lla	a0,.LC5
 799      13050500 
 800 023c 97000000 		call	_Z11printStringPKc@plt
 800      E7800000 
 801              	.LVL73:
 802              		.loc 1 87 31 is_stmt 1 discriminator 1
 803              		.loc 1 87 39 is_stmt 0 discriminator 1
 804 0244 13060000 		li	a2,0
 805 0248 9305A000 		li	a1,10
 806 024c 13850400 		mv	a0,s1
 807 0250 97000000 		call	_Z8printIntiii@plt
 807      E7800000 
 808              	.LVL74:
 809              		.loc 1 87 44 is_stmt 1 discriminator 1
 810              		.loc 1 87 55 is_stmt 0 discriminator 1
 811 0258 17050000 		lla	a0,.LC1
 811      13050500 
 812 0260 97000000 		call	_Z11printStringPKc@plt
 812      E7800000 
 813              	.LVL75:
  86:src/../test/Threads_CPP_API_test.hpp ****     for (; i < 3; i++) {
 814              		.loc 1 86 5 is_stmt 1 discriminator 1
 815 0268 9B841400 		addiw	s1,s1,1
 816              	.LVL76:
 817 026c 93F4F40F 		andi	s1,s1,0xff
 818              	.LVL77:
 819              	.L45:
  86:src/../test/Threads_CPP_API_test.hpp ****     for (; i < 3; i++) {
 820              		.loc 1 86 5 discriminator 2
  86:src/../test/Threads_CPP_API_test.hpp ****     for (; i < 3; i++) {
 821              		.loc 1 86 14 discriminator 2
 822 0270 93072000 		li	a5,2
 823 0274 E3F097FC 		bleu	s1,a5,.L49
  88:src/../test/Threads_CPP_API_test.hpp ****     }
  89:src/../test/Threads_CPP_API_test.hpp **** 
  90:src/../test/Threads_CPP_API_test.hpp ****     printString("C: dispatch\n");
 824              		.loc 1 90 5
 825              		.loc 1 90 16 is_stmt 0
 826 0278 17050000 		lla	a0,.LC6
 826      13050500 
 827 0280 97000000 		call	_Z11printStringPKc@plt
 827      E7800000 
 828              	.LVL78:
  91:src/../test/Threads_CPP_API_test.hpp ****     __asm__ ("li t1, 7");
 829              		.loc 1 91 5 is_stmt 1
 830              		.loc 1 91 25 is_stmt 0
 831              	#APP
 832              	# 91 "src/../test/Threads_CPP_API_test.hpp" 1
  92              	    thread_dispatch();
 833              		li t1, 7
 834              	# 0 "" 2
 835              		.loc 1 92 5 is_stmt 1
 836              		.loc 1 92 20 is_stmt 0
 837              	#NO_APP
 838 028c 97000000 		call	_Z15thread_dispatchv@plt
 838      E7800000 
 839              	.LVL79:
GAS LISTING /tmp/ccpiwlbU.s 			page 19


  93:src/../test/Threads_CPP_API_test.hpp **** 
  94:src/../test/Threads_CPP_API_test.hpp ****     uint64 t1 = 0;
 840              		.loc 1 94 5 is_stmt 1
  95:src/../test/Threads_CPP_API_test.hpp ****     __asm__ ("mv %[t1], t1" : [t1] "=r"(t1));
 841              		.loc 1 95 5
 842              		.loc 1 95 45 is_stmt 0
 843              	#APP
 844              	# 95 "src/../test/Threads_CPP_API_test.hpp" 1
  96              	
 845              		mv s2, t1
 846              	# 0 "" 2
 847              	.LVL80:
  97:src/../test/Threads_CPP_API_test.hpp ****     printString("C: t1="); printInt(t1); printString("\n");
 848              		.loc 1 97 5 is_stmt 1
 849              		.loc 1 97 16 is_stmt 0
 850              	#NO_APP
 851 0298 17050000 		lla	a0,.LC7
 851      13050500 
 852 02a0 97000000 		call	_Z11printStringPKc@plt
 852      E7800000 
 853              	.LVL81:
 854              		.loc 1 97 28 is_stmt 1
 855              		.loc 1 97 36 is_stmt 0
 856 02a8 13060000 		li	a2,0
 857 02ac 9305A000 		li	a1,10
 858 02b0 1B050900 		sext.w	a0,s2
 859 02b4 97000000 		call	_Z8printIntiii@plt
 859      E7800000 
 860              	.LVL82:
 861              		.loc 1 97 42 is_stmt 1
 862              		.loc 1 97 53 is_stmt 0
 863 02bc 17050000 		lla	a0,.LC1
 863      13050500 
 864 02c4 97000000 		call	_Z11printStringPKc@plt
 864      E7800000 
 865              	.LVL83:
  98:src/../test/Threads_CPP_API_test.hpp **** 
  99:src/../test/Threads_CPP_API_test.hpp ****     uint64 result = fibonacci(12);
 866              		.loc 1 99 5 is_stmt 1
 867              		.loc 1 99 30 is_stmt 0
 868 02cc 1305C000 		li	a0,12
 869 02d0 97000000 		call	_Z9fibonaccim
 869      E7800000 
 870              	.LVL84:
 871 02d8 13090500 		mv	s2,a0
 872              	.LVL85:
 100:src/../test/Threads_CPP_API_test.hpp ****     printString("C: fibonaci="); printInt(result); printString("\n");
 873              		.loc 1 100 5 is_stmt 1
 874              		.loc 1 100 16 is_stmt 0
 875 02dc 17050000 		lla	a0,.LC8
 875      13050500 
 876              	.LVL86:
 877 02e4 97000000 		call	_Z11printStringPKc@plt
 877      E7800000 
 878              	.LVL87:
 879              		.loc 1 100 34 is_stmt 1
 880              		.loc 1 100 42 is_stmt 0
GAS LISTING /tmp/ccpiwlbU.s 			page 20


 881 02ec 13060000 		li	a2,0
 882 02f0 9305A000 		li	a1,10
 883 02f4 1B050900 		sext.w	a0,s2
 884 02f8 97000000 		call	_Z8printIntiii@plt
 884      E7800000 
 885              	.LVL88:
 886              		.loc 1 100 52 is_stmt 1
 887              		.loc 1 100 63 is_stmt 0
 888 0300 17050000 		lla	a0,.LC1
 888      13050500 
 889 0308 97000000 		call	_Z11printStringPKc@plt
 889      E7800000 
 890              	.LVL89:
 891 0310 6F000004 		j	.L47
 892              	.L50:
 101:src/../test/Threads_CPP_API_test.hpp **** 
 102:src/../test/Threads_CPP_API_test.hpp ****     for (; i < 6; i++) {
 103:src/../test/Threads_CPP_API_test.hpp ****         printString("C: i="); printInt(i); printString("\n");
 893              		.loc 1 103 9 is_stmt 1 discriminator 1
 894              		.loc 1 103 20 is_stmt 0 discriminator 1
 895 0314 17050000 		lla	a0,.LC5
 895      13050500 
 896 031c 97000000 		call	_Z11printStringPKc@plt
 896      E7800000 
 897              	.LVL90:
 898              		.loc 1 103 31 is_stmt 1 discriminator 1
 899              		.loc 1 103 39 is_stmt 0 discriminator 1
 900 0324 13060000 		li	a2,0
 901 0328 9305A000 		li	a1,10
 902 032c 13850400 		mv	a0,s1
 903 0330 97000000 		call	_Z8printIntiii@plt
 903      E7800000 
 904              	.LVL91:
 905              		.loc 1 103 44 is_stmt 1 discriminator 1
 906              		.loc 1 103 55 is_stmt 0 discriminator 1
 907 0338 17050000 		lla	a0,.LC1
 907      13050500 
 908 0340 97000000 		call	_Z11printStringPKc@plt
 908      E7800000 
 909              	.LVL92:
 102:src/../test/Threads_CPP_API_test.hpp ****         printString("C: i="); printInt(i); printString("\n");
 910              		.loc 1 102 5 is_stmt 1 discriminator 1
 911 0348 9B841400 		addiw	s1,s1,1
 912              	.LVL93:
 913 034c 93F4F40F 		andi	s1,s1,0xff
 914              	.LVL94:
 915              	.L47:
 102:src/../test/Threads_CPP_API_test.hpp ****         printString("C: i="); printInt(i); printString("\n");
 916              		.loc 1 102 5 discriminator 2
 102:src/../test/Threads_CPP_API_test.hpp ****         printString("C: i="); printInt(i); printString("\n");
 917              		.loc 1 102 14 discriminator 2
 918 0350 93075000 		li	a5,5
 919 0354 E3F097FC 		bleu	s1,a5,.L50
 104:src/../test/Threads_CPP_API_test.hpp ****     }
 105:src/../test/Threads_CPP_API_test.hpp **** 
 106:src/../test/Threads_CPP_API_test.hpp ****     printString("A finished!\n");
 920              		.loc 1 106 5
GAS LISTING /tmp/ccpiwlbU.s 			page 21


 921              		.loc 1 106 16 is_stmt 0
 922 0358 17050000 		lla	a0,.LC2
 922      13050500 
 923 0360 97000000 		call	_Z11printStringPKc@plt
 923      E7800000 
 924              	.LVL95:
 107:src/../test/Threads_CPP_API_test.hpp ****     finishedC = true;
 925              		.loc 1 107 5 is_stmt 1
 926              		.loc 1 107 15 is_stmt 0
 927 0368 93071000 		li	a5,1
 928 036c 17070000 		sb	a5,.LANCHOR0+2,a4
 928      2300F700 
 108:src/../test/Threads_CPP_API_test.hpp ****     thread_dispatch();
 929              		.loc 1 108 5 is_stmt 1
 930              		.loc 1 108 20 is_stmt 0
 931 0374 97000000 		call	_Z15thread_dispatchv@plt
 931      E7800000 
 932              	.LVL96:
 109:src/../test/Threads_CPP_API_test.hpp **** }
 933              		.loc 1 109 1
 934 037c 83308101 		ld	ra,24(sp)
 935              		.cfi_restore 1
 936 0380 03340101 		ld	s0,16(sp)
 937              		.cfi_restore 8
 938              		.cfi_def_cfa 2, 32
 939 0384 83348100 		ld	s1,8(sp)
 940              		.cfi_restore 9
 941              	.LVL97:
 942 0388 03390100 		ld	s2,0(sp)
 943              		.cfi_restore 18
 944              	.LVL98:
 945 038c 13010102 		addi	sp,sp,32
 946              		.cfi_def_cfa_offset 0
 947 0390 67800000 		jr	ra
 948              		.cfi_endproc
 949              	.LFE55:
 951              		.section	.text._ZN7WorkerC3runEv,"axG",@progbits,_ZN7WorkerC3runEv,comdat
 952              		.align	2
 953              		.weak	_ZN7WorkerC3runEv
 955              	_ZN7WorkerC3runEv:
 956              	.LFB48:
  44:src/../test/Threads_CPP_API_test.hpp ****         workerBodyC(nullptr);
 957              		.loc 1 44 10 is_stmt 1
 958              		.cfi_startproc
 959              	.LVL99:
 960 0000 130101FF 		addi	sp,sp,-16
 961              		.cfi_def_cfa_offset 16
 962 0004 23341100 		sd	ra,8(sp)
 963 0008 23308100 		sd	s0,0(sp)
 964              		.cfi_offset 1, -8
 965              		.cfi_offset 8, -16
 966 000c 13040101 		addi	s0,sp,16
 967              		.cfi_def_cfa 8, 0
  45:src/../test/Threads_CPP_API_test.hpp ****     }
 968              		.loc 1 45 9
  45:src/../test/Threads_CPP_API_test.hpp ****     }
 969              		.loc 1 45 20 is_stmt 0
GAS LISTING /tmp/ccpiwlbU.s 			page 22


 970 0010 93050000 		li	a1,0
 971 0014 97000000 		call	_ZN7WorkerC11workerBodyCEPv
 971      E7800000 
 972              	.LVL100:
  46:src/../test/Threads_CPP_API_test.hpp **** };
 973              		.loc 1 46 5
 974 001c 83308100 		ld	ra,8(sp)
 975              		.cfi_restore 1
 976 0020 03340100 		ld	s0,0(sp)
 977              		.cfi_restore 8
 978              		.cfi_def_cfa 2, 16
 979 0024 13010101 		addi	sp,sp,16
 980              		.cfi_def_cfa_offset 0
 981 0028 67800000 		jr	ra
 982              		.cfi_endproc
 983              	.LFE48:
 985              		.section	.rodata.str1.8
 986 0065 000000   		.align	3
 987              	.LC9:
 988 0068 443A2069 		.string	"D: i="
 988      3D00
 989 006e 0000     		.align	3
 990              	.LC10:
 991 0070 443A2064 		.string	"D: dispatch\n"
 991      69737061 
 991      7463680A 
 991      00
 992 007d 000000   		.align	3
 993              	.LC11:
 994 0080 443A2066 		.string	"D: fibonaci="
 994      69626F6E 
 994      6163693D 
 994      00
 995 008d 000000   		.align	3
 996              	.LC12:
 997 0090 44206669 		.string	"D finished!\n"
 997      6E697368 
 997      6564210A 
 997      00
 998              		.text
 999              		.align	2
 1000              		.globl	_ZN7WorkerD11workerBodyDEPv
 1002              	_ZN7WorkerD11workerBodyDEPv:
 1003              	.LFB56:
 110:src/../test/Threads_CPP_API_test.hpp **** 
 111:src/../test/Threads_CPP_API_test.hpp **** void WorkerD::workerBodyD(void* arg) {
 1004              		.loc 1 111 38 is_stmt 1
 1005              		.cfi_startproc
 1006              	.LVL101:
 1007 0394 130101FE 		addi	sp,sp,-32
 1008              		.cfi_def_cfa_offset 32
 1009 0398 233C1100 		sd	ra,24(sp)
 1010 039c 23388100 		sd	s0,16(sp)
 1011 03a0 23349100 		sd	s1,8(sp)
 1012 03a4 23302101 		sd	s2,0(sp)
 1013              		.cfi_offset 1, -8
 1014              		.cfi_offset 8, -16
GAS LISTING /tmp/ccpiwlbU.s 			page 23


 1015              		.cfi_offset 9, -24
 1016              		.cfi_offset 18, -32
 1017 03a8 13040102 		addi	s0,sp,32
 1018              		.cfi_def_cfa 8, 0
 112:src/../test/Threads_CPP_API_test.hpp ****     uint8 i = 10;
 1019              		.loc 1 112 5
 1020              	.LVL102:
 1021              		.loc 1 112 11 is_stmt 0
 1022 03ac 9304A000 		li	s1,10
 1023 03b0 6F000004 		j	.L55
 1024              	.LVL103:
 1025              	.L59:
 113:src/../test/Threads_CPP_API_test.hpp ****     for (; i < 13; i++) {
 114:src/../test/Threads_CPP_API_test.hpp ****         printString("D: i="); printInt(i); printString("\n");
 1026              		.loc 1 114 9 is_stmt 1 discriminator 1
 1027              		.loc 1 114 20 is_stmt 0 discriminator 1
 1028 03b4 17050000 		lla	a0,.LC9
 1028      13050500 
 1029 03bc 97000000 		call	_Z11printStringPKc@plt
 1029      E7800000 
 1030              	.LVL104:
 1031              		.loc 1 114 31 is_stmt 1 discriminator 1
 1032              		.loc 1 114 39 is_stmt 0 discriminator 1
 1033 03c4 13060000 		li	a2,0
 1034 03c8 9305A000 		li	a1,10
 1035 03cc 13850400 		mv	a0,s1
 1036 03d0 97000000 		call	_Z8printIntiii@plt
 1036      E7800000 
 1037              	.LVL105:
 1038              		.loc 1 114 44 is_stmt 1 discriminator 1
 1039              		.loc 1 114 55 is_stmt 0 discriminator 1
 1040 03d8 17050000 		lla	a0,.LC1
 1040      13050500 
 1041 03e0 97000000 		call	_Z11printStringPKc@plt
 1041      E7800000 
 1042              	.LVL106:
 113:src/../test/Threads_CPP_API_test.hpp ****     for (; i < 13; i++) {
 1043              		.loc 1 113 5 is_stmt 1 discriminator 1
 1044 03e8 9B841400 		addiw	s1,s1,1
 1045              	.LVL107:
 1046 03ec 93F4F40F 		andi	s1,s1,0xff
 1047              	.LVL108:
 1048              	.L55:
 113:src/../test/Threads_CPP_API_test.hpp ****     for (; i < 13; i++) {
 1049              		.loc 1 113 5 discriminator 2
 113:src/../test/Threads_CPP_API_test.hpp ****     for (; i < 13; i++) {
 1050              		.loc 1 113 14 discriminator 2
 1051 03f0 9307C000 		li	a5,12
 1052 03f4 E3F097FC 		bleu	s1,a5,.L59
 115:src/../test/Threads_CPP_API_test.hpp ****     }
 116:src/../test/Threads_CPP_API_test.hpp **** 
 117:src/../test/Threads_CPP_API_test.hpp ****     printString("D: dispatch\n");
 1053              		.loc 1 117 5
 1054              		.loc 1 117 16 is_stmt 0
 1055 03f8 17050000 		lla	a0,.LC10
 1055      13050500 
 1056 0400 97000000 		call	_Z11printStringPKc@plt
GAS LISTING /tmp/ccpiwlbU.s 			page 24


 1056      E7800000 
 1057              	.LVL109:
 118:src/../test/Threads_CPP_API_test.hpp ****     __asm__ ("li t1, 5");
 1058              		.loc 1 118 5 is_stmt 1
 1059              		.loc 1 118 25 is_stmt 0
 1060              	#APP
 1061              	# 118 "src/../test/Threads_CPP_API_test.hpp" 1
 119              	    thread_dispatch();
 1062              		li t1, 5
 1063              	# 0 "" 2
 1064              		.loc 1 119 5 is_stmt 1
 1065              		.loc 1 119 20 is_stmt 0
 1066              	#NO_APP
 1067 040c 97000000 		call	_Z15thread_dispatchv@plt
 1067      E7800000 
 1068              	.LVL110:
 120:src/../test/Threads_CPP_API_test.hpp **** 
 121:src/../test/Threads_CPP_API_test.hpp ****     uint64 result = fibonacci(16);
 1069              		.loc 1 121 5 is_stmt 1
 1070              		.loc 1 121 30 is_stmt 0
 1071 0414 13050001 		li	a0,16
 1072 0418 97000000 		call	_Z9fibonaccim
 1072      E7800000 
 1073              	.LVL111:
 1074 0420 13090500 		mv	s2,a0
 1075              	.LVL112:
 122:src/../test/Threads_CPP_API_test.hpp ****     printString("D: fibonaci="); printInt(result); printString("\n");
 1076              		.loc 1 122 5 is_stmt 1
 1077              		.loc 1 122 16 is_stmt 0
 1078 0424 17050000 		lla	a0,.LC11
 1078      13050500 
 1079              	.LVL113:
 1080 042c 97000000 		call	_Z11printStringPKc@plt
 1080      E7800000 
 1081              	.LVL114:
 1082              		.loc 1 122 34 is_stmt 1
 1083              		.loc 1 122 42 is_stmt 0
 1084 0434 13060000 		li	a2,0
 1085 0438 9305A000 		li	a1,10
 1086 043c 1B050900 		sext.w	a0,s2
 1087 0440 97000000 		call	_Z8printIntiii@plt
 1087      E7800000 
 1088              	.LVL115:
 1089              		.loc 1 122 52 is_stmt 1
 1090              		.loc 1 122 63 is_stmt 0
 1091 0448 17050000 		lla	a0,.LC1
 1091      13050500 
 1092 0450 97000000 		call	_Z11printStringPKc@plt
 1092      E7800000 
 1093              	.LVL116:
 1094 0458 6F000004 		j	.L57
 1095              	.L60:
 123:src/../test/Threads_CPP_API_test.hpp **** 
 124:src/../test/Threads_CPP_API_test.hpp ****     for (; i < 16; i++) {
 125:src/../test/Threads_CPP_API_test.hpp ****         printString("D: i="); printInt(i); printString("\n");
 1096              		.loc 1 125 9 is_stmt 1 discriminator 1
 1097              		.loc 1 125 20 is_stmt 0 discriminator 1
GAS LISTING /tmp/ccpiwlbU.s 			page 25


 1098 045c 17050000 		lla	a0,.LC9
 1098      13050500 
 1099 0464 97000000 		call	_Z11printStringPKc@plt
 1099      E7800000 
 1100              	.LVL117:
 1101              		.loc 1 125 31 is_stmt 1 discriminator 1
 1102              		.loc 1 125 39 is_stmt 0 discriminator 1
 1103 046c 13060000 		li	a2,0
 1104 0470 9305A000 		li	a1,10
 1105 0474 13850400 		mv	a0,s1
 1106 0478 97000000 		call	_Z8printIntiii@plt
 1106      E7800000 
 1107              	.LVL118:
 1108              		.loc 1 125 44 is_stmt 1 discriminator 1
 1109              		.loc 1 125 55 is_stmt 0 discriminator 1
 1110 0480 17050000 		lla	a0,.LC1
 1110      13050500 
 1111 0488 97000000 		call	_Z11printStringPKc@plt
 1111      E7800000 
 1112              	.LVL119:
 124:src/../test/Threads_CPP_API_test.hpp ****         printString("D: i="); printInt(i); printString("\n");
 1113              		.loc 1 124 5 is_stmt 1 discriminator 1
 1114 0490 9B841400 		addiw	s1,s1,1
 1115              	.LVL120:
 1116 0494 93F4F40F 		andi	s1,s1,0xff
 1117              	.LVL121:
 1118              	.L57:
 124:src/../test/Threads_CPP_API_test.hpp ****         printString("D: i="); printInt(i); printString("\n");
 1119              		.loc 1 124 5 discriminator 2
 124:src/../test/Threads_CPP_API_test.hpp ****         printString("D: i="); printInt(i); printString("\n");
 1120              		.loc 1 124 14 discriminator 2
 1121 0498 9307F000 		li	a5,15
 1122 049c E3F097FC 		bleu	s1,a5,.L60
 126:src/../test/Threads_CPP_API_test.hpp ****     }
 127:src/../test/Threads_CPP_API_test.hpp **** 
 128:src/../test/Threads_CPP_API_test.hpp ****     printString("D finished!\n");
 1123              		.loc 1 128 5
 1124              		.loc 1 128 16 is_stmt 0
 1125 04a0 17050000 		lla	a0,.LC12
 1125      13050500 
 1126 04a8 97000000 		call	_Z11printStringPKc@plt
 1126      E7800000 
 1127              	.LVL122:
 129:src/../test/Threads_CPP_API_test.hpp ****     finishedD = true;
 1128              		.loc 1 129 5 is_stmt 1
 1129              		.loc 1 129 15 is_stmt 0
 1130 04b0 93071000 		li	a5,1
 1131 04b4 17070000 		sb	a5,.LANCHOR0+3,a4
 1131      2300F700 
 130:src/../test/Threads_CPP_API_test.hpp ****     thread_dispatch();
 1132              		.loc 1 130 5 is_stmt 1
 1133              		.loc 1 130 20 is_stmt 0
 1134 04bc 97000000 		call	_Z15thread_dispatchv@plt
 1134      E7800000 
 1135              	.LVL123:
 131:src/../test/Threads_CPP_API_test.hpp **** }
 1136              		.loc 1 131 1
GAS LISTING /tmp/ccpiwlbU.s 			page 26


 1137 04c4 83308101 		ld	ra,24(sp)
 1138              		.cfi_restore 1
 1139 04c8 03340101 		ld	s0,16(sp)
 1140              		.cfi_restore 8
 1141              		.cfi_def_cfa 2, 32
 1142 04cc 83348100 		ld	s1,8(sp)
 1143              		.cfi_restore 9
 1144              	.LVL124:
 1145 04d0 03390100 		ld	s2,0(sp)
 1146              		.cfi_restore 18
 1147              	.LVL125:
 1148 04d4 13010102 		addi	sp,sp,32
 1149              		.cfi_def_cfa_offset 0
 1150 04d8 67800000 		jr	ra
 1151              		.cfi_endproc
 1152              	.LFE56:
 1154              		.section	.text._ZN7WorkerD3runEv,"axG",@progbits,_ZN7WorkerD3runEv,comdat
 1155              		.align	2
 1156              		.weak	_ZN7WorkerD3runEv
 1158              	_ZN7WorkerD3runEv:
 1159              	.LFB52:
  54:src/../test/Threads_CPP_API_test.hpp ****         workerBodyD(nullptr);
 1160              		.loc 1 54 10 is_stmt 1
 1161              		.cfi_startproc
 1162              	.LVL126:
 1163 0000 130101FF 		addi	sp,sp,-16
 1164              		.cfi_def_cfa_offset 16
 1165 0004 23341100 		sd	ra,8(sp)
 1166 0008 23308100 		sd	s0,0(sp)
 1167              		.cfi_offset 1, -8
 1168              		.cfi_offset 8, -16
 1169 000c 13040101 		addi	s0,sp,16
 1170              		.cfi_def_cfa 8, 0
  55:src/../test/Threads_CPP_API_test.hpp ****     }
 1171              		.loc 1 55 9
  55:src/../test/Threads_CPP_API_test.hpp ****     }
 1172              		.loc 1 55 20 is_stmt 0
 1173 0010 93050000 		li	a1,0
 1174 0014 97000000 		call	_ZN7WorkerD11workerBodyDEPv
 1174      E7800000 
 1175              	.LVL127:
  56:src/../test/Threads_CPP_API_test.hpp **** };
 1176              		.loc 1 56 5
 1177 001c 83308100 		ld	ra,8(sp)
 1178              		.cfi_restore 1
 1179 0020 03340100 		ld	s0,0(sp)
 1180              		.cfi_restore 8
 1181              		.cfi_def_cfa 2, 16
 1182 0024 13010101 		addi	sp,sp,16
 1183              		.cfi_def_cfa_offset 0
 1184 0028 67800000 		jr	ra
 1185              		.cfi_endproc
 1186              	.LFE52:
 1188              		.section	.rodata.str1.8
 1189 009d 000000   		.align	3
 1190              	.LC13:
 1191 00a0 70726520 		.string	"pre wrappera"
GAS LISTING /tmp/ccpiwlbU.s 			page 27


 1191      77726170 
 1191      70657261 
 1191      00
 1192 00ad 000000   		.align	3
 1193              	.LC14:
 1194 00b0 54687265 		.string	"ThreadA created\n"
 1194      61644120 
 1194      63726561 
 1194      7465640A 
 1194      00
 1195 00c1 00000000 		.align	3
 1195      000000
 1196              	.LC15:
 1197 00c8 54687265 		.string	"ThreadB created\n"
 1197      61644220 
 1197      63726561 
 1197      7465640A 
 1197      00
 1198 00d9 00000000 		.align	3
 1198      000000
 1199              	.LC16:
 1200 00e0 54687265 		.string	"ThreadC created\n"
 1200      61644320 
 1200      63726561 
 1200      7465640A 
 1200      00
 1201 00f1 00000000 		.align	3
 1201      000000
 1202              	.LC17:
 1203 00f8 54687265 		.string	"ThreadD created\n"
 1203      61644420 
 1203      63726561 
 1203      7465640A 
 1203      00
 1204 0109 00000000 		.align	3
 1204      000000
 1205              	.LC18:
 1206 0110 646F646A 		.string	"dodje do starta\n"
 1206      6520646F 
 1206      20737461 
 1206      7274610A 
 1206      00
 1207 0121 00000000 		.align	3
 1207      000000
 1208              	.LC19:
 1209 0128 73746172 		.string	"startovao\n"
 1209      746F7661 
 1209      6F0A00
 1210              		.text
 1211              		.align	2
 1212              		.globl	_Z20Threads_CPP_API_testv
 1214              	_Z20Threads_CPP_API_testv:
 1215              	.LFB57:
 132:src/../test/Threads_CPP_API_test.hpp **** 
 133:src/../test/Threads_CPP_API_test.hpp **** 
 134:src/../test/Threads_CPP_API_test.hpp **** void Threads_CPP_API_test() {
 1216              		.loc 1 134 29 is_stmt 1
GAS LISTING /tmp/ccpiwlbU.s 			page 28


 1217              		.cfi_startproc
 1218              		.cfi_personality 0x9b,DW.ref.__gxx_personality_v0
 1219              		.cfi_lsda 0x1b,.LLSDA57
 1220 04dc 130101FC 		addi	sp,sp,-64
 1221              		.cfi_def_cfa_offset 64
 1222 04e0 233C1102 		sd	ra,56(sp)
 1223 04e4 23388102 		sd	s0,48(sp)
 1224 04e8 23349102 		sd	s1,40(sp)
 1225 04ec 23302103 		sd	s2,32(sp)
 1226              		.cfi_offset 1, -8
 1227              		.cfi_offset 8, -16
 1228              		.cfi_offset 9, -24
 1229              		.cfi_offset 18, -32
 1230 04f0 13040104 		addi	s0,sp,64
 1231              		.cfi_def_cfa 8, 0
 135:src/../test/Threads_CPP_API_test.hpp ****     Thread* threads[4];
 1232              		.loc 1 135 5
 136:src/../test/Threads_CPP_API_test.hpp **** 
 137:src/../test/Threads_CPP_API_test.hpp ****     threads[0] = new WorkerA();
 1233              		.loc 1 137 5
 1234              		.loc 1 137 30 is_stmt 0
 1235 04f4 13050001 		li	a0,16
 1236              	.LEHB0:
 1237 04f8 97000000 		call	_Znwm@plt
 1237      E7800000 
 1238              	.LVL128:
 1239              	.LEHE0:
 1240 0500 93040500 		mv	s1,a0
 1241              	.LVL129:
 1242              	.LBB82:
 1243              	.LBB83:
 1244              	.LBB84:
 1245              	.LBB85:
 1246              	.LBB86:
 1247              		.file 2 "src/../test/../h/syscall_cpp.hpp"
   1:src/../test/../h/syscall_cpp.hpp **** //
   2:src/../test/../h/syscall_cpp.hpp **** // Created by os on 9/11/22.
   3:src/../test/../h/syscall_cpp.hpp **** //
   4:src/../test/../h/syscall_cpp.hpp **** 
   5:src/../test/../h/syscall_cpp.hpp **** #ifndef _syscall_cpp
   6:src/../test/../h/syscall_cpp.hpp **** #define _syscall_cpp
   7:src/../test/../h/syscall_cpp.hpp **** #include "syscall_c.hpp"
   8:src/../test/../h/syscall_cpp.hpp **** #include "../h/printing.hpp"
   9:src/../test/../h/syscall_cpp.hpp **** //void* ::operator new (size_t);
  10:src/../test/../h/syscall_cpp.hpp **** //void ::operator delete (void*);
  11:src/../test/../h/syscall_cpp.hpp **** class Thread {
  12:src/../test/../h/syscall_cpp.hpp **** public:
  13:src/../test/../h/syscall_cpp.hpp ****     Thread (void (*body)(void*), void* arg);
  14:src/../test/../h/syscall_cpp.hpp ****     virtual ~Thread ();
  15:src/../test/../h/syscall_cpp.hpp ****     int start ();
  16:src/../test/../h/syscall_cpp.hpp ****     static void dispatch ();
  17:src/../test/../h/syscall_cpp.hpp ****     static void threadWrapper(void* arg);
  18:src/../test/../h/syscall_cpp.hpp **** protected:
  19:src/../test/../h/syscall_cpp.hpp ****     Thread (){
 1248              		.loc 2 19 14
 1249 0504 97070000 		la	a5,_ZTV6Thread
 1249      83B70700 
GAS LISTING /tmp/ccpiwlbU.s 			page 29


 1250 050c 93870701 		addi	a5,a5,16
 1251 0510 2330F500 		sd	a5,0(a0)
  20:src/../test/../h/syscall_cpp.hpp ****         //tu izleda da treba da dodas gornji konstruktor
  21:src/../test/../h/syscall_cpp.hpp ****         printString("pre wrappera");
 1252              		.loc 2 21 9 is_stmt 1
 1253              		.loc 2 21 20 is_stmt 0
 1254 0514 17050000 		lla	a0,.LC13
 1254      13050500 
 1255              	.LEHB1:
 1256 051c 97000000 		call	_Z11printStringPKc@plt
 1256      E7800000 
 1257              	.LVL130:
  22:src/../test/../h/syscall_cpp.hpp ****         //threadWrapper(this); //todo uopste mi ne napravi handle
  23:src/../test/../h/syscall_cpp.hpp ****         //printString("posle wrappera");
  24:src/../test/../h/syscall_cpp.hpp ****         //Thread(threadWrapper(this), this); //todo mozda treba & ispred threadWrapper
  25:src/../test/../h/syscall_cpp.hpp ****         //thread_create_cpp_api(&myHandle, threadWrapper, this);
  26:src/../test/../h/syscall_cpp.hpp ****         thread_create(&myHandle,nullptr, this); //OVO RADI, ZNACI ILI NE RADI START ILI NESTO SJEBE
 1258              		.loc 2 26 9 is_stmt 1
 1259              		.loc 2 26 22 is_stmt 0
 1260 0524 13860400 		mv	a2,s1
 1261 0528 93050000 		li	a1,0
 1262 052c 13858400 		addi	a0,s1,8
 1263 0530 97000000 		call	_Z13thread_createPP3TCBPFvPvES2_@plt
 1263      E7800000 
 1264              	.LVL131:
 1265              	.LEHE1:
 1266              	.LBE86:
 1267              	.LBE85:
 1268              	.LBE84:
  22:src/../test/Threads_CPP_API_test.hpp **** 
 1269              		.loc 1 22 22
 1270 0538 97070000 		lla	a5,_ZTV7WorkerA+16
 1270      93870700 
 1271 0540 23B0F400 		sd	a5,0(s1)
 1272              	.LVL132:
 1273              	.LBE83:
 1274              	.LBE82:
 1275              		.loc 1 137 16
 1276 0544 233094FC 		sd	s1,-64(s0)
 138:src/../test/Threads_CPP_API_test.hpp ****     printString("ThreadA created\n");
 1277              		.loc 1 138 5 is_stmt 1
 1278              		.loc 1 138 16 is_stmt 0
 1279 0548 17050000 		lla	a0,.LC14
 1279      13050500 
 1280              	.LEHB2:
 1281 0550 97000000 		call	_Z11printStringPKc@plt
 1281      E7800000 
 1282              	.LVL133:
 139:src/../test/Threads_CPP_API_test.hpp **** 
 140:src/../test/Threads_CPP_API_test.hpp ****     threads[1] = new WorkerB();
 1283              		.loc 1 140 5 is_stmt 1
 1284              		.loc 1 140 30 is_stmt 0
 1285 0558 13050001 		li	a0,16
 1286 055c 97000000 		call	_Znwm@plt
 1286      E7800000 
 1287              	.LVL134:
 1288              	.LEHE2:
GAS LISTING /tmp/ccpiwlbU.s 			page 30


 1289 0564 93040500 		mv	s1,a0
 1290              	.LVL135:
 1291              	.LBB87:
 1292              	.LBB88:
 1293              	.LBB89:
 1294              	.LBB90:
 1295              	.LBB91:
  19:src/../test/../h/syscall_cpp.hpp ****         //tu izleda da treba da dodas gornji konstruktor
 1296              		.loc 2 19 14
 1297 0568 97070000 		la	a5,_ZTV6Thread
 1297      83B70700 
 1298 0570 93870701 		addi	a5,a5,16
 1299 0574 2330F500 		sd	a5,0(a0)
  21:src/../test/../h/syscall_cpp.hpp ****         //threadWrapper(this); //todo uopste mi ne napravi handle
 1300              		.loc 2 21 9 is_stmt 1
  21:src/../test/../h/syscall_cpp.hpp ****         //threadWrapper(this); //todo uopste mi ne napravi handle
 1301              		.loc 2 21 20 is_stmt 0
 1302 0578 17050000 		lla	a0,.LC13
 1302      13050500 
 1303              	.LEHB3:
 1304 0580 97000000 		call	_Z11printStringPKc@plt
 1304      E7800000 
 1305              	.LVL136:
 1306              		.loc 2 26 9 is_stmt 1
 1307              		.loc 2 26 22 is_stmt 0
 1308 0588 13860400 		mv	a2,s1
 1309 058c 93050000 		li	a1,0
 1310 0590 13858400 		addi	a0,s1,8
 1311 0594 97000000 		call	_Z13thread_createPP3TCBPFvPvES2_@plt
 1311      E7800000 
 1312              	.LVL137:
 1313              	.LEHE3:
 1314              	.LBE91:
 1315              	.LBE90:
 1316              	.LBE89:
  32:src/../test/Threads_CPP_API_test.hpp **** 
 1317              		.loc 1 32 22
 1318 059c 97070000 		lla	a5,_ZTV7WorkerB+16
 1318      93870700 
 1319 05a4 23B0F400 		sd	a5,0(s1)
 1320              	.LVL138:
 1321              	.LBE88:
 1322              	.LBE87:
 1323              		.loc 1 140 16
 1324 05a8 233494FC 		sd	s1,-56(s0)
 141:src/../test/Threads_CPP_API_test.hpp ****     printString("ThreadB created\n");
 1325              		.loc 1 141 5 is_stmt 1
 1326              		.loc 1 141 16 is_stmt 0
 1327 05ac 17050000 		lla	a0,.LC15
 1327      13050500 
 1328              	.LEHB4:
 1329 05b4 97000000 		call	_Z11printStringPKc@plt
 1329      E7800000 
 1330              	.LVL139:
 142:src/../test/Threads_CPP_API_test.hpp **** 
 143:src/../test/Threads_CPP_API_test.hpp ****     threads[2] = new WorkerC();
 1331              		.loc 1 143 5 is_stmt 1
GAS LISTING /tmp/ccpiwlbU.s 			page 31


 1332              		.loc 1 143 30 is_stmt 0
 1333 05bc 13050001 		li	a0,16
 1334 05c0 97000000 		call	_Znwm@plt
 1334      E7800000 
 1335              	.LVL140:
 1336              	.LEHE4:
 1337 05c8 93040500 		mv	s1,a0
 1338              	.LVL141:
 1339              	.LBB92:
 1340              	.LBB93:
 1341              	.LBB94:
 1342              	.LBB95:
 1343              	.LBB96:
  19:src/../test/../h/syscall_cpp.hpp ****         //tu izleda da treba da dodas gornji konstruktor
 1344              		.loc 2 19 14
 1345 05cc 97070000 		la	a5,_ZTV6Thread
 1345      83B70700 
 1346 05d4 93870701 		addi	a5,a5,16
 1347 05d8 2330F500 		sd	a5,0(a0)
  21:src/../test/../h/syscall_cpp.hpp ****         //threadWrapper(this); //todo uopste mi ne napravi handle
 1348              		.loc 2 21 9 is_stmt 1
  21:src/../test/../h/syscall_cpp.hpp ****         //threadWrapper(this); //todo uopste mi ne napravi handle
 1349              		.loc 2 21 20 is_stmt 0
 1350 05dc 17050000 		lla	a0,.LC13
 1350      13050500 
 1351              	.LEHB5:
 1352 05e4 97000000 		call	_Z11printStringPKc@plt
 1352      E7800000 
 1353              	.LVL142:
 1354              		.loc 2 26 9 is_stmt 1
 1355              		.loc 2 26 22 is_stmt 0
 1356 05ec 13860400 		mv	a2,s1
 1357 05f0 93050000 		li	a1,0
 1358 05f4 13858400 		addi	a0,s1,8
 1359 05f8 97000000 		call	_Z13thread_createPP3TCBPFvPvES2_@plt
 1359      E7800000 
 1360              	.LVL143:
 1361              	.LEHE5:
 1362              	.LBE96:
 1363              	.LBE95:
 1364              	.LBE94:
  42:src/../test/Threads_CPP_API_test.hpp **** 
 1365              		.loc 1 42 22
 1366 0600 97070000 		lla	a5,_ZTV7WorkerC+16
 1366      93870700 
 1367 0608 23B0F400 		sd	a5,0(s1)
 1368              	.LVL144:
 1369              	.LBE93:
 1370              	.LBE92:
 1371              		.loc 1 143 16
 1372 060c 233894FC 		sd	s1,-48(s0)
 144:src/../test/Threads_CPP_API_test.hpp ****     printString("ThreadC created\n");
 1373              		.loc 1 144 5 is_stmt 1
 1374              		.loc 1 144 16 is_stmt 0
 1375 0610 17050000 		lla	a0,.LC16
 1375      13050500 
 1376              	.LEHB6:
GAS LISTING /tmp/ccpiwlbU.s 			page 32


 1377 0618 97000000 		call	_Z11printStringPKc@plt
 1377      E7800000 
 1378              	.LVL145:
 145:src/../test/Threads_CPP_API_test.hpp **** 
 146:src/../test/Threads_CPP_API_test.hpp ****     threads[3] = new WorkerD();
 1379              		.loc 1 146 5 is_stmt 1
 1380              		.loc 1 146 30 is_stmt 0
 1381 0620 13050001 		li	a0,16
 1382 0624 97000000 		call	_Znwm@plt
 1382      E7800000 
 1383              	.LVL146:
 1384              	.LEHE6:
 1385 062c 93040500 		mv	s1,a0
 1386              	.LVL147:
 1387              	.LBB97:
 1388              	.LBB98:
 1389              	.LBB99:
 1390              	.LBB100:
 1391              	.LBB101:
  19:src/../test/../h/syscall_cpp.hpp ****         //tu izleda da treba da dodas gornji konstruktor
 1392              		.loc 2 19 14
 1393 0630 97070000 		la	a5,_ZTV6Thread
 1393      83B70700 
 1394 0638 93870701 		addi	a5,a5,16
 1395 063c 2330F500 		sd	a5,0(a0)
  21:src/../test/../h/syscall_cpp.hpp ****         //threadWrapper(this); //todo uopste mi ne napravi handle
 1396              		.loc 2 21 9 is_stmt 1
  21:src/../test/../h/syscall_cpp.hpp ****         //threadWrapper(this); //todo uopste mi ne napravi handle
 1397              		.loc 2 21 20 is_stmt 0
 1398 0640 17050000 		lla	a0,.LC13
 1398      13050500 
 1399              	.LEHB7:
 1400 0648 97000000 		call	_Z11printStringPKc@plt
 1400      E7800000 
 1401              	.LVL148:
 1402              		.loc 2 26 9 is_stmt 1
 1403              		.loc 2 26 22 is_stmt 0
 1404 0650 13860400 		mv	a2,s1
 1405 0654 93050000 		li	a1,0
 1406 0658 13858400 		addi	a0,s1,8
 1407 065c 97000000 		call	_Z13thread_createPP3TCBPFvPvES2_@plt
 1407      E7800000 
 1408              	.LVL149:
 1409              	.LEHE7:
 1410              	.LBE101:
 1411              	.LBE100:
 1412              	.LBE99:
  52:src/../test/Threads_CPP_API_test.hpp **** 
 1413              		.loc 1 52 22
 1414 0664 97070000 		lla	a5,_ZTV7WorkerD+16
 1414      93870700 
 1415 066c 23B0F400 		sd	a5,0(s1)
 1416              	.LVL150:
 1417              	.LBE98:
 1418              	.LBE97:
 1419              		.loc 1 146 16
 1420 0670 233C94FC 		sd	s1,-40(s0)
GAS LISTING /tmp/ccpiwlbU.s 			page 33


 147:src/../test/Threads_CPP_API_test.hpp ****     printString("ThreadD created\n");
 1421              		.loc 1 147 5 is_stmt 1
 1422              		.loc 1 147 16 is_stmt 0
 1423 0674 17050000 		lla	a0,.LC17
 1423      13050500 
 1424              	.LEHB8:
 1425 067c 97000000 		call	_Z11printStringPKc@plt
 1425      E7800000 
 1426              	.LVL151:
 1427              	.LBB102:
 148:src/../test/Threads_CPP_API_test.hpp **** 
 149:src/../test/Threads_CPP_API_test.hpp ****     for(int i=0; i<4; i++) {
 1428              		.loc 1 149 13
 1429 0684 93040000 		li	s1,0
 1430              	.L65:
 1431              	.LVL152:
 1432              		.loc 1 149 19 is_stmt 1 discriminator 1
 1433 0688 93073000 		li	a5,3
 1434 068c 63C69704 		bgt	s1,a5,.L64
 150:src/../test/Threads_CPP_API_test.hpp ****         printString("dodje do starta\n");
 1435              		.loc 1 150 9
 1436              		.loc 1 150 20 is_stmt 0
 1437 0690 17050000 		lla	a0,.LC18
 1437      13050500 
 1438 0698 97000000 		call	_Z11printStringPKc@plt
 1438      E7800000 
 1439              	.LVL153:
 151:src/../test/Threads_CPP_API_test.hpp ****         threads[i]->start();
 1440              		.loc 1 151 9 is_stmt 1
 1441              		.loc 1 151 18 is_stmt 0
 1442 06a0 93973400 		slli	a5,s1,3
 1443 06a4 130704FE 		addi	a4,s0,-32
 1444 06a8 B307F700 		add	a5,a4,a5
 1445              		.loc 1 151 26
 1446 06ac 03B507FE 		ld	a0,-32(a5)
 1447 06b0 97000000 		call	_ZN6Thread5startEv@plt
 1447      E7800000 
 1448              	.LVL154:
 152:src/../test/Threads_CPP_API_test.hpp ****         printString("startovao\n");
 1449              		.loc 1 152 9 is_stmt 1
 1450              		.loc 1 152 20 is_stmt 0
 1451 06b8 17050000 		lla	a0,.LC19
 1451      13050500 
 1452 06c0 97000000 		call	_Z11printStringPKc@plt
 1452      E7800000 
 1453              	.LVL155:
 149:src/../test/Threads_CPP_API_test.hpp ****         printString("dodje do starta\n");
 1454              		.loc 1 149 5 is_stmt 1
 1455 06c8 9B841400 		addiw	s1,s1,1
 1456              	.LVL156:
 1457 06cc 6FF0DFFB 		j	.L65
 1458              	.LVL157:
 1459              	.L66:
 1460              	.LBE102:
 153:src/../test/Threads_CPP_API_test.hpp ****     }
 154:src/../test/Threads_CPP_API_test.hpp **** 
 155:src/../test/Threads_CPP_API_test.hpp ****     while (!(finishedA && finishedB && finishedC && finishedD)) {
GAS LISTING /tmp/ccpiwlbU.s 			page 34


 156:src/../test/Threads_CPP_API_test.hpp ****         //printString("udje u dispatch\n");
 157:src/../test/Threads_CPP_API_test.hpp ****         Thread::dispatch();
 1461              		.loc 1 157 9
 1462              		.loc 1 157 25 is_stmt 0
 1463 06d0 97000000 		call	_ZN6Thread8dispatchEv@plt
 1463      E7800000 
 1464              	.LVL158:
 1465              	.L64:
 155:src/../test/Threads_CPP_API_test.hpp ****         //printString("udje u dispatch\n");
 1466              		.loc 1 155 5 is_stmt 1
 155:src/../test/Threads_CPP_API_test.hpp ****         //printString("udje u dispatch\n");
 1467              		.loc 1 155 12
 1468 06d8 97070000 		lbu	a5,.LANCHOR0
 1468      83C70700 
 1469 06e0 E38807FE 		beqz	a5,.L66
 155:src/../test/Threads_CPP_API_test.hpp ****         //printString("udje u dispatch\n");
 1470              		.loc 1 155 24 is_stmt 0 discriminator 1
 1471 06e4 97070000 		lbu	a5,.LANCHOR0+1
 1471      83C70700 
 1472 06ec E38207FE 		beqz	a5,.L66
 155:src/../test/Threads_CPP_API_test.hpp ****         //printString("udje u dispatch\n");
 1473              		.loc 1 155 37 discriminator 2
 1474 06f0 97070000 		lbu	a5,.LANCHOR0+2
 1474      83C70700 
 1475 06f8 E38C07FC 		beqz	a5,.L66
 155:src/../test/Threads_CPP_API_test.hpp ****         //printString("udje u dispatch\n");
 1476              		.loc 1 155 12 discriminator 3
 1477 06fc 97070000 		lbu	a5,.LANCHOR0+3
 1477      83C70700 
 1478 0704 E38607FC 		beqz	a5,.L66
 1479              	.LBB103:
 158:src/../test/Threads_CPP_API_test.hpp ****         //printString("uradi dispatch\n");
 159:src/../test/Threads_CPP_API_test.hpp ****     }
 160:src/../test/Threads_CPP_API_test.hpp **** 
 161:src/../test/Threads_CPP_API_test.hpp ****     for (auto thread: threads) { delete thread; }
 1480              		.loc 1 161 23
 1481 0708 930404FC 		addi	s1,s0,-64
 1482              	.LVL159:
 1483 070c 6F008000 		j	.L67
 1484              	.LVL160:
 1485              	.L69:
 1486              		.loc 1 161 5 is_stmt 1 discriminator 5
 1487 0710 93848400 		addi	s1,s1,8
 1488              	.LVL161:
 1489              	.L67:
 1490              		.loc 1 161 23 discriminator 6
 1491 0714 930704FE 		addi	a5,s0,-32
 1492 0718 6386F408 		beq	s1,a5,.L63
 1493              		.loc 1 161 15 is_stmt 0 discriminator 2
 1494 071c 03B50400 		ld	a0,0(s1)
 1495              	.LVL162:
 1496              		.loc 1 161 34 is_stmt 1 discriminator 2
 1497              		.loc 1 161 47 is_stmt 0 discriminator 2
 1498 0720 E30805FE 		beqz	a0,.L69
 1499              		.loc 1 161 41 discriminator 3
 1500 0724 83370500 		ld	a5,0(a0)
 1501 0728 83B78700 		ld	a5,8(a5)
GAS LISTING /tmp/ccpiwlbU.s 			page 35


 1502 072c E7800700 		jalr	a5
 1503              	.LVL163:
 1504 0730 6FF01FFE 		j	.L69
 1505              	.LVL164:
 1506              	.L75:
 1507 0734 13090500 		mv	s2,a0
 1508              	.LBE103:
 137:src/../test/Threads_CPP_API_test.hpp ****     printString("ThreadA created\n");
 1509              		.loc 1 137 30
 1510 0738 13850400 		mv	a0,s1
 1511 073c 97000000 		call	_ZdlPv@plt
 1511      E7800000 
 1512              	.LVL165:
 1513 0744 13050900 		mv	a0,s2
 1514 0748 97000000 		call	_Unwind_Resume@plt
 1514      E7800000 
 1515              	.LVL166:
 1516              	.L76:
 1517 0750 13090500 		mv	s2,a0
 140:src/../test/Threads_CPP_API_test.hpp ****     printString("ThreadB created\n");
 1518              		.loc 1 140 30
 1519 0754 13850400 		mv	a0,s1
 1520 0758 97000000 		call	_ZdlPv@plt
 1520      E7800000 
 1521              	.LVL167:
 1522 0760 13050900 		mv	a0,s2
 1523 0764 97000000 		call	_Unwind_Resume@plt
 1523      E7800000 
 1524              	.LVL168:
 1525              	.L77:
 1526 076c 13090500 		mv	s2,a0
 143:src/../test/Threads_CPP_API_test.hpp ****     printString("ThreadC created\n");
 1527              		.loc 1 143 30
 1528 0770 13850400 		mv	a0,s1
 1529 0774 97000000 		call	_ZdlPv@plt
 1529      E7800000 
 1530              	.LVL169:
 1531 077c 13050900 		mv	a0,s2
 1532 0780 97000000 		call	_Unwind_Resume@plt
 1532      E7800000 
 1533              	.LVL170:
 1534              	.L78:
 1535 0788 13090500 		mv	s2,a0
 146:src/../test/Threads_CPP_API_test.hpp ****     printString("ThreadD created\n");
 1536              		.loc 1 146 30
 1537 078c 13850400 		mv	a0,s1
 1538 0790 97000000 		call	_ZdlPv@plt
 1538      E7800000 
 1539              	.LVL171:
 1540 0798 13050900 		mv	a0,s2
 1541 079c 97000000 		call	_Unwind_Resume@plt
 1541      E7800000 
 1542              	.LVL172:
 1543              	.LEHE8:
 1544              	.L63:
 162:src/../test/Threads_CPP_API_test.hpp **** }
 1545              		.loc 1 162 1
GAS LISTING /tmp/ccpiwlbU.s 			page 36


 1546 07a4 83308103 		ld	ra,56(sp)
 1547              		.cfi_restore 1
 1548 07a8 03340103 		ld	s0,48(sp)
 1549              		.cfi_restore 8
 1550              		.cfi_def_cfa 2, 64
 1551 07ac 83348102 		ld	s1,40(sp)
 1552              		.cfi_restore 9
 1553              	.LVL173:
 1554 07b0 03390102 		ld	s2,32(sp)
 1555              		.cfi_restore 18
 1556 07b4 13010104 		addi	sp,sp,64
 1557              		.cfi_def_cfa_offset 0
 1558 07b8 67800000 		jr	ra
 1559              		.cfi_endproc
 1560              	.LFE57:
 1561              		.globl	__gxx_personality_v0
 1562              		.section	.gcc_except_table,"a",@progbits
 1563              	.LLSDA57:
 1564 0000 FF       		.byte	0xff
 1565 0001 FF       		.byte	0xff
 1566 0002 03       		.byte	0x3
 1567 0003 75       		.byte	0x75
 1568 0004 00000000 		.4byte	.LEHB0-.LFB57
 1569 0008 00000000 		.4byte	.LEHE0-.LEHB0
 1570 000c 00000000 		.4byte	0
 1571 0010 00       		.byte	0
 1572 0011 00000000 		.4byte	.LEHB1-.LFB57
 1573 0015 00000000 		.4byte	.LEHE1-.LEHB1
 1574 0019 00000000 		.4byte	.L75-.LFB57
 1575 001d 00       		.byte	0
 1576 001e 00000000 		.4byte	.LEHB2-.LFB57
 1577 0022 00000000 		.4byte	.LEHE2-.LEHB2
 1578 0026 00000000 		.4byte	0
 1579 002a 00       		.byte	0
 1580 002b 00000000 		.4byte	.LEHB3-.LFB57
 1581 002f 00000000 		.4byte	.LEHE3-.LEHB3
 1582 0033 00000000 		.4byte	.L76-.LFB57
 1583 0037 00       		.byte	0
 1584 0038 00000000 		.4byte	.LEHB4-.LFB57
 1585 003c 00000000 		.4byte	.LEHE4-.LEHB4
 1586 0040 00000000 		.4byte	0
 1587 0044 00       		.byte	0
 1588 0045 00000000 		.4byte	.LEHB5-.LFB57
 1589 0049 00000000 		.4byte	.LEHE5-.LEHB5
 1590 004d 00000000 		.4byte	.L77-.LFB57
 1591 0051 00       		.byte	0
 1592 0052 00000000 		.4byte	.LEHB6-.LFB57
 1593 0056 00000000 		.4byte	.LEHE6-.LEHB6
 1594 005a 00000000 		.4byte	0
 1595 005e 00       		.byte	0
 1596 005f 00000000 		.4byte	.LEHB7-.LFB57
 1597 0063 00000000 		.4byte	.LEHE7-.LEHB7
 1598 0067 00000000 		.4byte	.L78-.LFB57
 1599 006b 00       		.byte	0
 1600 006c 00000000 		.4byte	.LEHB8-.LFB57
 1601 0070 00000000 		.4byte	.LEHE8-.LEHB8
 1602 0074 00000000 		.4byte	0
GAS LISTING /tmp/ccpiwlbU.s 			page 37


 1603 0078 00       		.byte	0
 1604              		.text
 1606              		.align	2
 1607              		.globl	_Z8userMainv
 1609              	_Z8userMainv:
 1610              	.LFB58:
 1611              		.file 3 "src/userMain.cpp"
   1:src/userMain.cpp **** //#include "../test/Threads_C_API_test.hpp" // zadatak 2, niti C API i sinhrona promena konteksta
   2:src/userMain.cpp **** #include "../test/Threads_CPP_API_test.hpp" // zadatak 2., niti CPP API i sinhrona promena kontekst
   3:src/userMain.cpp **** 
   4:src/userMain.cpp **** //#include "../test/ConsumerProducer_C_API_test.h" // zadatak 3., kompletan C API sa semaforima, si
   5:src/userMain.cpp **** //#include "../test/ConsumerProducer_CPP_Sync_API_test.hpp" // zadatak 3., kompletan CPP API sa sem
   6:src/userMain.cpp **** 
   7:src/userMain.cpp **** //#include "../test/ThreadSleep_C_API_test.hpp" // thread_sleep test C API
   8:src/userMain.cpp **** //#include "../test/ConsumerProducer_CPP_API_test.hpp" // zadatak 4. CPP API i asinhrona promena ko
   9:src/userMain.cpp **** 
  10:src/userMain.cpp **** void userMain() {
 1612              		.loc 3 10 17 is_stmt 1
 1613              		.cfi_startproc
 1614 07bc 130101FF 		addi	sp,sp,-16
 1615              		.cfi_def_cfa_offset 16
 1616 07c0 23341100 		sd	ra,8(sp)
 1617 07c4 23308100 		sd	s0,0(sp)
 1618              		.cfi_offset 1, -8
 1619              		.cfi_offset 8, -16
 1620 07c8 13040101 		addi	s0,sp,16
 1621              		.cfi_def_cfa 8, 0
  11:src/userMain.cpp ****     //Threads_C_API_test(); // zadatak 2., niti C API i sinhrona promena konteksta
  12:src/userMain.cpp ****     Threads_CPP_API_test(); // zadatak 2., niti CPP API i sinhrona promena konteksta
 1622              		.loc 3 12 5
 1623              		.loc 3 12 25 is_stmt 0
 1624 07cc 97000000 		call	_Z20Threads_CPP_API_testv
 1624      E7800000 
 1625              	.LVL174:
  13:src/userMain.cpp **** 
  14:src/userMain.cpp ****     //producerConsumer_C_API(); // zadatak 3., kompletan C API sa semaforima, sinhrona promena kont
  15:src/userMain.cpp ****     //producerConsumer_CPP_Sync_API(); // zadatak 3., kompletan CPP API sa semaforima, sinhrona pro
  16:src/userMain.cpp **** 
  17:src/userMain.cpp ****     //testSleeping(); // thread_sleep test C API
  18:src/userMain.cpp ****     //ConsumerProducerCPP::testConsumerProducer(); // zadatak 4. CPP API i asinhrona promena kontek
  19:src/userMain.cpp **** 
  20:src/userMain.cpp **** }...
 1626              		.loc 3 20 1
 1627 07d4 83308100 		ld	ra,8(sp)
 1628              		.cfi_restore 1
 1629 07d8 03340100 		ld	s0,0(sp)
 1630              		.cfi_restore 8
 1631              		.cfi_def_cfa 2, 16
 1632 07dc 13010101 		addi	sp,sp,16
 1633              		.cfi_def_cfa_offset 0
 1634 07e0 67800000 		jr	ra
 1635              		.cfi_endproc
 1636              	.LFE58:
 1638              		.weak	_ZTV7WorkerA
 1639              		.section	.data.rel.ro.local._ZTV7WorkerA,"awG",@progbits,_ZTV7WorkerA,comdat
 1640              		.align	3
 1643              	_ZTV7WorkerA:
GAS LISTING /tmp/ccpiwlbU.s 			page 38


 1644 0000 00000000 		.dword	0
 1644      00000000 
 1645 0008 00000000 		.dword	0
 1645      00000000 
 1646 0010 00000000 		.dword	_ZN7WorkerAD1Ev
 1646      00000000 
 1647 0018 00000000 		.dword	_ZN7WorkerAD0Ev
 1647      00000000 
 1648 0020 00000000 		.dword	_ZN7WorkerA3runEv
 1648      00000000 
 1649              		.weak	_ZTV7WorkerB
 1650              		.section	.data.rel.ro.local._ZTV7WorkerB,"awG",@progbits,_ZTV7WorkerB,comdat
 1651              		.align	3
 1654              	_ZTV7WorkerB:
 1655 0000 00000000 		.dword	0
 1655      00000000 
 1656 0008 00000000 		.dword	0
 1656      00000000 
 1657 0010 00000000 		.dword	_ZN7WorkerBD1Ev
 1657      00000000 
 1658 0018 00000000 		.dword	_ZN7WorkerBD0Ev
 1658      00000000 
 1659 0020 00000000 		.dword	_ZN7WorkerB3runEv
 1659      00000000 
 1660              		.weak	_ZTV7WorkerC
 1661              		.section	.data.rel.ro.local._ZTV7WorkerC,"awG",@progbits,_ZTV7WorkerC,comdat
 1662              		.align	3
 1665              	_ZTV7WorkerC:
 1666 0000 00000000 		.dword	0
 1666      00000000 
 1667 0008 00000000 		.dword	0
 1667      00000000 
 1668 0010 00000000 		.dword	_ZN7WorkerCD1Ev
 1668      00000000 
 1669 0018 00000000 		.dword	_ZN7WorkerCD0Ev
 1669      00000000 
 1670 0020 00000000 		.dword	_ZN7WorkerC3runEv
 1670      00000000 
 1671              		.weak	_ZTV7WorkerD
 1672              		.section	.data.rel.ro.local._ZTV7WorkerD,"awG",@progbits,_ZTV7WorkerD,comdat
 1673              		.align	3
 1676              	_ZTV7WorkerD:
 1677 0000 00000000 		.dword	0
 1677      00000000 
 1678 0008 00000000 		.dword	0
 1678      00000000 
 1679 0010 00000000 		.dword	_ZN7WorkerDD1Ev
 1679      00000000 
 1680 0018 00000000 		.dword	_ZN7WorkerDD0Ev
 1680      00000000 
 1681 0020 00000000 		.dword	_ZN7WorkerD3runEv
 1681      00000000 
 1682              		.globl	finishedD
 1683              		.globl	finishedC
 1684              		.globl	finishedB
 1685              		.globl	finishedA
 1686              		.bss
GAS LISTING /tmp/ccpiwlbU.s 			page 39


 1687              		.set	.LANCHOR0,. + 0
 1690              	finishedA:
 1691 0000 00       		.zero	1
 1694              	finishedB:
 1695 0001 00       		.zero	1
 1698              	finishedC:
 1699 0002 00       		.zero	1
 1702              	finishedD:
 1703 0003 00       		.zero	1
 1704              		.text
 1705              	.Letext0:
 1706              		.file 4 "src/../test/../h/../h/../lib/hw.h"
 1707              		.file 5 "src/../test/../h/syscall_c.hpp"
 1708              		.file 6 "src/../test/../h/../h/../h/printing.hpp"
 5910              		.align	3
 5913              	DW.ref.__gxx_personality_v0:
 5914 0000 00000000 		.dword	__gxx_personality_v0
 5914      00000000 
 5915              		.ident	"GCC: (Ubuntu 9.4.0-1ubuntu1~20.04) 9.4.0"
 5916              		.section	.note.GNU-stack,"",@progbits
GAS LISTING /tmp/ccpiwlbU.s 			page 40


DEFINED SYMBOLS
                            *ABS*:0000000000000000 userMain.cpp
     /tmp/ccpiwlbU.s:10     .text._ZN7WorkerAD2Ev:0000000000000000 _ZN7WorkerAD2Ev
     /tmp/ccpiwlbU.s:14     .text._ZN7WorkerAD2Ev:0000000000000000 .L0 
     /tmp/ccpiwlbU.s:16     .text._ZN7WorkerAD2Ev:0000000000000000 .L0 
     /tmp/ccpiwlbU.s:17     .text._ZN7WorkerAD2Ev:0000000000000004 .L0 
     /tmp/ccpiwlbU.s:20     .text._ZN7WorkerAD2Ev:000000000000000c .L0 
     /tmp/ccpiwlbU.s:21     .text._ZN7WorkerAD2Ev:000000000000000c .L0 
     /tmp/ccpiwlbU.s:23     .text._ZN7WorkerAD2Ev:0000000000000010 .L0 
     /tmp/ccpiwlbU.s:1643   .data.rel.ro.local._ZTV7WorkerA:0000000000000000 _ZTV7WorkerA
     /tmp/ccpiwlbU.s:26     .text._ZN7WorkerAD2Ev:0000000000000010 .L0 
     /tmp/ccpiwlbU.s:32     .text._ZN7WorkerAD2Ev:0000000000000028 .L0 
     /tmp/ccpiwlbU.s:34     .text._ZN7WorkerAD2Ev:000000000000002c .L0 
     /tmp/ccpiwlbU.s:35     .text._ZN7WorkerAD2Ev:000000000000002c .L0 
     /tmp/ccpiwlbU.s:37     .text._ZN7WorkerAD2Ev:0000000000000030 .L0 
     /tmp/ccpiwlbU.s:39     .text._ZN7WorkerAD2Ev:0000000000000034 .L0 
     /tmp/ccpiwlbU.s:10     .text._ZN7WorkerAD2Ev:0000000000000000 _ZN7WorkerAD1Ev
     /tmp/ccpiwlbU.s:48     .text._ZN7WorkerAD0Ev:0000000000000000 _ZN7WorkerAD0Ev
     /tmp/ccpiwlbU.s:51     .text._ZN7WorkerAD0Ev:0000000000000000 .L0 
     /tmp/ccpiwlbU.s:53     .text._ZN7WorkerAD0Ev:0000000000000000 .L0 
     /tmp/ccpiwlbU.s:54     .text._ZN7WorkerAD0Ev:0000000000000004 .L0 
     /tmp/ccpiwlbU.s:58     .text._ZN7WorkerAD0Ev:0000000000000010 .L0 
     /tmp/ccpiwlbU.s:59     .text._ZN7WorkerAD0Ev:0000000000000010 .L0 
     /tmp/ccpiwlbU.s:60     .text._ZN7WorkerAD0Ev:0000000000000010 .L0 
     /tmp/ccpiwlbU.s:62     .text._ZN7WorkerAD0Ev:0000000000000014 .L0 
     /tmp/ccpiwlbU.s:68     .text._ZN7WorkerAD0Ev:0000000000000018 .L0 
     /tmp/ccpiwlbU.s:78     .text._ZN7WorkerAD0Ev:000000000000003c .L0 
     /tmp/ccpiwlbU.s:80     .text._ZN7WorkerAD0Ev:0000000000000040 .L0 
     /tmp/ccpiwlbU.s:81     .text._ZN7WorkerAD0Ev:0000000000000040 .L0 
     /tmp/ccpiwlbU.s:83     .text._ZN7WorkerAD0Ev:0000000000000044 .L0 
     /tmp/ccpiwlbU.s:86     .text._ZN7WorkerAD0Ev:0000000000000048 .L0 
     /tmp/ccpiwlbU.s:88     .text._ZN7WorkerAD0Ev:000000000000004c .L0 
     /tmp/ccpiwlbU.s:95     .text._ZN7WorkerBD2Ev:0000000000000000 _ZN7WorkerBD2Ev
     /tmp/ccpiwlbU.s:98     .text._ZN7WorkerBD2Ev:0000000000000000 .L0 
     /tmp/ccpiwlbU.s:100    .text._ZN7WorkerBD2Ev:0000000000000000 .L0 
     /tmp/ccpiwlbU.s:101    .text._ZN7WorkerBD2Ev:0000000000000004 .L0 
     /tmp/ccpiwlbU.s:104    .text._ZN7WorkerBD2Ev:000000000000000c .L0 
     /tmp/ccpiwlbU.s:105    .text._ZN7WorkerBD2Ev:000000000000000c .L0 
     /tmp/ccpiwlbU.s:107    .text._ZN7WorkerBD2Ev:0000000000000010 .L0 
     /tmp/ccpiwlbU.s:1654   .data.rel.ro.local._ZTV7WorkerB:0000000000000000 _ZTV7WorkerB
     /tmp/ccpiwlbU.s:110    .text._ZN7WorkerBD2Ev:0000000000000010 .L0 
     /tmp/ccpiwlbU.s:116    .text._ZN7WorkerBD2Ev:0000000000000028 .L0 
     /tmp/ccpiwlbU.s:118    .text._ZN7WorkerBD2Ev:000000000000002c .L0 
     /tmp/ccpiwlbU.s:119    .text._ZN7WorkerBD2Ev:000000000000002c .L0 
     /tmp/ccpiwlbU.s:121    .text._ZN7WorkerBD2Ev:0000000000000030 .L0 
     /tmp/ccpiwlbU.s:123    .text._ZN7WorkerBD2Ev:0000000000000034 .L0 
     /tmp/ccpiwlbU.s:95     .text._ZN7WorkerBD2Ev:0000000000000000 _ZN7WorkerBD1Ev
     /tmp/ccpiwlbU.s:132    .text._ZN7WorkerBD0Ev:0000000000000000 _ZN7WorkerBD0Ev
     /tmp/ccpiwlbU.s:135    .text._ZN7WorkerBD0Ev:0000000000000000 .L0 
     /tmp/ccpiwlbU.s:137    .text._ZN7WorkerBD0Ev:0000000000000000 .L0 
     /tmp/ccpiwlbU.s:138    .text._ZN7WorkerBD0Ev:0000000000000004 .L0 
     /tmp/ccpiwlbU.s:142    .text._ZN7WorkerBD0Ev:0000000000000010 .L0 
     /tmp/ccpiwlbU.s:143    .text._ZN7WorkerBD0Ev:0000000000000010 .L0 
     /tmp/ccpiwlbU.s:144    .text._ZN7WorkerBD0Ev:0000000000000010 .L0 
     /tmp/ccpiwlbU.s:146    .text._ZN7WorkerBD0Ev:0000000000000014 .L0 
     /tmp/ccpiwlbU.s:152    .text._ZN7WorkerBD0Ev:0000000000000018 .L0 
     /tmp/ccpiwlbU.s:162    .text._ZN7WorkerBD0Ev:000000000000003c .L0 
GAS LISTING /tmp/ccpiwlbU.s 			page 41


     /tmp/ccpiwlbU.s:164    .text._ZN7WorkerBD0Ev:0000000000000040 .L0 
     /tmp/ccpiwlbU.s:165    .text._ZN7WorkerBD0Ev:0000000000000040 .L0 
     /tmp/ccpiwlbU.s:167    .text._ZN7WorkerBD0Ev:0000000000000044 .L0 
     /tmp/ccpiwlbU.s:170    .text._ZN7WorkerBD0Ev:0000000000000048 .L0 
     /tmp/ccpiwlbU.s:172    .text._ZN7WorkerBD0Ev:000000000000004c .L0 
     /tmp/ccpiwlbU.s:179    .text._ZN7WorkerCD2Ev:0000000000000000 _ZN7WorkerCD2Ev
     /tmp/ccpiwlbU.s:182    .text._ZN7WorkerCD2Ev:0000000000000000 .L0 
     /tmp/ccpiwlbU.s:184    .text._ZN7WorkerCD2Ev:0000000000000000 .L0 
     /tmp/ccpiwlbU.s:185    .text._ZN7WorkerCD2Ev:0000000000000004 .L0 
     /tmp/ccpiwlbU.s:188    .text._ZN7WorkerCD2Ev:000000000000000c .L0 
     /tmp/ccpiwlbU.s:189    .text._ZN7WorkerCD2Ev:000000000000000c .L0 
     /tmp/ccpiwlbU.s:191    .text._ZN7WorkerCD2Ev:0000000000000010 .L0 
     /tmp/ccpiwlbU.s:1665   .data.rel.ro.local._ZTV7WorkerC:0000000000000000 _ZTV7WorkerC
     /tmp/ccpiwlbU.s:194    .text._ZN7WorkerCD2Ev:0000000000000010 .L0 
     /tmp/ccpiwlbU.s:200    .text._ZN7WorkerCD2Ev:0000000000000028 .L0 
     /tmp/ccpiwlbU.s:202    .text._ZN7WorkerCD2Ev:000000000000002c .L0 
     /tmp/ccpiwlbU.s:203    .text._ZN7WorkerCD2Ev:000000000000002c .L0 
     /tmp/ccpiwlbU.s:205    .text._ZN7WorkerCD2Ev:0000000000000030 .L0 
     /tmp/ccpiwlbU.s:207    .text._ZN7WorkerCD2Ev:0000000000000034 .L0 
     /tmp/ccpiwlbU.s:179    .text._ZN7WorkerCD2Ev:0000000000000000 _ZN7WorkerCD1Ev
     /tmp/ccpiwlbU.s:216    .text._ZN7WorkerCD0Ev:0000000000000000 _ZN7WorkerCD0Ev
     /tmp/ccpiwlbU.s:219    .text._ZN7WorkerCD0Ev:0000000000000000 .L0 
     /tmp/ccpiwlbU.s:221    .text._ZN7WorkerCD0Ev:0000000000000000 .L0 
     /tmp/ccpiwlbU.s:222    .text._ZN7WorkerCD0Ev:0000000000000004 .L0 
     /tmp/ccpiwlbU.s:226    .text._ZN7WorkerCD0Ev:0000000000000010 .L0 
     /tmp/ccpiwlbU.s:227    .text._ZN7WorkerCD0Ev:0000000000000010 .L0 
     /tmp/ccpiwlbU.s:228    .text._ZN7WorkerCD0Ev:0000000000000010 .L0 
     /tmp/ccpiwlbU.s:230    .text._ZN7WorkerCD0Ev:0000000000000014 .L0 
     /tmp/ccpiwlbU.s:236    .text._ZN7WorkerCD0Ev:0000000000000018 .L0 
     /tmp/ccpiwlbU.s:246    .text._ZN7WorkerCD0Ev:000000000000003c .L0 
     /tmp/ccpiwlbU.s:248    .text._ZN7WorkerCD0Ev:0000000000000040 .L0 
     /tmp/ccpiwlbU.s:249    .text._ZN7WorkerCD0Ev:0000000000000040 .L0 
     /tmp/ccpiwlbU.s:251    .text._ZN7WorkerCD0Ev:0000000000000044 .L0 
     /tmp/ccpiwlbU.s:254    .text._ZN7WorkerCD0Ev:0000000000000048 .L0 
     /tmp/ccpiwlbU.s:256    .text._ZN7WorkerCD0Ev:000000000000004c .L0 
     /tmp/ccpiwlbU.s:263    .text._ZN7WorkerDD2Ev:0000000000000000 _ZN7WorkerDD2Ev
     /tmp/ccpiwlbU.s:266    .text._ZN7WorkerDD2Ev:0000000000000000 .L0 
     /tmp/ccpiwlbU.s:268    .text._ZN7WorkerDD2Ev:0000000000000000 .L0 
     /tmp/ccpiwlbU.s:269    .text._ZN7WorkerDD2Ev:0000000000000004 .L0 
     /tmp/ccpiwlbU.s:272    .text._ZN7WorkerDD2Ev:000000000000000c .L0 
     /tmp/ccpiwlbU.s:273    .text._ZN7WorkerDD2Ev:000000000000000c .L0 
     /tmp/ccpiwlbU.s:275    .text._ZN7WorkerDD2Ev:0000000000000010 .L0 
     /tmp/ccpiwlbU.s:1676   .data.rel.ro.local._ZTV7WorkerD:0000000000000000 _ZTV7WorkerD
     /tmp/ccpiwlbU.s:278    .text._ZN7WorkerDD2Ev:0000000000000010 .L0 
     /tmp/ccpiwlbU.s:284    .text._ZN7WorkerDD2Ev:0000000000000028 .L0 
     /tmp/ccpiwlbU.s:286    .text._ZN7WorkerDD2Ev:000000000000002c .L0 
     /tmp/ccpiwlbU.s:287    .text._ZN7WorkerDD2Ev:000000000000002c .L0 
     /tmp/ccpiwlbU.s:289    .text._ZN7WorkerDD2Ev:0000000000000030 .L0 
     /tmp/ccpiwlbU.s:291    .text._ZN7WorkerDD2Ev:0000000000000034 .L0 
     /tmp/ccpiwlbU.s:263    .text._ZN7WorkerDD2Ev:0000000000000000 _ZN7WorkerDD1Ev
     /tmp/ccpiwlbU.s:300    .text._ZN7WorkerDD0Ev:0000000000000000 _ZN7WorkerDD0Ev
     /tmp/ccpiwlbU.s:303    .text._ZN7WorkerDD0Ev:0000000000000000 .L0 
     /tmp/ccpiwlbU.s:305    .text._ZN7WorkerDD0Ev:0000000000000000 .L0 
     /tmp/ccpiwlbU.s:306    .text._ZN7WorkerDD0Ev:0000000000000004 .L0 
     /tmp/ccpiwlbU.s:310    .text._ZN7WorkerDD0Ev:0000000000000010 .L0 
     /tmp/ccpiwlbU.s:311    .text._ZN7WorkerDD0Ev:0000000000000010 .L0 
     /tmp/ccpiwlbU.s:312    .text._ZN7WorkerDD0Ev:0000000000000010 .L0 
GAS LISTING /tmp/ccpiwlbU.s 			page 42


     /tmp/ccpiwlbU.s:314    .text._ZN7WorkerDD0Ev:0000000000000014 .L0 
     /tmp/ccpiwlbU.s:320    .text._ZN7WorkerDD0Ev:0000000000000018 .L0 
     /tmp/ccpiwlbU.s:330    .text._ZN7WorkerDD0Ev:000000000000003c .L0 
     /tmp/ccpiwlbU.s:332    .text._ZN7WorkerDD0Ev:0000000000000040 .L0 
     /tmp/ccpiwlbU.s:333    .text._ZN7WorkerDD0Ev:0000000000000040 .L0 
     /tmp/ccpiwlbU.s:335    .text._ZN7WorkerDD0Ev:0000000000000044 .L0 
     /tmp/ccpiwlbU.s:338    .text._ZN7WorkerDD0Ev:0000000000000048 .L0 
     /tmp/ccpiwlbU.s:340    .text._ZN7WorkerDD0Ev:000000000000004c .L0 
     /tmp/ccpiwlbU.s:347    .text:0000000000000000 _Z9fibonaccim
     /tmp/ccpiwlbU.s:350    .text:0000000000000000 .L0 
     /tmp/ccpiwlbU.s:352    .text:0000000000000000 .L0 
     /tmp/ccpiwlbU.s:353    .text:0000000000000004 .L0 
     /tmp/ccpiwlbU.s:358    .text:0000000000000014 .L0 
     /tmp/ccpiwlbU.s:359    .text:0000000000000014 .L0 
     /tmp/ccpiwlbU.s:360    .text:0000000000000014 .L0 
     /tmp/ccpiwlbU.s:361    .text:0000000000000014 .L0 
     /tmp/ccpiwlbU.s:363    .text:0000000000000018 .L0 
     /tmp/ccpiwlbU.s:366    .text:000000000000001c .L0 
     /tmp/ccpiwlbU.s:369    .text:0000000000000024 .L0 
     /tmp/ccpiwlbU.s:370    .text:0000000000000024 .L0 
     /tmp/ccpiwlbU.s:373    .text:000000000000002c .L0 
     /tmp/ccpiwlbU.s:377    .text:0000000000000030 .L0 
     /tmp/ccpiwlbU.s:378    .text:0000000000000030 .L0 
     /tmp/ccpiwlbU.s:383    .text:0000000000000040 .L0 
     /tmp/ccpiwlbU.s:387    .text:000000000000004c .L0 
     /tmp/ccpiwlbU.s:390    .text:0000000000000050 .L0 
     /tmp/ccpiwlbU.s:391    .text:0000000000000054 .L0 
     /tmp/ccpiwlbU.s:392    .text:0000000000000054 .L0 
     /tmp/ccpiwlbU.s:394    .text:0000000000000058 .L0 
     /tmp/ccpiwlbU.s:395    .text:0000000000000058 .L0 
     /tmp/ccpiwlbU.s:397    .text:000000000000005c .L0 
     /tmp/ccpiwlbU.s:400    .text:0000000000000060 .L0 
     /tmp/ccpiwlbU.s:402    .text:0000000000000064 .L0 
     /tmp/ccpiwlbU.s:406    .text:0000000000000068 .L0 
     /tmp/ccpiwlbU.s:408    .text:0000000000000068 .L0 
     /tmp/ccpiwlbU.s:409    .text:0000000000000068 .L0 
     /tmp/ccpiwlbU.s:412    .text:0000000000000074 .L0 
     /tmp/ccpiwlbU.s:429    .text:0000000000000074 _ZN7WorkerA11workerBodyAEPv
     /tmp/ccpiwlbU.s:432    .text:0000000000000074 .L0 
     /tmp/ccpiwlbU.s:434    .text:0000000000000074 .L0 
     /tmp/ccpiwlbU.s:435    .text:0000000000000078 .L0 
     /tmp/ccpiwlbU.s:440    .text:0000000000000088 .L0 
     /tmp/ccpiwlbU.s:441    .text:0000000000000088 .L0 
     /tmp/ccpiwlbU.s:442    .text:0000000000000088 .L0 
     /tmp/ccpiwlbU.s:443    .text:0000000000000088 .L0 
     /tmp/ccpiwlbU.s:445    .text:000000000000008c .L0 
     /tmp/ccpiwlbU.s:449    .text:000000000000008c .L0 
     /tmp/ccpiwlbU.s:450    .text:000000000000008c .L0 
     /tmp/ccpiwlbU.s:458    .text:0000000000000094 .L0 
     /tmp/ccpiwlbU.s:459    .text:0000000000000094 .L0 
     /tmp/ccpiwlbU.s:463    .text:000000000000009c .L0 
     /tmp/ccpiwlbU.s:467    .text:00000000000000a0 .L0 
     /tmp/ccpiwlbU.s:473    .text:00000000000000ac .L0 
     /tmp/ccpiwlbU.s:477    .text:00000000000000b0 .L0 
     /tmp/ccpiwlbU.s:481    .text:00000000000000bc .L0 
     /tmp/ccpiwlbU.s:491    .text:00000000000000c4 .L0 
     /tmp/ccpiwlbU.s:495    .text:00000000000000c8 .L0 
GAS LISTING /tmp/ccpiwlbU.s 			page 43


     /tmp/ccpiwlbU.s:499    .text:00000000000000d0 .L0 
     /tmp/ccpiwlbU.s:500    .text:00000000000000d0 .L0 
     /tmp/ccpiwlbU.s:504    .text:00000000000000e0 .L0 
     /tmp/ccpiwlbU.s:505    .text:00000000000000e0 .L0 
     /tmp/ccpiwlbU.s:511    .text:00000000000000f4 .L0 
     /tmp/ccpiwlbU.s:512    .text:00000000000000f4 .L0 
     /tmp/ccpiwlbU.s:517    .text:0000000000000104 .L0 
     /tmp/ccpiwlbU.s:518    .text:0000000000000104 .L0 
     /tmp/ccpiwlbU.s:526    .text:000000000000010c .L0 
     /tmp/ccpiwlbU.s:527    .text:000000000000010c .L0 
     /tmp/ccpiwlbU.s:531    .text:000000000000011c .L0 
     /tmp/ccpiwlbU.s:532    .text:000000000000011c .L0 
     /tmp/ccpiwlbU.s:535    .text:0000000000000128 .L0 
     /tmp/ccpiwlbU.s:536    .text:000000000000012c .L0 
     /tmp/ccpiwlbU.s:538    .text:0000000000000130 .L0 
     /tmp/ccpiwlbU.s:539    .text:0000000000000130 .L0 
     /tmp/ccpiwlbU.s:541    .text:0000000000000134 .L0 
     /tmp/ccpiwlbU.s:543    .text:0000000000000138 .L0 
     /tmp/ccpiwlbU.s:546    .text:000000000000013c .L0 
     /tmp/ccpiwlbU.s:548    .text:0000000000000140 .L0 
     /tmp/ccpiwlbU.s:555    .text._ZN7WorkerA3runEv:0000000000000000 _ZN7WorkerA3runEv
     /tmp/ccpiwlbU.s:558    .text._ZN7WorkerA3runEv:0000000000000000 .L0 
     /tmp/ccpiwlbU.s:560    .text._ZN7WorkerA3runEv:0000000000000000 .L0 
     /tmp/ccpiwlbU.s:561    .text._ZN7WorkerA3runEv:0000000000000004 .L0 
     /tmp/ccpiwlbU.s:564    .text._ZN7WorkerA3runEv:000000000000000c .L0 
     /tmp/ccpiwlbU.s:565    .text._ZN7WorkerA3runEv:000000000000000c .L0 
     /tmp/ccpiwlbU.s:567    .text._ZN7WorkerA3runEv:0000000000000010 .L0 
     /tmp/ccpiwlbU.s:569    .text._ZN7WorkerA3runEv:0000000000000010 .L0 
     /tmp/ccpiwlbU.s:570    .text._ZN7WorkerA3runEv:0000000000000010 .L0 
     /tmp/ccpiwlbU.s:574    .text._ZN7WorkerA3runEv:000000000000001c .L0 
     /tmp/ccpiwlbU.s:575    .text._ZN7WorkerA3runEv:0000000000000020 .L0 
     /tmp/ccpiwlbU.s:577    .text._ZN7WorkerA3runEv:0000000000000024 .L0 
     /tmp/ccpiwlbU.s:578    .text._ZN7WorkerA3runEv:0000000000000024 .L0 
     /tmp/ccpiwlbU.s:580    .text._ZN7WorkerA3runEv:0000000000000028 .L0 
     /tmp/ccpiwlbU.s:582    .text._ZN7WorkerA3runEv:000000000000002c .L0 
     /tmp/ccpiwlbU.s:596    .text:0000000000000140 _ZN7WorkerB11workerBodyBEPv
     /tmp/ccpiwlbU.s:599    .text:0000000000000140 .L0 
     /tmp/ccpiwlbU.s:601    .text:0000000000000140 .L0 
     /tmp/ccpiwlbU.s:602    .text:0000000000000144 .L0 
     /tmp/ccpiwlbU.s:607    .text:0000000000000154 .L0 
     /tmp/ccpiwlbU.s:608    .text:0000000000000154 .L0 
     /tmp/ccpiwlbU.s:609    .text:0000000000000154 .L0 
     /tmp/ccpiwlbU.s:610    .text:0000000000000154 .L0 
     /tmp/ccpiwlbU.s:612    .text:0000000000000158 .L0 
     /tmp/ccpiwlbU.s:616    .text:0000000000000158 .L0 
     /tmp/ccpiwlbU.s:617    .text:0000000000000158 .L0 
     /tmp/ccpiwlbU.s:625    .text:0000000000000160 .L0 
     /tmp/ccpiwlbU.s:626    .text:0000000000000160 .L0 
     /tmp/ccpiwlbU.s:630    .text:0000000000000168 .L0 
     /tmp/ccpiwlbU.s:634    .text:000000000000016c .L0 
     /tmp/ccpiwlbU.s:640    .text:0000000000000178 .L0 
     /tmp/ccpiwlbU.s:644    .text:000000000000017c .L0 
     /tmp/ccpiwlbU.s:648    .text:0000000000000188 .L0 
     /tmp/ccpiwlbU.s:658    .text:0000000000000190 .L0 
     /tmp/ccpiwlbU.s:662    .text:0000000000000194 .L0 
     /tmp/ccpiwlbU.s:666    .text:000000000000019c .L0 
     /tmp/ccpiwlbU.s:667    .text:000000000000019c .L0 
GAS LISTING /tmp/ccpiwlbU.s 			page 44


     /tmp/ccpiwlbU.s:671    .text:00000000000001ac .L0 
     /tmp/ccpiwlbU.s:672    .text:00000000000001ac .L0 
     /tmp/ccpiwlbU.s:678    .text:00000000000001c0 .L0 
     /tmp/ccpiwlbU.s:679    .text:00000000000001c0 .L0 
     /tmp/ccpiwlbU.s:684    .text:00000000000001d0 .L0 
     /tmp/ccpiwlbU.s:685    .text:00000000000001d0 .L0 
     /tmp/ccpiwlbU.s:693    .text:00000000000001d8 .L0 
     /tmp/ccpiwlbU.s:694    .text:00000000000001d8 .L0 
     /tmp/ccpiwlbU.s:698    .text:00000000000001e8 .L0 
     /tmp/ccpiwlbU.s:699    .text:00000000000001e8 .L0 
     /tmp/ccpiwlbU.s:702    .text:00000000000001f4 .L0 
     /tmp/ccpiwlbU.s:703    .text:00000000000001f4 .L0 
     /tmp/ccpiwlbU.s:706    .text:00000000000001fc .L0 
     /tmp/ccpiwlbU.s:707    .text:0000000000000200 .L0 
     /tmp/ccpiwlbU.s:709    .text:0000000000000204 .L0 
     /tmp/ccpiwlbU.s:710    .text:0000000000000204 .L0 
     /tmp/ccpiwlbU.s:712    .text:0000000000000208 .L0 
     /tmp/ccpiwlbU.s:714    .text:000000000000020c .L0 
     /tmp/ccpiwlbU.s:717    .text:0000000000000210 .L0 
     /tmp/ccpiwlbU.s:719    .text:0000000000000214 .L0 
     /tmp/ccpiwlbU.s:726    .text._ZN7WorkerB3runEv:0000000000000000 _ZN7WorkerB3runEv
     /tmp/ccpiwlbU.s:729    .text._ZN7WorkerB3runEv:0000000000000000 .L0 
     /tmp/ccpiwlbU.s:731    .text._ZN7WorkerB3runEv:0000000000000000 .L0 
     /tmp/ccpiwlbU.s:732    .text._ZN7WorkerB3runEv:0000000000000004 .L0 
     /tmp/ccpiwlbU.s:735    .text._ZN7WorkerB3runEv:000000000000000c .L0 
     /tmp/ccpiwlbU.s:736    .text._ZN7WorkerB3runEv:000000000000000c .L0 
     /tmp/ccpiwlbU.s:738    .text._ZN7WorkerB3runEv:0000000000000010 .L0 
     /tmp/ccpiwlbU.s:740    .text._ZN7WorkerB3runEv:0000000000000010 .L0 
     /tmp/ccpiwlbU.s:741    .text._ZN7WorkerB3runEv:0000000000000010 .L0 
     /tmp/ccpiwlbU.s:745    .text._ZN7WorkerB3runEv:000000000000001c .L0 
     /tmp/ccpiwlbU.s:746    .text._ZN7WorkerB3runEv:0000000000000020 .L0 
     /tmp/ccpiwlbU.s:748    .text._ZN7WorkerB3runEv:0000000000000024 .L0 
     /tmp/ccpiwlbU.s:749    .text._ZN7WorkerB3runEv:0000000000000024 .L0 
     /tmp/ccpiwlbU.s:751    .text._ZN7WorkerB3runEv:0000000000000028 .L0 
     /tmp/ccpiwlbU.s:753    .text._ZN7WorkerB3runEv:000000000000002c .L0 
     /tmp/ccpiwlbU.s:773    .text:0000000000000214 _ZN7WorkerC11workerBodyCEPv
     /tmp/ccpiwlbU.s:776    .text:0000000000000214 .L0 
     /tmp/ccpiwlbU.s:778    .text:0000000000000214 .L0 
     /tmp/ccpiwlbU.s:779    .text:0000000000000218 .L0 
     /tmp/ccpiwlbU.s:784    .text:0000000000000228 .L0 
     /tmp/ccpiwlbU.s:785    .text:0000000000000228 .L0 
     /tmp/ccpiwlbU.s:786    .text:0000000000000228 .L0 
     /tmp/ccpiwlbU.s:787    .text:0000000000000228 .L0 
     /tmp/ccpiwlbU.s:789    .text:000000000000022c .L0 
     /tmp/ccpiwlbU.s:792    .text:000000000000022c .L0 
     /tmp/ccpiwlbU.s:793    .text:000000000000022c .L0 
     /tmp/ccpiwlbU.s:798    .text:0000000000000234 .L0 
     /tmp/ccpiwlbU.s:799    .text:0000000000000234 .L0 
     /tmp/ccpiwlbU.s:803    .text:0000000000000244 .L0 
     /tmp/ccpiwlbU.s:804    .text:0000000000000244 .L0 
     /tmp/ccpiwlbU.s:810    .text:0000000000000258 .L0 
     /tmp/ccpiwlbU.s:811    .text:0000000000000258 .L0 
     /tmp/ccpiwlbU.s:815    .text:0000000000000268 .L0 
     /tmp/ccpiwlbU.s:821    .text:0000000000000270 .L0 
     /tmp/ccpiwlbU.s:822    .text:0000000000000270 .L0 
     /tmp/ccpiwlbU.s:825    .text:0000000000000278 .L0 
     /tmp/ccpiwlbU.s:826    .text:0000000000000278 .L0 
GAS LISTING /tmp/ccpiwlbU.s 			page 45


     /tmp/ccpiwlbU.s:830    .text:0000000000000288 .L0 
src/../test/Threads_CPP_API_test.hpp:91     .text:0000000000000288 .L0 
     /tmp/ccpiwlbU.s:836    .text:000000000000028c .L0 
     /tmp/ccpiwlbU.s:838    .text:000000000000028c .L0 
     /tmp/ccpiwlbU.s:841    .text:0000000000000294 .L0 
     /tmp/ccpiwlbU.s:842    .text:0000000000000294 .L0 
src/../test/Threads_CPP_API_test.hpp:95     .text:0000000000000294 .L0 
     /tmp/ccpiwlbU.s:849    .text:0000000000000298 .L0 
     /tmp/ccpiwlbU.s:851    .text:0000000000000298 .L0 
     /tmp/ccpiwlbU.s:855    .text:00000000000002a8 .L0 
     /tmp/ccpiwlbU.s:856    .text:00000000000002a8 .L0 
     /tmp/ccpiwlbU.s:862    .text:00000000000002bc .L0 
     /tmp/ccpiwlbU.s:863    .text:00000000000002bc .L0 
     /tmp/ccpiwlbU.s:867    .text:00000000000002cc .L0 
     /tmp/ccpiwlbU.s:868    .text:00000000000002cc .L0 
     /tmp/ccpiwlbU.s:874    .text:00000000000002dc .L0 
     /tmp/ccpiwlbU.s:875    .text:00000000000002dc .L0 
     /tmp/ccpiwlbU.s:880    .text:00000000000002ec .L0 
     /tmp/ccpiwlbU.s:881    .text:00000000000002ec .L0 
     /tmp/ccpiwlbU.s:887    .text:0000000000000300 .L0 
     /tmp/ccpiwlbU.s:888    .text:0000000000000300 .L0 
     /tmp/ccpiwlbU.s:894    .text:0000000000000314 .L0 
     /tmp/ccpiwlbU.s:895    .text:0000000000000314 .L0 
     /tmp/ccpiwlbU.s:899    .text:0000000000000324 .L0 
     /tmp/ccpiwlbU.s:900    .text:0000000000000324 .L0 
     /tmp/ccpiwlbU.s:906    .text:0000000000000338 .L0 
     /tmp/ccpiwlbU.s:907    .text:0000000000000338 .L0 
     /tmp/ccpiwlbU.s:911    .text:0000000000000348 .L0 
     /tmp/ccpiwlbU.s:917    .text:0000000000000350 .L0 
     /tmp/ccpiwlbU.s:918    .text:0000000000000350 .L0 
     /tmp/ccpiwlbU.s:921    .text:0000000000000358 .L0 
     /tmp/ccpiwlbU.s:922    .text:0000000000000358 .L0 
     /tmp/ccpiwlbU.s:926    .text:0000000000000368 .L0 
     /tmp/ccpiwlbU.s:927    .text:0000000000000368 .L0 
     /tmp/ccpiwlbU.s:930    .text:0000000000000374 .L0 
     /tmp/ccpiwlbU.s:931    .text:0000000000000374 .L0 
     /tmp/ccpiwlbU.s:934    .text:000000000000037c .L0 
     /tmp/ccpiwlbU.s:935    .text:0000000000000380 .L0 
     /tmp/ccpiwlbU.s:937    .text:0000000000000384 .L0 
     /tmp/ccpiwlbU.s:938    .text:0000000000000384 .L0 
     /tmp/ccpiwlbU.s:940    .text:0000000000000388 .L0 
     /tmp/ccpiwlbU.s:943    .text:000000000000038c .L0 
     /tmp/ccpiwlbU.s:946    .text:0000000000000390 .L0 
     /tmp/ccpiwlbU.s:948    .text:0000000000000394 .L0 
     /tmp/ccpiwlbU.s:955    .text._ZN7WorkerC3runEv:0000000000000000 _ZN7WorkerC3runEv
     /tmp/ccpiwlbU.s:958    .text._ZN7WorkerC3runEv:0000000000000000 .L0 
     /tmp/ccpiwlbU.s:960    .text._ZN7WorkerC3runEv:0000000000000000 .L0 
     /tmp/ccpiwlbU.s:961    .text._ZN7WorkerC3runEv:0000000000000004 .L0 
     /tmp/ccpiwlbU.s:964    .text._ZN7WorkerC3runEv:000000000000000c .L0 
     /tmp/ccpiwlbU.s:965    .text._ZN7WorkerC3runEv:000000000000000c .L0 
     /tmp/ccpiwlbU.s:967    .text._ZN7WorkerC3runEv:0000000000000010 .L0 
     /tmp/ccpiwlbU.s:969    .text._ZN7WorkerC3runEv:0000000000000010 .L0 
     /tmp/ccpiwlbU.s:970    .text._ZN7WorkerC3runEv:0000000000000010 .L0 
     /tmp/ccpiwlbU.s:974    .text._ZN7WorkerC3runEv:000000000000001c .L0 
     /tmp/ccpiwlbU.s:975    .text._ZN7WorkerC3runEv:0000000000000020 .L0 
     /tmp/ccpiwlbU.s:977    .text._ZN7WorkerC3runEv:0000000000000024 .L0 
     /tmp/ccpiwlbU.s:978    .text._ZN7WorkerC3runEv:0000000000000024 .L0 
GAS LISTING /tmp/ccpiwlbU.s 			page 46


     /tmp/ccpiwlbU.s:980    .text._ZN7WorkerC3runEv:0000000000000028 .L0 
     /tmp/ccpiwlbU.s:982    .text._ZN7WorkerC3runEv:000000000000002c .L0 
     /tmp/ccpiwlbU.s:1002   .text:0000000000000394 _ZN7WorkerD11workerBodyDEPv
     /tmp/ccpiwlbU.s:1005   .text:0000000000000394 .L0 
     /tmp/ccpiwlbU.s:1007   .text:0000000000000394 .L0 
     /tmp/ccpiwlbU.s:1008   .text:0000000000000398 .L0 
     /tmp/ccpiwlbU.s:1013   .text:00000000000003a8 .L0 
     /tmp/ccpiwlbU.s:1014   .text:00000000000003a8 .L0 
     /tmp/ccpiwlbU.s:1015   .text:00000000000003a8 .L0 
     /tmp/ccpiwlbU.s:1016   .text:00000000000003a8 .L0 
     /tmp/ccpiwlbU.s:1018   .text:00000000000003ac .L0 
     /tmp/ccpiwlbU.s:1021   .text:00000000000003ac .L0 
     /tmp/ccpiwlbU.s:1022   .text:00000000000003ac .L0 
     /tmp/ccpiwlbU.s:1027   .text:00000000000003b4 .L0 
     /tmp/ccpiwlbU.s:1028   .text:00000000000003b4 .L0 
     /tmp/ccpiwlbU.s:1032   .text:00000000000003c4 .L0 
     /tmp/ccpiwlbU.s:1033   .text:00000000000003c4 .L0 
     /tmp/ccpiwlbU.s:1039   .text:00000000000003d8 .L0 
     /tmp/ccpiwlbU.s:1040   .text:00000000000003d8 .L0 
     /tmp/ccpiwlbU.s:1044   .text:00000000000003e8 .L0 
     /tmp/ccpiwlbU.s:1050   .text:00000000000003f0 .L0 
     /tmp/ccpiwlbU.s:1051   .text:00000000000003f0 .L0 
     /tmp/ccpiwlbU.s:1054   .text:00000000000003f8 .L0 
     /tmp/ccpiwlbU.s:1055   .text:00000000000003f8 .L0 
     /tmp/ccpiwlbU.s:1059   .text:0000000000000408 .L0 
src/../test/Threads_CPP_API_test.hpp:118    .text:0000000000000408 .L0 
     /tmp/ccpiwlbU.s:1065   .text:000000000000040c .L0 
     /tmp/ccpiwlbU.s:1067   .text:000000000000040c .L0 
     /tmp/ccpiwlbU.s:1070   .text:0000000000000414 .L0 
     /tmp/ccpiwlbU.s:1071   .text:0000000000000414 .L0 
     /tmp/ccpiwlbU.s:1077   .text:0000000000000424 .L0 
     /tmp/ccpiwlbU.s:1078   .text:0000000000000424 .L0 
     /tmp/ccpiwlbU.s:1083   .text:0000000000000434 .L0 
     /tmp/ccpiwlbU.s:1084   .text:0000000000000434 .L0 
     /tmp/ccpiwlbU.s:1090   .text:0000000000000448 .L0 
     /tmp/ccpiwlbU.s:1091   .text:0000000000000448 .L0 
     /tmp/ccpiwlbU.s:1097   .text:000000000000045c .L0 
     /tmp/ccpiwlbU.s:1098   .text:000000000000045c .L0 
     /tmp/ccpiwlbU.s:1102   .text:000000000000046c .L0 
     /tmp/ccpiwlbU.s:1103   .text:000000000000046c .L0 
     /tmp/ccpiwlbU.s:1109   .text:0000000000000480 .L0 
     /tmp/ccpiwlbU.s:1110   .text:0000000000000480 .L0 
     /tmp/ccpiwlbU.s:1114   .text:0000000000000490 .L0 
     /tmp/ccpiwlbU.s:1120   .text:0000000000000498 .L0 
     /tmp/ccpiwlbU.s:1121   .text:0000000000000498 .L0 
     /tmp/ccpiwlbU.s:1124   .text:00000000000004a0 .L0 
     /tmp/ccpiwlbU.s:1125   .text:00000000000004a0 .L0 
     /tmp/ccpiwlbU.s:1129   .text:00000000000004b0 .L0 
     /tmp/ccpiwlbU.s:1130   .text:00000000000004b0 .L0 
     /tmp/ccpiwlbU.s:1133   .text:00000000000004bc .L0 
     /tmp/ccpiwlbU.s:1134   .text:00000000000004bc .L0 
     /tmp/ccpiwlbU.s:1137   .text:00000000000004c4 .L0 
     /tmp/ccpiwlbU.s:1138   .text:00000000000004c8 .L0 
     /tmp/ccpiwlbU.s:1140   .text:00000000000004cc .L0 
     /tmp/ccpiwlbU.s:1141   .text:00000000000004cc .L0 
     /tmp/ccpiwlbU.s:1143   .text:00000000000004d0 .L0 
     /tmp/ccpiwlbU.s:1146   .text:00000000000004d4 .L0 
GAS LISTING /tmp/ccpiwlbU.s 			page 47


     /tmp/ccpiwlbU.s:1149   .text:00000000000004d8 .L0 
     /tmp/ccpiwlbU.s:1151   .text:00000000000004dc .L0 
     /tmp/ccpiwlbU.s:1158   .text._ZN7WorkerD3runEv:0000000000000000 _ZN7WorkerD3runEv
     /tmp/ccpiwlbU.s:1161   .text._ZN7WorkerD3runEv:0000000000000000 .L0 
     /tmp/ccpiwlbU.s:1163   .text._ZN7WorkerD3runEv:0000000000000000 .L0 
     /tmp/ccpiwlbU.s:1164   .text._ZN7WorkerD3runEv:0000000000000004 .L0 
     /tmp/ccpiwlbU.s:1167   .text._ZN7WorkerD3runEv:000000000000000c .L0 
     /tmp/ccpiwlbU.s:1168   .text._ZN7WorkerD3runEv:000000000000000c .L0 
     /tmp/ccpiwlbU.s:1170   .text._ZN7WorkerD3runEv:0000000000000010 .L0 
     /tmp/ccpiwlbU.s:1172   .text._ZN7WorkerD3runEv:0000000000000010 .L0 
     /tmp/ccpiwlbU.s:1173   .text._ZN7WorkerD3runEv:0000000000000010 .L0 
     /tmp/ccpiwlbU.s:1177   .text._ZN7WorkerD3runEv:000000000000001c .L0 
     /tmp/ccpiwlbU.s:1178   .text._ZN7WorkerD3runEv:0000000000000020 .L0 
     /tmp/ccpiwlbU.s:1180   .text._ZN7WorkerD3runEv:0000000000000024 .L0 
     /tmp/ccpiwlbU.s:1181   .text._ZN7WorkerD3runEv:0000000000000024 .L0 
     /tmp/ccpiwlbU.s:1183   .text._ZN7WorkerD3runEv:0000000000000028 .L0 
     /tmp/ccpiwlbU.s:1185   .text._ZN7WorkerD3runEv:000000000000002c .L0 
     /tmp/ccpiwlbU.s:1214   .text:00000000000004dc _Z20Threads_CPP_API_testv
     /tmp/ccpiwlbU.s:1217   .text:00000000000004dc .L0 
     /tmp/ccpiwlbU.s:5913   .data.rel.local.DW.ref.__gxx_personality_v0:0000000000000000 DW.ref.__gxx_personality_v0
     /tmp/ccpiwlbU.s:1220   .text:00000000000004dc .L0 
     /tmp/ccpiwlbU.s:1221   .text:00000000000004e0 .L0 
     /tmp/ccpiwlbU.s:1226   .text:00000000000004f0 .L0 
     /tmp/ccpiwlbU.s:1227   .text:00000000000004f0 .L0 
     /tmp/ccpiwlbU.s:1228   .text:00000000000004f0 .L0 
     /tmp/ccpiwlbU.s:1229   .text:00000000000004f0 .L0 
     /tmp/ccpiwlbU.s:1231   .text:00000000000004f4 .L0 
     /tmp/ccpiwlbU.s:1233   .text:00000000000004f4 .L0 
     /tmp/ccpiwlbU.s:1234   .text:00000000000004f4 .L0 
     /tmp/ccpiwlbU.s:1235   .text:00000000000004f4 .L0 
     /tmp/ccpiwlbU.s:1249   .text:0000000000000504 .L0 
     /tmp/ccpiwlbU.s:1253   .text:0000000000000514 .L0 
     /tmp/ccpiwlbU.s:1254   .text:0000000000000514 .L0 
     /tmp/ccpiwlbU.s:1259   .text:0000000000000524 .L0 
     /tmp/ccpiwlbU.s:1260   .text:0000000000000524 .L0 
     /tmp/ccpiwlbU.s:1270   .text:0000000000000538 .L0 
     /tmp/ccpiwlbU.s:1276   .text:0000000000000544 .L0 
     /tmp/ccpiwlbU.s:1278   .text:0000000000000548 .L0 
     /tmp/ccpiwlbU.s:1279   .text:0000000000000548 .L0 
     /tmp/ccpiwlbU.s:1284   .text:0000000000000558 .L0 
     /tmp/ccpiwlbU.s:1285   .text:0000000000000558 .L0 
     /tmp/ccpiwlbU.s:1297   .text:0000000000000568 .L0 
     /tmp/ccpiwlbU.s:1301   .text:0000000000000578 .L0 
     /tmp/ccpiwlbU.s:1302   .text:0000000000000578 .L0 
     /tmp/ccpiwlbU.s:1307   .text:0000000000000588 .L0 
     /tmp/ccpiwlbU.s:1308   .text:0000000000000588 .L0 
     /tmp/ccpiwlbU.s:1318   .text:000000000000059c .L0 
     /tmp/ccpiwlbU.s:1324   .text:00000000000005a8 .L0 
     /tmp/ccpiwlbU.s:1326   .text:00000000000005ac .L0 
     /tmp/ccpiwlbU.s:1327   .text:00000000000005ac .L0 
     /tmp/ccpiwlbU.s:1332   .text:00000000000005bc .L0 
     /tmp/ccpiwlbU.s:1333   .text:00000000000005bc .L0 
     /tmp/ccpiwlbU.s:1345   .text:00000000000005cc .L0 
     /tmp/ccpiwlbU.s:1349   .text:00000000000005dc .L0 
     /tmp/ccpiwlbU.s:1350   .text:00000000000005dc .L0 
     /tmp/ccpiwlbU.s:1355   .text:00000000000005ec .L0 
     /tmp/ccpiwlbU.s:1356   .text:00000000000005ec .L0 
GAS LISTING /tmp/ccpiwlbU.s 			page 48


     /tmp/ccpiwlbU.s:1366   .text:0000000000000600 .L0 
     /tmp/ccpiwlbU.s:1372   .text:000000000000060c .L0 
     /tmp/ccpiwlbU.s:1374   .text:0000000000000610 .L0 
     /tmp/ccpiwlbU.s:1375   .text:0000000000000610 .L0 
     /tmp/ccpiwlbU.s:1380   .text:0000000000000620 .L0 
     /tmp/ccpiwlbU.s:1381   .text:0000000000000620 .L0 
     /tmp/ccpiwlbU.s:1393   .text:0000000000000630 .L0 
     /tmp/ccpiwlbU.s:1397   .text:0000000000000640 .L0 
     /tmp/ccpiwlbU.s:1398   .text:0000000000000640 .L0 
     /tmp/ccpiwlbU.s:1403   .text:0000000000000650 .L0 
     /tmp/ccpiwlbU.s:1404   .text:0000000000000650 .L0 
     /tmp/ccpiwlbU.s:1414   .text:0000000000000664 .L0 
     /tmp/ccpiwlbU.s:1420   .text:0000000000000670 .L0 
     /tmp/ccpiwlbU.s:1422   .text:0000000000000674 .L0 
     /tmp/ccpiwlbU.s:1423   .text:0000000000000674 .L0 
     /tmp/ccpiwlbU.s:1429   .text:0000000000000684 .L0 
     /tmp/ccpiwlbU.s:1433   .text:0000000000000688 .L0 
     /tmp/ccpiwlbU.s:1436   .text:0000000000000690 .L0 
     /tmp/ccpiwlbU.s:1437   .text:0000000000000690 .L0 
     /tmp/ccpiwlbU.s:1441   .text:00000000000006a0 .L0 
     /tmp/ccpiwlbU.s:1442   .text:00000000000006a0 .L0 
     /tmp/ccpiwlbU.s:1446   .text:00000000000006ac .L0 
     /tmp/ccpiwlbU.s:1450   .text:00000000000006b8 .L0 
     /tmp/ccpiwlbU.s:1451   .text:00000000000006b8 .L0 
     /tmp/ccpiwlbU.s:1455   .text:00000000000006c8 .L0 
     /tmp/ccpiwlbU.s:1462   .text:00000000000006d0 .L0 
     /tmp/ccpiwlbU.s:1463   .text:00000000000006d0 .L0 
     /tmp/ccpiwlbU.s:1467   .text:00000000000006d8 .L0 
     /tmp/ccpiwlbU.s:1468   .text:00000000000006d8 .L0 
     /tmp/ccpiwlbU.s:1471   .text:00000000000006e4 .L0 
     /tmp/ccpiwlbU.s:1474   .text:00000000000006f0 .L0 
     /tmp/ccpiwlbU.s:1477   .text:00000000000006fc .L0 
     /tmp/ccpiwlbU.s:1481   .text:0000000000000708 .L0 
     /tmp/ccpiwlbU.s:1487   .text:0000000000000710 .L0 
     /tmp/ccpiwlbU.s:1491   .text:0000000000000714 .L0 
     /tmp/ccpiwlbU.s:1494   .text:000000000000071c .L0 
     /tmp/ccpiwlbU.s:1497   .text:0000000000000720 .L0 
     /tmp/ccpiwlbU.s:1498   .text:0000000000000720 .L0 
     /tmp/ccpiwlbU.s:1500   .text:0000000000000724 .L0 
     /tmp/ccpiwlbU.s:1510   .text:0000000000000738 .L0 
     /tmp/ccpiwlbU.s:1519   .text:0000000000000754 .L0 
     /tmp/ccpiwlbU.s:1528   .text:0000000000000770 .L0 
     /tmp/ccpiwlbU.s:1537   .text:000000000000078c .L0 
     /tmp/ccpiwlbU.s:1546   .text:00000000000007a4 .L0 
     /tmp/ccpiwlbU.s:1547   .text:00000000000007a8 .L0 
     /tmp/ccpiwlbU.s:1549   .text:00000000000007ac .L0 
     /tmp/ccpiwlbU.s:1550   .text:00000000000007ac .L0 
     /tmp/ccpiwlbU.s:1552   .text:00000000000007b0 .L0 
     /tmp/ccpiwlbU.s:1555   .text:00000000000007b4 .L0 
     /tmp/ccpiwlbU.s:1557   .text:00000000000007b8 .L0 
     /tmp/ccpiwlbU.s:1559   .text:00000000000007bc .L0 
     /tmp/ccpiwlbU.s:1609   .text:00000000000007bc _Z8userMainv
     /tmp/ccpiwlbU.s:1613   .text:00000000000007bc .L0 
     /tmp/ccpiwlbU.s:1614   .text:00000000000007bc .L0 
     /tmp/ccpiwlbU.s:1615   .text:00000000000007c0 .L0 
     /tmp/ccpiwlbU.s:1618   .text:00000000000007c8 .L0 
     /tmp/ccpiwlbU.s:1619   .text:00000000000007c8 .L0 
GAS LISTING /tmp/ccpiwlbU.s 			page 49


     /tmp/ccpiwlbU.s:1621   .text:00000000000007cc .L0 
     /tmp/ccpiwlbU.s:1623   .text:00000000000007cc .L0 
     /tmp/ccpiwlbU.s:1624   .text:00000000000007cc .L0 
     /tmp/ccpiwlbU.s:1627   .text:00000000000007d4 .L0 
     /tmp/ccpiwlbU.s:1628   .text:00000000000007d8 .L0 
     /tmp/ccpiwlbU.s:1630   .text:00000000000007dc .L0 
     /tmp/ccpiwlbU.s:1631   .text:00000000000007dc .L0 
     /tmp/ccpiwlbU.s:1633   .text:00000000000007e0 .L0 
     /tmp/ccpiwlbU.s:1635   .text:00000000000007e4 .L0 
     /tmp/ccpiwlbU.s:1702   .bss:0000000000000003 finishedD
     /tmp/ccpiwlbU.s:1698   .bss:0000000000000002 finishedC
     /tmp/ccpiwlbU.s:1694   .bss:0000000000000001 finishedB
     /tmp/ccpiwlbU.s:1690   .bss:0000000000000000 finishedA
     /tmp/ccpiwlbU.s:1687   .bss:0000000000000000 .LANCHOR0
     /tmp/ccpiwlbU.s:44     .text._ZN7WorkerAD2Ev:0000000000000034 .L0 
     /tmp/ccpiwlbU.s:91     .text._ZN7WorkerAD0Ev:000000000000004c .L0 
     /tmp/ccpiwlbU.s:128    .text._ZN7WorkerBD2Ev:0000000000000034 .L0 
     /tmp/ccpiwlbU.s:175    .text._ZN7WorkerBD0Ev:000000000000004c .L0 
     /tmp/ccpiwlbU.s:212    .text._ZN7WorkerCD2Ev:0000000000000034 .L0 
     /tmp/ccpiwlbU.s:259    .text._ZN7WorkerCD0Ev:000000000000004c .L0 
     /tmp/ccpiwlbU.s:296    .text._ZN7WorkerDD2Ev:0000000000000034 .L0 
     /tmp/ccpiwlbU.s:343    .text._ZN7WorkerDD0Ev:000000000000004c .L0 
     /tmp/ccpiwlbU.s:1709   .text:00000000000007e4 .L0 
     /tmp/ccpiwlbU.s:585    .text._ZN7WorkerA3runEv:000000000000002c .L0 
     /tmp/ccpiwlbU.s:756    .text._ZN7WorkerB3runEv:000000000000002c .L0 
     /tmp/ccpiwlbU.s:985    .text._ZN7WorkerC3runEv:000000000000002c .L0 
     /tmp/ccpiwlbU.s:1188   .text._ZN7WorkerD3runEv:000000000000002c .L0 
     /tmp/ccpiwlbU.s:417    .rodata.str1.8:0000000000000000 .LC0
     /tmp/ccpiwlbU.s:500    .text:00000000000000d0 .L0 
     /tmp/ccpiwlbU.s:420    .rodata.str1.8:0000000000000008 .LC1
     /tmp/ccpiwlbU.s:512    .text:00000000000000f4 .L0 
     /tmp/ccpiwlbU.s:423    .rodata.str1.8:0000000000000010 .LC2
     /tmp/ccpiwlbU.s:527    .text:000000000000010c .L0 
     /tmp/ccpiwlbU.s:533    .text:0000000000000120 .L0 
     /tmp/ccpiwlbU.s:587    .rodata.str1.8:0000000000000020 .LC3
     /tmp/ccpiwlbU.s:667    .text:000000000000019c .L0 
     /tmp/ccpiwlbU.s:679    .text:00000000000001c0 .L0 
     /tmp/ccpiwlbU.s:590    .rodata.str1.8:0000000000000028 .LC4
     /tmp/ccpiwlbU.s:694    .text:00000000000001d8 .L0 
     /tmp/ccpiwlbU.s:700    .text:00000000000001ec .L0 
     /tmp/ccpiwlbU.s:758    .rodata.str1.8:0000000000000038 .LC5
     /tmp/ccpiwlbU.s:799    .text:0000000000000234 .L0 
     /tmp/ccpiwlbU.s:811    .text:0000000000000258 .L0 
     /tmp/ccpiwlbU.s:761    .rodata.str1.8:0000000000000040 .LC6
     /tmp/ccpiwlbU.s:826    .text:0000000000000278 .L0 
     /tmp/ccpiwlbU.s:764    .rodata.str1.8:0000000000000050 .LC7
     /tmp/ccpiwlbU.s:851    .text:0000000000000298 .L0 
     /tmp/ccpiwlbU.s:863    .text:00000000000002bc .L0 
     /tmp/ccpiwlbU.s:767    .rodata.str1.8:0000000000000058 .LC8
     /tmp/ccpiwlbU.s:875    .text:00000000000002dc .L0 
     /tmp/ccpiwlbU.s:888    .text:0000000000000300 .L0 
     /tmp/ccpiwlbU.s:895    .text:0000000000000314 .L0 
     /tmp/ccpiwlbU.s:907    .text:0000000000000338 .L0 
     /tmp/ccpiwlbU.s:922    .text:0000000000000358 .L0 
     /tmp/ccpiwlbU.s:928    .text:000000000000036c .L0 
     /tmp/ccpiwlbU.s:987    .rodata.str1.8:0000000000000068 .LC9
     /tmp/ccpiwlbU.s:1028   .text:00000000000003b4 .L0 
GAS LISTING /tmp/ccpiwlbU.s 			page 50


     /tmp/ccpiwlbU.s:1040   .text:00000000000003d8 .L0 
     /tmp/ccpiwlbU.s:990    .rodata.str1.8:0000000000000070 .LC10
     /tmp/ccpiwlbU.s:1055   .text:00000000000003f8 .L0 
     /tmp/ccpiwlbU.s:993    .rodata.str1.8:0000000000000080 .LC11
     /tmp/ccpiwlbU.s:1078   .text:0000000000000424 .L0 
     /tmp/ccpiwlbU.s:1091   .text:0000000000000448 .L0 
     /tmp/ccpiwlbU.s:1098   .text:000000000000045c .L0 
     /tmp/ccpiwlbU.s:1110   .text:0000000000000480 .L0 
     /tmp/ccpiwlbU.s:996    .rodata.str1.8:0000000000000090 .LC12
     /tmp/ccpiwlbU.s:1125   .text:00000000000004a0 .L0 
     /tmp/ccpiwlbU.s:1131   .text:00000000000004b4 .L0 
     /tmp/ccpiwlbU.s:1249   .text:0000000000000504 .L0 
     /tmp/ccpiwlbU.s:1190   .rodata.str1.8:00000000000000a0 .LC13
     /tmp/ccpiwlbU.s:1254   .text:0000000000000514 .L0 
     /tmp/ccpiwlbU.s:1270   .text:0000000000000538 .L0 
     /tmp/ccpiwlbU.s:1193   .rodata.str1.8:00000000000000b0 .LC14
     /tmp/ccpiwlbU.s:1279   .text:0000000000000548 .L0 
     /tmp/ccpiwlbU.s:1297   .text:0000000000000568 .L0 
     /tmp/ccpiwlbU.s:1302   .text:0000000000000578 .L0 
     /tmp/ccpiwlbU.s:1318   .text:000000000000059c .L0 
     /tmp/ccpiwlbU.s:1196   .rodata.str1.8:00000000000000c8 .LC15
     /tmp/ccpiwlbU.s:1327   .text:00000000000005ac .L0 
     /tmp/ccpiwlbU.s:1345   .text:00000000000005cc .L0 
     /tmp/ccpiwlbU.s:1350   .text:00000000000005dc .L0 
     /tmp/ccpiwlbU.s:1366   .text:0000000000000600 .L0 
     /tmp/ccpiwlbU.s:1199   .rodata.str1.8:00000000000000e0 .LC16
     /tmp/ccpiwlbU.s:1375   .text:0000000000000610 .L0 
     /tmp/ccpiwlbU.s:1393   .text:0000000000000630 .L0 
     /tmp/ccpiwlbU.s:1398   .text:0000000000000640 .L0 
     /tmp/ccpiwlbU.s:1414   .text:0000000000000664 .L0 
     /tmp/ccpiwlbU.s:1202   .rodata.str1.8:00000000000000f8 .LC17
     /tmp/ccpiwlbU.s:1423   .text:0000000000000674 .L0 
     /tmp/ccpiwlbU.s:1205   .rodata.str1.8:0000000000000110 .LC18
     /tmp/ccpiwlbU.s:1437   .text:0000000000000690 .L0 
     /tmp/ccpiwlbU.s:1208   .rodata.str1.8:0000000000000128 .LC19
     /tmp/ccpiwlbU.s:1451   .text:00000000000006b8 .L0 
     /tmp/ccpiwlbU.s:1468   .text:00000000000006d8 .L0 
     /tmp/ccpiwlbU.s:1471   .text:00000000000006e4 .L0 
     /tmp/ccpiwlbU.s:1474   .text:00000000000006f0 .L0 
     /tmp/ccpiwlbU.s:1477   .text:00000000000006fc .L0 
     /tmp/ccpiwlbU.s:388    .text:0000000000000050 .L17
     /tmp/ccpiwlbU.s:405    .text:0000000000000068 .L22
     /tmp/ccpiwlbU.s:375    .text:0000000000000030 .L19
     /tmp/ccpiwlbU.s:493    .text:00000000000000c8 .L29
     /tmp/ccpiwlbU.s:485    .text:00000000000000c4 .L25
     /tmp/ccpiwlbU.s:453    .text:0000000000000094 .L26
     /tmp/ccpiwlbU.s:474    .text:00000000000000b0 .L27
     /tmp/ccpiwlbU.s:521    .text:000000000000010c .L24
     /tmp/ccpiwlbU.s:465    .text:00000000000000a0 .L28
     /tmp/ccpiwlbU.s:660    .text:0000000000000194 .L39
     /tmp/ccpiwlbU.s:652    .text:0000000000000190 .L35
     /tmp/ccpiwlbU.s:620    .text:0000000000000160 .L36
     /tmp/ccpiwlbU.s:641    .text:000000000000017c .L37
     /tmp/ccpiwlbU.s:688    .text:00000000000001d8 .L34
     /tmp/ccpiwlbU.s:632    .text:000000000000016c .L38
     /tmp/ccpiwlbU.s:819    .text:0000000000000270 .L45
     /tmp/ccpiwlbU.s:796    .text:0000000000000234 .L49
GAS LISTING /tmp/ccpiwlbU.s 			page 51


     /tmp/ccpiwlbU.s:915    .text:0000000000000350 .L47
     /tmp/ccpiwlbU.s:892    .text:0000000000000314 .L50
     /tmp/ccpiwlbU.s:1048   .text:00000000000003f0 .L55
     /tmp/ccpiwlbU.s:1025   .text:00000000000003b4 .L59
     /tmp/ccpiwlbU.s:1118   .text:0000000000000498 .L57
     /tmp/ccpiwlbU.s:1095   .text:000000000000045c .L60
     /tmp/ccpiwlbU.s:1465   .text:00000000000006d8 .L64
     /tmp/ccpiwlbU.s:1430   .text:0000000000000688 .L65
     /tmp/ccpiwlbU.s:1459   .text:00000000000006d0 .L66
     /tmp/ccpiwlbU.s:1489   .text:0000000000000714 .L67
     /tmp/ccpiwlbU.s:1544   .text:00000000000007a4 .L63
     /tmp/ccpiwlbU.s:1485   .text:0000000000000710 .L69
     /tmp/ccpiwlbU.s:26     .text._ZN7WorkerAD2Ev:0000000000000010 .L0 
     /tmp/ccpiwlbU.s:68     .text._ZN7WorkerAD0Ev:0000000000000018 .L0 
     /tmp/ccpiwlbU.s:110    .text._ZN7WorkerBD2Ev:0000000000000010 .L0 
     /tmp/ccpiwlbU.s:152    .text._ZN7WorkerBD0Ev:0000000000000018 .L0 
     /tmp/ccpiwlbU.s:194    .text._ZN7WorkerCD2Ev:0000000000000010 .L0 
     /tmp/ccpiwlbU.s:236    .text._ZN7WorkerCD0Ev:0000000000000018 .L0 
     /tmp/ccpiwlbU.s:278    .text._ZN7WorkerDD2Ev:0000000000000010 .L0 
     /tmp/ccpiwlbU.s:320    .text._ZN7WorkerDD0Ev:0000000000000018 .L0 
     /tmp/ccpiwlbU.s:1236   .text:00000000000004f8 .LEHB0
     /tmp/ccpiwlbU.s:1215   .text:00000000000004dc .LFB57
     /tmp/ccpiwlbU.s:1239   .text:0000000000000500 .LEHE0
     /tmp/ccpiwlbU.s:1255   .text:000000000000051c .LEHB1
     /tmp/ccpiwlbU.s:1265   .text:0000000000000538 .LEHE1
     /tmp/ccpiwlbU.s:1506   .text:0000000000000734 .L75
     /tmp/ccpiwlbU.s:1280   .text:0000000000000550 .LEHB2
     /tmp/ccpiwlbU.s:1288   .text:0000000000000564 .LEHE2
     /tmp/ccpiwlbU.s:1303   .text:0000000000000580 .LEHB3
     /tmp/ccpiwlbU.s:1313   .text:000000000000059c .LEHE3
     /tmp/ccpiwlbU.s:1516   .text:0000000000000750 .L76
     /tmp/ccpiwlbU.s:1328   .text:00000000000005b4 .LEHB4
     /tmp/ccpiwlbU.s:1336   .text:00000000000005c8 .LEHE4
     /tmp/ccpiwlbU.s:1351   .text:00000000000005e4 .LEHB5
     /tmp/ccpiwlbU.s:1361   .text:0000000000000600 .LEHE5
     /tmp/ccpiwlbU.s:1525   .text:000000000000076c .L77
     /tmp/ccpiwlbU.s:1376   .text:0000000000000618 .LEHB6
     /tmp/ccpiwlbU.s:1384   .text:000000000000062c .LEHE6
     /tmp/ccpiwlbU.s:1399   .text:0000000000000648 .LEHB7
     /tmp/ccpiwlbU.s:1409   .text:0000000000000664 .LEHE7
     /tmp/ccpiwlbU.s:1534   .text:0000000000000788 .L78
     /tmp/ccpiwlbU.s:1424   .text:000000000000067c .LEHB8
     /tmp/ccpiwlbU.s:1543   .text:00000000000007a4 .LEHE8
     /tmp/ccpiwlbU.s:4148   .debug_abbrev:0000000000000000 .Ldebug_abbrev0
     /tmp/ccpiwlbU.s:5869   .debug_str:0000000000000553 .LASF105
     /tmp/ccpiwlbU.s:5705   .debug_str:0000000000000098 .LASF106
     /tmp/ccpiwlbU.s:5743   .debug_str:00000000000001b2 .LASF107
     /tmp/ccpiwlbU.s:5641   .debug_ranges:0000000000000000 .Ldebug_ranges0
     /tmp/ccpiwlbU.s:5683   .debug_line:0000000000000000 .Ldebug_line0
     /tmp/ccpiwlbU.s:5757   .debug_str:000000000000022a .LASF0
     /tmp/ccpiwlbU.s:5773   .debug_str:00000000000002c5 .LASF1
     /tmp/ccpiwlbU.s:5829   .debug_str:0000000000000456 .LASF2
     /tmp/ccpiwlbU.s:5727   .debug_str:0000000000000140 .LASF3
     /tmp/ccpiwlbU.s:5833   .debug_str:000000000000046e .LASF4
     /tmp/ccpiwlbU.s:5763   .debug_str:0000000000000258 .LASF5
     /tmp/ccpiwlbU.s:5693   .debug_str:000000000000003f .LASF6
     /tmp/ccpiwlbU.s:5807   .debug_str:00000000000003d6 .LASF7
GAS LISTING /tmp/ccpiwlbU.s 			page 52


     /tmp/ccpiwlbU.s:5769   .debug_str:00000000000002a0 .LASF8
     /tmp/ccpiwlbU.s:5739   .debug_str:0000000000000181 .LASF9
     /tmp/ccpiwlbU.s:5747   .debug_str:00000000000001e8 .LASF10
     /tmp/ccpiwlbU.s:5709   .debug_str:00000000000000b9 .LASF11
     /tmp/ccpiwlbU.s:5733   .debug_str:000000000000015f .LASF12
     /tmp/ccpiwlbU.s:5715   .debug_str:00000000000000ea .LASF13
     /tmp/ccpiwlbU.s:5707   .debug_str:00000000000000a9 .LASF14
     /tmp/ccpiwlbU.s:5859   .debug_str:000000000000051c .LASF15
     /tmp/ccpiwlbU.s:5723   .debug_str:0000000000000123 .LASF16
     /tmp/ccpiwlbU.s:5851   .debug_str:00000000000004d9 .LASF17
     /tmp/ccpiwlbU.s:5783   .debug_str:0000000000000318 .LASF18
     /tmp/ccpiwlbU.s:5863   .debug_str:0000000000000532 .LASF19
     /tmp/ccpiwlbU.s:5831   .debug_str:0000000000000464 .LASF20
     /tmp/ccpiwlbU.s:5789   .debug_str:000000000000033c .LASF21
     /tmp/ccpiwlbU.s:5835   .debug_str:0000000000000475 .LASF22
     /tmp/ccpiwlbU.s:5837   .debug_str:000000000000047f .LASF23
     /tmp/ccpiwlbU.s:5901   .debug_str:0000000000000705 .LASF24
     /tmp/ccpiwlbU.s:5805   .debug_str:00000000000003c4 .LASF25
     /tmp/ccpiwlbU.s:5729   .debug_str:0000000000000146 .LASF26
     /tmp/ccpiwlbU.s:5817   .debug_str:0000000000000416 .LASF27
     /tmp/ccpiwlbU.s:5883   .debug_str:000000000000068a .LASF42
     /tmp/ccpiwlbU.s:5701   .debug_str:0000000000000078 .LASF32
     /tmp/ccpiwlbU.s:5771   .debug_str:00000000000002b3 .LASF29
     /tmp/ccpiwlbU.s:5827   .debug_str:000000000000044d .LASF28
     /tmp/ccpiwlbU.s:5887   .debug_str:00000000000006b2 .LASF47
     /tmp/ccpiwlbU.s:5749   .debug_str:00000000000001f6 .LASF31
     /tmp/ccpiwlbU.s:5803   .debug_str:00000000000003b3 .LASF30
     /tmp/ccpiwlbU.s:5759   .debug_str:0000000000000237 .LASF33
     /tmp/ccpiwlbU.s:5689   .debug_str:0000000000000022 .LASF34
     /tmp/ccpiwlbU.s:5893   .debug_str:00000000000006e7 .LASF36
     /tmp/ccpiwlbU.s:5889   .debug_str:00000000000006c2 .LASF35
     /tmp/ccpiwlbU.s:5721   .debug_str:000000000000011a .LASF37
     /tmp/ccpiwlbU.s:5899   .debug_str:00000000000006fd .LASF38
     /tmp/ccpiwlbU.s:5699   .debug_str:0000000000000066 .LASF39
     /tmp/ccpiwlbU.s:5797   .debug_str:0000000000000389 .LASF40
     /tmp/ccpiwlbU.s:5815   .debug_str:000000000000040a .LASF41
     /tmp/ccpiwlbU.s:5765   .debug_str:000000000000026a .LASF43
     /tmp/ccpiwlbU.s:5781   .debug_str:0000000000000308 .LASF44
     /tmp/ccpiwlbU.s:5879   .debug_str:000000000000065c .LASF45
     /tmp/ccpiwlbU.s:5825   .debug_str:0000000000000444 .LASF46
     /tmp/ccpiwlbU.s:5753   .debug_str:000000000000020d .LASF48
     /tmp/ccpiwlbU.s:5897   .debug_str:00000000000006f5 .LASF49
     /tmp/ccpiwlbU.s:5795   .debug_str:0000000000000377 .LASF50
     /tmp/ccpiwlbU.s:5875   .debug_str:0000000000000637 .LASF51
     /tmp/ccpiwlbU.s:5813   .debug_str:00000000000003fe .LASF52
     /tmp/ccpiwlbU.s:5791   .debug_str:0000000000000346 .LASF53
     /tmp/ccpiwlbU.s:5873   .debug_str:0000000000000627 .LASF54
     /tmp/ccpiwlbU.s:5761   .debug_str:0000000000000246 .LASF55
     /tmp/ccpiwlbU.s:5823   .debug_str:000000000000043b .LASF56
     /tmp/ccpiwlbU.s:5845   .debug_str:00000000000004b1 .LASF57
     /tmp/ccpiwlbU.s:5895   .debug_str:00000000000006ed .LASF58
     /tmp/ccpiwlbU.s:5685   .debug_str:0000000000000000 .LASF59
     /tmp/ccpiwlbU.s:5711   .debug_str:00000000000000c8 .LASF60
     /tmp/ccpiwlbU.s:5811   .debug_str:00000000000003f2 .LASF61
     /tmp/ccpiwlbU.s:5881   .debug_str:000000000000066e .LASF62
     /tmp/ccpiwlbU.s:5719   .debug_str:000000000000010a .LASF63
     /tmp/ccpiwlbU.s:5877   .debug_str:000000000000064a .LASF64
GAS LISTING /tmp/ccpiwlbU.s 			page 53


     /tmp/ccpiwlbU.s:5821   .debug_str:0000000000000432 .LASF65
     /tmp/ccpiwlbU.s:5703   .debug_str:0000000000000088 .LASF66
     /tmp/ccpiwlbU.s:5735   .debug_str:000000000000016e .LASF67
     /tmp/ccpiwlbU.s:5691   .debug_str:0000000000000035 .LASF68
     /tmp/ccpiwlbU.s:5867   .debug_str:0000000000000543 .LASF69
     /tmp/ccpiwlbU.s:49     .text._ZN7WorkerAD0Ev:0000000000000000 .LFB74
     /tmp/ccpiwlbU.s:89     .text._ZN7WorkerAD0Ev:000000000000004c .LFE74
     /tmp/ccpiwlbU.s:4985   .debug_loc:0000000000000000 .LLST1
     /tmp/ccpiwlbU.s:65     .text._ZN7WorkerAD0Ev:0000000000000018 .LBB29
     /tmp/ccpiwlbU.s:73     .text._ZN7WorkerAD0Ev:000000000000002c .LBE29
     /tmp/ccpiwlbU.s:5003   .debug_loc:000000000000004c .LLST2
     /tmp/ccpiwlbU.s:71     .text._ZN7WorkerAD0Ev:000000000000002c .LVL4
     /tmp/ccpiwlbU.s:76     .text._ZN7WorkerAD0Ev:0000000000000038 .LVL5
     /tmp/ccpiwlbU.s:5779   .debug_str:00000000000002f8 .LASF70
     /tmp/ccpiwlbU.s:11     .text._ZN7WorkerAD2Ev:0000000000000000 .LFB72
     /tmp/ccpiwlbU.s:40     .text._ZN7WorkerAD2Ev:0000000000000034 .LFE72
     /tmp/ccpiwlbU.s:5014   .debug_loc:0000000000000082 .LLST0
     /tmp/ccpiwlbU.s:29     .text._ZN7WorkerAD2Ev:0000000000000024 .LVL1
     /tmp/ccpiwlbU.s:5775   .debug_str:00000000000002d8 .LASF71
     /tmp/ccpiwlbU.s:133    .text._ZN7WorkerBD0Ev:0000000000000000 .LFB70
     /tmp/ccpiwlbU.s:173    .text._ZN7WorkerBD0Ev:000000000000004c .LFE70
     /tmp/ccpiwlbU.s:5028   .debug_loc:00000000000000bb .LLST4
     /tmp/ccpiwlbU.s:149    .text._ZN7WorkerBD0Ev:0000000000000018 .LBB32
     /tmp/ccpiwlbU.s:157    .text._ZN7WorkerBD0Ev:000000000000002c .LBE32
     /tmp/ccpiwlbU.s:5046   .debug_loc:0000000000000107 .LLST5
     /tmp/ccpiwlbU.s:155    .text._ZN7WorkerBD0Ev:000000000000002c .LVL11
     /tmp/ccpiwlbU.s:160    .text._ZN7WorkerBD0Ev:0000000000000038 .LVL12
     /tmp/ccpiwlbU.s:5697   .debug_str:0000000000000056 .LASF72
     /tmp/ccpiwlbU.s:96     .text._ZN7WorkerBD2Ev:0000000000000000 .LFB68
     /tmp/ccpiwlbU.s:124    .text._ZN7WorkerBD2Ev:0000000000000034 .LFE68
     /tmp/ccpiwlbU.s:5057   .debug_loc:000000000000013d .LLST3
     /tmp/ccpiwlbU.s:113    .text._ZN7WorkerBD2Ev:0000000000000024 .LVL8
     /tmp/ccpiwlbU.s:5695   .debug_str:0000000000000046 .LASF73
     /tmp/ccpiwlbU.s:217    .text._ZN7WorkerCD0Ev:0000000000000000 .LFB66
     /tmp/ccpiwlbU.s:257    .text._ZN7WorkerCD0Ev:000000000000004c .LFE66
     /tmp/ccpiwlbU.s:5071   .debug_loc:0000000000000176 .LLST7
     /tmp/ccpiwlbU.s:233    .text._ZN7WorkerCD0Ev:0000000000000018 .LBB35
     /tmp/ccpiwlbU.s:241    .text._ZN7WorkerCD0Ev:000000000000002c .LBE35
     /tmp/ccpiwlbU.s:5089   .debug_loc:00000000000001c2 .LLST8
     /tmp/ccpiwlbU.s:239    .text._ZN7WorkerCD0Ev:000000000000002c .LVL18
     /tmp/ccpiwlbU.s:244    .text._ZN7WorkerCD0Ev:0000000000000038 .LVL19
     /tmp/ccpiwlbU.s:5843   .debug_str:00000000000004a1 .LASF74
     /tmp/ccpiwlbU.s:180    .text._ZN7WorkerCD2Ev:0000000000000000 .LFB64
     /tmp/ccpiwlbU.s:208    .text._ZN7WorkerCD2Ev:0000000000000034 .LFE64
     /tmp/ccpiwlbU.s:5100   .debug_loc:00000000000001f8 .LLST6
     /tmp/ccpiwlbU.s:197    .text._ZN7WorkerCD2Ev:0000000000000024 .LVL15
     /tmp/ccpiwlbU.s:5839   .debug_str:0000000000000489 .LASF75
     /tmp/ccpiwlbU.s:301    .text._ZN7WorkerDD0Ev:0000000000000000 .LFB62
     /tmp/ccpiwlbU.s:341    .text._ZN7WorkerDD0Ev:000000000000004c .LFE62
     /tmp/ccpiwlbU.s:5114   .debug_loc:0000000000000231 .LLST10
     /tmp/ccpiwlbU.s:317    .text._ZN7WorkerDD0Ev:0000000000000018 .LBB38
     /tmp/ccpiwlbU.s:325    .text._ZN7WorkerDD0Ev:000000000000002c .LBE38
     /tmp/ccpiwlbU.s:5132   .debug_loc:000000000000027d .LLST11
     /tmp/ccpiwlbU.s:323    .text._ZN7WorkerDD0Ev:000000000000002c .LVL25
     /tmp/ccpiwlbU.s:328    .text._ZN7WorkerDD0Ev:0000000000000038 .LVL26
     /tmp/ccpiwlbU.s:5751   .debug_str:00000000000001fd .LASF76
     /tmp/ccpiwlbU.s:264    .text._ZN7WorkerDD2Ev:0000000000000000 .LFB60
GAS LISTING /tmp/ccpiwlbU.s 			page 54


     /tmp/ccpiwlbU.s:292    .text._ZN7WorkerDD2Ev:0000000000000034 .LFE60
     /tmp/ccpiwlbU.s:5143   .debug_loc:00000000000002b3 .LLST9
     /tmp/ccpiwlbU.s:281    .text._ZN7WorkerDD2Ev:0000000000000024 .LVL22
     /tmp/ccpiwlbU.s:5847   .debug_str:00000000000004c1 .LASF77
     /tmp/ccpiwlbU.s:5755   .debug_str:000000000000021d .LASF79
     /tmp/ccpiwlbU.s:1610   .text:00000000000007bc .LFB58
     /tmp/ccpiwlbU.s:1636   .text:00000000000007e4 .LFE58
     /tmp/ccpiwlbU.s:1625   .text:00000000000007d4 .LVL174
     /tmp/ccpiwlbU.s:5793   .debug_str:0000000000000362 .LASF78
     /tmp/ccpiwlbU.s:5767   .debug_str:0000000000000286 .LASF80
     /tmp/ccpiwlbU.s:1560   .text:00000000000007bc .LFE57
     /tmp/ccpiwlbU.s:5841   .debug_str:0000000000000499 .LASF81
     /tmp/ccpiwlbU.s:1427   .text:0000000000000684 .LBB102
     /tmp/ccpiwlbU.s:1460   .text:00000000000006d0 .LBE102
     /tmp/ccpiwlbU.s:5157   .debug_loc:00000000000002ec .LLST44
     /tmp/ccpiwlbU.s:1439   .text:00000000000006a0 .LVL153
     /tmp/ccpiwlbU.s:1448   .text:00000000000006b8 .LVL154
     /tmp/ccpiwlbU.s:1453   .text:00000000000006c8 .LVL155
     /tmp/ccpiwlbU.s:1479   .text:0000000000000708 .LBB103
     /tmp/ccpiwlbU.s:1508   .text:0000000000000738 .LBE103
     /tmp/ccpiwlbU.s:5725   .debug_str:0000000000000139 .LASF82
     /tmp/ccpiwlbU.s:5168   .debug_loc:0000000000000322 .LLST45
     /tmp/ccpiwlbU.s:5853   .debug_str:00000000000004ef .LASF83
     /tmp/ccpiwlbU.s:5865   .debug_str:0000000000000537 .LASF108
     /tmp/ccpiwlbU.s:5175   .debug_loc:0000000000000345 .LLST46
     /tmp/ccpiwlbU.s:5861   .debug_str:0000000000000528 .LASF84
     /tmp/ccpiwlbU.s:1242   .text:0000000000000504 .LBB82
     /tmp/ccpiwlbU.s:1274   .text:0000000000000544 .LBE82
     /tmp/ccpiwlbU.s:5186   .debug_loc:000000000000037b .LLST36
     /tmp/ccpiwlbU.s:1244   .text:0000000000000504 .LBB84
     /tmp/ccpiwlbU.s:1268   .text:0000000000000538 .LBE84
     /tmp/ccpiwlbU.s:5197   .debug_loc:00000000000003b1 .LLST37
     /tmp/ccpiwlbU.s:1257   .text:0000000000000524 .LVL130
     /tmp/ccpiwlbU.s:1264   .text:0000000000000538 .LVL131
     /tmp/ccpiwlbU.s:1291   .text:0000000000000568 .LBB87
     /tmp/ccpiwlbU.s:1322   .text:00000000000005a8 .LBE87
     /tmp/ccpiwlbU.s:5208   .debug_loc:00000000000003e7 .LLST38
     /tmp/ccpiwlbU.s:1293   .text:0000000000000568 .LBB89
     /tmp/ccpiwlbU.s:1316   .text:000000000000059c .LBE89
     /tmp/ccpiwlbU.s:5219   .debug_loc:000000000000041d .LLST39
     /tmp/ccpiwlbU.s:1305   .text:0000000000000588 .LVL136
     /tmp/ccpiwlbU.s:1312   .text:000000000000059c .LVL137
     /tmp/ccpiwlbU.s:1339   .text:00000000000005cc .LBB92
     /tmp/ccpiwlbU.s:1370   .text:000000000000060c .LBE92
     /tmp/ccpiwlbU.s:5230   .debug_loc:0000000000000453 .LLST40
     /tmp/ccpiwlbU.s:1341   .text:00000000000005cc .LBB94
     /tmp/ccpiwlbU.s:1364   .text:0000000000000600 .LBE94
     /tmp/ccpiwlbU.s:5241   .debug_loc:0000000000000489 .LLST41
     /tmp/ccpiwlbU.s:1353   .text:00000000000005ec .LVL142
     /tmp/ccpiwlbU.s:1360   .text:0000000000000600 .LVL143
     /tmp/ccpiwlbU.s:1387   .text:0000000000000630 .LBB97
     /tmp/ccpiwlbU.s:1418   .text:0000000000000670 .LBE97
     /tmp/ccpiwlbU.s:5252   .debug_loc:00000000000004bf .LLST42
     /tmp/ccpiwlbU.s:1389   .text:0000000000000630 .LBB99
     /tmp/ccpiwlbU.s:1412   .text:0000000000000664 .LBE99
     /tmp/ccpiwlbU.s:5263   .debug_loc:00000000000004f5 .LLST43
     /tmp/ccpiwlbU.s:1401   .text:0000000000000650 .LVL148
GAS LISTING /tmp/ccpiwlbU.s 			page 55


     /tmp/ccpiwlbU.s:1408   .text:0000000000000664 .LVL149
     /tmp/ccpiwlbU.s:1238   .text:0000000000000500 .LVL128
     /tmp/ccpiwlbU.s:1282   .text:0000000000000558 .LVL133
     /tmp/ccpiwlbU.s:1287   .text:0000000000000564 .LVL134
     /tmp/ccpiwlbU.s:1330   .text:00000000000005bc .LVL139
     /tmp/ccpiwlbU.s:1335   .text:00000000000005c8 .LVL140
     /tmp/ccpiwlbU.s:1378   .text:0000000000000620 .LVL145
     /tmp/ccpiwlbU.s:1383   .text:000000000000062c .LVL146
     /tmp/ccpiwlbU.s:1426   .text:0000000000000684 .LVL151
     /tmp/ccpiwlbU.s:1464   .text:00000000000006d8 .LVL158
     /tmp/ccpiwlbU.s:1512   .text:0000000000000744 .LVL165
     /tmp/ccpiwlbU.s:1515   .text:0000000000000750 .LVL166
     /tmp/ccpiwlbU.s:1521   .text:0000000000000760 .LVL167
     /tmp/ccpiwlbU.s:1524   .text:000000000000076c .LVL168
     /tmp/ccpiwlbU.s:1530   .text:000000000000077c .LVL169
     /tmp/ccpiwlbU.s:1533   .text:0000000000000788 .LVL170
     /tmp/ccpiwlbU.s:1539   .text:0000000000000798 .LVL171
     /tmp/ccpiwlbU.s:1542   .text:00000000000007a4 .LVL172
     /tmp/ccpiwlbU.s:1003   .text:0000000000000394 .LFB56
     /tmp/ccpiwlbU.s:1152   .text:00000000000004dc .LFE56
     /tmp/ccpiwlbU.s:5274   .debug_loc:000000000000052b .LLST31
     /tmp/ccpiwlbU.s:5288   .debug_loc:0000000000000564 .LLST32
     /tmp/ccpiwlbU.s:5302   .debug_loc:000000000000059d .LLST33
     /tmp/ccpiwlbU.s:5905   .debug_str:000000000000071a .LASF85
     /tmp/ccpiwlbU.s:5322   .debug_loc:00000000000005fa .LLST34
     /tmp/ccpiwlbU.s:1030   .text:00000000000003c4 .LVL104
     /tmp/ccpiwlbU.s:1037   .text:00000000000003d8 .LVL105
     /tmp/ccpiwlbU.s:1042   .text:00000000000003e8 .LVL106
     /tmp/ccpiwlbU.s:1057   .text:0000000000000408 .LVL109
     /tmp/ccpiwlbU.s:1068   .text:0000000000000414 .LVL110
     /tmp/ccpiwlbU.s:1073   .text:0000000000000420 .LVL111
     /tmp/ccpiwlbU.s:1081   .text:0000000000000434 .LVL114
     /tmp/ccpiwlbU.s:1088   .text:0000000000000448 .LVL115
     /tmp/ccpiwlbU.s:1093   .text:0000000000000458 .LVL116
     /tmp/ccpiwlbU.s:1100   .text:000000000000046c .LVL117
     /tmp/ccpiwlbU.s:1107   .text:0000000000000480 .LVL118
     /tmp/ccpiwlbU.s:1112   .text:0000000000000490 .LVL119
     /tmp/ccpiwlbU.s:1127   .text:00000000000004b0 .LVL122
     /tmp/ccpiwlbU.s:1135   .text:00000000000004c4 .LVL123
     /tmp/ccpiwlbU.s:774    .text:0000000000000214 .LFB55
     /tmp/ccpiwlbU.s:949    .text:0000000000000394 .LFE55
     /tmp/ccpiwlbU.s:5333   .debug_loc:0000000000000630 .LLST25
     /tmp/ccpiwlbU.s:5347   .debug_loc:0000000000000669 .LLST26
     /tmp/ccpiwlbU.s:5361   .debug_loc:00000000000006a2 .LLST27
     /tmp/ccpiwlbU.s:5381   .debug_loc:00000000000006ff .LLST28
     /tmp/ccpiwlbU.s:5389   .debug_loc:0000000000000723 .LLST29
     /tmp/ccpiwlbU.s:801    .text:0000000000000244 .LVL73
     /tmp/ccpiwlbU.s:808    .text:0000000000000258 .LVL74
     /tmp/ccpiwlbU.s:813    .text:0000000000000268 .LVL75
     /tmp/ccpiwlbU.s:828    .text:0000000000000288 .LVL78
     /tmp/ccpiwlbU.s:839    .text:0000000000000294 .LVL79
     /tmp/ccpiwlbU.s:853    .text:00000000000002a8 .LVL81
     /tmp/ccpiwlbU.s:860    .text:00000000000002bc .LVL82
     /tmp/ccpiwlbU.s:865    .text:00000000000002cc .LVL83
     /tmp/ccpiwlbU.s:870    .text:00000000000002d8 .LVL84
     /tmp/ccpiwlbU.s:878    .text:00000000000002ec .LVL87
     /tmp/ccpiwlbU.s:885    .text:0000000000000300 .LVL88
GAS LISTING /tmp/ccpiwlbU.s 			page 56


     /tmp/ccpiwlbU.s:890    .text:0000000000000310 .LVL89
     /tmp/ccpiwlbU.s:897    .text:0000000000000324 .LVL90
     /tmp/ccpiwlbU.s:904    .text:0000000000000338 .LVL91
     /tmp/ccpiwlbU.s:909    .text:0000000000000348 .LVL92
     /tmp/ccpiwlbU.s:924    .text:0000000000000368 .LVL95
     /tmp/ccpiwlbU.s:932    .text:000000000000037c .LVL96
     /tmp/ccpiwlbU.s:597    .text:0000000000000140 .LFB54
     /tmp/ccpiwlbU.s:720    .text:0000000000000214 .LFE54
     /tmp/ccpiwlbU.s:5400   .debug_loc:0000000000000759 .LLST19
     /tmp/ccpiwlbU.s:5414   .debug_loc:0000000000000792 .LLST20
     /tmp/ccpiwlbU.s:615    .text:0000000000000158 .LBB48
     /tmp/ccpiwlbU.s:691    .text:00000000000001d8 .LBE48
     /tmp/ccpiwlbU.s:5428   .debug_loc:00000000000007cb .LLST21
     /tmp/ccpiwlbU.s:5440   .debug_loc:0000000000000802 .LLST22
     /tmp/ccpiwlbU.s:638    .text:0000000000000178 .LBB52
     /tmp/ccpiwlbU.s:653    .text:0000000000000190 .LBE52
     /tmp/ccpiwlbU.s:5452   .debug_loc:0000000000000839 .LLST23
     /tmp/ccpiwlbU.s:627    .text:0000000000000168 .LVL55
     /tmp/ccpiwlbU.s:669    .text:00000000000001ac .LVL61
     /tmp/ccpiwlbU.s:676    .text:00000000000001c0 .LVL62
     /tmp/ccpiwlbU.s:681    .text:00000000000001d0 .LVL63
     /tmp/ccpiwlbU.s:696    .text:00000000000001e8 .LVL65
     /tmp/ccpiwlbU.s:704    .text:00000000000001fc .LVL66
     /tmp/ccpiwlbU.s:430    .text:0000000000000074 .LFB53
     /tmp/ccpiwlbU.s:549    .text:0000000000000140 .LFE53
     /tmp/ccpiwlbU.s:5463   .debug_loc:000000000000086f .LLST13
     /tmp/ccpiwlbU.s:5477   .debug_loc:00000000000008a8 .LLST14
     /tmp/ccpiwlbU.s:448    .text:000000000000008c .LBB40
     /tmp/ccpiwlbU.s:524    .text:000000000000010c .LBE40
     /tmp/ccpiwlbU.s:5491   .debug_loc:00000000000008e1 .LLST15
     /tmp/ccpiwlbU.s:5503   .debug_loc:0000000000000918 .LLST16
     /tmp/ccpiwlbU.s:471    .text:00000000000000ac .LBB44
     /tmp/ccpiwlbU.s:486    .text:00000000000000c4 .LBE44
     /tmp/ccpiwlbU.s:5515   .debug_loc:000000000000094f .LLST17
     /tmp/ccpiwlbU.s:460    .text:000000000000009c .LVL38
     /tmp/ccpiwlbU.s:502    .text:00000000000000e0 .LVL44
     /tmp/ccpiwlbU.s:509    .text:00000000000000f4 .LVL45
     /tmp/ccpiwlbU.s:514    .text:0000000000000104 .LVL46
     /tmp/ccpiwlbU.s:529    .text:000000000000011c .LVL48
     /tmp/ccpiwlbU.s:1159   .text._ZN7WorkerD3runEv:0000000000000000 .LFB52
     /tmp/ccpiwlbU.s:1186   .text._ZN7WorkerD3runEv:000000000000002c .LFE52
     /tmp/ccpiwlbU.s:5526   .debug_loc:0000000000000985 .LLST35
     /tmp/ccpiwlbU.s:1175   .text._ZN7WorkerD3runEv:000000000000001c .LVL127
     /tmp/ccpiwlbU.s:5777   .debug_str:00000000000002e8 .LASF86
     /tmp/ccpiwlbU.s:956    .text._ZN7WorkerC3runEv:0000000000000000 .LFB48
     /tmp/ccpiwlbU.s:983    .text._ZN7WorkerC3runEv:000000000000002c .LFE48
     /tmp/ccpiwlbU.s:5540   .debug_loc:00000000000009be .LLST30
     /tmp/ccpiwlbU.s:972    .text._ZN7WorkerC3runEv:000000000000001c .LVL100
     /tmp/ccpiwlbU.s:5871   .debug_str:0000000000000617 .LASF87
     /tmp/ccpiwlbU.s:727    .text._ZN7WorkerB3runEv:0000000000000000 .LFB44
     /tmp/ccpiwlbU.s:754    .text._ZN7WorkerB3runEv:000000000000002c .LFE44
     /tmp/ccpiwlbU.s:5554   .debug_loc:00000000000009f7 .LLST24
     /tmp/ccpiwlbU.s:743    .text._ZN7WorkerB3runEv:000000000000001c .LVL69
     /tmp/ccpiwlbU.s:5717   .debug_str:00000000000000fa .LASF88
     /tmp/ccpiwlbU.s:556    .text._ZN7WorkerA3runEv:0000000000000000 .LFB40
     /tmp/ccpiwlbU.s:583    .text._ZN7WorkerA3runEv:000000000000002c .LFE40
     /tmp/ccpiwlbU.s:5568   .debug_loc:0000000000000a30 .LLST18
GAS LISTING /tmp/ccpiwlbU.s 			page 57


     /tmp/ccpiwlbU.s:572    .text._ZN7WorkerA3runEv:000000000000001c .LVL51
     /tmp/ccpiwlbU.s:5799   .debug_str:000000000000039c .LASF89
     /tmp/ccpiwlbU.s:5785   .debug_str:000000000000031d .LASF109
     /tmp/ccpiwlbU.s:5737   .debug_str:0000000000000173 .LASF110
     /tmp/ccpiwlbU.s:348    .text:0000000000000000 .LFB36
     /tmp/ccpiwlbU.s:413    .text:0000000000000074 .LFE36
     /tmp/ccpiwlbU.s:5582   .debug_loc:0000000000000a69 .LLST12
     /tmp/ccpiwlbU.s:380    .text:000000000000003c .LVL30
     /tmp/ccpiwlbU.s:385    .text:000000000000004c .LVL31
     /tmp/ccpiwlbU.s:410    .text:0000000000000070 .LVL34
     /tmp/ccpiwlbU.s:5849   .debug_str:00000000000004ca .LASF90
     /tmp/ccpiwlbU.s:5801   .debug_str:00000000000003ac .LASF95
     /tmp/ccpiwlbU.s:5687   .debug_str:0000000000000012 .LASF97
     /tmp/ccpiwlbU.s:5855   .debug_str:00000000000004fb .LASF91
     /tmp/ccpiwlbU.s:5885   .debug_str:00000000000006a6 .LASF92
     /tmp/ccpiwlbU.s:5741   .debug_str:0000000000000191 .LASF93
     /tmp/ccpiwlbU.s:5857   .debug_str:000000000000050e .LASF94
     /tmp/ccpiwlbU.s:5731   .debug_str:0000000000000159 .LASF96
     /tmp/ccpiwlbU.s:5903   .debug_str:000000000000070d .LASF98
     /tmp/ccpiwlbU.s:5891   .debug_str:00000000000006d8 .LASF99
     /tmp/ccpiwlbU.s:5745   .debug_str:00000000000001d0 .LASF100
     /tmp/ccpiwlbU.s:5713   .debug_str:00000000000000db .LASF101
     /tmp/ccpiwlbU.s:5809   .debug_str:00000000000003e9 .LASF102
     /tmp/ccpiwlbU.s:5787   .debug_str:0000000000000327 .LASF103
     /tmp/ccpiwlbU.s:5819   .debug_str:0000000000000422 .LASF104
     /tmp/ccpiwlbU.s:52     .text._ZN7WorkerAD0Ev:0000000000000000 .LVL2
     /tmp/ccpiwlbU.s:84     .text._ZN7WorkerAD0Ev:0000000000000044 .LVL6
     /tmp/ccpiwlbU.s:64     .text._ZN7WorkerAD0Ev:0000000000000018 .LVL3
     /tmp/ccpiwlbU.s:15     .text._ZN7WorkerAD2Ev:0000000000000000 .LVL0
     /tmp/ccpiwlbU.s:136    .text._ZN7WorkerBD0Ev:0000000000000000 .LVL9
     /tmp/ccpiwlbU.s:168    .text._ZN7WorkerBD0Ev:0000000000000044 .LVL13
     /tmp/ccpiwlbU.s:148    .text._ZN7WorkerBD0Ev:0000000000000018 .LVL10
     /tmp/ccpiwlbU.s:99     .text._ZN7WorkerBD2Ev:0000000000000000 .LVL7
     /tmp/ccpiwlbU.s:220    .text._ZN7WorkerCD0Ev:0000000000000000 .LVL16
     /tmp/ccpiwlbU.s:252    .text._ZN7WorkerCD0Ev:0000000000000044 .LVL20
     /tmp/ccpiwlbU.s:232    .text._ZN7WorkerCD0Ev:0000000000000018 .LVL17
     /tmp/ccpiwlbU.s:183    .text._ZN7WorkerCD2Ev:0000000000000000 .LVL14
     /tmp/ccpiwlbU.s:304    .text._ZN7WorkerDD0Ev:0000000000000000 .LVL23
     /tmp/ccpiwlbU.s:336    .text._ZN7WorkerDD0Ev:0000000000000044 .LVL27
     /tmp/ccpiwlbU.s:316    .text._ZN7WorkerDD0Ev:0000000000000018 .LVL24
     /tmp/ccpiwlbU.s:267    .text._ZN7WorkerDD2Ev:0000000000000000 .LVL21
     /tmp/ccpiwlbU.s:1431   .text:0000000000000688 .LVL152
     /tmp/ccpiwlbU.s:1456   .text:00000000000006cc .LVL156
     /tmp/ccpiwlbU.s:1458   .text:00000000000006d0 .LVL157
     /tmp/ccpiwlbU.s:1482   .text:000000000000070c .LVL159
     /tmp/ccpiwlbU.s:1495   .text:0000000000000720 .LVL162
     /tmp/ccpiwlbU.s:1503   .text:0000000000000730 .LVL163
     /tmp/ccpiwlbU.s:1484   .text:0000000000000710 .LVL160
     /tmp/ccpiwlbU.s:1505   .text:0000000000000734 .LVL164
     /tmp/ccpiwlbU.s:1553   .text:00000000000007b0 .LVL173
     /tmp/ccpiwlbU.s:1241   .text:0000000000000504 .LVL129
     /tmp/ccpiwlbU.s:1272   .text:0000000000000544 .LVL132
     /tmp/ccpiwlbU.s:1290   .text:0000000000000568 .LVL135
     /tmp/ccpiwlbU.s:1320   .text:00000000000005a8 .LVL138
     /tmp/ccpiwlbU.s:1338   .text:00000000000005cc .LVL141
     /tmp/ccpiwlbU.s:1368   .text:000000000000060c .LVL144
     /tmp/ccpiwlbU.s:1386   .text:0000000000000630 .LVL147
GAS LISTING /tmp/ccpiwlbU.s 			page 58


     /tmp/ccpiwlbU.s:1416   .text:0000000000000670 .LVL150
     /tmp/ccpiwlbU.s:1006   .text:0000000000000394 .LVL101
     /tmp/ccpiwlbU.s:1024   .text:00000000000003b4 .LVL103
     /tmp/ccpiwlbU.s:1020   .text:00000000000003ac .LVL102
     /tmp/ccpiwlbU.s:1045   .text:00000000000003ec .LVL107
     /tmp/ccpiwlbU.s:1047   .text:00000000000003f0 .LVL108
     /tmp/ccpiwlbU.s:1115   .text:0000000000000494 .LVL120
     /tmp/ccpiwlbU.s:1117   .text:0000000000000498 .LVL121
     /tmp/ccpiwlbU.s:1144   .text:00000000000004d0 .LVL124
     /tmp/ccpiwlbU.s:1075   .text:0000000000000424 .LVL112
     /tmp/ccpiwlbU.s:1079   .text:000000000000042c .LVL113
     /tmp/ccpiwlbU.s:1147   .text:00000000000004d4 .LVL125
     /tmp/ccpiwlbU.s:777    .text:0000000000000214 .LVL70
     /tmp/ccpiwlbU.s:795    .text:0000000000000234 .LVL72
     /tmp/ccpiwlbU.s:791    .text:000000000000022c .LVL71
     /tmp/ccpiwlbU.s:816    .text:000000000000026c .LVL76
     /tmp/ccpiwlbU.s:818    .text:0000000000000270 .LVL77
     /tmp/ccpiwlbU.s:912    .text:000000000000034c .LVL93
     /tmp/ccpiwlbU.s:914    .text:0000000000000350 .LVL94
     /tmp/ccpiwlbU.s:941    .text:0000000000000388 .LVL97
     /tmp/ccpiwlbU.s:847    .text:0000000000000298 .LVL80
     /tmp/ccpiwlbU.s:872    .text:00000000000002dc .LVL85
     /tmp/ccpiwlbU.s:876    .text:00000000000002e4 .LVL86
     /tmp/ccpiwlbU.s:944    .text:000000000000038c .LVL98
     /tmp/ccpiwlbU.s:600    .text:0000000000000140 .LVL52
     /tmp/ccpiwlbU.s:619    .text:0000000000000160 .LVL54
     /tmp/ccpiwlbU.s:614    .text:0000000000000158 .LVL53
     /tmp/ccpiwlbU.s:715    .text:000000000000020c .LVL67
     /tmp/ccpiwlbU.s:659    .text:0000000000000194 .LVL60
     /tmp/ccpiwlbU.s:687    .text:00000000000001d8 .LVL64
     /tmp/ccpiwlbU.s:642    .text:000000000000017c .LVL57
     /tmp/ccpiwlbU.s:651    .text:0000000000000190 .LVL59
     /tmp/ccpiwlbU.s:433    .text:0000000000000074 .LVL35
     /tmp/ccpiwlbU.s:452    .text:0000000000000094 .LVL37
     /tmp/ccpiwlbU.s:447    .text:000000000000008c .LVL36
     /tmp/ccpiwlbU.s:544    .text:0000000000000138 .LVL49
     /tmp/ccpiwlbU.s:492    .text:00000000000000c8 .LVL43
     /tmp/ccpiwlbU.s:520    .text:000000000000010c .LVL47
     /tmp/ccpiwlbU.s:475    .text:00000000000000b0 .LVL40
     /tmp/ccpiwlbU.s:484    .text:00000000000000c4 .LVL42
     /tmp/ccpiwlbU.s:1162   .text._ZN7WorkerD3runEv:0000000000000000 .LVL126
     /tmp/ccpiwlbU.s:959    .text._ZN7WorkerC3runEv:0000000000000000 .LVL99
     /tmp/ccpiwlbU.s:730    .text._ZN7WorkerB3runEv:0000000000000000 .LVL68
     /tmp/ccpiwlbU.s:559    .text._ZN7WorkerA3runEv:0000000000000000 .LVL50
     /tmp/ccpiwlbU.s:351    .text:0000000000000000 .LVL28
     /tmp/ccpiwlbU.s:374    .text:0000000000000030 .LVL29
     /tmp/ccpiwlbU.s:398    .text:000000000000005c .LVL32
     /tmp/ccpiwlbU.s:404    .text:0000000000000068 .LVL33
     /tmp/ccpiwlbU.s:1710   .debug_info:0000000000000000 .Ldebug_info0
     /tmp/ccpiwlbU.s:5      .text:0000000000000000 .Ltext0
     /tmp/ccpiwlbU.s:1705   .text:00000000000007e4 .Letext0
     /tmp/ccpiwlbU.s:455    .text:0000000000000094 .LBB42
     /tmp/ccpiwlbU.s:488    .text:00000000000000c4 .LBE42
     /tmp/ccpiwlbU.s:516    .text:0000000000000104 .LBB46
     /tmp/ccpiwlbU.s:522    .text:000000000000010c .LBE46
     /tmp/ccpiwlbU.s:622    .text:0000000000000160 .LBB50
     /tmp/ccpiwlbU.s:655    .text:0000000000000190 .LBE50
GAS LISTING /tmp/ccpiwlbU.s 			page 59


     /tmp/ccpiwlbU.s:683    .text:00000000000001d0 .LBB54
     /tmp/ccpiwlbU.s:689    .text:00000000000001d8 .LBE54
     /tmp/ccpiwlbU.s:1563   .gcc_except_table:0000000000000000 .LLSDA57
                           .group:0000000000000000 _ZN7WorkerAD5Ev
                           .group:0000000000000000 _ZN7WorkerBD5Ev
                           .group:0000000000000000 _ZN7WorkerCD5Ev
                           .group:0000000000000000 _ZN7WorkerDD5Ev

UNDEFINED SYMBOLS
_ZN6ThreadD2Ev
_ZdlPv
_Z15thread_dispatchv
_Z11printStringPKc
_Z8printIntiii
_Znwm
_ZTV6Thread
_Z13thread_createPP3TCBPFvPvES2_
_ZN6Thread5startEv
_ZN6Thread8dispatchEv
_Unwind_Resume
__gxx_personality_v0
