GAS LISTING /tmp/ccy6LGeJ.s 			page 1


   1              		.file	"userMain.cpp"
   2              		.option pic
   3              		.option norelax
   4              		.text
   5              	.Ltext0:
   6              		.section	.text._ZN7WorkerAD2Ev,"axG",@progbits,_ZN7WorkerAD5Ev,comdat
   7              		.align	2
   8              		.weak	_ZN7WorkerAD2Ev
  10              	_ZN7WorkerAD2Ev:
  11              	.LFB73:
  12              		.file 1 "src/../test/Threads_CPP_API_test.hpp"
   1:src/../test/Threads_CPP_API_test.hpp **** #ifndef XV6_THREADS_CPP_API_TEST_HPP
   2:src/../test/Threads_CPP_API_test.hpp **** #define XV6_THREADS_CPP_API_TEST_HPP
   3:src/../test/Threads_CPP_API_test.hpp **** 
   4:src/../test/Threads_CPP_API_test.hpp **** #include "../h/syscall_cpp.hpp"
   5:src/../test/Threads_CPP_API_test.hpp **** 
   6:src/../test/Threads_CPP_API_test.hpp **** #include "../h/printing.hpp"
   7:src/../test/Threads_CPP_API_test.hpp **** 
   8:src/../test/Threads_CPP_API_test.hpp **** bool finishedA = false;
   9:src/../test/Threads_CPP_API_test.hpp **** bool finishedB = false;
  10:src/../test/Threads_CPP_API_test.hpp **** bool finishedC = false;
  11:src/../test/Threads_CPP_API_test.hpp **** bool finishedD = false;
  12:src/../test/Threads_CPP_API_test.hpp **** 
  13:src/../test/Threads_CPP_API_test.hpp **** uint64 fibonacci(uint64 n) {
  14:src/../test/Threads_CPP_API_test.hpp ****     if (n == 0 || n == 1) { return n; }
  15:src/../test/Threads_CPP_API_test.hpp ****     if (n % 10 == 0) { thread_dispatch(); }
  16:src/../test/Threads_CPP_API_test.hpp ****     return fibonacci(n - 1) + fibonacci(n - 2);
  17:src/../test/Threads_CPP_API_test.hpp **** }
  18:src/../test/Threads_CPP_API_test.hpp **** 
  19:src/../test/Threads_CPP_API_test.hpp **** class WorkerA: public Thread {
  13              		.loc 1 19 7
  14              		.cfi_startproc
  15              	.LVL0:
  16 0000 130101FF 		addi	sp,sp,-16
  17              		.cfi_def_cfa_offset 16
  18 0004 23341100 		sd	ra,8(sp)
  19 0008 23308100 		sd	s0,0(sp)
  20              		.cfi_offset 1, -8
  21              		.cfi_offset 8, -16
  22 000c 13040101 		addi	s0,sp,16
  23              		.cfi_def_cfa 8, 0
  24              	.LBB27:
  25              		.loc 1 19 7 is_stmt 0
  26 0010 97070000 		lla	a5,_ZTV7WorkerA+16
  26      93870700 
  27 0018 2330F500 		sd	a5,0(a0)
  28 001c 97000000 		call	_ZN6ThreadD2Ev@plt
  28      E7800000 
  29              	.LVL1:
  30              	.LBE27:
  31 0024 83308100 		ld	ra,8(sp)
  32              		.cfi_restore 1
  33 0028 03340100 		ld	s0,0(sp)
  34              		.cfi_restore 8
  35              		.cfi_def_cfa 2, 16
  36 002c 13010101 		addi	sp,sp,16
  37              		.cfi_def_cfa_offset 0
GAS LISTING /tmp/ccy6LGeJ.s 			page 2


  38 0030 67800000 		jr	ra
  39              		.cfi_endproc
  40              	.LFE73:
  42              		.weak	_ZN7WorkerAD1Ev
  43              		.set	_ZN7WorkerAD1Ev,_ZN7WorkerAD2Ev
  44              		.section	.text._ZN7WorkerAD0Ev,"axG",@progbits,_ZN7WorkerAD5Ev,comdat
  45              		.align	2
  46              		.weak	_ZN7WorkerAD0Ev
  48              	_ZN7WorkerAD0Ev:
  49              	.LFB75:
  50              		.loc 1 19 7 is_stmt 1
  51              		.cfi_startproc
  52              	.LVL2:
  53 0000 130101FE 		addi	sp,sp,-32
  54              		.cfi_def_cfa_offset 32
  55 0004 233C1100 		sd	ra,24(sp)
  56 0008 23388100 		sd	s0,16(sp)
  57 000c 23349100 		sd	s1,8(sp)
  58              		.cfi_offset 1, -8
  59              		.cfi_offset 8, -16
  60              		.cfi_offset 9, -24
  61 0010 13040102 		addi	s0,sp,32
  62              		.cfi_def_cfa 8, 0
  63 0014 93040500 		mv	s1,a0
  64              	.LVL3:
  65              	.LBB28:
  66              	.LBB29:
  67              		.loc 1 19 7 is_stmt 0
  68 0018 97070000 		lla	a5,_ZTV7WorkerA+16
  68      93870700 
  69 0020 2330F500 		sd	a5,0(a0)
  70 0024 97000000 		call	_ZN6ThreadD2Ev@plt
  70      E7800000 
  71              	.LVL4:
  72              	.LBE29:
  73              	.LBE28:
  74 002c 13850400 		mv	a0,s1
  75 0030 97000000 		call	_ZdlPv@plt
  75      E7800000 
  76              	.LVL5:
  77 0038 83308101 		ld	ra,24(sp)
  78              		.cfi_restore 1
  79 003c 03340101 		ld	s0,16(sp)
  80              		.cfi_restore 8
  81              		.cfi_def_cfa 2, 32
  82 0040 83348100 		ld	s1,8(sp)
  83              		.cfi_restore 9
  84              	.LVL6:
  85 0044 13010102 		addi	sp,sp,32
  86              		.cfi_def_cfa_offset 0
  87 0048 67800000 		jr	ra
  88              		.cfi_endproc
  89              	.LFE75:
  91              		.section	.text._ZN7WorkerBD2Ev,"axG",@progbits,_ZN7WorkerBD5Ev,comdat
  92              		.align	2
  93              		.weak	_ZN7WorkerBD2Ev
  95              	_ZN7WorkerBD2Ev:
GAS LISTING /tmp/ccy6LGeJ.s 			page 3


  96              	.LFB69:
  20:src/../test/Threads_CPP_API_test.hpp ****     void workerBodyA(void* arg);
  21:src/../test/Threads_CPP_API_test.hpp **** public:
  22:src/../test/Threads_CPP_API_test.hpp ****     WorkerA():Thread() {}
  23:src/../test/Threads_CPP_API_test.hpp **** 
  24:src/../test/Threads_CPP_API_test.hpp ****     void run() override {
  25:src/../test/Threads_CPP_API_test.hpp ****         workerBodyA(nullptr);
  26:src/../test/Threads_CPP_API_test.hpp ****     }
  27:src/../test/Threads_CPP_API_test.hpp **** };
  28:src/../test/Threads_CPP_API_test.hpp **** 
  29:src/../test/Threads_CPP_API_test.hpp **** class WorkerB: public Thread {
  97              		.loc 1 29 7 is_stmt 1
  98              		.cfi_startproc
  99              	.LVL7:
 100 0000 130101FF 		addi	sp,sp,-16
 101              		.cfi_def_cfa_offset 16
 102 0004 23341100 		sd	ra,8(sp)
 103 0008 23308100 		sd	s0,0(sp)
 104              		.cfi_offset 1, -8
 105              		.cfi_offset 8, -16
 106 000c 13040101 		addi	s0,sp,16
 107              		.cfi_def_cfa 8, 0
 108              	.LBB30:
 109              		.loc 1 29 7 is_stmt 0
 110 0010 97070000 		lla	a5,_ZTV7WorkerB+16
 110      93870700 
 111 0018 2330F500 		sd	a5,0(a0)
 112 001c 97000000 		call	_ZN6ThreadD2Ev@plt
 112      E7800000 
 113              	.LVL8:
 114              	.LBE30:
 115 0024 83308100 		ld	ra,8(sp)
 116              		.cfi_restore 1
 117 0028 03340100 		ld	s0,0(sp)
 118              		.cfi_restore 8
 119              		.cfi_def_cfa 2, 16
 120 002c 13010101 		addi	sp,sp,16
 121              		.cfi_def_cfa_offset 0
 122 0030 67800000 		jr	ra
 123              		.cfi_endproc
 124              	.LFE69:
 126              		.weak	_ZN7WorkerBD1Ev
 127              		.set	_ZN7WorkerBD1Ev,_ZN7WorkerBD2Ev
 128              		.section	.text._ZN7WorkerBD0Ev,"axG",@progbits,_ZN7WorkerBD5Ev,comdat
 129              		.align	2
 130              		.weak	_ZN7WorkerBD0Ev
 132              	_ZN7WorkerBD0Ev:
 133              	.LFB71:
 134              		.loc 1 29 7 is_stmt 1
 135              		.cfi_startproc
 136              	.LVL9:
 137 0000 130101FE 		addi	sp,sp,-32
 138              		.cfi_def_cfa_offset 32
 139 0004 233C1100 		sd	ra,24(sp)
 140 0008 23388100 		sd	s0,16(sp)
 141 000c 23349100 		sd	s1,8(sp)
 142              		.cfi_offset 1, -8
GAS LISTING /tmp/ccy6LGeJ.s 			page 4


 143              		.cfi_offset 8, -16
 144              		.cfi_offset 9, -24
 145 0010 13040102 		addi	s0,sp,32
 146              		.cfi_def_cfa 8, 0
 147 0014 93040500 		mv	s1,a0
 148              	.LVL10:
 149              	.LBB31:
 150              	.LBB32:
 151              		.loc 1 29 7 is_stmt 0
 152 0018 97070000 		lla	a5,_ZTV7WorkerB+16
 152      93870700 
 153 0020 2330F500 		sd	a5,0(a0)
 154 0024 97000000 		call	_ZN6ThreadD2Ev@plt
 154      E7800000 
 155              	.LVL11:
 156              	.LBE32:
 157              	.LBE31:
 158 002c 13850400 		mv	a0,s1
 159 0030 97000000 		call	_ZdlPv@plt
 159      E7800000 
 160              	.LVL12:
 161 0038 83308101 		ld	ra,24(sp)
 162              		.cfi_restore 1
 163 003c 03340101 		ld	s0,16(sp)
 164              		.cfi_restore 8
 165              		.cfi_def_cfa 2, 32
 166 0040 83348100 		ld	s1,8(sp)
 167              		.cfi_restore 9
 168              	.LVL13:
 169 0044 13010102 		addi	sp,sp,32
 170              		.cfi_def_cfa_offset 0
 171 0048 67800000 		jr	ra
 172              		.cfi_endproc
 173              	.LFE71:
 175              		.section	.text._ZN7WorkerCD2Ev,"axG",@progbits,_ZN7WorkerCD5Ev,comdat
 176              		.align	2
 177              		.weak	_ZN7WorkerCD2Ev
 179              	_ZN7WorkerCD2Ev:
 180              	.LFB65:
  30:src/../test/Threads_CPP_API_test.hpp ****     void workerBodyB(void* arg);
  31:src/../test/Threads_CPP_API_test.hpp **** public:
  32:src/../test/Threads_CPP_API_test.hpp ****     WorkerB():Thread() {}
  33:src/../test/Threads_CPP_API_test.hpp **** 
  34:src/../test/Threads_CPP_API_test.hpp ****     void run() override {
  35:src/../test/Threads_CPP_API_test.hpp ****         workerBodyB(nullptr);
  36:src/../test/Threads_CPP_API_test.hpp ****     }
  37:src/../test/Threads_CPP_API_test.hpp **** };
  38:src/../test/Threads_CPP_API_test.hpp **** 
  39:src/../test/Threads_CPP_API_test.hpp **** class WorkerC: public Thread {
 181              		.loc 1 39 7 is_stmt 1
 182              		.cfi_startproc
 183              	.LVL14:
 184 0000 130101FF 		addi	sp,sp,-16
 185              		.cfi_def_cfa_offset 16
 186 0004 23341100 		sd	ra,8(sp)
 187 0008 23308100 		sd	s0,0(sp)
 188              		.cfi_offset 1, -8
GAS LISTING /tmp/ccy6LGeJ.s 			page 5


 189              		.cfi_offset 8, -16
 190 000c 13040101 		addi	s0,sp,16
 191              		.cfi_def_cfa 8, 0
 192              	.LBB33:
 193              		.loc 1 39 7 is_stmt 0
 194 0010 97070000 		lla	a5,_ZTV7WorkerC+16
 194      93870700 
 195 0018 2330F500 		sd	a5,0(a0)
 196 001c 97000000 		call	_ZN6ThreadD2Ev@plt
 196      E7800000 
 197              	.LVL15:
 198              	.LBE33:
 199 0024 83308100 		ld	ra,8(sp)
 200              		.cfi_restore 1
 201 0028 03340100 		ld	s0,0(sp)
 202              		.cfi_restore 8
 203              		.cfi_def_cfa 2, 16
 204 002c 13010101 		addi	sp,sp,16
 205              		.cfi_def_cfa_offset 0
 206 0030 67800000 		jr	ra
 207              		.cfi_endproc
 208              	.LFE65:
 210              		.weak	_ZN7WorkerCD1Ev
 211              		.set	_ZN7WorkerCD1Ev,_ZN7WorkerCD2Ev
 212              		.section	.text._ZN7WorkerCD0Ev,"axG",@progbits,_ZN7WorkerCD5Ev,comdat
 213              		.align	2
 214              		.weak	_ZN7WorkerCD0Ev
 216              	_ZN7WorkerCD0Ev:
 217              	.LFB67:
 218              		.loc 1 39 7 is_stmt 1
 219              		.cfi_startproc
 220              	.LVL16:
 221 0000 130101FE 		addi	sp,sp,-32
 222              		.cfi_def_cfa_offset 32
 223 0004 233C1100 		sd	ra,24(sp)
 224 0008 23388100 		sd	s0,16(sp)
 225 000c 23349100 		sd	s1,8(sp)
 226              		.cfi_offset 1, -8
 227              		.cfi_offset 8, -16
 228              		.cfi_offset 9, -24
 229 0010 13040102 		addi	s0,sp,32
 230              		.cfi_def_cfa 8, 0
 231 0014 93040500 		mv	s1,a0
 232              	.LVL17:
 233              	.LBB34:
 234              	.LBB35:
 235              		.loc 1 39 7 is_stmt 0
 236 0018 97070000 		lla	a5,_ZTV7WorkerC+16
 236      93870700 
 237 0020 2330F500 		sd	a5,0(a0)
 238 0024 97000000 		call	_ZN6ThreadD2Ev@plt
 238      E7800000 
 239              	.LVL18:
 240              	.LBE35:
 241              	.LBE34:
 242 002c 13850400 		mv	a0,s1
 243 0030 97000000 		call	_ZdlPv@plt
GAS LISTING /tmp/ccy6LGeJ.s 			page 6


 243      E7800000 
 244              	.LVL19:
 245 0038 83308101 		ld	ra,24(sp)
 246              		.cfi_restore 1
 247 003c 03340101 		ld	s0,16(sp)
 248              		.cfi_restore 8
 249              		.cfi_def_cfa 2, 32
 250 0040 83348100 		ld	s1,8(sp)
 251              		.cfi_restore 9
 252              	.LVL20:
 253 0044 13010102 		addi	sp,sp,32
 254              		.cfi_def_cfa_offset 0
 255 0048 67800000 		jr	ra
 256              		.cfi_endproc
 257              	.LFE67:
 259              		.section	.text._ZN7WorkerDD2Ev,"axG",@progbits,_ZN7WorkerDD5Ev,comdat
 260              		.align	2
 261              		.weak	_ZN7WorkerDD2Ev
 263              	_ZN7WorkerDD2Ev:
 264              	.LFB61:
  40:src/../test/Threads_CPP_API_test.hpp ****     void workerBodyC(void* arg);
  41:src/../test/Threads_CPP_API_test.hpp **** public:
  42:src/../test/Threads_CPP_API_test.hpp ****     WorkerC():Thread() {}
  43:src/../test/Threads_CPP_API_test.hpp **** 
  44:src/../test/Threads_CPP_API_test.hpp ****     void run() override {
  45:src/../test/Threads_CPP_API_test.hpp ****         workerBodyC(nullptr);
  46:src/../test/Threads_CPP_API_test.hpp ****     }
  47:src/../test/Threads_CPP_API_test.hpp **** };
  48:src/../test/Threads_CPP_API_test.hpp **** 
  49:src/../test/Threads_CPP_API_test.hpp **** class WorkerD: public Thread {
 265              		.loc 1 49 7 is_stmt 1
 266              		.cfi_startproc
 267              	.LVL21:
 268 0000 130101FF 		addi	sp,sp,-16
 269              		.cfi_def_cfa_offset 16
 270 0004 23341100 		sd	ra,8(sp)
 271 0008 23308100 		sd	s0,0(sp)
 272              		.cfi_offset 1, -8
 273              		.cfi_offset 8, -16
 274 000c 13040101 		addi	s0,sp,16
 275              		.cfi_def_cfa 8, 0
 276              	.LBB36:
 277              		.loc 1 49 7 is_stmt 0
 278 0010 97070000 		lla	a5,_ZTV7WorkerD+16
 278      93870700 
 279 0018 2330F500 		sd	a5,0(a0)
 280 001c 97000000 		call	_ZN6ThreadD2Ev@plt
 280      E7800000 
 281              	.LVL22:
 282              	.LBE36:
 283 0024 83308100 		ld	ra,8(sp)
 284              		.cfi_restore 1
 285 0028 03340100 		ld	s0,0(sp)
 286              		.cfi_restore 8
 287              		.cfi_def_cfa 2, 16
 288 002c 13010101 		addi	sp,sp,16
 289              		.cfi_def_cfa_offset 0
GAS LISTING /tmp/ccy6LGeJ.s 			page 7


 290 0030 67800000 		jr	ra
 291              		.cfi_endproc
 292              	.LFE61:
 294              		.weak	_ZN7WorkerDD1Ev
 295              		.set	_ZN7WorkerDD1Ev,_ZN7WorkerDD2Ev
 296              		.section	.text._ZN7WorkerDD0Ev,"axG",@progbits,_ZN7WorkerDD5Ev,comdat
 297              		.align	2
 298              		.weak	_ZN7WorkerDD0Ev
 300              	_ZN7WorkerDD0Ev:
 301              	.LFB63:
 302              		.loc 1 49 7 is_stmt 1
 303              		.cfi_startproc
 304              	.LVL23:
 305 0000 130101FE 		addi	sp,sp,-32
 306              		.cfi_def_cfa_offset 32
 307 0004 233C1100 		sd	ra,24(sp)
 308 0008 23388100 		sd	s0,16(sp)
 309 000c 23349100 		sd	s1,8(sp)
 310              		.cfi_offset 1, -8
 311              		.cfi_offset 8, -16
 312              		.cfi_offset 9, -24
 313 0010 13040102 		addi	s0,sp,32
 314              		.cfi_def_cfa 8, 0
 315 0014 93040500 		mv	s1,a0
 316              	.LVL24:
 317              	.LBB37:
 318              	.LBB38:
 319              		.loc 1 49 7 is_stmt 0
 320 0018 97070000 		lla	a5,_ZTV7WorkerD+16
 320      93870700 
 321 0020 2330F500 		sd	a5,0(a0)
 322 0024 97000000 		call	_ZN6ThreadD2Ev@plt
 322      E7800000 
 323              	.LVL25:
 324              	.LBE38:
 325              	.LBE37:
 326 002c 13850400 		mv	a0,s1
 327 0030 97000000 		call	_ZdlPv@plt
 327      E7800000 
 328              	.LVL26:
 329 0038 83308101 		ld	ra,24(sp)
 330              		.cfi_restore 1
 331 003c 03340101 		ld	s0,16(sp)
 332              		.cfi_restore 8
 333              		.cfi_def_cfa 2, 32
 334 0040 83348100 		ld	s1,8(sp)
 335              		.cfi_restore 9
 336              	.LVL27:
 337 0044 13010102 		addi	sp,sp,32
 338              		.cfi_def_cfa_offset 0
 339 0048 67800000 		jr	ra
 340              		.cfi_endproc
 341              	.LFE63:
 343              		.text
 344              		.align	2
 345              		.globl	_Z9fibonaccim
 347              	_Z9fibonaccim:
GAS LISTING /tmp/ccy6LGeJ.s 			page 8


 348              	.LFB37:
  13:src/../test/Threads_CPP_API_test.hpp ****     if (n == 0 || n == 1) { return n; }
 349              		.loc 1 13 28 is_stmt 1
 350              		.cfi_startproc
 351              	.LVL28:
 352 0000 130101FE 		addi	sp,sp,-32
 353              		.cfi_def_cfa_offset 32
 354 0004 233C1100 		sd	ra,24(sp)
 355 0008 23388100 		sd	s0,16(sp)
 356 000c 23349100 		sd	s1,8(sp)
 357 0010 23302101 		sd	s2,0(sp)
 358              		.cfi_offset 1, -8
 359              		.cfi_offset 8, -16
 360              		.cfi_offset 9, -24
 361              		.cfi_offset 18, -32
 362 0014 13040102 		addi	s0,sp,32
 363              		.cfi_def_cfa 8, 0
 364 0018 93040500 		mv	s1,a0
  14:src/../test/Threads_CPP_API_test.hpp ****     if (n % 10 == 0) { thread_dispatch(); }
 365              		.loc 1 14 5
 366 001c 93071000 		li	a5,1
 367 0020 63F8A702 		bleu	a0,a5,.L17
  15:src/../test/Threads_CPP_API_test.hpp ****     return fibonacci(n - 1) + fibonacci(n - 2);
 368              		.loc 1 15 5
  15:src/../test/Threads_CPP_API_test.hpp ****     return fibonacci(n - 1) + fibonacci(n - 2);
 369              		.loc 1 15 11 is_stmt 0
 370 0024 9307A000 		li	a5,10
 371 0028 B377F502 		remu	a5,a0,a5
  15:src/../test/Threads_CPP_API_test.hpp ****     return fibonacci(n - 1) + fibonacci(n - 2);
 372              		.loc 1 15 5
 373 002c 638E0702 		beqz	a5,.L22
 374              	.LVL29:
 375              	.L19:
  16:src/../test/Threads_CPP_API_test.hpp **** }
 376              		.loc 1 16 5 is_stmt 1
  16:src/../test/Threads_CPP_API_test.hpp **** }
 377              		.loc 1 16 21 is_stmt 0
 378 0030 1385F4FF 		addi	a0,s1,-1
 379 0034 97000000 		call	_Z9fibonaccim
 379      E7800000 
 380              	.LVL30:
 381 003c 13090500 		mv	s2,a0
  16:src/../test/Threads_CPP_API_test.hpp **** }
 382              		.loc 1 16 40
 383 0040 1385E4FF 		addi	a0,s1,-2
 384 0044 97000000 		call	_Z9fibonaccim
 384      E7800000 
 385              	.LVL31:
  16:src/../test/Threads_CPP_API_test.hpp **** }
 386              		.loc 1 16 46
 387 004c 3305A900 		add	a0,s2,a0
 388              	.L17:
  17:src/../test/Threads_CPP_API_test.hpp **** 
 389              		.loc 1 17 1
 390 0050 83308101 		ld	ra,24(sp)
 391              		.cfi_remember_state
 392              		.cfi_restore 1
GAS LISTING /tmp/ccy6LGeJ.s 			page 9


 393 0054 03340101 		ld	s0,16(sp)
 394              		.cfi_restore 8
 395              		.cfi_def_cfa 2, 32
 396 0058 83348100 		ld	s1,8(sp)
 397              		.cfi_restore 9
 398              	.LVL32:
 399 005c 03390100 		ld	s2,0(sp)
 400              		.cfi_restore 18
 401 0060 13010102 		addi	sp,sp,32
 402              		.cfi_def_cfa_offset 0
 403 0064 67800000 		jr	ra
 404              	.LVL33:
 405              	.L22:
 406              		.cfi_restore_state
  15:src/../test/Threads_CPP_API_test.hpp ****     return fibonacci(n - 1) + fibonacci(n - 2);
 407              		.loc 1 15 24 is_stmt 1 discriminator 1
  15:src/../test/Threads_CPP_API_test.hpp ****     return fibonacci(n - 1) + fibonacci(n - 2);
 408              		.loc 1 15 39 is_stmt 0 discriminator 1
 409 0068 97000000 		call	_Z15thread_dispatchv@plt
 409      E7800000 
 410              	.LVL34:
 411 0070 6FF01FFC 		j	.L19
 412              		.cfi_endproc
 413              	.LFE37:
 415              		.section	.rodata.str1.8,"aMS",@progbits,1
 416              		.align	3
 417              	.LC0:
 418 0000 413A2069 		.string	"A: i="
 418      3D00
 419 0006 0000     		.align	3
 420              	.LC1:
 421 0008 0A00     		.string	"\n"
 422 000a 00000000 		.align	3
 422      0000
 423              	.LC2:
 424 0010 41206669 		.string	"A finished!\n"
 424      6E697368 
 424      6564210A 
 424      00
 425              		.text
 426              		.align	2
 427              		.globl	_ZN7WorkerA11workerBodyAEPv
 429              	_ZN7WorkerA11workerBodyAEPv:
 430              	.LFB54:
  50:src/../test/Threads_CPP_API_test.hpp ****     void workerBodyD(void* arg);
  51:src/../test/Threads_CPP_API_test.hpp **** public:
  52:src/../test/Threads_CPP_API_test.hpp ****     WorkerD():Thread() {}
  53:src/../test/Threads_CPP_API_test.hpp **** 
  54:src/../test/Threads_CPP_API_test.hpp ****     void run() override {
  55:src/../test/Threads_CPP_API_test.hpp ****         workerBodyD(nullptr);
  56:src/../test/Threads_CPP_API_test.hpp ****     }
  57:src/../test/Threads_CPP_API_test.hpp **** };
  58:src/../test/Threads_CPP_API_test.hpp **** 
  59:src/../test/Threads_CPP_API_test.hpp **** void WorkerA::workerBodyA(void *arg) {
 431              		.loc 1 59 38 is_stmt 1
 432              		.cfi_startproc
 433              	.LVL35:
GAS LISTING /tmp/ccy6LGeJ.s 			page 10


 434 0074 130101FE 		addi	sp,sp,-32
 435              		.cfi_def_cfa_offset 32
 436 0078 233C1100 		sd	ra,24(sp)
 437 007c 23388100 		sd	s0,16(sp)
 438 0080 23349100 		sd	s1,8(sp)
 439 0084 23302101 		sd	s2,0(sp)
 440              		.cfi_offset 1, -8
 441              		.cfi_offset 8, -16
 442              		.cfi_offset 9, -24
 443              		.cfi_offset 18, -32
 444 0088 13040102 		addi	s0,sp,32
 445              		.cfi_def_cfa 8, 0
  60:src/../test/Threads_CPP_API_test.hpp ****     for (uint64 i = 0; i < 10; i++) {
 446              		.loc 1 60 5
 447              	.LVL36:
 448              	.LBB39:
 449              		.loc 1 60 17 is_stmt 0
 450 008c 13090000 		li	s2,0
 451 0090 6F008003 		j	.L29
 452              	.LVL37:
 453              	.L26:
 454              	.LBB40:
 455              	.LBB41:
 456              	.LBB42:
  61:src/../test/Threads_CPP_API_test.hpp ****         printString("A: i="); printInt(i); printString("\n");
  62:src/../test/Threads_CPP_API_test.hpp ****         for (uint64 j = 0; j < 10000; j++) {
  63:src/../test/Threads_CPP_API_test.hpp ****             for (uint64 k = 0; k < 30000; k++) { /* busy wait */ }
  64:src/../test/Threads_CPP_API_test.hpp ****             thread_dispatch();
 457              		.loc 1 64 13 is_stmt 1 discriminator 2
 458              		.loc 1 64 28 is_stmt 0 discriminator 2
 459 0094 97000000 		call	_Z15thread_dispatchv@plt
 459      E7800000 
 460              	.LVL38:
 461              	.LBE42:
  62:src/../test/Threads_CPP_API_test.hpp ****             for (uint64 k = 0; k < 30000; k++) { /* busy wait */ }
 462              		.loc 1 62 9 is_stmt 1 discriminator 2
 463 009c 93841400 		addi	s1,s1,1
 464              	.LVL39:
 465              	.L28:
  62:src/../test/Threads_CPP_API_test.hpp ****             for (uint64 k = 0; k < 30000; k++) { /* busy wait */ }
 466              		.loc 1 62 30 discriminator 1
 467 00a0 B7270000 		li	a5,8192
 468 00a4 9387F770 		addi	a5,a5,1807
 469 00a8 63EE9700 		bgtu	s1,a5,.L25
 470              	.LBB44:
 471              	.LBB43:
  63:src/../test/Threads_CPP_API_test.hpp ****             thread_dispatch();
 472              		.loc 1 63 25 is_stmt 0
 473 00ac 13070000 		li	a4,0
 474              	.L27:
 475              	.LVL40:
  63:src/../test/Threads_CPP_API_test.hpp ****             thread_dispatch();
 476              		.loc 1 63 34 is_stmt 1 discriminator 3
 477 00b0 B7770000 		li	a5,28672
 478 00b4 9387F752 		addi	a5,a5,1327
 479 00b8 E3EEE7FC 		bgtu	a4,a5,.L26
  63:src/../test/Threads_CPP_API_test.hpp ****             thread_dispatch();
GAS LISTING /tmp/ccy6LGeJ.s 			page 11


 480              		.loc 1 63 13 discriminator 2
 481 00bc 13071700 		addi	a4,a4,1
 482              	.LVL41:
 483 00c0 6FF01FFF 		j	.L27
 484              	.LVL42:
 485              	.L25:
 486              	.LBE43:
 487              	.LBE44:
 488              	.LBE41:
 489              	.LBE40:
  60:src/../test/Threads_CPP_API_test.hpp ****         printString("A: i="); printInt(i); printString("\n");
 490              		.loc 1 60 5 discriminator 2
 491 00c4 13091900 		addi	s2,s2,1
 492              	.LVL43:
 493              	.L29:
  60:src/../test/Threads_CPP_API_test.hpp ****         printString("A: i="); printInt(i); printString("\n");
 494              		.loc 1 60 26 discriminator 1
 495 00c8 93079000 		li	a5,9
 496 00cc 63E02705 		bgtu	s2,a5,.L24
 497              	.LBB46:
  61:src/../test/Threads_CPP_API_test.hpp ****         for (uint64 j = 0; j < 10000; j++) {
 498              		.loc 1 61 9
  61:src/../test/Threads_CPP_API_test.hpp ****         for (uint64 j = 0; j < 10000; j++) {
 499              		.loc 1 61 20 is_stmt 0
 500 00d0 17050000 		lla	a0,.LC0
 500      13050500 
 501 00d8 97000000 		call	_Z11printStringPKc@plt
 501      E7800000 
 502              	.LVL44:
  61:src/../test/Threads_CPP_API_test.hpp ****         for (uint64 j = 0; j < 10000; j++) {
 503              		.loc 1 61 31 is_stmt 1
  61:src/../test/Threads_CPP_API_test.hpp ****         for (uint64 j = 0; j < 10000; j++) {
 504              		.loc 1 61 39 is_stmt 0
 505 00e0 13060000 		li	a2,0
 506 00e4 9305A000 		li	a1,10
 507 00e8 1B050900 		sext.w	a0,s2
 508 00ec 97000000 		call	_Z8printIntiii@plt
 508      E7800000 
 509              	.LVL45:
  61:src/../test/Threads_CPP_API_test.hpp ****         for (uint64 j = 0; j < 10000; j++) {
 510              		.loc 1 61 44 is_stmt 1
  61:src/../test/Threads_CPP_API_test.hpp ****         for (uint64 j = 0; j < 10000; j++) {
 511              		.loc 1 61 55 is_stmt 0
 512 00f4 17050000 		lla	a0,.LC1
 512      13050500 
 513 00fc 97000000 		call	_Z11printStringPKc@plt
 513      E7800000 
 514              	.LVL46:
  62:src/../test/Threads_CPP_API_test.hpp ****             for (uint64 k = 0; k < 30000; k++) { /* busy wait */ }
 515              		.loc 1 62 9 is_stmt 1
 516              	.LBB45:
  62:src/../test/Threads_CPP_API_test.hpp ****             for (uint64 k = 0; k < 30000; k++) { /* busy wait */ }
 517              		.loc 1 62 21 is_stmt 0
 518 0104 93040000 		li	s1,0
 519 0108 6FF09FF9 		j	.L28
 520              	.LVL47:
 521              	.L24:
GAS LISTING /tmp/ccy6LGeJ.s 			page 12


 522              	.LBE45:
 523              	.LBE46:
 524              	.LBE39:
  65:src/../test/Threads_CPP_API_test.hpp ****         }
  66:src/../test/Threads_CPP_API_test.hpp ****     }
  67:src/../test/Threads_CPP_API_test.hpp ****     printString("A finished!\n");
 525              		.loc 1 67 5 is_stmt 1
 526              		.loc 1 67 16 is_stmt 0
 527 010c 17050000 		lla	a0,.LC2
 527      13050500 
 528 0114 97000000 		call	_Z11printStringPKc@plt
 528      E7800000 
 529              	.LVL48:
  68:src/../test/Threads_CPP_API_test.hpp ****     finishedA = true;
 530              		.loc 1 68 5 is_stmt 1
 531              		.loc 1 68 15 is_stmt 0
 532 011c 93071000 		li	a5,1
 533 0120 17070000 		sb	a5,.LANCHOR0,a4
 533      2300F700 
  69:src/../test/Threads_CPP_API_test.hpp **** }
 534              		.loc 1 69 1
 535 0128 83308101 		ld	ra,24(sp)
 536              		.cfi_restore 1
 537 012c 03340101 		ld	s0,16(sp)
 538              		.cfi_restore 8
 539              		.cfi_def_cfa 2, 32
 540 0130 83348100 		ld	s1,8(sp)
 541              		.cfi_restore 9
 542 0134 03390100 		ld	s2,0(sp)
 543              		.cfi_restore 18
 544              	.LVL49:
 545 0138 13010102 		addi	sp,sp,32
 546              		.cfi_def_cfa_offset 0
 547 013c 67800000 		jr	ra
 548              		.cfi_endproc
 549              	.LFE54:
 551              		.section	.text._ZN7WorkerA3runEv,"axG",@progbits,_ZN7WorkerA3runEv,comdat
 552              		.align	2
 553              		.weak	_ZN7WorkerA3runEv
 555              	_ZN7WorkerA3runEv:
 556              	.LFB41:
  24:src/../test/Threads_CPP_API_test.hpp ****         workerBodyA(nullptr);
 557              		.loc 1 24 10 is_stmt 1
 558              		.cfi_startproc
 559              	.LVL50:
 560 0000 130101FF 		addi	sp,sp,-16
 561              		.cfi_def_cfa_offset 16
 562 0004 23341100 		sd	ra,8(sp)
 563 0008 23308100 		sd	s0,0(sp)
 564              		.cfi_offset 1, -8
 565              		.cfi_offset 8, -16
 566 000c 13040101 		addi	s0,sp,16
 567              		.cfi_def_cfa 8, 0
  25:src/../test/Threads_CPP_API_test.hpp ****     }
 568              		.loc 1 25 9
  25:src/../test/Threads_CPP_API_test.hpp ****     }
 569              		.loc 1 25 20 is_stmt 0
GAS LISTING /tmp/ccy6LGeJ.s 			page 13


 570 0010 93050000 		li	a1,0
 571 0014 97000000 		call	_ZN7WorkerA11workerBodyAEPv
 571      E7800000 
 572              	.LVL51:
  26:src/../test/Threads_CPP_API_test.hpp **** };
 573              		.loc 1 26 5
 574 001c 83308100 		ld	ra,8(sp)
 575              		.cfi_restore 1
 576 0020 03340100 		ld	s0,0(sp)
 577              		.cfi_restore 8
 578              		.cfi_def_cfa 2, 16
 579 0024 13010101 		addi	sp,sp,16
 580              		.cfi_def_cfa_offset 0
 581 0028 67800000 		jr	ra
 582              		.cfi_endproc
 583              	.LFE41:
 585              		.section	.rodata.str1.8
 586 001d 000000   		.align	3
 587              	.LC3:
 588 0020 423A2069 		.string	"B: i="
 588      3D00
 589 0026 0000     		.align	3
 590              	.LC4:
 591 0028 42206669 		.string	"B finished!\n"
 591      6E697368 
 591      6564210A 
 591      00
 592              		.text
 593              		.align	2
 594              		.globl	_ZN7WorkerB11workerBodyBEPv
 596              	_ZN7WorkerB11workerBodyBEPv:
 597              	.LFB55:
  70:src/../test/Threads_CPP_API_test.hpp **** 
  71:src/../test/Threads_CPP_API_test.hpp **** void WorkerB::workerBodyB(void *arg) {
 598              		.loc 1 71 38 is_stmt 1
 599              		.cfi_startproc
 600              	.LVL52:
 601 0140 130101FE 		addi	sp,sp,-32
 602              		.cfi_def_cfa_offset 32
 603 0144 233C1100 		sd	ra,24(sp)
 604 0148 23388100 		sd	s0,16(sp)
 605 014c 23349100 		sd	s1,8(sp)
 606 0150 23302101 		sd	s2,0(sp)
 607              		.cfi_offset 1, -8
 608              		.cfi_offset 8, -16
 609              		.cfi_offset 9, -24
 610              		.cfi_offset 18, -32
 611 0154 13040102 		addi	s0,sp,32
 612              		.cfi_def_cfa 8, 0
  72:src/../test/Threads_CPP_API_test.hpp ****     for (uint64 i = 0; i < 16; i++) {
 613              		.loc 1 72 5
 614              	.LVL53:
 615              	.LBB47:
 616              		.loc 1 72 17 is_stmt 0
 617 0158 13090000 		li	s2,0
 618 015c 6F008003 		j	.L39
 619              	.LVL54:
GAS LISTING /tmp/ccy6LGeJ.s 			page 14


 620              	.L36:
 621              	.LBB48:
 622              	.LBB49:
 623              	.LBB50:
  73:src/../test/Threads_CPP_API_test.hpp ****         printString("B: i="); printInt(i); printString("\n");
  74:src/../test/Threads_CPP_API_test.hpp ****         for (uint64 j = 0; j < 10000; j++) {
  75:src/../test/Threads_CPP_API_test.hpp ****             for (uint64 k = 0; k < 30000; k++) { /* busy wait */ }
  76:src/../test/Threads_CPP_API_test.hpp ****             thread_dispatch();
 624              		.loc 1 76 13 is_stmt 1 discriminator 2
 625              		.loc 1 76 28 is_stmt 0 discriminator 2
 626 0160 97000000 		call	_Z15thread_dispatchv@plt
 626      E7800000 
 627              	.LVL55:
 628              	.LBE50:
  74:src/../test/Threads_CPP_API_test.hpp ****             for (uint64 k = 0; k < 30000; k++) { /* busy wait */ }
 629              		.loc 1 74 9 is_stmt 1 discriminator 2
 630 0168 93841400 		addi	s1,s1,1
 631              	.LVL56:
 632              	.L38:
  74:src/../test/Threads_CPP_API_test.hpp ****             for (uint64 k = 0; k < 30000; k++) { /* busy wait */ }
 633              		.loc 1 74 30 discriminator 1
 634 016c B7270000 		li	a5,8192
 635 0170 9387F770 		addi	a5,a5,1807
 636 0174 63EE9700 		bgtu	s1,a5,.L35
 637              	.LBB52:
 638              	.LBB51:
  75:src/../test/Threads_CPP_API_test.hpp ****             thread_dispatch();
 639              		.loc 1 75 25 is_stmt 0
 640 0178 13070000 		li	a4,0
 641              	.L37:
 642              	.LVL57:
  75:src/../test/Threads_CPP_API_test.hpp ****             thread_dispatch();
 643              		.loc 1 75 34 is_stmt 1 discriminator 3
 644 017c B7770000 		li	a5,28672
 645 0180 9387F752 		addi	a5,a5,1327
 646 0184 E3EEE7FC 		bgtu	a4,a5,.L36
  75:src/../test/Threads_CPP_API_test.hpp ****             thread_dispatch();
 647              		.loc 1 75 13 discriminator 2
 648 0188 13071700 		addi	a4,a4,1
 649              	.LVL58:
 650 018c 6FF01FFF 		j	.L37
 651              	.LVL59:
 652              	.L35:
 653              	.LBE51:
 654              	.LBE52:
 655              	.LBE49:
 656              	.LBE48:
  72:src/../test/Threads_CPP_API_test.hpp ****         printString("B: i="); printInt(i); printString("\n");
 657              		.loc 1 72 5 discriminator 2
 658 0190 13091900 		addi	s2,s2,1
 659              	.LVL60:
 660              	.L39:
  72:src/../test/Threads_CPP_API_test.hpp ****         printString("B: i="); printInt(i); printString("\n");
 661              		.loc 1 72 26 discriminator 1
 662 0194 9307F000 		li	a5,15
 663 0198 63E02705 		bgtu	s2,a5,.L34
 664              	.LBB54:
GAS LISTING /tmp/ccy6LGeJ.s 			page 15


  73:src/../test/Threads_CPP_API_test.hpp ****         for (uint64 j = 0; j < 10000; j++) {
 665              		.loc 1 73 9
  73:src/../test/Threads_CPP_API_test.hpp ****         for (uint64 j = 0; j < 10000; j++) {
 666              		.loc 1 73 20 is_stmt 0
 667 019c 17050000 		lla	a0,.LC3
 667      13050500 
 668 01a4 97000000 		call	_Z11printStringPKc@plt
 668      E7800000 
 669              	.LVL61:
  73:src/../test/Threads_CPP_API_test.hpp ****         for (uint64 j = 0; j < 10000; j++) {
 670              		.loc 1 73 31 is_stmt 1
  73:src/../test/Threads_CPP_API_test.hpp ****         for (uint64 j = 0; j < 10000; j++) {
 671              		.loc 1 73 39 is_stmt 0
 672 01ac 13060000 		li	a2,0
 673 01b0 9305A000 		li	a1,10
 674 01b4 1B050900 		sext.w	a0,s2
 675 01b8 97000000 		call	_Z8printIntiii@plt
 675      E7800000 
 676              	.LVL62:
  73:src/../test/Threads_CPP_API_test.hpp ****         for (uint64 j = 0; j < 10000; j++) {
 677              		.loc 1 73 44 is_stmt 1
  73:src/../test/Threads_CPP_API_test.hpp ****         for (uint64 j = 0; j < 10000; j++) {
 678              		.loc 1 73 55 is_stmt 0
 679 01c0 17050000 		lla	a0,.LC1
 679      13050500 
 680 01c8 97000000 		call	_Z11printStringPKc@plt
 680      E7800000 
 681              	.LVL63:
  74:src/../test/Threads_CPP_API_test.hpp ****             for (uint64 k = 0; k < 30000; k++) { /* busy wait */ }
 682              		.loc 1 74 9 is_stmt 1
 683              	.LBB53:
  74:src/../test/Threads_CPP_API_test.hpp ****             for (uint64 k = 0; k < 30000; k++) { /* busy wait */ }
 684              		.loc 1 74 21 is_stmt 0
 685 01d0 93040000 		li	s1,0
 686 01d4 6FF09FF9 		j	.L38
 687              	.LVL64:
 688              	.L34:
 689              	.LBE53:
 690              	.LBE54:
 691              	.LBE47:
  77:src/../test/Threads_CPP_API_test.hpp ****         }
  78:src/../test/Threads_CPP_API_test.hpp ****     }
  79:src/../test/Threads_CPP_API_test.hpp ****     printString("B finished!\n");
 692              		.loc 1 79 5 is_stmt 1
 693              		.loc 1 79 16 is_stmt 0
 694 01d8 17050000 		lla	a0,.LC4
 694      13050500 
 695 01e0 97000000 		call	_Z11printStringPKc@plt
 695      E7800000 
 696              	.LVL65:
  80:src/../test/Threads_CPP_API_test.hpp ****     finishedB = true;
 697              		.loc 1 80 5 is_stmt 1
 698              		.loc 1 80 15 is_stmt 0
 699 01e8 93071000 		li	a5,1
 700 01ec 17070000 		sb	a5,.LANCHOR0+1,a4
 700      2300F700 
  81:src/../test/Threads_CPP_API_test.hpp ****     thread_dispatch();
GAS LISTING /tmp/ccy6LGeJ.s 			page 16


 701              		.loc 1 81 5 is_stmt 1
 702              		.loc 1 81 20 is_stmt 0
 703 01f4 97000000 		call	_Z15thread_dispatchv@plt
 703      E7800000 
 704              	.LVL66:
  82:src/../test/Threads_CPP_API_test.hpp **** }
 705              		.loc 1 82 1
 706 01fc 83308101 		ld	ra,24(sp)
 707              		.cfi_restore 1
 708 0200 03340101 		ld	s0,16(sp)
 709              		.cfi_restore 8
 710              		.cfi_def_cfa 2, 32
 711 0204 83348100 		ld	s1,8(sp)
 712              		.cfi_restore 9
 713 0208 03390100 		ld	s2,0(sp)
 714              		.cfi_restore 18
 715              	.LVL67:
 716 020c 13010102 		addi	sp,sp,32
 717              		.cfi_def_cfa_offset 0
 718 0210 67800000 		jr	ra
 719              		.cfi_endproc
 720              	.LFE55:
 722              		.section	.text._ZN7WorkerB3runEv,"axG",@progbits,_ZN7WorkerB3runEv,comdat
 723              		.align	2
 724              		.weak	_ZN7WorkerB3runEv
 726              	_ZN7WorkerB3runEv:
 727              	.LFB45:
  34:src/../test/Threads_CPP_API_test.hpp ****         workerBodyB(nullptr);
 728              		.loc 1 34 10 is_stmt 1
 729              		.cfi_startproc
 730              	.LVL68:
 731 0000 130101FF 		addi	sp,sp,-16
 732              		.cfi_def_cfa_offset 16
 733 0004 23341100 		sd	ra,8(sp)
 734 0008 23308100 		sd	s0,0(sp)
 735              		.cfi_offset 1, -8
 736              		.cfi_offset 8, -16
 737 000c 13040101 		addi	s0,sp,16
 738              		.cfi_def_cfa 8, 0
  35:src/../test/Threads_CPP_API_test.hpp ****     }
 739              		.loc 1 35 9
  35:src/../test/Threads_CPP_API_test.hpp ****     }
 740              		.loc 1 35 20 is_stmt 0
 741 0010 93050000 		li	a1,0
 742 0014 97000000 		call	_ZN7WorkerB11workerBodyBEPv
 742      E7800000 
 743              	.LVL69:
  36:src/../test/Threads_CPP_API_test.hpp **** };
 744              		.loc 1 36 5
 745 001c 83308100 		ld	ra,8(sp)
 746              		.cfi_restore 1
 747 0020 03340100 		ld	s0,0(sp)
 748              		.cfi_restore 8
 749              		.cfi_def_cfa 2, 16
 750 0024 13010101 		addi	sp,sp,16
 751              		.cfi_def_cfa_offset 0
 752 0028 67800000 		jr	ra
GAS LISTING /tmp/ccy6LGeJ.s 			page 17


 753              		.cfi_endproc
 754              	.LFE45:
 756              		.section	.rodata.str1.8
 757 0035 000000   		.align	3
 758              	.LC5:
 759 0038 433A2069 		.string	"C: i="
 759      3D00
 760 003e 0000     		.align	3
 761              	.LC6:
 762 0040 433A2064 		.string	"C: dispatch\n"
 762      69737061 
 762      7463680A 
 762      00
 763 004d 000000   		.align	3
 764              	.LC7:
 765 0050 433A2074 		.string	"C: t1="
 765      313D00
 766 0057 00       		.align	3
 767              	.LC8:
 768 0058 433A2066 		.string	"C: fibonaci="
 768      69626F6E 
 768      6163693D 
 768      00
 769              		.text
 770              		.align	2
 771              		.globl	_ZN7WorkerC11workerBodyCEPv
 773              	_ZN7WorkerC11workerBodyCEPv:
 774              	.LFB56:
  83:src/../test/Threads_CPP_API_test.hpp **** 
  84:src/../test/Threads_CPP_API_test.hpp **** void WorkerC::workerBodyC(void *arg) {
 775              		.loc 1 84 38 is_stmt 1
 776              		.cfi_startproc
 777              	.LVL70:
 778 0214 130101FE 		addi	sp,sp,-32
 779              		.cfi_def_cfa_offset 32
 780 0218 233C1100 		sd	ra,24(sp)
 781 021c 23388100 		sd	s0,16(sp)
 782 0220 23349100 		sd	s1,8(sp)
 783 0224 23302101 		sd	s2,0(sp)
 784              		.cfi_offset 1, -8
 785              		.cfi_offset 8, -16
 786              		.cfi_offset 9, -24
 787              		.cfi_offset 18, -32
 788 0228 13040102 		addi	s0,sp,32
 789              		.cfi_def_cfa 8, 0
  85:src/../test/Threads_CPP_API_test.hpp ****     uint8 i = 0;
 790              		.loc 1 85 5
 791              	.LVL71:
 792              		.loc 1 85 11 is_stmt 0
 793 022c 93040000 		li	s1,0
 794 0230 6F000004 		j	.L45
 795              	.LVL72:
 796              	.L49:
  86:src/../test/Threads_CPP_API_test.hpp ****     for (; i < 3; i++) {
  87:src/../test/Threads_CPP_API_test.hpp ****         printString("C: i="); printInt(i); printString("\n");
 797              		.loc 1 87 9 is_stmt 1 discriminator 1
 798              		.loc 1 87 20 is_stmt 0 discriminator 1
GAS LISTING /tmp/ccy6LGeJ.s 			page 18


 799 0234 17050000 		lla	a0,.LC5
 799      13050500 
 800 023c 97000000 		call	_Z11printStringPKc@plt
 800      E7800000 
 801              	.LVL73:
 802              		.loc 1 87 31 is_stmt 1 discriminator 1
 803              		.loc 1 87 39 is_stmt 0 discriminator 1
 804 0244 13060000 		li	a2,0
 805 0248 9305A000 		li	a1,10
 806 024c 13850400 		mv	a0,s1
 807 0250 97000000 		call	_Z8printIntiii@plt
 807      E7800000 
 808              	.LVL74:
 809              		.loc 1 87 44 is_stmt 1 discriminator 1
 810              		.loc 1 87 55 is_stmt 0 discriminator 1
 811 0258 17050000 		lla	a0,.LC1
 811      13050500 
 812 0260 97000000 		call	_Z11printStringPKc@plt
 812      E7800000 
 813              	.LVL75:
  86:src/../test/Threads_CPP_API_test.hpp ****     for (; i < 3; i++) {
 814              		.loc 1 86 5 is_stmt 1 discriminator 1
 815 0268 9B841400 		addiw	s1,s1,1
 816              	.LVL76:
 817 026c 93F4F40F 		andi	s1,s1,0xff
 818              	.LVL77:
 819              	.L45:
  86:src/../test/Threads_CPP_API_test.hpp ****     for (; i < 3; i++) {
 820              		.loc 1 86 5 discriminator 2
  86:src/../test/Threads_CPP_API_test.hpp ****     for (; i < 3; i++) {
 821              		.loc 1 86 14 discriminator 2
 822 0270 93072000 		li	a5,2
 823 0274 E3F097FC 		bleu	s1,a5,.L49
  88:src/../test/Threads_CPP_API_test.hpp ****     }
  89:src/../test/Threads_CPP_API_test.hpp **** 
  90:src/../test/Threads_CPP_API_test.hpp ****     printString("C: dispatch\n");
 824              		.loc 1 90 5
 825              		.loc 1 90 16 is_stmt 0
 826 0278 17050000 		lla	a0,.LC6
 826      13050500 
 827 0280 97000000 		call	_Z11printStringPKc@plt
 827      E7800000 
 828              	.LVL78:
  91:src/../test/Threads_CPP_API_test.hpp ****     __asm__ ("li t1, 7");
 829              		.loc 1 91 5 is_stmt 1
 830              		.loc 1 91 25 is_stmt 0
 831              	#APP
 832              	# 91 "src/../test/Threads_CPP_API_test.hpp" 1
  92              	    thread_dispatch();
 833              		li t1, 7
 834              	# 0 "" 2
 835              		.loc 1 92 5 is_stmt 1
 836              		.loc 1 92 20 is_stmt 0
 837              	#NO_APP
 838 028c 97000000 		call	_Z15thread_dispatchv@plt
 838      E7800000 
 839              	.LVL79:
GAS LISTING /tmp/ccy6LGeJ.s 			page 19


  93:src/../test/Threads_CPP_API_test.hpp **** 
  94:src/../test/Threads_CPP_API_test.hpp ****     uint64 t1 = 0;
 840              		.loc 1 94 5 is_stmt 1
  95:src/../test/Threads_CPP_API_test.hpp ****     __asm__ ("mv %[t1], t1" : [t1] "=r"(t1));
 841              		.loc 1 95 5
 842              		.loc 1 95 45 is_stmt 0
 843              	#APP
 844              	# 95 "src/../test/Threads_CPP_API_test.hpp" 1
  96              	
 845              		mv s2, t1
 846              	# 0 "" 2
 847              	.LVL80:
  97:src/../test/Threads_CPP_API_test.hpp ****     printString("C: t1="); printInt(t1); printString("\n");
 848              		.loc 1 97 5 is_stmt 1
 849              		.loc 1 97 16 is_stmt 0
 850              	#NO_APP
 851 0298 17050000 		lla	a0,.LC7
 851      13050500 
 852 02a0 97000000 		call	_Z11printStringPKc@plt
 852      E7800000 
 853              	.LVL81:
 854              		.loc 1 97 28 is_stmt 1
 855              		.loc 1 97 36 is_stmt 0
 856 02a8 13060000 		li	a2,0
 857 02ac 9305A000 		li	a1,10
 858 02b0 1B050900 		sext.w	a0,s2
 859 02b4 97000000 		call	_Z8printIntiii@plt
 859      E7800000 
 860              	.LVL82:
 861              		.loc 1 97 42 is_stmt 1
 862              		.loc 1 97 53 is_stmt 0
 863 02bc 17050000 		lla	a0,.LC1
 863      13050500 
 864 02c4 97000000 		call	_Z11printStringPKc@plt
 864      E7800000 
 865              	.LVL83:
  98:src/../test/Threads_CPP_API_test.hpp **** 
  99:src/../test/Threads_CPP_API_test.hpp ****     uint64 result = fibonacci(12);
 866              		.loc 1 99 5 is_stmt 1
 867              		.loc 1 99 30 is_stmt 0
 868 02cc 1305C000 		li	a0,12
 869 02d0 97000000 		call	_Z9fibonaccim
 869      E7800000 
 870              	.LVL84:
 871 02d8 13090500 		mv	s2,a0
 872              	.LVL85:
 100:src/../test/Threads_CPP_API_test.hpp ****     printString("C: fibonaci="); printInt(result); printString("\n");
 873              		.loc 1 100 5 is_stmt 1
 874              		.loc 1 100 16 is_stmt 0
 875 02dc 17050000 		lla	a0,.LC8
 875      13050500 
 876              	.LVL86:
 877 02e4 97000000 		call	_Z11printStringPKc@plt
 877      E7800000 
 878              	.LVL87:
 879              		.loc 1 100 34 is_stmt 1
 880              		.loc 1 100 42 is_stmt 0
GAS LISTING /tmp/ccy6LGeJ.s 			page 20


 881 02ec 13060000 		li	a2,0
 882 02f0 9305A000 		li	a1,10
 883 02f4 1B050900 		sext.w	a0,s2
 884 02f8 97000000 		call	_Z8printIntiii@plt
 884      E7800000 
 885              	.LVL88:
 886              		.loc 1 100 52 is_stmt 1
 887              		.loc 1 100 63 is_stmt 0
 888 0300 17050000 		lla	a0,.LC1
 888      13050500 
 889 0308 97000000 		call	_Z11printStringPKc@plt
 889      E7800000 
 890              	.LVL89:
 891 0310 6F000004 		j	.L47
 892              	.L50:
 101:src/../test/Threads_CPP_API_test.hpp **** 
 102:src/../test/Threads_CPP_API_test.hpp ****     for (; i < 6; i++) {
 103:src/../test/Threads_CPP_API_test.hpp ****         printString("C: i="); printInt(i); printString("\n");
 893              		.loc 1 103 9 is_stmt 1 discriminator 1
 894              		.loc 1 103 20 is_stmt 0 discriminator 1
 895 0314 17050000 		lla	a0,.LC5
 895      13050500 
 896 031c 97000000 		call	_Z11printStringPKc@plt
 896      E7800000 
 897              	.LVL90:
 898              		.loc 1 103 31 is_stmt 1 discriminator 1
 899              		.loc 1 103 39 is_stmt 0 discriminator 1
 900 0324 13060000 		li	a2,0
 901 0328 9305A000 		li	a1,10
 902 032c 13850400 		mv	a0,s1
 903 0330 97000000 		call	_Z8printIntiii@plt
 903      E7800000 
 904              	.LVL91:
 905              		.loc 1 103 44 is_stmt 1 discriminator 1
 906              		.loc 1 103 55 is_stmt 0 discriminator 1
 907 0338 17050000 		lla	a0,.LC1
 907      13050500 
 908 0340 97000000 		call	_Z11printStringPKc@plt
 908      E7800000 
 909              	.LVL92:
 102:src/../test/Threads_CPP_API_test.hpp ****         printString("C: i="); printInt(i); printString("\n");
 910              		.loc 1 102 5 is_stmt 1 discriminator 1
 911 0348 9B841400 		addiw	s1,s1,1
 912              	.LVL93:
 913 034c 93F4F40F 		andi	s1,s1,0xff
 914              	.LVL94:
 915              	.L47:
 102:src/../test/Threads_CPP_API_test.hpp ****         printString("C: i="); printInt(i); printString("\n");
 916              		.loc 1 102 5 discriminator 2
 102:src/../test/Threads_CPP_API_test.hpp ****         printString("C: i="); printInt(i); printString("\n");
 917              		.loc 1 102 14 discriminator 2
 918 0350 93075000 		li	a5,5
 919 0354 E3F097FC 		bleu	s1,a5,.L50
 104:src/../test/Threads_CPP_API_test.hpp ****     }
 105:src/../test/Threads_CPP_API_test.hpp **** 
 106:src/../test/Threads_CPP_API_test.hpp ****     printString("A finished!\n");
 920              		.loc 1 106 5
GAS LISTING /tmp/ccy6LGeJ.s 			page 21


 921              		.loc 1 106 16 is_stmt 0
 922 0358 17050000 		lla	a0,.LC2
 922      13050500 
 923 0360 97000000 		call	_Z11printStringPKc@plt
 923      E7800000 
 924              	.LVL95:
 107:src/../test/Threads_CPP_API_test.hpp ****     finishedC = true;
 925              		.loc 1 107 5 is_stmt 1
 926              		.loc 1 107 15 is_stmt 0
 927 0368 93071000 		li	a5,1
 928 036c 17070000 		sb	a5,.LANCHOR0+2,a4
 928      2300F700 
 108:src/../test/Threads_CPP_API_test.hpp ****     thread_dispatch();
 929              		.loc 1 108 5 is_stmt 1
 930              		.loc 1 108 20 is_stmt 0
 931 0374 97000000 		call	_Z15thread_dispatchv@plt
 931      E7800000 
 932              	.LVL96:
 109:src/../test/Threads_CPP_API_test.hpp **** }
 933              		.loc 1 109 1
 934 037c 83308101 		ld	ra,24(sp)
 935              		.cfi_restore 1
 936 0380 03340101 		ld	s0,16(sp)
 937              		.cfi_restore 8
 938              		.cfi_def_cfa 2, 32
 939 0384 83348100 		ld	s1,8(sp)
 940              		.cfi_restore 9
 941              	.LVL97:
 942 0388 03390100 		ld	s2,0(sp)
 943              		.cfi_restore 18
 944              	.LVL98:
 945 038c 13010102 		addi	sp,sp,32
 946              		.cfi_def_cfa_offset 0
 947 0390 67800000 		jr	ra
 948              		.cfi_endproc
 949              	.LFE56:
 951              		.section	.text._ZN7WorkerC3runEv,"axG",@progbits,_ZN7WorkerC3runEv,comdat
 952              		.align	2
 953              		.weak	_ZN7WorkerC3runEv
 955              	_ZN7WorkerC3runEv:
 956              	.LFB49:
  44:src/../test/Threads_CPP_API_test.hpp ****         workerBodyC(nullptr);
 957              		.loc 1 44 10 is_stmt 1
 958              		.cfi_startproc
 959              	.LVL99:
 960 0000 130101FF 		addi	sp,sp,-16
 961              		.cfi_def_cfa_offset 16
 962 0004 23341100 		sd	ra,8(sp)
 963 0008 23308100 		sd	s0,0(sp)
 964              		.cfi_offset 1, -8
 965              		.cfi_offset 8, -16
 966 000c 13040101 		addi	s0,sp,16
 967              		.cfi_def_cfa 8, 0
  45:src/../test/Threads_CPP_API_test.hpp ****     }
 968              		.loc 1 45 9
  45:src/../test/Threads_CPP_API_test.hpp ****     }
 969              		.loc 1 45 20 is_stmt 0
GAS LISTING /tmp/ccy6LGeJ.s 			page 22


 970 0010 93050000 		li	a1,0
 971 0014 97000000 		call	_ZN7WorkerC11workerBodyCEPv
 971      E7800000 
 972              	.LVL100:
  46:src/../test/Threads_CPP_API_test.hpp **** };
 973              		.loc 1 46 5
 974 001c 83308100 		ld	ra,8(sp)
 975              		.cfi_restore 1
 976 0020 03340100 		ld	s0,0(sp)
 977              		.cfi_restore 8
 978              		.cfi_def_cfa 2, 16
 979 0024 13010101 		addi	sp,sp,16
 980              		.cfi_def_cfa_offset 0
 981 0028 67800000 		jr	ra
 982              		.cfi_endproc
 983              	.LFE49:
 985              		.section	.rodata.str1.8
 986 0065 000000   		.align	3
 987              	.LC9:
 988 0068 443A2069 		.string	"D: i="
 988      3D00
 989 006e 0000     		.align	3
 990              	.LC10:
 991 0070 443A2064 		.string	"D: dispatch\n"
 991      69737061 
 991      7463680A 
 991      00
 992 007d 000000   		.align	3
 993              	.LC11:
 994 0080 443A2066 		.string	"D: fibonaci="
 994      69626F6E 
 994      6163693D 
 994      00
 995 008d 000000   		.align	3
 996              	.LC12:
 997 0090 44206669 		.string	"D finished!\n"
 997      6E697368 
 997      6564210A 
 997      00
 998              		.text
 999              		.align	2
 1000              		.globl	_ZN7WorkerD11workerBodyDEPv
 1002              	_ZN7WorkerD11workerBodyDEPv:
 1003              	.LFB57:
 110:src/../test/Threads_CPP_API_test.hpp **** 
 111:src/../test/Threads_CPP_API_test.hpp **** void WorkerD::workerBodyD(void* arg) {
 1004              		.loc 1 111 38 is_stmt 1
 1005              		.cfi_startproc
 1006              	.LVL101:
 1007 0394 130101FE 		addi	sp,sp,-32
 1008              		.cfi_def_cfa_offset 32
 1009 0398 233C1100 		sd	ra,24(sp)
 1010 039c 23388100 		sd	s0,16(sp)
 1011 03a0 23349100 		sd	s1,8(sp)
 1012 03a4 23302101 		sd	s2,0(sp)
 1013              		.cfi_offset 1, -8
 1014              		.cfi_offset 8, -16
GAS LISTING /tmp/ccy6LGeJ.s 			page 23


 1015              		.cfi_offset 9, -24
 1016              		.cfi_offset 18, -32
 1017 03a8 13040102 		addi	s0,sp,32
 1018              		.cfi_def_cfa 8, 0
 112:src/../test/Threads_CPP_API_test.hpp ****     uint8 i = 10;
 1019              		.loc 1 112 5
 1020              	.LVL102:
 1021              		.loc 1 112 11 is_stmt 0
 1022 03ac 9304A000 		li	s1,10
 1023 03b0 6F000004 		j	.L55
 1024              	.LVL103:
 1025              	.L59:
 113:src/../test/Threads_CPP_API_test.hpp ****     for (; i < 13; i++) {
 114:src/../test/Threads_CPP_API_test.hpp ****         printString("D: i="); printInt(i); printString("\n");
 1026              		.loc 1 114 9 is_stmt 1 discriminator 1
 1027              		.loc 1 114 20 is_stmt 0 discriminator 1
 1028 03b4 17050000 		lla	a0,.LC9
 1028      13050500 
 1029 03bc 97000000 		call	_Z11printStringPKc@plt
 1029      E7800000 
 1030              	.LVL104:
 1031              		.loc 1 114 31 is_stmt 1 discriminator 1
 1032              		.loc 1 114 39 is_stmt 0 discriminator 1
 1033 03c4 13060000 		li	a2,0
 1034 03c8 9305A000 		li	a1,10
 1035 03cc 13850400 		mv	a0,s1
 1036 03d0 97000000 		call	_Z8printIntiii@plt
 1036      E7800000 
 1037              	.LVL105:
 1038              		.loc 1 114 44 is_stmt 1 discriminator 1
 1039              		.loc 1 114 55 is_stmt 0 discriminator 1
 1040 03d8 17050000 		lla	a0,.LC1
 1040      13050500 
 1041 03e0 97000000 		call	_Z11printStringPKc@plt
 1041      E7800000 
 1042              	.LVL106:
 113:src/../test/Threads_CPP_API_test.hpp ****     for (; i < 13; i++) {
 1043              		.loc 1 113 5 is_stmt 1 discriminator 1
 1044 03e8 9B841400 		addiw	s1,s1,1
 1045              	.LVL107:
 1046 03ec 93F4F40F 		andi	s1,s1,0xff
 1047              	.LVL108:
 1048              	.L55:
 113:src/../test/Threads_CPP_API_test.hpp ****     for (; i < 13; i++) {
 1049              		.loc 1 113 5 discriminator 2
 113:src/../test/Threads_CPP_API_test.hpp ****     for (; i < 13; i++) {
 1050              		.loc 1 113 14 discriminator 2
 1051 03f0 9307C000 		li	a5,12
 1052 03f4 E3F097FC 		bleu	s1,a5,.L59
 115:src/../test/Threads_CPP_API_test.hpp ****     }
 116:src/../test/Threads_CPP_API_test.hpp **** 
 117:src/../test/Threads_CPP_API_test.hpp ****     printString("D: dispatch\n");
 1053              		.loc 1 117 5
 1054              		.loc 1 117 16 is_stmt 0
 1055 03f8 17050000 		lla	a0,.LC10
 1055      13050500 
 1056 0400 97000000 		call	_Z11printStringPKc@plt
GAS LISTING /tmp/ccy6LGeJ.s 			page 24


 1056      E7800000 
 1057              	.LVL109:
 118:src/../test/Threads_CPP_API_test.hpp ****     __asm__ ("li t1, 5");
 1058              		.loc 1 118 5 is_stmt 1
 1059              		.loc 1 118 25 is_stmt 0
 1060              	#APP
 1061              	# 118 "src/../test/Threads_CPP_API_test.hpp" 1
 119              	    thread_dispatch();
 1062              		li t1, 5
 1063              	# 0 "" 2
 1064              		.loc 1 119 5 is_stmt 1
 1065              		.loc 1 119 20 is_stmt 0
 1066              	#NO_APP
 1067 040c 97000000 		call	_Z15thread_dispatchv@plt
 1067      E7800000 
 1068              	.LVL110:
 120:src/../test/Threads_CPP_API_test.hpp **** 
 121:src/../test/Threads_CPP_API_test.hpp ****     uint64 result = fibonacci(16);
 1069              		.loc 1 121 5 is_stmt 1
 1070              		.loc 1 121 30 is_stmt 0
 1071 0414 13050001 		li	a0,16
 1072 0418 97000000 		call	_Z9fibonaccim
 1072      E7800000 
 1073              	.LVL111:
 1074 0420 13090500 		mv	s2,a0
 1075              	.LVL112:
 122:src/../test/Threads_CPP_API_test.hpp ****     printString("D: fibonaci="); printInt(result); printString("\n");
 1076              		.loc 1 122 5 is_stmt 1
 1077              		.loc 1 122 16 is_stmt 0
 1078 0424 17050000 		lla	a0,.LC11
 1078      13050500 
 1079              	.LVL113:
 1080 042c 97000000 		call	_Z11printStringPKc@plt
 1080      E7800000 
 1081              	.LVL114:
 1082              		.loc 1 122 34 is_stmt 1
 1083              		.loc 1 122 42 is_stmt 0
 1084 0434 13060000 		li	a2,0
 1085 0438 9305A000 		li	a1,10
 1086 043c 1B050900 		sext.w	a0,s2
 1087 0440 97000000 		call	_Z8printIntiii@plt
 1087      E7800000 
 1088              	.LVL115:
 1089              		.loc 1 122 52 is_stmt 1
 1090              		.loc 1 122 63 is_stmt 0
 1091 0448 17050000 		lla	a0,.LC1
 1091      13050500 
 1092 0450 97000000 		call	_Z11printStringPKc@plt
 1092      E7800000 
 1093              	.LVL116:
 1094 0458 6F000004 		j	.L57
 1095              	.L60:
 123:src/../test/Threads_CPP_API_test.hpp **** 
 124:src/../test/Threads_CPP_API_test.hpp ****     for (; i < 16; i++) {
 125:src/../test/Threads_CPP_API_test.hpp ****         printString("D: i="); printInt(i); printString("\n");
 1096              		.loc 1 125 9 is_stmt 1 discriminator 1
 1097              		.loc 1 125 20 is_stmt 0 discriminator 1
GAS LISTING /tmp/ccy6LGeJ.s 			page 25


 1098 045c 17050000 		lla	a0,.LC9
 1098      13050500 
 1099 0464 97000000 		call	_Z11printStringPKc@plt
 1099      E7800000 
 1100              	.LVL117:
 1101              		.loc 1 125 31 is_stmt 1 discriminator 1
 1102              		.loc 1 125 39 is_stmt 0 discriminator 1
 1103 046c 13060000 		li	a2,0
 1104 0470 9305A000 		li	a1,10
 1105 0474 13850400 		mv	a0,s1
 1106 0478 97000000 		call	_Z8printIntiii@plt
 1106      E7800000 
 1107              	.LVL118:
 1108              		.loc 1 125 44 is_stmt 1 discriminator 1
 1109              		.loc 1 125 55 is_stmt 0 discriminator 1
 1110 0480 17050000 		lla	a0,.LC1
 1110      13050500 
 1111 0488 97000000 		call	_Z11printStringPKc@plt
 1111      E7800000 
 1112              	.LVL119:
 124:src/../test/Threads_CPP_API_test.hpp ****         printString("D: i="); printInt(i); printString("\n");
 1113              		.loc 1 124 5 is_stmt 1 discriminator 1
 1114 0490 9B841400 		addiw	s1,s1,1
 1115              	.LVL120:
 1116 0494 93F4F40F 		andi	s1,s1,0xff
 1117              	.LVL121:
 1118              	.L57:
 124:src/../test/Threads_CPP_API_test.hpp ****         printString("D: i="); printInt(i); printString("\n");
 1119              		.loc 1 124 5 discriminator 2
 124:src/../test/Threads_CPP_API_test.hpp ****         printString("D: i="); printInt(i); printString("\n");
 1120              		.loc 1 124 14 discriminator 2
 1121 0498 9307F000 		li	a5,15
 1122 049c E3F097FC 		bleu	s1,a5,.L60
 126:src/../test/Threads_CPP_API_test.hpp ****     }
 127:src/../test/Threads_CPP_API_test.hpp **** 
 128:src/../test/Threads_CPP_API_test.hpp ****     printString("D finished!\n");
 1123              		.loc 1 128 5
 1124              		.loc 1 128 16 is_stmt 0
 1125 04a0 17050000 		lla	a0,.LC12
 1125      13050500 
 1126 04a8 97000000 		call	_Z11printStringPKc@plt
 1126      E7800000 
 1127              	.LVL122:
 129:src/../test/Threads_CPP_API_test.hpp ****     finishedD = true;
 1128              		.loc 1 129 5 is_stmt 1
 1129              		.loc 1 129 15 is_stmt 0
 1130 04b0 93071000 		li	a5,1
 1131 04b4 17070000 		sb	a5,.LANCHOR0+3,a4
 1131      2300F700 
 130:src/../test/Threads_CPP_API_test.hpp ****     thread_dispatch();
 1132              		.loc 1 130 5 is_stmt 1
 1133              		.loc 1 130 20 is_stmt 0
 1134 04bc 97000000 		call	_Z15thread_dispatchv@plt
 1134      E7800000 
 1135              	.LVL123:
 131:src/../test/Threads_CPP_API_test.hpp **** }
 1136              		.loc 1 131 1
GAS LISTING /tmp/ccy6LGeJ.s 			page 26


 1137 04c4 83308101 		ld	ra,24(sp)
 1138              		.cfi_restore 1
 1139 04c8 03340101 		ld	s0,16(sp)
 1140              		.cfi_restore 8
 1141              		.cfi_def_cfa 2, 32
 1142 04cc 83348100 		ld	s1,8(sp)
 1143              		.cfi_restore 9
 1144              	.LVL124:
 1145 04d0 03390100 		ld	s2,0(sp)
 1146              		.cfi_restore 18
 1147              	.LVL125:
 1148 04d4 13010102 		addi	sp,sp,32
 1149              		.cfi_def_cfa_offset 0
 1150 04d8 67800000 		jr	ra
 1151              		.cfi_endproc
 1152              	.LFE57:
 1154              		.section	.text._ZN7WorkerD3runEv,"axG",@progbits,_ZN7WorkerD3runEv,comdat
 1155              		.align	2
 1156              		.weak	_ZN7WorkerD3runEv
 1158              	_ZN7WorkerD3runEv:
 1159              	.LFB53:
  54:src/../test/Threads_CPP_API_test.hpp ****         workerBodyD(nullptr);
 1160              		.loc 1 54 10 is_stmt 1
 1161              		.cfi_startproc
 1162              	.LVL126:
 1163 0000 130101FF 		addi	sp,sp,-16
 1164              		.cfi_def_cfa_offset 16
 1165 0004 23341100 		sd	ra,8(sp)
 1166 0008 23308100 		sd	s0,0(sp)
 1167              		.cfi_offset 1, -8
 1168              		.cfi_offset 8, -16
 1169 000c 13040101 		addi	s0,sp,16
 1170              		.cfi_def_cfa 8, 0
  55:src/../test/Threads_CPP_API_test.hpp ****     }
 1171              		.loc 1 55 9
  55:src/../test/Threads_CPP_API_test.hpp ****     }
 1172              		.loc 1 55 20 is_stmt 0
 1173 0010 93050000 		li	a1,0
 1174 0014 97000000 		call	_ZN7WorkerD11workerBodyDEPv
 1174      E7800000 
 1175              	.LVL127:
  56:src/../test/Threads_CPP_API_test.hpp **** };
 1176              		.loc 1 56 5
 1177 001c 83308100 		ld	ra,8(sp)
 1178              		.cfi_restore 1
 1179 0020 03340100 		ld	s0,0(sp)
 1180              		.cfi_restore 8
 1181              		.cfi_def_cfa 2, 16
 1182 0024 13010101 		addi	sp,sp,16
 1183              		.cfi_def_cfa_offset 0
 1184 0028 67800000 		jr	ra
 1185              		.cfi_endproc
 1186              	.LFE53:
 1188              		.section	.rodata.str1.8
 1189 009d 000000   		.align	3
 1190              	.LC13:
 1191 00a0 70726520 		.string	"pre wrappera"
GAS LISTING /tmp/ccy6LGeJ.s 			page 27


 1191      77726170 
 1191      70657261 
 1191      00
 1192 00ad 000000   		.align	3
 1193              	.LC14:
 1194 00b0 54687265 		.string	"ThreadA created\n"
 1194      61644120 
 1194      63726561 
 1194      7465640A 
 1194      00
 1195 00c1 00000000 		.align	3
 1195      000000
 1196              	.LC15:
 1197 00c8 54687265 		.string	"ThreadB created\n"
 1197      61644220 
 1197      63726561 
 1197      7465640A 
 1197      00
 1198 00d9 00000000 		.align	3
 1198      000000
 1199              	.LC16:
 1200 00e0 54687265 		.string	"ThreadC created\n"
 1200      61644320 
 1200      63726561 
 1200      7465640A 
 1200      00
 1201 00f1 00000000 		.align	3
 1201      000000
 1202              	.LC17:
 1203 00f8 54687265 		.string	"ThreadD created\n"
 1203      61644420 
 1203      63726561 
 1203      7465640A 
 1203      00
 1204              		.text
 1205              		.align	2
 1206              		.globl	_Z20Threads_CPP_API_testv
 1208              	_Z20Threads_CPP_API_testv:
 1209              	.LFB58:
 132:src/../test/Threads_CPP_API_test.hpp **** 
 133:src/../test/Threads_CPP_API_test.hpp **** 
 134:src/../test/Threads_CPP_API_test.hpp **** void Threads_CPP_API_test() {
 1210              		.loc 1 134 29 is_stmt 1
 1211              		.cfi_startproc
 1212              		.cfi_personality 0x9b,DW.ref.__gxx_personality_v0
 1213              		.cfi_lsda 0x1b,.LLSDA58
 1214 04dc 130101FC 		addi	sp,sp,-64
 1215              		.cfi_def_cfa_offset 64
 1216 04e0 233C1102 		sd	ra,56(sp)
 1217 04e4 23388102 		sd	s0,48(sp)
 1218 04e8 23349102 		sd	s1,40(sp)
 1219 04ec 23302103 		sd	s2,32(sp)
 1220              		.cfi_offset 1, -8
 1221              		.cfi_offset 8, -16
 1222              		.cfi_offset 9, -24
 1223              		.cfi_offset 18, -32
 1224 04f0 13040104 		addi	s0,sp,64
GAS LISTING /tmp/ccy6LGeJ.s 			page 28


 1225              		.cfi_def_cfa 8, 0
 135:src/../test/Threads_CPP_API_test.hpp ****     Thread* threads[4];
 1226              		.loc 1 135 5
 136:src/../test/Threads_CPP_API_test.hpp **** 
 137:src/../test/Threads_CPP_API_test.hpp ****     threads[0] = new WorkerA();
 1227              		.loc 1 137 5
 1228              		.loc 1 137 30 is_stmt 0
 1229 04f4 13050001 		li	a0,16
 1230              	.LEHB0:
 1231 04f8 97000000 		call	_Znwm@plt
 1231      E7800000 
 1232              	.LVL128:
 1233              	.LEHE0:
 1234 0500 93040500 		mv	s1,a0
 1235              	.LVL129:
 1236              	.LBB80:
 1237              	.LBB81:
 1238              	.LBB82:
 1239              	.LBB83:
 1240              	.LBB84:
 1241              		.file 2 "src/../test/../h/syscall_cpp.hpp"
   1:src/../test/../h/syscall_cpp.hpp **** //
   2:src/../test/../h/syscall_cpp.hpp **** // Created by os on 9/11/22.
   3:src/../test/../h/syscall_cpp.hpp **** //
   4:src/../test/../h/syscall_cpp.hpp **** 
   5:src/../test/../h/syscall_cpp.hpp **** #ifndef _syscall_cpp
   6:src/../test/../h/syscall_cpp.hpp **** #define _syscall_cpp
   7:src/../test/../h/syscall_cpp.hpp **** #include "syscall_c.hpp"
   8:src/../test/../h/syscall_cpp.hpp **** #include "../h/printing.hpp"
   9:src/../test/../h/syscall_cpp.hpp **** //void* ::operator new (size_t);
  10:src/../test/../h/syscall_cpp.hpp **** //void ::operator delete (void*);
  11:src/../test/../h/syscall_cpp.hpp **** class Thread {
  12:src/../test/../h/syscall_cpp.hpp **** public:
  13:src/../test/../h/syscall_cpp.hpp ****     Thread (void (*body)(void*), void* arg);
  14:src/../test/../h/syscall_cpp.hpp ****     virtual ~Thread ();
  15:src/../test/../h/syscall_cpp.hpp ****     int start ();
  16:src/../test/../h/syscall_cpp.hpp ****     static void dispatch ();
  17:src/../test/../h/syscall_cpp.hpp ****     static void threadWrapper(void* arg);
  18:src/../test/../h/syscall_cpp.hpp **** protected:
  19:src/../test/../h/syscall_cpp.hpp ****     Thread (){
 1242              		.loc 2 19 14
 1243 0504 97070000 		la	a5,_ZTV6Thread
 1243      83B70700 
 1244 050c 93870701 		addi	a5,a5,16
 1245 0510 2330F500 		sd	a5,0(a0)
  20:src/../test/../h/syscall_cpp.hpp ****         //tu izleda da treba da dodas gornji konstruktor
  21:src/../test/../h/syscall_cpp.hpp ****         printString("pre wrappera");
 1246              		.loc 2 21 9 is_stmt 1
 1247              		.loc 2 21 20 is_stmt 0
 1248 0514 17050000 		lla	a0,.LC13
 1248      13050500 
 1249              	.LEHB1:
 1250 051c 97000000 		call	_Z11printStringPKc@plt
 1250      E7800000 
 1251              	.LVL130:
  22:src/../test/../h/syscall_cpp.hpp ****         //threadWrapper(this); //todo uopste mi ne napravi handle
  23:src/../test/../h/syscall_cpp.hpp ****         //printString("posle wrappera");
GAS LISTING /tmp/ccy6LGeJ.s 			page 29


  24:src/../test/../h/syscall_cpp.hpp ****         //Thread(threadWrapper(this), this); //todo mozda treba & ispred threadWrapper
  25:src/../test/../h/syscall_cpp.hpp ****         thread_create_cpp_api(&myHandle, threadWrapper, this);
 1252              		.loc 2 25 9 is_stmt 1
 1253              		.loc 2 25 30 is_stmt 0
 1254 0524 13860400 		mv	a2,s1
 1255 0528 97050000 		la	a1,_ZN6Thread13threadWrapperEPv
 1255      83B50500 
 1256 0530 13858400 		addi	a0,s1,8
 1257 0534 97000000 		call	_Z21thread_create_cpp_apiPP3TCBPFvPvES2_@plt
 1257      E7800000 
 1258              	.LVL131:
 1259              	.LEHE1:
 1260              	.LBE84:
 1261              	.LBE83:
 1262              	.LBE82:
  22:src/../test/Threads_CPP_API_test.hpp **** 
 1263              		.loc 1 22 22
 1264 053c 97070000 		lla	a5,_ZTV7WorkerA+16
 1264      93870700 
 1265 0544 23B0F400 		sd	a5,0(s1)
 1266              	.LVL132:
 1267              	.LBE81:
 1268              	.LBE80:
 1269              		.loc 1 137 16
 1270 0548 233094FC 		sd	s1,-64(s0)
 138:src/../test/Threads_CPP_API_test.hpp ****     printString("ThreadA created\n");
 1271              		.loc 1 138 5 is_stmt 1
 1272              		.loc 1 138 16 is_stmt 0
 1273 054c 17050000 		lla	a0,.LC14
 1273      13050500 
 1274              	.LEHB2:
 1275 0554 97000000 		call	_Z11printStringPKc@plt
 1275      E7800000 
 1276              	.LVL133:
 139:src/../test/Threads_CPP_API_test.hpp **** 
 140:src/../test/Threads_CPP_API_test.hpp ****     threads[1] = new WorkerB();
 1277              		.loc 1 140 5 is_stmt 1
 1278              		.loc 1 140 30 is_stmt 0
 1279 055c 13050001 		li	a0,16
 1280 0560 97000000 		call	_Znwm@plt
 1280      E7800000 
 1281              	.LVL134:
 1282              	.LEHE2:
 1283 0568 93040500 		mv	s1,a0
 1284              	.LVL135:
 1285              	.LBB85:
 1286              	.LBB86:
 1287              	.LBB87:
 1288              	.LBB88:
 1289              	.LBB89:
  19:src/../test/../h/syscall_cpp.hpp ****         //tu izleda da treba da dodas gornji konstruktor
 1290              		.loc 2 19 14
 1291 056c 97070000 		la	a5,_ZTV6Thread
 1291      83B70700 
 1292 0574 93870701 		addi	a5,a5,16
 1293 0578 2330F500 		sd	a5,0(a0)
  21:src/../test/../h/syscall_cpp.hpp ****         //threadWrapper(this); //todo uopste mi ne napravi handle
GAS LISTING /tmp/ccy6LGeJ.s 			page 30


 1294              		.loc 2 21 9 is_stmt 1
  21:src/../test/../h/syscall_cpp.hpp ****         //threadWrapper(this); //todo uopste mi ne napravi handle
 1295              		.loc 2 21 20 is_stmt 0
 1296 057c 17050000 		lla	a0,.LC13
 1296      13050500 
 1297              	.LEHB3:
 1298 0584 97000000 		call	_Z11printStringPKc@plt
 1298      E7800000 
 1299              	.LVL136:
 1300              		.loc 2 25 9 is_stmt 1
 1301              		.loc 2 25 30 is_stmt 0
 1302 058c 13860400 		mv	a2,s1
 1303 0590 97050000 		la	a1,_ZN6Thread13threadWrapperEPv
 1303      83B50500 
 1304 0598 13858400 		addi	a0,s1,8
 1305 059c 97000000 		call	_Z21thread_create_cpp_apiPP3TCBPFvPvES2_@plt
 1305      E7800000 
 1306              	.LVL137:
 1307              	.LEHE3:
 1308              	.LBE89:
 1309              	.LBE88:
 1310              	.LBE87:
  32:src/../test/Threads_CPP_API_test.hpp **** 
 1311              		.loc 1 32 22
 1312 05a4 97070000 		lla	a5,_ZTV7WorkerB+16
 1312      93870700 
 1313 05ac 23B0F400 		sd	a5,0(s1)
 1314              	.LVL138:
 1315              	.LBE86:
 1316              	.LBE85:
 1317              		.loc 1 140 16
 1318 05b0 233494FC 		sd	s1,-56(s0)
 141:src/../test/Threads_CPP_API_test.hpp ****     printString("ThreadB created\n");
 1319              		.loc 1 141 5 is_stmt 1
 1320              		.loc 1 141 16 is_stmt 0
 1321 05b4 17050000 		lla	a0,.LC15
 1321      13050500 
 1322              	.LEHB4:
 1323 05bc 97000000 		call	_Z11printStringPKc@plt
 1323      E7800000 
 1324              	.LVL139:
 142:src/../test/Threads_CPP_API_test.hpp **** 
 143:src/../test/Threads_CPP_API_test.hpp ****     threads[2] = new WorkerC();
 1325              		.loc 1 143 5 is_stmt 1
 1326              		.loc 1 143 30 is_stmt 0
 1327 05c4 13050001 		li	a0,16
 1328 05c8 97000000 		call	_Znwm@plt
 1328      E7800000 
 1329              	.LVL140:
 1330              	.LEHE4:
 1331 05d0 93040500 		mv	s1,a0
 1332              	.LVL141:
 1333              	.LBB90:
 1334              	.LBB91:
 1335              	.LBB92:
 1336              	.LBB93:
 1337              	.LBB94:
GAS LISTING /tmp/ccy6LGeJ.s 			page 31


  19:src/../test/../h/syscall_cpp.hpp ****         //tu izleda da treba da dodas gornji konstruktor
 1338              		.loc 2 19 14
 1339 05d4 97070000 		la	a5,_ZTV6Thread
 1339      83B70700 
 1340 05dc 93870701 		addi	a5,a5,16
 1341 05e0 2330F500 		sd	a5,0(a0)
  21:src/../test/../h/syscall_cpp.hpp ****         //threadWrapper(this); //todo uopste mi ne napravi handle
 1342              		.loc 2 21 9 is_stmt 1
  21:src/../test/../h/syscall_cpp.hpp ****         //threadWrapper(this); //todo uopste mi ne napravi handle
 1343              		.loc 2 21 20 is_stmt 0
 1344 05e4 17050000 		lla	a0,.LC13
 1344      13050500 
 1345              	.LEHB5:
 1346 05ec 97000000 		call	_Z11printStringPKc@plt
 1346      E7800000 
 1347              	.LVL142:
 1348              		.loc 2 25 9 is_stmt 1
 1349              		.loc 2 25 30 is_stmt 0
 1350 05f4 13860400 		mv	a2,s1
 1351 05f8 97050000 		la	a1,_ZN6Thread13threadWrapperEPv
 1351      83B50500 
 1352 0600 13858400 		addi	a0,s1,8
 1353 0604 97000000 		call	_Z21thread_create_cpp_apiPP3TCBPFvPvES2_@plt
 1353      E7800000 
 1354              	.LVL143:
 1355              	.LEHE5:
 1356              	.LBE94:
 1357              	.LBE93:
 1358              	.LBE92:
  42:src/../test/Threads_CPP_API_test.hpp **** 
 1359              		.loc 1 42 22
 1360 060c 97070000 		lla	a5,_ZTV7WorkerC+16
 1360      93870700 
 1361 0614 23B0F400 		sd	a5,0(s1)
 1362              	.LVL144:
 1363              	.LBE91:
 1364              	.LBE90:
 1365              		.loc 1 143 16
 1366 0618 233894FC 		sd	s1,-48(s0)
 144:src/../test/Threads_CPP_API_test.hpp ****     printString("ThreadC created\n");
 1367              		.loc 1 144 5 is_stmt 1
 1368              		.loc 1 144 16 is_stmt 0
 1369 061c 17050000 		lla	a0,.LC16
 1369      13050500 
 1370              	.LEHB6:
 1371 0624 97000000 		call	_Z11printStringPKc@plt
 1371      E7800000 
 1372              	.LVL145:
 145:src/../test/Threads_CPP_API_test.hpp **** 
 146:src/../test/Threads_CPP_API_test.hpp ****     threads[3] = new WorkerD();
 1373              		.loc 1 146 5 is_stmt 1
 1374              		.loc 1 146 30 is_stmt 0
 1375 062c 13050001 		li	a0,16
 1376 0630 97000000 		call	_Znwm@plt
 1376      E7800000 
 1377              	.LVL146:
 1378              	.LEHE6:
GAS LISTING /tmp/ccy6LGeJ.s 			page 32


 1379 0638 93040500 		mv	s1,a0
 1380              	.LVL147:
 1381              	.LBB95:
 1382              	.LBB96:
 1383              	.LBB97:
 1384              	.LBB98:
 1385              	.LBB99:
  19:src/../test/../h/syscall_cpp.hpp ****         //tu izleda da treba da dodas gornji konstruktor
 1386              		.loc 2 19 14
 1387 063c 97070000 		la	a5,_ZTV6Thread
 1387      83B70700 
 1388 0644 93870701 		addi	a5,a5,16
 1389 0648 2330F500 		sd	a5,0(a0)
  21:src/../test/../h/syscall_cpp.hpp ****         //threadWrapper(this); //todo uopste mi ne napravi handle
 1390              		.loc 2 21 9 is_stmt 1
  21:src/../test/../h/syscall_cpp.hpp ****         //threadWrapper(this); //todo uopste mi ne napravi handle
 1391              		.loc 2 21 20 is_stmt 0
 1392 064c 17050000 		lla	a0,.LC13
 1392      13050500 
 1393              	.LEHB7:
 1394 0654 97000000 		call	_Z11printStringPKc@plt
 1394      E7800000 
 1395              	.LVL148:
 1396              		.loc 2 25 9 is_stmt 1
 1397              		.loc 2 25 30 is_stmt 0
 1398 065c 13860400 		mv	a2,s1
 1399 0660 97050000 		la	a1,_ZN6Thread13threadWrapperEPv
 1399      83B50500 
 1400 0668 13858400 		addi	a0,s1,8
 1401 066c 97000000 		call	_Z21thread_create_cpp_apiPP3TCBPFvPvES2_@plt
 1401      E7800000 
 1402              	.LVL149:
 1403              	.LEHE7:
 1404              	.LBE99:
 1405              	.LBE98:
 1406              	.LBE97:
  52:src/../test/Threads_CPP_API_test.hpp **** 
 1407              		.loc 1 52 22
 1408 0674 97070000 		lla	a5,_ZTV7WorkerD+16
 1408      93870700 
 1409 067c 23B0F400 		sd	a5,0(s1)
 1410              	.LVL150:
 1411              	.LBE96:
 1412              	.LBE95:
 1413              		.loc 1 146 16
 1414 0680 233C94FC 		sd	s1,-40(s0)
 147:src/../test/Threads_CPP_API_test.hpp ****     printString("ThreadD created\n");
 1415              		.loc 1 147 5 is_stmt 1
 1416              		.loc 1 147 16 is_stmt 0
 1417 0684 17050000 		lla	a0,.LC17
 1417      13050500 
 1418              	.LEHB8:
 1419 068c 97000000 		call	_Z11printStringPKc@plt
 1419      E7800000 
 1420              	.LVL151:
 1421 0694 6F00C000 		j	.L66
 1422              	.L64:
GAS LISTING /tmp/ccy6LGeJ.s 			page 33


 148:src/../test/Threads_CPP_API_test.hpp **** 
 149:src/../test/Threads_CPP_API_test.hpp **** //   for(int i=0; i<4; i++) {
 150:src/../test/Threads_CPP_API_test.hpp **** //       printString("dodje do starta\n");
 151:src/../test/Threads_CPP_API_test.hpp **** //       threads[i]->start();
 152:src/../test/Threads_CPP_API_test.hpp **** //       printString("startovao\n");
 153:src/../test/Threads_CPP_API_test.hpp **** //   }
 154:src/../test/Threads_CPP_API_test.hpp **** 
 155:src/../test/Threads_CPP_API_test.hpp ****     while (!(finishedA && finishedB && finishedC && finishedD)) {
 156:src/../test/Threads_CPP_API_test.hpp ****         Thread::dispatch();
 1423              		.loc 1 156 9 is_stmt 1
 1424              		.loc 1 156 25 is_stmt 0
 1425 0698 97000000 		call	_ZN6Thread8dispatchEv@plt
 1425      E7800000 
 1426              	.LVL152:
 1427              	.L66:
 155:src/../test/Threads_CPP_API_test.hpp ****         Thread::dispatch();
 1428              		.loc 1 155 5 is_stmt 1
 155:src/../test/Threads_CPP_API_test.hpp ****         Thread::dispatch();
 1429              		.loc 1 155 12
 1430 06a0 97070000 		lbu	a5,.LANCHOR0
 1430      83C70700 
 1431 06a8 E38807FE 		beqz	a5,.L64
 155:src/../test/Threads_CPP_API_test.hpp ****         Thread::dispatch();
 1432              		.loc 1 155 24 is_stmt 0 discriminator 1
 1433 06ac 97070000 		lbu	a5,.LANCHOR0+1
 1433      83C70700 
 1434 06b4 E38207FE 		beqz	a5,.L64
 155:src/../test/Threads_CPP_API_test.hpp ****         Thread::dispatch();
 1435              		.loc 1 155 37 discriminator 2
 1436 06b8 97070000 		lbu	a5,.LANCHOR0+2
 1436      83C70700 
 1437 06c0 E38C07FC 		beqz	a5,.L64
 155:src/../test/Threads_CPP_API_test.hpp ****         Thread::dispatch();
 1438              		.loc 1 155 12 discriminator 3
 1439 06c4 97070000 		lbu	a5,.LANCHOR0+3
 1439      83C70700 
 1440 06cc E38607FC 		beqz	a5,.L64
 1441              	.LBB100:
 157:src/../test/Threads_CPP_API_test.hpp ****     }
 158:src/../test/Threads_CPP_API_test.hpp **** 
 159:src/../test/Threads_CPP_API_test.hpp ****     for (auto thread: threads) { delete thread; }
 1442              		.loc 1 159 23
 1443 06d0 930404FC 		addi	s1,s0,-64
 1444 06d4 6F008000 		j	.L65
 1445              	.LVL153:
 1446              	.L68:
 1447              		.loc 1 159 5 is_stmt 1 discriminator 5
 1448 06d8 93848400 		addi	s1,s1,8
 1449              	.LVL154:
 1450              	.L65:
 1451              		.loc 1 159 23 discriminator 6
 1452 06dc 930704FE 		addi	a5,s0,-32
 1453 06e0 6386F408 		beq	s1,a5,.L63
 1454              		.loc 1 159 15 is_stmt 0 discriminator 2
 1455 06e4 03B50400 		ld	a0,0(s1)
 1456              	.LVL155:
 1457              		.loc 1 159 34 is_stmt 1 discriminator 2
GAS LISTING /tmp/ccy6LGeJ.s 			page 34


 1458              		.loc 1 159 47 is_stmt 0 discriminator 2
 1459 06e8 E30805FE 		beqz	a0,.L68
 1460              		.loc 1 159 41 discriminator 3
 1461 06ec 83370500 		ld	a5,0(a0)
 1462 06f0 83B78700 		ld	a5,8(a5)
 1463 06f4 E7800700 		jalr	a5
 1464              	.LVL156:
 1465 06f8 6FF01FFE 		j	.L68
 1466              	.LVL157:
 1467              	.L74:
 1468 06fc 13090500 		mv	s2,a0
 1469              	.LBE100:
 137:src/../test/Threads_CPP_API_test.hpp ****     printString("ThreadA created\n");
 1470              		.loc 1 137 30
 1471 0700 13850400 		mv	a0,s1
 1472 0704 97000000 		call	_ZdlPv@plt
 1472      E7800000 
 1473              	.LVL158:
 1474 070c 13050900 		mv	a0,s2
 1475 0710 97000000 		call	_Unwind_Resume@plt
 1475      E7800000 
 1476              	.LVL159:
 1477              	.L75:
 1478 0718 13090500 		mv	s2,a0
 140:src/../test/Threads_CPP_API_test.hpp ****     printString("ThreadB created\n");
 1479              		.loc 1 140 30
 1480 071c 13850400 		mv	a0,s1
 1481 0720 97000000 		call	_ZdlPv@plt
 1481      E7800000 
 1482              	.LVL160:
 1483 0728 13050900 		mv	a0,s2
 1484 072c 97000000 		call	_Unwind_Resume@plt
 1484      E7800000 
 1485              	.LVL161:
 1486              	.L76:
 1487 0734 13090500 		mv	s2,a0
 143:src/../test/Threads_CPP_API_test.hpp ****     printString("ThreadC created\n");
 1488              		.loc 1 143 30
 1489 0738 13850400 		mv	a0,s1
 1490 073c 97000000 		call	_ZdlPv@plt
 1490      E7800000 
 1491              	.LVL162:
 1492 0744 13050900 		mv	a0,s2
 1493 0748 97000000 		call	_Unwind_Resume@plt
 1493      E7800000 
 1494              	.LVL163:
 1495              	.L77:
 1496 0750 13090500 		mv	s2,a0
 146:src/../test/Threads_CPP_API_test.hpp ****     printString("ThreadD created\n");
 1497              		.loc 1 146 30
 1498 0754 13850400 		mv	a0,s1
 1499 0758 97000000 		call	_ZdlPv@plt
 1499      E7800000 
 1500              	.LVL164:
 1501 0760 13050900 		mv	a0,s2
 1502 0764 97000000 		call	_Unwind_Resume@plt
 1502      E7800000 
GAS LISTING /tmp/ccy6LGeJ.s 			page 35


 1503              	.LVL165:
 1504              	.LEHE8:
 1505              	.L63:
 160:src/../test/Threads_CPP_API_test.hpp **** }
 1506              		.loc 1 160 1
 1507 076c 83308103 		ld	ra,56(sp)
 1508              		.cfi_restore 1
 1509 0770 03340103 		ld	s0,48(sp)
 1510              		.cfi_restore 8
 1511              		.cfi_def_cfa 2, 64
 1512 0774 83348102 		ld	s1,40(sp)
 1513              		.cfi_restore 9
 1514              	.LVL166:
 1515 0778 03390102 		ld	s2,32(sp)
 1516              		.cfi_restore 18
 1517 077c 13010104 		addi	sp,sp,64
 1518              		.cfi_def_cfa_offset 0
 1519 0780 67800000 		jr	ra
 1520              		.cfi_endproc
 1521              	.LFE58:
 1522              		.globl	__gxx_personality_v0
 1523              		.section	.gcc_except_table,"a",@progbits
 1524              	.LLSDA58:
 1525 0000 FF       		.byte	0xff
 1526 0001 FF       		.byte	0xff
 1527 0002 03       		.byte	0x3
 1528 0003 75       		.byte	0x75
 1529 0004 00000000 		.4byte	.LEHB0-.LFB58
 1530 0008 00000000 		.4byte	.LEHE0-.LEHB0
 1531 000c 00000000 		.4byte	0
 1532 0010 00       		.byte	0
 1533 0011 00000000 		.4byte	.LEHB1-.LFB58
 1534 0015 00000000 		.4byte	.LEHE1-.LEHB1
 1535 0019 00000000 		.4byte	.L74-.LFB58
 1536 001d 00       		.byte	0
 1537 001e 00000000 		.4byte	.LEHB2-.LFB58
 1538 0022 00000000 		.4byte	.LEHE2-.LEHB2
 1539 0026 00000000 		.4byte	0
 1540 002a 00       		.byte	0
 1541 002b 00000000 		.4byte	.LEHB3-.LFB58
 1542 002f 00000000 		.4byte	.LEHE3-.LEHB3
 1543 0033 00000000 		.4byte	.L75-.LFB58
 1544 0037 00       		.byte	0
 1545 0038 00000000 		.4byte	.LEHB4-.LFB58
 1546 003c 00000000 		.4byte	.LEHE4-.LEHB4
 1547 0040 00000000 		.4byte	0
 1548 0044 00       		.byte	0
 1549 0045 00000000 		.4byte	.LEHB5-.LFB58
 1550 0049 00000000 		.4byte	.LEHE5-.LEHB5
 1551 004d 00000000 		.4byte	.L76-.LFB58
 1552 0051 00       		.byte	0
 1553 0052 00000000 		.4byte	.LEHB6-.LFB58
 1554 0056 00000000 		.4byte	.LEHE6-.LEHB6
 1555 005a 00000000 		.4byte	0
 1556 005e 00       		.byte	0
 1557 005f 00000000 		.4byte	.LEHB7-.LFB58
 1558 0063 00000000 		.4byte	.LEHE7-.LEHB7
GAS LISTING /tmp/ccy6LGeJ.s 			page 36


 1559 0067 00000000 		.4byte	.L77-.LFB58
 1560 006b 00       		.byte	0
 1561 006c 00000000 		.4byte	.LEHB8-.LFB58
 1562 0070 00000000 		.4byte	.LEHE8-.LEHB8
 1563 0074 00000000 		.4byte	0
 1564 0078 00       		.byte	0
 1565              		.text
 1567              		.align	2
 1568              		.globl	_Z8userMainv
 1570              	_Z8userMainv:
 1571              	.LFB59:
 1572              		.file 3 "src/userMain.cpp"
   1:src/userMain.cpp **** //#include "../test/Threads_C_API_test.hpp" // zadatak 2, niti C API i sinhrona promena konteksta
   2:src/userMain.cpp **** #include "../test/Threads_CPP_API_test.hpp" // zadatak 2., niti CPP API i sinhrona promena kontekst
   3:src/userMain.cpp **** 
   4:src/userMain.cpp **** //#include "../test/ConsumerProducer_C_API_test.h" // zadatak 3., kompletan C API sa semaforima, si
   5:src/userMain.cpp **** //#include "../test/ConsumerProducer_CPP_Sync_API_test.hpp" // zadatak 3., kompletan CPP API sa sem
   6:src/userMain.cpp **** 
   7:src/userMain.cpp **** //#include "../test/ThreadSleep_C_API_test.hpp" // thread_sleep test C API
   8:src/userMain.cpp **** //#include "../test/ConsumerProducer_CPP_API_test.hpp" // zadatak 4. CPP API i asinhrona promena ko
   9:src/userMain.cpp **** 
  10:src/userMain.cpp **** void userMain() {
 1573              		.loc 3 10 17 is_stmt 1
 1574              		.cfi_startproc
 1575 0784 130101FF 		addi	sp,sp,-16
 1576              		.cfi_def_cfa_offset 16
 1577 0788 23341100 		sd	ra,8(sp)
 1578 078c 23308100 		sd	s0,0(sp)
 1579              		.cfi_offset 1, -8
 1580              		.cfi_offset 8, -16
 1581 0790 13040101 		addi	s0,sp,16
 1582              		.cfi_def_cfa 8, 0
  11:src/userMain.cpp ****     //Threads_C_API_test(); // zadatak 2., niti C API i sinhrona promena konteksta
  12:src/userMain.cpp ****     Threads_CPP_API_test(); // zadatak 2., niti CPP API i sinhrona promena konteksta
 1583              		.loc 3 12 5
 1584              		.loc 3 12 25 is_stmt 0
 1585 0794 97000000 		call	_Z20Threads_CPP_API_testv
 1585      E7800000 
 1586              	.LVL167:
  13:src/userMain.cpp **** 
  14:src/userMain.cpp ****     //producerConsumer_C_API(); // zadatak 3., kompletan C API sa semaforima, sinhrona promena kont
  15:src/userMain.cpp ****     //producerConsumer_CPP_Sync_API(); // zadatak 3., kompletan CPP API sa semaforima, sinhrona pro
  16:src/userMain.cpp **** 
  17:src/userMain.cpp ****     //testSleeping(); // thread_sleep test C API
  18:src/userMain.cpp ****     //ConsumerProducerCPP::testConsumerProducer(); // zadatak 4. CPP API i asinhrona promena kontek
  19:src/userMain.cpp **** 
  20:src/userMain.cpp **** }...
 1587              		.loc 3 20 1
 1588 079c 83308100 		ld	ra,8(sp)
 1589              		.cfi_restore 1
 1590 07a0 03340100 		ld	s0,0(sp)
 1591              		.cfi_restore 8
 1592              		.cfi_def_cfa 2, 16
 1593 07a4 13010101 		addi	sp,sp,16
 1594              		.cfi_def_cfa_offset 0
 1595 07a8 67800000 		jr	ra
 1596              		.cfi_endproc
GAS LISTING /tmp/ccy6LGeJ.s 			page 37


 1597              	.LFE59:
 1599              		.weak	_ZTV7WorkerA
 1600              		.section	.data.rel.ro.local._ZTV7WorkerA,"awG",@progbits,_ZTV7WorkerA,comdat
 1601              		.align	3
 1604              	_ZTV7WorkerA:
 1605 0000 00000000 		.dword	0
 1605      00000000 
 1606 0008 00000000 		.dword	0
 1606      00000000 
 1607 0010 00000000 		.dword	_ZN7WorkerAD1Ev
 1607      00000000 
 1608 0018 00000000 		.dword	_ZN7WorkerAD0Ev
 1608      00000000 
 1609 0020 00000000 		.dword	_ZN7WorkerA3runEv
 1609      00000000 
 1610              		.weak	_ZTV7WorkerB
 1611              		.section	.data.rel.ro.local._ZTV7WorkerB,"awG",@progbits,_ZTV7WorkerB,comdat
 1612              		.align	3
 1615              	_ZTV7WorkerB:
 1616 0000 00000000 		.dword	0
 1616      00000000 
 1617 0008 00000000 		.dword	0
 1617      00000000 
 1618 0010 00000000 		.dword	_ZN7WorkerBD1Ev
 1618      00000000 
 1619 0018 00000000 		.dword	_ZN7WorkerBD0Ev
 1619      00000000 
 1620 0020 00000000 		.dword	_ZN7WorkerB3runEv
 1620      00000000 
 1621              		.weak	_ZTV7WorkerC
 1622              		.section	.data.rel.ro.local._ZTV7WorkerC,"awG",@progbits,_ZTV7WorkerC,comdat
 1623              		.align	3
 1626              	_ZTV7WorkerC:
 1627 0000 00000000 		.dword	0
 1627      00000000 
 1628 0008 00000000 		.dword	0
 1628      00000000 
 1629 0010 00000000 		.dword	_ZN7WorkerCD1Ev
 1629      00000000 
 1630 0018 00000000 		.dword	_ZN7WorkerCD0Ev
 1630      00000000 
 1631 0020 00000000 		.dword	_ZN7WorkerC3runEv
 1631      00000000 
 1632              		.weak	_ZTV7WorkerD
 1633              		.section	.data.rel.ro.local._ZTV7WorkerD,"awG",@progbits,_ZTV7WorkerD,comdat
 1634              		.align	3
 1637              	_ZTV7WorkerD:
 1638 0000 00000000 		.dword	0
 1638      00000000 
 1639 0008 00000000 		.dword	0
 1639      00000000 
 1640 0010 00000000 		.dword	_ZN7WorkerDD1Ev
 1640      00000000 
 1641 0018 00000000 		.dword	_ZN7WorkerDD0Ev
 1641      00000000 
 1642 0020 00000000 		.dword	_ZN7WorkerD3runEv
 1642      00000000 
GAS LISTING /tmp/ccy6LGeJ.s 			page 38


 1643              		.globl	finishedD
 1644              		.globl	finishedC
 1645              		.globl	finishedB
 1646              		.globl	finishedA
 1647              		.bss
 1648              		.set	.LANCHOR0,. + 0
 1651              	finishedA:
 1652 0000 00       		.zero	1
 1655              	finishedB:
 1656 0001 00       		.zero	1
 1659              	finishedC:
 1660 0002 00       		.zero	1
 1663              	finishedD:
 1664 0003 00       		.zero	1
 1665              		.text
 1666              	.Letext0:
 1667              		.file 4 "src/../test/../h/../h/../lib/hw.h"
 1668              		.file 5 "src/../test/../h/syscall_c.hpp"
 1669              		.file 6 "src/../test/../h/../h/../h/printing.hpp"
 5794              		.align	3
 5797              	DW.ref.__gxx_personality_v0:
 5798 0000 00000000 		.dword	__gxx_personality_v0
 5798      00000000 
 5799              		.ident	"GCC: (Ubuntu 9.4.0-1ubuntu1~20.04) 9.4.0"
 5800              		.section	.note.GNU-stack,"",@progbits
GAS LISTING /tmp/ccy6LGeJ.s 			page 39


DEFINED SYMBOLS
                            *ABS*:0000000000000000 userMain.cpp
     /tmp/ccy6LGeJ.s:10     .text._ZN7WorkerAD2Ev:0000000000000000 _ZN7WorkerAD2Ev
     /tmp/ccy6LGeJ.s:14     .text._ZN7WorkerAD2Ev:0000000000000000 .L0 
     /tmp/ccy6LGeJ.s:16     .text._ZN7WorkerAD2Ev:0000000000000000 .L0 
     /tmp/ccy6LGeJ.s:17     .text._ZN7WorkerAD2Ev:0000000000000004 .L0 
     /tmp/ccy6LGeJ.s:20     .text._ZN7WorkerAD2Ev:000000000000000c .L0 
     /tmp/ccy6LGeJ.s:21     .text._ZN7WorkerAD2Ev:000000000000000c .L0 
     /tmp/ccy6LGeJ.s:23     .text._ZN7WorkerAD2Ev:0000000000000010 .L0 
     /tmp/ccy6LGeJ.s:1604   .data.rel.ro.local._ZTV7WorkerA:0000000000000000 _ZTV7WorkerA
     /tmp/ccy6LGeJ.s:26     .text._ZN7WorkerAD2Ev:0000000000000010 .L0 
     /tmp/ccy6LGeJ.s:32     .text._ZN7WorkerAD2Ev:0000000000000028 .L0 
     /tmp/ccy6LGeJ.s:34     .text._ZN7WorkerAD2Ev:000000000000002c .L0 
     /tmp/ccy6LGeJ.s:35     .text._ZN7WorkerAD2Ev:000000000000002c .L0 
     /tmp/ccy6LGeJ.s:37     .text._ZN7WorkerAD2Ev:0000000000000030 .L0 
     /tmp/ccy6LGeJ.s:39     .text._ZN7WorkerAD2Ev:0000000000000034 .L0 
     /tmp/ccy6LGeJ.s:10     .text._ZN7WorkerAD2Ev:0000000000000000 _ZN7WorkerAD1Ev
     /tmp/ccy6LGeJ.s:48     .text._ZN7WorkerAD0Ev:0000000000000000 _ZN7WorkerAD0Ev
     /tmp/ccy6LGeJ.s:51     .text._ZN7WorkerAD0Ev:0000000000000000 .L0 
     /tmp/ccy6LGeJ.s:53     .text._ZN7WorkerAD0Ev:0000000000000000 .L0 
     /tmp/ccy6LGeJ.s:54     .text._ZN7WorkerAD0Ev:0000000000000004 .L0 
     /tmp/ccy6LGeJ.s:58     .text._ZN7WorkerAD0Ev:0000000000000010 .L0 
     /tmp/ccy6LGeJ.s:59     .text._ZN7WorkerAD0Ev:0000000000000010 .L0 
     /tmp/ccy6LGeJ.s:60     .text._ZN7WorkerAD0Ev:0000000000000010 .L0 
     /tmp/ccy6LGeJ.s:62     .text._ZN7WorkerAD0Ev:0000000000000014 .L0 
     /tmp/ccy6LGeJ.s:68     .text._ZN7WorkerAD0Ev:0000000000000018 .L0 
     /tmp/ccy6LGeJ.s:78     .text._ZN7WorkerAD0Ev:000000000000003c .L0 
     /tmp/ccy6LGeJ.s:80     .text._ZN7WorkerAD0Ev:0000000000000040 .L0 
     /tmp/ccy6LGeJ.s:81     .text._ZN7WorkerAD0Ev:0000000000000040 .L0 
     /tmp/ccy6LGeJ.s:83     .text._ZN7WorkerAD0Ev:0000000000000044 .L0 
     /tmp/ccy6LGeJ.s:86     .text._ZN7WorkerAD0Ev:0000000000000048 .L0 
     /tmp/ccy6LGeJ.s:88     .text._ZN7WorkerAD0Ev:000000000000004c .L0 
     /tmp/ccy6LGeJ.s:95     .text._ZN7WorkerBD2Ev:0000000000000000 _ZN7WorkerBD2Ev
     /tmp/ccy6LGeJ.s:98     .text._ZN7WorkerBD2Ev:0000000000000000 .L0 
     /tmp/ccy6LGeJ.s:100    .text._ZN7WorkerBD2Ev:0000000000000000 .L0 
     /tmp/ccy6LGeJ.s:101    .text._ZN7WorkerBD2Ev:0000000000000004 .L0 
     /tmp/ccy6LGeJ.s:104    .text._ZN7WorkerBD2Ev:000000000000000c .L0 
     /tmp/ccy6LGeJ.s:105    .text._ZN7WorkerBD2Ev:000000000000000c .L0 
     /tmp/ccy6LGeJ.s:107    .text._ZN7WorkerBD2Ev:0000000000000010 .L0 
     /tmp/ccy6LGeJ.s:1615   .data.rel.ro.local._ZTV7WorkerB:0000000000000000 _ZTV7WorkerB
     /tmp/ccy6LGeJ.s:110    .text._ZN7WorkerBD2Ev:0000000000000010 .L0 
     /tmp/ccy6LGeJ.s:116    .text._ZN7WorkerBD2Ev:0000000000000028 .L0 
     /tmp/ccy6LGeJ.s:118    .text._ZN7WorkerBD2Ev:000000000000002c .L0 
     /tmp/ccy6LGeJ.s:119    .text._ZN7WorkerBD2Ev:000000000000002c .L0 
     /tmp/ccy6LGeJ.s:121    .text._ZN7WorkerBD2Ev:0000000000000030 .L0 
     /tmp/ccy6LGeJ.s:123    .text._ZN7WorkerBD2Ev:0000000000000034 .L0 
     /tmp/ccy6LGeJ.s:95     .text._ZN7WorkerBD2Ev:0000000000000000 _ZN7WorkerBD1Ev
     /tmp/ccy6LGeJ.s:132    .text._ZN7WorkerBD0Ev:0000000000000000 _ZN7WorkerBD0Ev
     /tmp/ccy6LGeJ.s:135    .text._ZN7WorkerBD0Ev:0000000000000000 .L0 
     /tmp/ccy6LGeJ.s:137    .text._ZN7WorkerBD0Ev:0000000000000000 .L0 
     /tmp/ccy6LGeJ.s:138    .text._ZN7WorkerBD0Ev:0000000000000004 .L0 
     /tmp/ccy6LGeJ.s:142    .text._ZN7WorkerBD0Ev:0000000000000010 .L0 
     /tmp/ccy6LGeJ.s:143    .text._ZN7WorkerBD0Ev:0000000000000010 .L0 
     /tmp/ccy6LGeJ.s:144    .text._ZN7WorkerBD0Ev:0000000000000010 .L0 
     /tmp/ccy6LGeJ.s:146    .text._ZN7WorkerBD0Ev:0000000000000014 .L0 
     /tmp/ccy6LGeJ.s:152    .text._ZN7WorkerBD0Ev:0000000000000018 .L0 
     /tmp/ccy6LGeJ.s:162    .text._ZN7WorkerBD0Ev:000000000000003c .L0 
GAS LISTING /tmp/ccy6LGeJ.s 			page 40


     /tmp/ccy6LGeJ.s:164    .text._ZN7WorkerBD0Ev:0000000000000040 .L0 
     /tmp/ccy6LGeJ.s:165    .text._ZN7WorkerBD0Ev:0000000000000040 .L0 
     /tmp/ccy6LGeJ.s:167    .text._ZN7WorkerBD0Ev:0000000000000044 .L0 
     /tmp/ccy6LGeJ.s:170    .text._ZN7WorkerBD0Ev:0000000000000048 .L0 
     /tmp/ccy6LGeJ.s:172    .text._ZN7WorkerBD0Ev:000000000000004c .L0 
     /tmp/ccy6LGeJ.s:179    .text._ZN7WorkerCD2Ev:0000000000000000 _ZN7WorkerCD2Ev
     /tmp/ccy6LGeJ.s:182    .text._ZN7WorkerCD2Ev:0000000000000000 .L0 
     /tmp/ccy6LGeJ.s:184    .text._ZN7WorkerCD2Ev:0000000000000000 .L0 
     /tmp/ccy6LGeJ.s:185    .text._ZN7WorkerCD2Ev:0000000000000004 .L0 
     /tmp/ccy6LGeJ.s:188    .text._ZN7WorkerCD2Ev:000000000000000c .L0 
     /tmp/ccy6LGeJ.s:189    .text._ZN7WorkerCD2Ev:000000000000000c .L0 
     /tmp/ccy6LGeJ.s:191    .text._ZN7WorkerCD2Ev:0000000000000010 .L0 
     /tmp/ccy6LGeJ.s:1626   .data.rel.ro.local._ZTV7WorkerC:0000000000000000 _ZTV7WorkerC
     /tmp/ccy6LGeJ.s:194    .text._ZN7WorkerCD2Ev:0000000000000010 .L0 
     /tmp/ccy6LGeJ.s:200    .text._ZN7WorkerCD2Ev:0000000000000028 .L0 
     /tmp/ccy6LGeJ.s:202    .text._ZN7WorkerCD2Ev:000000000000002c .L0 
     /tmp/ccy6LGeJ.s:203    .text._ZN7WorkerCD2Ev:000000000000002c .L0 
     /tmp/ccy6LGeJ.s:205    .text._ZN7WorkerCD2Ev:0000000000000030 .L0 
     /tmp/ccy6LGeJ.s:207    .text._ZN7WorkerCD2Ev:0000000000000034 .L0 
     /tmp/ccy6LGeJ.s:179    .text._ZN7WorkerCD2Ev:0000000000000000 _ZN7WorkerCD1Ev
     /tmp/ccy6LGeJ.s:216    .text._ZN7WorkerCD0Ev:0000000000000000 _ZN7WorkerCD0Ev
     /tmp/ccy6LGeJ.s:219    .text._ZN7WorkerCD0Ev:0000000000000000 .L0 
     /tmp/ccy6LGeJ.s:221    .text._ZN7WorkerCD0Ev:0000000000000000 .L0 
     /tmp/ccy6LGeJ.s:222    .text._ZN7WorkerCD0Ev:0000000000000004 .L0 
     /tmp/ccy6LGeJ.s:226    .text._ZN7WorkerCD0Ev:0000000000000010 .L0 
     /tmp/ccy6LGeJ.s:227    .text._ZN7WorkerCD0Ev:0000000000000010 .L0 
     /tmp/ccy6LGeJ.s:228    .text._ZN7WorkerCD0Ev:0000000000000010 .L0 
     /tmp/ccy6LGeJ.s:230    .text._ZN7WorkerCD0Ev:0000000000000014 .L0 
     /tmp/ccy6LGeJ.s:236    .text._ZN7WorkerCD0Ev:0000000000000018 .L0 
     /tmp/ccy6LGeJ.s:246    .text._ZN7WorkerCD0Ev:000000000000003c .L0 
     /tmp/ccy6LGeJ.s:248    .text._ZN7WorkerCD0Ev:0000000000000040 .L0 
     /tmp/ccy6LGeJ.s:249    .text._ZN7WorkerCD0Ev:0000000000000040 .L0 
     /tmp/ccy6LGeJ.s:251    .text._ZN7WorkerCD0Ev:0000000000000044 .L0 
     /tmp/ccy6LGeJ.s:254    .text._ZN7WorkerCD0Ev:0000000000000048 .L0 
     /tmp/ccy6LGeJ.s:256    .text._ZN7WorkerCD0Ev:000000000000004c .L0 
     /tmp/ccy6LGeJ.s:263    .text._ZN7WorkerDD2Ev:0000000000000000 _ZN7WorkerDD2Ev
     /tmp/ccy6LGeJ.s:266    .text._ZN7WorkerDD2Ev:0000000000000000 .L0 
     /tmp/ccy6LGeJ.s:268    .text._ZN7WorkerDD2Ev:0000000000000000 .L0 
     /tmp/ccy6LGeJ.s:269    .text._ZN7WorkerDD2Ev:0000000000000004 .L0 
     /tmp/ccy6LGeJ.s:272    .text._ZN7WorkerDD2Ev:000000000000000c .L0 
     /tmp/ccy6LGeJ.s:273    .text._ZN7WorkerDD2Ev:000000000000000c .L0 
     /tmp/ccy6LGeJ.s:275    .text._ZN7WorkerDD2Ev:0000000000000010 .L0 
     /tmp/ccy6LGeJ.s:1637   .data.rel.ro.local._ZTV7WorkerD:0000000000000000 _ZTV7WorkerD
     /tmp/ccy6LGeJ.s:278    .text._ZN7WorkerDD2Ev:0000000000000010 .L0 
     /tmp/ccy6LGeJ.s:284    .text._ZN7WorkerDD2Ev:0000000000000028 .L0 
     /tmp/ccy6LGeJ.s:286    .text._ZN7WorkerDD2Ev:000000000000002c .L0 
     /tmp/ccy6LGeJ.s:287    .text._ZN7WorkerDD2Ev:000000000000002c .L0 
     /tmp/ccy6LGeJ.s:289    .text._ZN7WorkerDD2Ev:0000000000000030 .L0 
     /tmp/ccy6LGeJ.s:291    .text._ZN7WorkerDD2Ev:0000000000000034 .L0 
     /tmp/ccy6LGeJ.s:263    .text._ZN7WorkerDD2Ev:0000000000000000 _ZN7WorkerDD1Ev
     /tmp/ccy6LGeJ.s:300    .text._ZN7WorkerDD0Ev:0000000000000000 _ZN7WorkerDD0Ev
     /tmp/ccy6LGeJ.s:303    .text._ZN7WorkerDD0Ev:0000000000000000 .L0 
     /tmp/ccy6LGeJ.s:305    .text._ZN7WorkerDD0Ev:0000000000000000 .L0 
     /tmp/ccy6LGeJ.s:306    .text._ZN7WorkerDD0Ev:0000000000000004 .L0 
     /tmp/ccy6LGeJ.s:310    .text._ZN7WorkerDD0Ev:0000000000000010 .L0 
     /tmp/ccy6LGeJ.s:311    .text._ZN7WorkerDD0Ev:0000000000000010 .L0 
     /tmp/ccy6LGeJ.s:312    .text._ZN7WorkerDD0Ev:0000000000000010 .L0 
GAS LISTING /tmp/ccy6LGeJ.s 			page 41


     /tmp/ccy6LGeJ.s:314    .text._ZN7WorkerDD0Ev:0000000000000014 .L0 
     /tmp/ccy6LGeJ.s:320    .text._ZN7WorkerDD0Ev:0000000000000018 .L0 
     /tmp/ccy6LGeJ.s:330    .text._ZN7WorkerDD0Ev:000000000000003c .L0 
     /tmp/ccy6LGeJ.s:332    .text._ZN7WorkerDD0Ev:0000000000000040 .L0 
     /tmp/ccy6LGeJ.s:333    .text._ZN7WorkerDD0Ev:0000000000000040 .L0 
     /tmp/ccy6LGeJ.s:335    .text._ZN7WorkerDD0Ev:0000000000000044 .L0 
     /tmp/ccy6LGeJ.s:338    .text._ZN7WorkerDD0Ev:0000000000000048 .L0 
     /tmp/ccy6LGeJ.s:340    .text._ZN7WorkerDD0Ev:000000000000004c .L0 
     /tmp/ccy6LGeJ.s:347    .text:0000000000000000 _Z9fibonaccim
     /tmp/ccy6LGeJ.s:350    .text:0000000000000000 .L0 
     /tmp/ccy6LGeJ.s:352    .text:0000000000000000 .L0 
     /tmp/ccy6LGeJ.s:353    .text:0000000000000004 .L0 
     /tmp/ccy6LGeJ.s:358    .text:0000000000000014 .L0 
     /tmp/ccy6LGeJ.s:359    .text:0000000000000014 .L0 
     /tmp/ccy6LGeJ.s:360    .text:0000000000000014 .L0 
     /tmp/ccy6LGeJ.s:361    .text:0000000000000014 .L0 
     /tmp/ccy6LGeJ.s:363    .text:0000000000000018 .L0 
     /tmp/ccy6LGeJ.s:366    .text:000000000000001c .L0 
     /tmp/ccy6LGeJ.s:369    .text:0000000000000024 .L0 
     /tmp/ccy6LGeJ.s:370    .text:0000000000000024 .L0 
     /tmp/ccy6LGeJ.s:373    .text:000000000000002c .L0 
     /tmp/ccy6LGeJ.s:377    .text:0000000000000030 .L0 
     /tmp/ccy6LGeJ.s:378    .text:0000000000000030 .L0 
     /tmp/ccy6LGeJ.s:383    .text:0000000000000040 .L0 
     /tmp/ccy6LGeJ.s:387    .text:000000000000004c .L0 
     /tmp/ccy6LGeJ.s:390    .text:0000000000000050 .L0 
     /tmp/ccy6LGeJ.s:391    .text:0000000000000054 .L0 
     /tmp/ccy6LGeJ.s:392    .text:0000000000000054 .L0 
     /tmp/ccy6LGeJ.s:394    .text:0000000000000058 .L0 
     /tmp/ccy6LGeJ.s:395    .text:0000000000000058 .L0 
     /tmp/ccy6LGeJ.s:397    .text:000000000000005c .L0 
     /tmp/ccy6LGeJ.s:400    .text:0000000000000060 .L0 
     /tmp/ccy6LGeJ.s:402    .text:0000000000000064 .L0 
     /tmp/ccy6LGeJ.s:406    .text:0000000000000068 .L0 
     /tmp/ccy6LGeJ.s:408    .text:0000000000000068 .L0 
     /tmp/ccy6LGeJ.s:409    .text:0000000000000068 .L0 
     /tmp/ccy6LGeJ.s:412    .text:0000000000000074 .L0 
     /tmp/ccy6LGeJ.s:429    .text:0000000000000074 _ZN7WorkerA11workerBodyAEPv
     /tmp/ccy6LGeJ.s:432    .text:0000000000000074 .L0 
     /tmp/ccy6LGeJ.s:434    .text:0000000000000074 .L0 
     /tmp/ccy6LGeJ.s:435    .text:0000000000000078 .L0 
     /tmp/ccy6LGeJ.s:440    .text:0000000000000088 .L0 
     /tmp/ccy6LGeJ.s:441    .text:0000000000000088 .L0 
     /tmp/ccy6LGeJ.s:442    .text:0000000000000088 .L0 
     /tmp/ccy6LGeJ.s:443    .text:0000000000000088 .L0 
     /tmp/ccy6LGeJ.s:445    .text:000000000000008c .L0 
     /tmp/ccy6LGeJ.s:449    .text:000000000000008c .L0 
     /tmp/ccy6LGeJ.s:450    .text:000000000000008c .L0 
     /tmp/ccy6LGeJ.s:458    .text:0000000000000094 .L0 
     /tmp/ccy6LGeJ.s:459    .text:0000000000000094 .L0 
     /tmp/ccy6LGeJ.s:463    .text:000000000000009c .L0 
     /tmp/ccy6LGeJ.s:467    .text:00000000000000a0 .L0 
     /tmp/ccy6LGeJ.s:473    .text:00000000000000ac .L0 
     /tmp/ccy6LGeJ.s:477    .text:00000000000000b0 .L0 
     /tmp/ccy6LGeJ.s:481    .text:00000000000000bc .L0 
     /tmp/ccy6LGeJ.s:491    .text:00000000000000c4 .L0 
     /tmp/ccy6LGeJ.s:495    .text:00000000000000c8 .L0 
GAS LISTING /tmp/ccy6LGeJ.s 			page 42


     /tmp/ccy6LGeJ.s:499    .text:00000000000000d0 .L0 
     /tmp/ccy6LGeJ.s:500    .text:00000000000000d0 .L0 
     /tmp/ccy6LGeJ.s:504    .text:00000000000000e0 .L0 
     /tmp/ccy6LGeJ.s:505    .text:00000000000000e0 .L0 
     /tmp/ccy6LGeJ.s:511    .text:00000000000000f4 .L0 
     /tmp/ccy6LGeJ.s:512    .text:00000000000000f4 .L0 
     /tmp/ccy6LGeJ.s:517    .text:0000000000000104 .L0 
     /tmp/ccy6LGeJ.s:518    .text:0000000000000104 .L0 
     /tmp/ccy6LGeJ.s:526    .text:000000000000010c .L0 
     /tmp/ccy6LGeJ.s:527    .text:000000000000010c .L0 
     /tmp/ccy6LGeJ.s:531    .text:000000000000011c .L0 
     /tmp/ccy6LGeJ.s:532    .text:000000000000011c .L0 
     /tmp/ccy6LGeJ.s:535    .text:0000000000000128 .L0 
     /tmp/ccy6LGeJ.s:536    .text:000000000000012c .L0 
     /tmp/ccy6LGeJ.s:538    .text:0000000000000130 .L0 
     /tmp/ccy6LGeJ.s:539    .text:0000000000000130 .L0 
     /tmp/ccy6LGeJ.s:541    .text:0000000000000134 .L0 
     /tmp/ccy6LGeJ.s:543    .text:0000000000000138 .L0 
     /tmp/ccy6LGeJ.s:546    .text:000000000000013c .L0 
     /tmp/ccy6LGeJ.s:548    .text:0000000000000140 .L0 
     /tmp/ccy6LGeJ.s:555    .text._ZN7WorkerA3runEv:0000000000000000 _ZN7WorkerA3runEv
     /tmp/ccy6LGeJ.s:558    .text._ZN7WorkerA3runEv:0000000000000000 .L0 
     /tmp/ccy6LGeJ.s:560    .text._ZN7WorkerA3runEv:0000000000000000 .L0 
     /tmp/ccy6LGeJ.s:561    .text._ZN7WorkerA3runEv:0000000000000004 .L0 
     /tmp/ccy6LGeJ.s:564    .text._ZN7WorkerA3runEv:000000000000000c .L0 
     /tmp/ccy6LGeJ.s:565    .text._ZN7WorkerA3runEv:000000000000000c .L0 
     /tmp/ccy6LGeJ.s:567    .text._ZN7WorkerA3runEv:0000000000000010 .L0 
     /tmp/ccy6LGeJ.s:569    .text._ZN7WorkerA3runEv:0000000000000010 .L0 
     /tmp/ccy6LGeJ.s:570    .text._ZN7WorkerA3runEv:0000000000000010 .L0 
     /tmp/ccy6LGeJ.s:574    .text._ZN7WorkerA3runEv:000000000000001c .L0 
     /tmp/ccy6LGeJ.s:575    .text._ZN7WorkerA3runEv:0000000000000020 .L0 
     /tmp/ccy6LGeJ.s:577    .text._ZN7WorkerA3runEv:0000000000000024 .L0 
     /tmp/ccy6LGeJ.s:578    .text._ZN7WorkerA3runEv:0000000000000024 .L0 
     /tmp/ccy6LGeJ.s:580    .text._ZN7WorkerA3runEv:0000000000000028 .L0 
     /tmp/ccy6LGeJ.s:582    .text._ZN7WorkerA3runEv:000000000000002c .L0 
     /tmp/ccy6LGeJ.s:596    .text:0000000000000140 _ZN7WorkerB11workerBodyBEPv
     /tmp/ccy6LGeJ.s:599    .text:0000000000000140 .L0 
     /tmp/ccy6LGeJ.s:601    .text:0000000000000140 .L0 
     /tmp/ccy6LGeJ.s:602    .text:0000000000000144 .L0 
     /tmp/ccy6LGeJ.s:607    .text:0000000000000154 .L0 
     /tmp/ccy6LGeJ.s:608    .text:0000000000000154 .L0 
     /tmp/ccy6LGeJ.s:609    .text:0000000000000154 .L0 
     /tmp/ccy6LGeJ.s:610    .text:0000000000000154 .L0 
     /tmp/ccy6LGeJ.s:612    .text:0000000000000158 .L0 
     /tmp/ccy6LGeJ.s:616    .text:0000000000000158 .L0 
     /tmp/ccy6LGeJ.s:617    .text:0000000000000158 .L0 
     /tmp/ccy6LGeJ.s:625    .text:0000000000000160 .L0 
     /tmp/ccy6LGeJ.s:626    .text:0000000000000160 .L0 
     /tmp/ccy6LGeJ.s:630    .text:0000000000000168 .L0 
     /tmp/ccy6LGeJ.s:634    .text:000000000000016c .L0 
     /tmp/ccy6LGeJ.s:640    .text:0000000000000178 .L0 
     /tmp/ccy6LGeJ.s:644    .text:000000000000017c .L0 
     /tmp/ccy6LGeJ.s:648    .text:0000000000000188 .L0 
     /tmp/ccy6LGeJ.s:658    .text:0000000000000190 .L0 
     /tmp/ccy6LGeJ.s:662    .text:0000000000000194 .L0 
     /tmp/ccy6LGeJ.s:666    .text:000000000000019c .L0 
     /tmp/ccy6LGeJ.s:667    .text:000000000000019c .L0 
GAS LISTING /tmp/ccy6LGeJ.s 			page 43


     /tmp/ccy6LGeJ.s:671    .text:00000000000001ac .L0 
     /tmp/ccy6LGeJ.s:672    .text:00000000000001ac .L0 
     /tmp/ccy6LGeJ.s:678    .text:00000000000001c0 .L0 
     /tmp/ccy6LGeJ.s:679    .text:00000000000001c0 .L0 
     /tmp/ccy6LGeJ.s:684    .text:00000000000001d0 .L0 
     /tmp/ccy6LGeJ.s:685    .text:00000000000001d0 .L0 
     /tmp/ccy6LGeJ.s:693    .text:00000000000001d8 .L0 
     /tmp/ccy6LGeJ.s:694    .text:00000000000001d8 .L0 
     /tmp/ccy6LGeJ.s:698    .text:00000000000001e8 .L0 
     /tmp/ccy6LGeJ.s:699    .text:00000000000001e8 .L0 
     /tmp/ccy6LGeJ.s:702    .text:00000000000001f4 .L0 
     /tmp/ccy6LGeJ.s:703    .text:00000000000001f4 .L0 
     /tmp/ccy6LGeJ.s:706    .text:00000000000001fc .L0 
     /tmp/ccy6LGeJ.s:707    .text:0000000000000200 .L0 
     /tmp/ccy6LGeJ.s:709    .text:0000000000000204 .L0 
     /tmp/ccy6LGeJ.s:710    .text:0000000000000204 .L0 
     /tmp/ccy6LGeJ.s:712    .text:0000000000000208 .L0 
     /tmp/ccy6LGeJ.s:714    .text:000000000000020c .L0 
     /tmp/ccy6LGeJ.s:717    .text:0000000000000210 .L0 
     /tmp/ccy6LGeJ.s:719    .text:0000000000000214 .L0 
     /tmp/ccy6LGeJ.s:726    .text._ZN7WorkerB3runEv:0000000000000000 _ZN7WorkerB3runEv
     /tmp/ccy6LGeJ.s:729    .text._ZN7WorkerB3runEv:0000000000000000 .L0 
     /tmp/ccy6LGeJ.s:731    .text._ZN7WorkerB3runEv:0000000000000000 .L0 
     /tmp/ccy6LGeJ.s:732    .text._ZN7WorkerB3runEv:0000000000000004 .L0 
     /tmp/ccy6LGeJ.s:735    .text._ZN7WorkerB3runEv:000000000000000c .L0 
     /tmp/ccy6LGeJ.s:736    .text._ZN7WorkerB3runEv:000000000000000c .L0 
     /tmp/ccy6LGeJ.s:738    .text._ZN7WorkerB3runEv:0000000000000010 .L0 
     /tmp/ccy6LGeJ.s:740    .text._ZN7WorkerB3runEv:0000000000000010 .L0 
     /tmp/ccy6LGeJ.s:741    .text._ZN7WorkerB3runEv:0000000000000010 .L0 
     /tmp/ccy6LGeJ.s:745    .text._ZN7WorkerB3runEv:000000000000001c .L0 
     /tmp/ccy6LGeJ.s:746    .text._ZN7WorkerB3runEv:0000000000000020 .L0 
     /tmp/ccy6LGeJ.s:748    .text._ZN7WorkerB3runEv:0000000000000024 .L0 
     /tmp/ccy6LGeJ.s:749    .text._ZN7WorkerB3runEv:0000000000000024 .L0 
     /tmp/ccy6LGeJ.s:751    .text._ZN7WorkerB3runEv:0000000000000028 .L0 
     /tmp/ccy6LGeJ.s:753    .text._ZN7WorkerB3runEv:000000000000002c .L0 
     /tmp/ccy6LGeJ.s:773    .text:0000000000000214 _ZN7WorkerC11workerBodyCEPv
     /tmp/ccy6LGeJ.s:776    .text:0000000000000214 .L0 
     /tmp/ccy6LGeJ.s:778    .text:0000000000000214 .L0 
     /tmp/ccy6LGeJ.s:779    .text:0000000000000218 .L0 
     /tmp/ccy6LGeJ.s:784    .text:0000000000000228 .L0 
     /tmp/ccy6LGeJ.s:785    .text:0000000000000228 .L0 
     /tmp/ccy6LGeJ.s:786    .text:0000000000000228 .L0 
     /tmp/ccy6LGeJ.s:787    .text:0000000000000228 .L0 
     /tmp/ccy6LGeJ.s:789    .text:000000000000022c .L0 
     /tmp/ccy6LGeJ.s:792    .text:000000000000022c .L0 
     /tmp/ccy6LGeJ.s:793    .text:000000000000022c .L0 
     /tmp/ccy6LGeJ.s:798    .text:0000000000000234 .L0 
     /tmp/ccy6LGeJ.s:799    .text:0000000000000234 .L0 
     /tmp/ccy6LGeJ.s:803    .text:0000000000000244 .L0 
     /tmp/ccy6LGeJ.s:804    .text:0000000000000244 .L0 
     /tmp/ccy6LGeJ.s:810    .text:0000000000000258 .L0 
     /tmp/ccy6LGeJ.s:811    .text:0000000000000258 .L0 
     /tmp/ccy6LGeJ.s:815    .text:0000000000000268 .L0 
     /tmp/ccy6LGeJ.s:821    .text:0000000000000270 .L0 
     /tmp/ccy6LGeJ.s:822    .text:0000000000000270 .L0 
     /tmp/ccy6LGeJ.s:825    .text:0000000000000278 .L0 
     /tmp/ccy6LGeJ.s:826    .text:0000000000000278 .L0 
GAS LISTING /tmp/ccy6LGeJ.s 			page 44


     /tmp/ccy6LGeJ.s:830    .text:0000000000000288 .L0 
src/../test/Threads_CPP_API_test.hpp:91     .text:0000000000000288 .L0 
     /tmp/ccy6LGeJ.s:836    .text:000000000000028c .L0 
     /tmp/ccy6LGeJ.s:838    .text:000000000000028c .L0 
     /tmp/ccy6LGeJ.s:841    .text:0000000000000294 .L0 
     /tmp/ccy6LGeJ.s:842    .text:0000000000000294 .L0 
src/../test/Threads_CPP_API_test.hpp:95     .text:0000000000000294 .L0 
     /tmp/ccy6LGeJ.s:849    .text:0000000000000298 .L0 
     /tmp/ccy6LGeJ.s:851    .text:0000000000000298 .L0 
     /tmp/ccy6LGeJ.s:855    .text:00000000000002a8 .L0 
     /tmp/ccy6LGeJ.s:856    .text:00000000000002a8 .L0 
     /tmp/ccy6LGeJ.s:862    .text:00000000000002bc .L0 
     /tmp/ccy6LGeJ.s:863    .text:00000000000002bc .L0 
     /tmp/ccy6LGeJ.s:867    .text:00000000000002cc .L0 
     /tmp/ccy6LGeJ.s:868    .text:00000000000002cc .L0 
     /tmp/ccy6LGeJ.s:874    .text:00000000000002dc .L0 
     /tmp/ccy6LGeJ.s:875    .text:00000000000002dc .L0 
     /tmp/ccy6LGeJ.s:880    .text:00000000000002ec .L0 
     /tmp/ccy6LGeJ.s:881    .text:00000000000002ec .L0 
     /tmp/ccy6LGeJ.s:887    .text:0000000000000300 .L0 
     /tmp/ccy6LGeJ.s:888    .text:0000000000000300 .L0 
     /tmp/ccy6LGeJ.s:894    .text:0000000000000314 .L0 
     /tmp/ccy6LGeJ.s:895    .text:0000000000000314 .L0 
     /tmp/ccy6LGeJ.s:899    .text:0000000000000324 .L0 
     /tmp/ccy6LGeJ.s:900    .text:0000000000000324 .L0 
     /tmp/ccy6LGeJ.s:906    .text:0000000000000338 .L0 
     /tmp/ccy6LGeJ.s:907    .text:0000000000000338 .L0 
     /tmp/ccy6LGeJ.s:911    .text:0000000000000348 .L0 
     /tmp/ccy6LGeJ.s:917    .text:0000000000000350 .L0 
     /tmp/ccy6LGeJ.s:918    .text:0000000000000350 .L0 
     /tmp/ccy6LGeJ.s:921    .text:0000000000000358 .L0 
     /tmp/ccy6LGeJ.s:922    .text:0000000000000358 .L0 
     /tmp/ccy6LGeJ.s:926    .text:0000000000000368 .L0 
     /tmp/ccy6LGeJ.s:927    .text:0000000000000368 .L0 
     /tmp/ccy6LGeJ.s:930    .text:0000000000000374 .L0 
     /tmp/ccy6LGeJ.s:931    .text:0000000000000374 .L0 
     /tmp/ccy6LGeJ.s:934    .text:000000000000037c .L0 
     /tmp/ccy6LGeJ.s:935    .text:0000000000000380 .L0 
     /tmp/ccy6LGeJ.s:937    .text:0000000000000384 .L0 
     /tmp/ccy6LGeJ.s:938    .text:0000000000000384 .L0 
     /tmp/ccy6LGeJ.s:940    .text:0000000000000388 .L0 
     /tmp/ccy6LGeJ.s:943    .text:000000000000038c .L0 
     /tmp/ccy6LGeJ.s:946    .text:0000000000000390 .L0 
     /tmp/ccy6LGeJ.s:948    .text:0000000000000394 .L0 
     /tmp/ccy6LGeJ.s:955    .text._ZN7WorkerC3runEv:0000000000000000 _ZN7WorkerC3runEv
     /tmp/ccy6LGeJ.s:958    .text._ZN7WorkerC3runEv:0000000000000000 .L0 
     /tmp/ccy6LGeJ.s:960    .text._ZN7WorkerC3runEv:0000000000000000 .L0 
     /tmp/ccy6LGeJ.s:961    .text._ZN7WorkerC3runEv:0000000000000004 .L0 
     /tmp/ccy6LGeJ.s:964    .text._ZN7WorkerC3runEv:000000000000000c .L0 
     /tmp/ccy6LGeJ.s:965    .text._ZN7WorkerC3runEv:000000000000000c .L0 
     /tmp/ccy6LGeJ.s:967    .text._ZN7WorkerC3runEv:0000000000000010 .L0 
     /tmp/ccy6LGeJ.s:969    .text._ZN7WorkerC3runEv:0000000000000010 .L0 
     /tmp/ccy6LGeJ.s:970    .text._ZN7WorkerC3runEv:0000000000000010 .L0 
     /tmp/ccy6LGeJ.s:974    .text._ZN7WorkerC3runEv:000000000000001c .L0 
     /tmp/ccy6LGeJ.s:975    .text._ZN7WorkerC3runEv:0000000000000020 .L0 
     /tmp/ccy6LGeJ.s:977    .text._ZN7WorkerC3runEv:0000000000000024 .L0 
     /tmp/ccy6LGeJ.s:978    .text._ZN7WorkerC3runEv:0000000000000024 .L0 
GAS LISTING /tmp/ccy6LGeJ.s 			page 45


     /tmp/ccy6LGeJ.s:980    .text._ZN7WorkerC3runEv:0000000000000028 .L0 
     /tmp/ccy6LGeJ.s:982    .text._ZN7WorkerC3runEv:000000000000002c .L0 
     /tmp/ccy6LGeJ.s:1002   .text:0000000000000394 _ZN7WorkerD11workerBodyDEPv
     /tmp/ccy6LGeJ.s:1005   .text:0000000000000394 .L0 
     /tmp/ccy6LGeJ.s:1007   .text:0000000000000394 .L0 
     /tmp/ccy6LGeJ.s:1008   .text:0000000000000398 .L0 
     /tmp/ccy6LGeJ.s:1013   .text:00000000000003a8 .L0 
     /tmp/ccy6LGeJ.s:1014   .text:00000000000003a8 .L0 
     /tmp/ccy6LGeJ.s:1015   .text:00000000000003a8 .L0 
     /tmp/ccy6LGeJ.s:1016   .text:00000000000003a8 .L0 
     /tmp/ccy6LGeJ.s:1018   .text:00000000000003ac .L0 
     /tmp/ccy6LGeJ.s:1021   .text:00000000000003ac .L0 
     /tmp/ccy6LGeJ.s:1022   .text:00000000000003ac .L0 
     /tmp/ccy6LGeJ.s:1027   .text:00000000000003b4 .L0 
     /tmp/ccy6LGeJ.s:1028   .text:00000000000003b4 .L0 
     /tmp/ccy6LGeJ.s:1032   .text:00000000000003c4 .L0 
     /tmp/ccy6LGeJ.s:1033   .text:00000000000003c4 .L0 
     /tmp/ccy6LGeJ.s:1039   .text:00000000000003d8 .L0 
     /tmp/ccy6LGeJ.s:1040   .text:00000000000003d8 .L0 
     /tmp/ccy6LGeJ.s:1044   .text:00000000000003e8 .L0 
     /tmp/ccy6LGeJ.s:1050   .text:00000000000003f0 .L0 
     /tmp/ccy6LGeJ.s:1051   .text:00000000000003f0 .L0 
     /tmp/ccy6LGeJ.s:1054   .text:00000000000003f8 .L0 
     /tmp/ccy6LGeJ.s:1055   .text:00000000000003f8 .L0 
     /tmp/ccy6LGeJ.s:1059   .text:0000000000000408 .L0 
src/../test/Threads_CPP_API_test.hpp:118    .text:0000000000000408 .L0 
     /tmp/ccy6LGeJ.s:1065   .text:000000000000040c .L0 
     /tmp/ccy6LGeJ.s:1067   .text:000000000000040c .L0 
     /tmp/ccy6LGeJ.s:1070   .text:0000000000000414 .L0 
     /tmp/ccy6LGeJ.s:1071   .text:0000000000000414 .L0 
     /tmp/ccy6LGeJ.s:1077   .text:0000000000000424 .L0 
     /tmp/ccy6LGeJ.s:1078   .text:0000000000000424 .L0 
     /tmp/ccy6LGeJ.s:1083   .text:0000000000000434 .L0 
     /tmp/ccy6LGeJ.s:1084   .text:0000000000000434 .L0 
     /tmp/ccy6LGeJ.s:1090   .text:0000000000000448 .L0 
     /tmp/ccy6LGeJ.s:1091   .text:0000000000000448 .L0 
     /tmp/ccy6LGeJ.s:1097   .text:000000000000045c .L0 
     /tmp/ccy6LGeJ.s:1098   .text:000000000000045c .L0 
     /tmp/ccy6LGeJ.s:1102   .text:000000000000046c .L0 
     /tmp/ccy6LGeJ.s:1103   .text:000000000000046c .L0 
     /tmp/ccy6LGeJ.s:1109   .text:0000000000000480 .L0 
     /tmp/ccy6LGeJ.s:1110   .text:0000000000000480 .L0 
     /tmp/ccy6LGeJ.s:1114   .text:0000000000000490 .L0 
     /tmp/ccy6LGeJ.s:1120   .text:0000000000000498 .L0 
     /tmp/ccy6LGeJ.s:1121   .text:0000000000000498 .L0 
     /tmp/ccy6LGeJ.s:1124   .text:00000000000004a0 .L0 
     /tmp/ccy6LGeJ.s:1125   .text:00000000000004a0 .L0 
     /tmp/ccy6LGeJ.s:1129   .text:00000000000004b0 .L0 
     /tmp/ccy6LGeJ.s:1130   .text:00000000000004b0 .L0 
     /tmp/ccy6LGeJ.s:1133   .text:00000000000004bc .L0 
     /tmp/ccy6LGeJ.s:1134   .text:00000000000004bc .L0 
     /tmp/ccy6LGeJ.s:1137   .text:00000000000004c4 .L0 
     /tmp/ccy6LGeJ.s:1138   .text:00000000000004c8 .L0 
     /tmp/ccy6LGeJ.s:1140   .text:00000000000004cc .L0 
     /tmp/ccy6LGeJ.s:1141   .text:00000000000004cc .L0 
     /tmp/ccy6LGeJ.s:1143   .text:00000000000004d0 .L0 
     /tmp/ccy6LGeJ.s:1146   .text:00000000000004d4 .L0 
GAS LISTING /tmp/ccy6LGeJ.s 			page 46


     /tmp/ccy6LGeJ.s:1149   .text:00000000000004d8 .L0 
     /tmp/ccy6LGeJ.s:1151   .text:00000000000004dc .L0 
     /tmp/ccy6LGeJ.s:1158   .text._ZN7WorkerD3runEv:0000000000000000 _ZN7WorkerD3runEv
     /tmp/ccy6LGeJ.s:1161   .text._ZN7WorkerD3runEv:0000000000000000 .L0 
     /tmp/ccy6LGeJ.s:1163   .text._ZN7WorkerD3runEv:0000000000000000 .L0 
     /tmp/ccy6LGeJ.s:1164   .text._ZN7WorkerD3runEv:0000000000000004 .L0 
     /tmp/ccy6LGeJ.s:1167   .text._ZN7WorkerD3runEv:000000000000000c .L0 
     /tmp/ccy6LGeJ.s:1168   .text._ZN7WorkerD3runEv:000000000000000c .L0 
     /tmp/ccy6LGeJ.s:1170   .text._ZN7WorkerD3runEv:0000000000000010 .L0 
     /tmp/ccy6LGeJ.s:1172   .text._ZN7WorkerD3runEv:0000000000000010 .L0 
     /tmp/ccy6LGeJ.s:1173   .text._ZN7WorkerD3runEv:0000000000000010 .L0 
     /tmp/ccy6LGeJ.s:1177   .text._ZN7WorkerD3runEv:000000000000001c .L0 
     /tmp/ccy6LGeJ.s:1178   .text._ZN7WorkerD3runEv:0000000000000020 .L0 
     /tmp/ccy6LGeJ.s:1180   .text._ZN7WorkerD3runEv:0000000000000024 .L0 
     /tmp/ccy6LGeJ.s:1181   .text._ZN7WorkerD3runEv:0000000000000024 .L0 
     /tmp/ccy6LGeJ.s:1183   .text._ZN7WorkerD3runEv:0000000000000028 .L0 
     /tmp/ccy6LGeJ.s:1185   .text._ZN7WorkerD3runEv:000000000000002c .L0 
     /tmp/ccy6LGeJ.s:1208   .text:00000000000004dc _Z20Threads_CPP_API_testv
     /tmp/ccy6LGeJ.s:1211   .text:00000000000004dc .L0 
     /tmp/ccy6LGeJ.s:5797   .data.rel.local.DW.ref.__gxx_personality_v0:0000000000000000 DW.ref.__gxx_personality_v0
     /tmp/ccy6LGeJ.s:1214   .text:00000000000004dc .L0 
     /tmp/ccy6LGeJ.s:1215   .text:00000000000004e0 .L0 
     /tmp/ccy6LGeJ.s:1220   .text:00000000000004f0 .L0 
     /tmp/ccy6LGeJ.s:1221   .text:00000000000004f0 .L0 
     /tmp/ccy6LGeJ.s:1222   .text:00000000000004f0 .L0 
     /tmp/ccy6LGeJ.s:1223   .text:00000000000004f0 .L0 
     /tmp/ccy6LGeJ.s:1225   .text:00000000000004f4 .L0 
     /tmp/ccy6LGeJ.s:1227   .text:00000000000004f4 .L0 
     /tmp/ccy6LGeJ.s:1228   .text:00000000000004f4 .L0 
     /tmp/ccy6LGeJ.s:1229   .text:00000000000004f4 .L0 
     /tmp/ccy6LGeJ.s:1243   .text:0000000000000504 .L0 
     /tmp/ccy6LGeJ.s:1247   .text:0000000000000514 .L0 
     /tmp/ccy6LGeJ.s:1248   .text:0000000000000514 .L0 
     /tmp/ccy6LGeJ.s:1253   .text:0000000000000524 .L0 
     /tmp/ccy6LGeJ.s:1254   .text:0000000000000524 .L0 
     /tmp/ccy6LGeJ.s:1264   .text:000000000000053c .L0 
     /tmp/ccy6LGeJ.s:1270   .text:0000000000000548 .L0 
     /tmp/ccy6LGeJ.s:1272   .text:000000000000054c .L0 
     /tmp/ccy6LGeJ.s:1273   .text:000000000000054c .L0 
     /tmp/ccy6LGeJ.s:1278   .text:000000000000055c .L0 
     /tmp/ccy6LGeJ.s:1279   .text:000000000000055c .L0 
     /tmp/ccy6LGeJ.s:1291   .text:000000000000056c .L0 
     /tmp/ccy6LGeJ.s:1295   .text:000000000000057c .L0 
     /tmp/ccy6LGeJ.s:1296   .text:000000000000057c .L0 
     /tmp/ccy6LGeJ.s:1301   .text:000000000000058c .L0 
     /tmp/ccy6LGeJ.s:1302   .text:000000000000058c .L0 
     /tmp/ccy6LGeJ.s:1312   .text:00000000000005a4 .L0 
     /tmp/ccy6LGeJ.s:1318   .text:00000000000005b0 .L0 
     /tmp/ccy6LGeJ.s:1320   .text:00000000000005b4 .L0 
     /tmp/ccy6LGeJ.s:1321   .text:00000000000005b4 .L0 
     /tmp/ccy6LGeJ.s:1326   .text:00000000000005c4 .L0 
     /tmp/ccy6LGeJ.s:1327   .text:00000000000005c4 .L0 
     /tmp/ccy6LGeJ.s:1339   .text:00000000000005d4 .L0 
     /tmp/ccy6LGeJ.s:1343   .text:00000000000005e4 .L0 
     /tmp/ccy6LGeJ.s:1344   .text:00000000000005e4 .L0 
     /tmp/ccy6LGeJ.s:1349   .text:00000000000005f4 .L0 
     /tmp/ccy6LGeJ.s:1350   .text:00000000000005f4 .L0 
GAS LISTING /tmp/ccy6LGeJ.s 			page 47


     /tmp/ccy6LGeJ.s:1360   .text:000000000000060c .L0 
     /tmp/ccy6LGeJ.s:1366   .text:0000000000000618 .L0 
     /tmp/ccy6LGeJ.s:1368   .text:000000000000061c .L0 
     /tmp/ccy6LGeJ.s:1369   .text:000000000000061c .L0 
     /tmp/ccy6LGeJ.s:1374   .text:000000000000062c .L0 
     /tmp/ccy6LGeJ.s:1375   .text:000000000000062c .L0 
     /tmp/ccy6LGeJ.s:1387   .text:000000000000063c .L0 
     /tmp/ccy6LGeJ.s:1391   .text:000000000000064c .L0 
     /tmp/ccy6LGeJ.s:1392   .text:000000000000064c .L0 
     /tmp/ccy6LGeJ.s:1397   .text:000000000000065c .L0 
     /tmp/ccy6LGeJ.s:1398   .text:000000000000065c .L0 
     /tmp/ccy6LGeJ.s:1408   .text:0000000000000674 .L0 
     /tmp/ccy6LGeJ.s:1414   .text:0000000000000680 .L0 
     /tmp/ccy6LGeJ.s:1416   .text:0000000000000684 .L0 
     /tmp/ccy6LGeJ.s:1417   .text:0000000000000684 .L0 
     /tmp/ccy6LGeJ.s:1424   .text:0000000000000698 .L0 
     /tmp/ccy6LGeJ.s:1425   .text:0000000000000698 .L0 
     /tmp/ccy6LGeJ.s:1429   .text:00000000000006a0 .L0 
     /tmp/ccy6LGeJ.s:1430   .text:00000000000006a0 .L0 
     /tmp/ccy6LGeJ.s:1433   .text:00000000000006ac .L0 
     /tmp/ccy6LGeJ.s:1436   .text:00000000000006b8 .L0 
     /tmp/ccy6LGeJ.s:1439   .text:00000000000006c4 .L0 
     /tmp/ccy6LGeJ.s:1443   .text:00000000000006d0 .L0 
     /tmp/ccy6LGeJ.s:1448   .text:00000000000006d8 .L0 
     /tmp/ccy6LGeJ.s:1452   .text:00000000000006dc .L0 
     /tmp/ccy6LGeJ.s:1455   .text:00000000000006e4 .L0 
     /tmp/ccy6LGeJ.s:1458   .text:00000000000006e8 .L0 
     /tmp/ccy6LGeJ.s:1459   .text:00000000000006e8 .L0 
     /tmp/ccy6LGeJ.s:1461   .text:00000000000006ec .L0 
     /tmp/ccy6LGeJ.s:1471   .text:0000000000000700 .L0 
     /tmp/ccy6LGeJ.s:1480   .text:000000000000071c .L0 
     /tmp/ccy6LGeJ.s:1489   .text:0000000000000738 .L0 
     /tmp/ccy6LGeJ.s:1498   .text:0000000000000754 .L0 
     /tmp/ccy6LGeJ.s:1507   .text:000000000000076c .L0 
     /tmp/ccy6LGeJ.s:1508   .text:0000000000000770 .L0 
     /tmp/ccy6LGeJ.s:1510   .text:0000000000000774 .L0 
     /tmp/ccy6LGeJ.s:1511   .text:0000000000000774 .L0 
     /tmp/ccy6LGeJ.s:1513   .text:0000000000000778 .L0 
     /tmp/ccy6LGeJ.s:1516   .text:000000000000077c .L0 
     /tmp/ccy6LGeJ.s:1518   .text:0000000000000780 .L0 
     /tmp/ccy6LGeJ.s:1520   .text:0000000000000784 .L0 
     /tmp/ccy6LGeJ.s:1570   .text:0000000000000784 _Z8userMainv
     /tmp/ccy6LGeJ.s:1574   .text:0000000000000784 .L0 
     /tmp/ccy6LGeJ.s:1575   .text:0000000000000784 .L0 
     /tmp/ccy6LGeJ.s:1576   .text:0000000000000788 .L0 
     /tmp/ccy6LGeJ.s:1579   .text:0000000000000790 .L0 
     /tmp/ccy6LGeJ.s:1580   .text:0000000000000790 .L0 
     /tmp/ccy6LGeJ.s:1582   .text:0000000000000794 .L0 
     /tmp/ccy6LGeJ.s:1584   .text:0000000000000794 .L0 
     /tmp/ccy6LGeJ.s:1585   .text:0000000000000794 .L0 
     /tmp/ccy6LGeJ.s:1588   .text:000000000000079c .L0 
     /tmp/ccy6LGeJ.s:1589   .text:00000000000007a0 .L0 
     /tmp/ccy6LGeJ.s:1591   .text:00000000000007a4 .L0 
     /tmp/ccy6LGeJ.s:1592   .text:00000000000007a4 .L0 
     /tmp/ccy6LGeJ.s:1594   .text:00000000000007a8 .L0 
     /tmp/ccy6LGeJ.s:1596   .text:00000000000007ac .L0 
     /tmp/ccy6LGeJ.s:1663   .bss:0000000000000003 finishedD
GAS LISTING /tmp/ccy6LGeJ.s 			page 48


     /tmp/ccy6LGeJ.s:1659   .bss:0000000000000002 finishedC
     /tmp/ccy6LGeJ.s:1655   .bss:0000000000000001 finishedB
     /tmp/ccy6LGeJ.s:1651   .bss:0000000000000000 finishedA
     /tmp/ccy6LGeJ.s:1648   .bss:0000000000000000 .LANCHOR0
     /tmp/ccy6LGeJ.s:44     .text._ZN7WorkerAD2Ev:0000000000000034 .L0 
     /tmp/ccy6LGeJ.s:91     .text._ZN7WorkerAD0Ev:000000000000004c .L0 
     /tmp/ccy6LGeJ.s:128    .text._ZN7WorkerBD2Ev:0000000000000034 .L0 
     /tmp/ccy6LGeJ.s:175    .text._ZN7WorkerBD0Ev:000000000000004c .L0 
     /tmp/ccy6LGeJ.s:212    .text._ZN7WorkerCD2Ev:0000000000000034 .L0 
     /tmp/ccy6LGeJ.s:259    .text._ZN7WorkerCD0Ev:000000000000004c .L0 
     /tmp/ccy6LGeJ.s:296    .text._ZN7WorkerDD2Ev:0000000000000034 .L0 
     /tmp/ccy6LGeJ.s:343    .text._ZN7WorkerDD0Ev:000000000000004c .L0 
     /tmp/ccy6LGeJ.s:1670   .text:00000000000007ac .L0 
     /tmp/ccy6LGeJ.s:585    .text._ZN7WorkerA3runEv:000000000000002c .L0 
     /tmp/ccy6LGeJ.s:756    .text._ZN7WorkerB3runEv:000000000000002c .L0 
     /tmp/ccy6LGeJ.s:985    .text._ZN7WorkerC3runEv:000000000000002c .L0 
     /tmp/ccy6LGeJ.s:1188   .text._ZN7WorkerD3runEv:000000000000002c .L0 
     /tmp/ccy6LGeJ.s:417    .rodata.str1.8:0000000000000000 .LC0
     /tmp/ccy6LGeJ.s:500    .text:00000000000000d0 .L0 
     /tmp/ccy6LGeJ.s:420    .rodata.str1.8:0000000000000008 .LC1
     /tmp/ccy6LGeJ.s:512    .text:00000000000000f4 .L0 
     /tmp/ccy6LGeJ.s:423    .rodata.str1.8:0000000000000010 .LC2
     /tmp/ccy6LGeJ.s:527    .text:000000000000010c .L0 
     /tmp/ccy6LGeJ.s:533    .text:0000000000000120 .L0 
     /tmp/ccy6LGeJ.s:587    .rodata.str1.8:0000000000000020 .LC3
     /tmp/ccy6LGeJ.s:667    .text:000000000000019c .L0 
     /tmp/ccy6LGeJ.s:679    .text:00000000000001c0 .L0 
     /tmp/ccy6LGeJ.s:590    .rodata.str1.8:0000000000000028 .LC4
     /tmp/ccy6LGeJ.s:694    .text:00000000000001d8 .L0 
     /tmp/ccy6LGeJ.s:700    .text:00000000000001ec .L0 
     /tmp/ccy6LGeJ.s:758    .rodata.str1.8:0000000000000038 .LC5
     /tmp/ccy6LGeJ.s:799    .text:0000000000000234 .L0 
     /tmp/ccy6LGeJ.s:811    .text:0000000000000258 .L0 
     /tmp/ccy6LGeJ.s:761    .rodata.str1.8:0000000000000040 .LC6
     /tmp/ccy6LGeJ.s:826    .text:0000000000000278 .L0 
     /tmp/ccy6LGeJ.s:764    .rodata.str1.8:0000000000000050 .LC7
     /tmp/ccy6LGeJ.s:851    .text:0000000000000298 .L0 
     /tmp/ccy6LGeJ.s:863    .text:00000000000002bc .L0 
     /tmp/ccy6LGeJ.s:767    .rodata.str1.8:0000000000000058 .LC8
     /tmp/ccy6LGeJ.s:875    .text:00000000000002dc .L0 
     /tmp/ccy6LGeJ.s:888    .text:0000000000000300 .L0 
     /tmp/ccy6LGeJ.s:895    .text:0000000000000314 .L0 
     /tmp/ccy6LGeJ.s:907    .text:0000000000000338 .L0 
     /tmp/ccy6LGeJ.s:922    .text:0000000000000358 .L0 
     /tmp/ccy6LGeJ.s:928    .text:000000000000036c .L0 
     /tmp/ccy6LGeJ.s:987    .rodata.str1.8:0000000000000068 .LC9
     /tmp/ccy6LGeJ.s:1028   .text:00000000000003b4 .L0 
     /tmp/ccy6LGeJ.s:1040   .text:00000000000003d8 .L0 
     /tmp/ccy6LGeJ.s:990    .rodata.str1.8:0000000000000070 .LC10
     /tmp/ccy6LGeJ.s:1055   .text:00000000000003f8 .L0 
     /tmp/ccy6LGeJ.s:993    .rodata.str1.8:0000000000000080 .LC11
     /tmp/ccy6LGeJ.s:1078   .text:0000000000000424 .L0 
     /tmp/ccy6LGeJ.s:1091   .text:0000000000000448 .L0 
     /tmp/ccy6LGeJ.s:1098   .text:000000000000045c .L0 
     /tmp/ccy6LGeJ.s:1110   .text:0000000000000480 .L0 
     /tmp/ccy6LGeJ.s:996    .rodata.str1.8:0000000000000090 .LC12
     /tmp/ccy6LGeJ.s:1125   .text:00000000000004a0 .L0 
GAS LISTING /tmp/ccy6LGeJ.s 			page 49


     /tmp/ccy6LGeJ.s:1131   .text:00000000000004b4 .L0 
     /tmp/ccy6LGeJ.s:1243   .text:0000000000000504 .L0 
     /tmp/ccy6LGeJ.s:1190   .rodata.str1.8:00000000000000a0 .LC13
     /tmp/ccy6LGeJ.s:1248   .text:0000000000000514 .L0 
     /tmp/ccy6LGeJ.s:1255   .text:0000000000000528 .L0 
     /tmp/ccy6LGeJ.s:1264   .text:000000000000053c .L0 
     /tmp/ccy6LGeJ.s:1193   .rodata.str1.8:00000000000000b0 .LC14
     /tmp/ccy6LGeJ.s:1273   .text:000000000000054c .L0 
     /tmp/ccy6LGeJ.s:1291   .text:000000000000056c .L0 
     /tmp/ccy6LGeJ.s:1296   .text:000000000000057c .L0 
     /tmp/ccy6LGeJ.s:1303   .text:0000000000000590 .L0 
     /tmp/ccy6LGeJ.s:1312   .text:00000000000005a4 .L0 
     /tmp/ccy6LGeJ.s:1196   .rodata.str1.8:00000000000000c8 .LC15
     /tmp/ccy6LGeJ.s:1321   .text:00000000000005b4 .L0 
     /tmp/ccy6LGeJ.s:1339   .text:00000000000005d4 .L0 
     /tmp/ccy6LGeJ.s:1344   .text:00000000000005e4 .L0 
     /tmp/ccy6LGeJ.s:1351   .text:00000000000005f8 .L0 
     /tmp/ccy6LGeJ.s:1360   .text:000000000000060c .L0 
     /tmp/ccy6LGeJ.s:1199   .rodata.str1.8:00000000000000e0 .LC16
     /tmp/ccy6LGeJ.s:1369   .text:000000000000061c .L0 
     /tmp/ccy6LGeJ.s:1387   .text:000000000000063c .L0 
     /tmp/ccy6LGeJ.s:1392   .text:000000000000064c .L0 
     /tmp/ccy6LGeJ.s:1399   .text:0000000000000660 .L0 
     /tmp/ccy6LGeJ.s:1408   .text:0000000000000674 .L0 
     /tmp/ccy6LGeJ.s:1202   .rodata.str1.8:00000000000000f8 .LC17
     /tmp/ccy6LGeJ.s:1417   .text:0000000000000684 .L0 
     /tmp/ccy6LGeJ.s:1430   .text:00000000000006a0 .L0 
     /tmp/ccy6LGeJ.s:1433   .text:00000000000006ac .L0 
     /tmp/ccy6LGeJ.s:1436   .text:00000000000006b8 .L0 
     /tmp/ccy6LGeJ.s:1439   .text:00000000000006c4 .L0 
     /tmp/ccy6LGeJ.s:388    .text:0000000000000050 .L17
     /tmp/ccy6LGeJ.s:405    .text:0000000000000068 .L22
     /tmp/ccy6LGeJ.s:375    .text:0000000000000030 .L19
     /tmp/ccy6LGeJ.s:493    .text:00000000000000c8 .L29
     /tmp/ccy6LGeJ.s:485    .text:00000000000000c4 .L25
     /tmp/ccy6LGeJ.s:453    .text:0000000000000094 .L26
     /tmp/ccy6LGeJ.s:474    .text:00000000000000b0 .L27
     /tmp/ccy6LGeJ.s:521    .text:000000000000010c .L24
     /tmp/ccy6LGeJ.s:465    .text:00000000000000a0 .L28
     /tmp/ccy6LGeJ.s:660    .text:0000000000000194 .L39
     /tmp/ccy6LGeJ.s:652    .text:0000000000000190 .L35
     /tmp/ccy6LGeJ.s:620    .text:0000000000000160 .L36
     /tmp/ccy6LGeJ.s:641    .text:000000000000017c .L37
     /tmp/ccy6LGeJ.s:688    .text:00000000000001d8 .L34
     /tmp/ccy6LGeJ.s:632    .text:000000000000016c .L38
     /tmp/ccy6LGeJ.s:819    .text:0000000000000270 .L45
     /tmp/ccy6LGeJ.s:796    .text:0000000000000234 .L49
     /tmp/ccy6LGeJ.s:915    .text:0000000000000350 .L47
     /tmp/ccy6LGeJ.s:892    .text:0000000000000314 .L50
     /tmp/ccy6LGeJ.s:1048   .text:00000000000003f0 .L55
     /tmp/ccy6LGeJ.s:1025   .text:00000000000003b4 .L59
     /tmp/ccy6LGeJ.s:1118   .text:0000000000000498 .L57
     /tmp/ccy6LGeJ.s:1095   .text:000000000000045c .L60
     /tmp/ccy6LGeJ.s:1427   .text:00000000000006a0 .L66
     /tmp/ccy6LGeJ.s:1422   .text:0000000000000698 .L64
     /tmp/ccy6LGeJ.s:1450   .text:00000000000006dc .L65
     /tmp/ccy6LGeJ.s:1505   .text:000000000000076c .L63
GAS LISTING /tmp/ccy6LGeJ.s 			page 50


     /tmp/ccy6LGeJ.s:1446   .text:00000000000006d8 .L68
     /tmp/ccy6LGeJ.s:26     .text._ZN7WorkerAD2Ev:0000000000000010 .L0 
     /tmp/ccy6LGeJ.s:68     .text._ZN7WorkerAD0Ev:0000000000000018 .L0 
     /tmp/ccy6LGeJ.s:110    .text._ZN7WorkerBD2Ev:0000000000000010 .L0 
     /tmp/ccy6LGeJ.s:152    .text._ZN7WorkerBD0Ev:0000000000000018 .L0 
     /tmp/ccy6LGeJ.s:194    .text._ZN7WorkerCD2Ev:0000000000000010 .L0 
     /tmp/ccy6LGeJ.s:236    .text._ZN7WorkerCD0Ev:0000000000000018 .L0 
     /tmp/ccy6LGeJ.s:278    .text._ZN7WorkerDD2Ev:0000000000000010 .L0 
     /tmp/ccy6LGeJ.s:320    .text._ZN7WorkerDD0Ev:0000000000000018 .L0 
     /tmp/ccy6LGeJ.s:1230   .text:00000000000004f8 .LEHB0
     /tmp/ccy6LGeJ.s:1209   .text:00000000000004dc .LFB58
     /tmp/ccy6LGeJ.s:1233   .text:0000000000000500 .LEHE0
     /tmp/ccy6LGeJ.s:1249   .text:000000000000051c .LEHB1
     /tmp/ccy6LGeJ.s:1259   .text:000000000000053c .LEHE1
     /tmp/ccy6LGeJ.s:1467   .text:00000000000006fc .L74
     /tmp/ccy6LGeJ.s:1274   .text:0000000000000554 .LEHB2
     /tmp/ccy6LGeJ.s:1282   .text:0000000000000568 .LEHE2
     /tmp/ccy6LGeJ.s:1297   .text:0000000000000584 .LEHB3
     /tmp/ccy6LGeJ.s:1307   .text:00000000000005a4 .LEHE3
     /tmp/ccy6LGeJ.s:1477   .text:0000000000000718 .L75
     /tmp/ccy6LGeJ.s:1322   .text:00000000000005bc .LEHB4
     /tmp/ccy6LGeJ.s:1330   .text:00000000000005d0 .LEHE4
     /tmp/ccy6LGeJ.s:1345   .text:00000000000005ec .LEHB5
     /tmp/ccy6LGeJ.s:1355   .text:000000000000060c .LEHE5
     /tmp/ccy6LGeJ.s:1486   .text:0000000000000734 .L76
     /tmp/ccy6LGeJ.s:1370   .text:0000000000000624 .LEHB6
     /tmp/ccy6LGeJ.s:1378   .text:0000000000000638 .LEHE6
     /tmp/ccy6LGeJ.s:1393   .text:0000000000000654 .LEHB7
     /tmp/ccy6LGeJ.s:1403   .text:0000000000000674 .LEHE7
     /tmp/ccy6LGeJ.s:1495   .text:0000000000000750 .L77
     /tmp/ccy6LGeJ.s:1418   .text:000000000000068c .LEHB8
     /tmp/ccy6LGeJ.s:1504   .text:000000000000076c .LEHE8
     /tmp/ccy6LGeJ.s:4047   .debug_abbrev:0000000000000000 .Ldebug_abbrev0
     /tmp/ccy6LGeJ.s:5751   .debug_str:0000000000000511 .LASF103
     /tmp/ccy6LGeJ.s:5591   .debug_str:0000000000000085 .LASF104
     /tmp/ccy6LGeJ.s:5627   .debug_str:000000000000017e .LASF105
     /tmp/ccy6LGeJ.s:5529   .debug_ranges:0000000000000000 .Ldebug_ranges0
     /tmp/ccy6LGeJ.s:5571   .debug_line:0000000000000000 .Ldebug_line0
     /tmp/ccy6LGeJ.s:5641   .debug_str:00000000000001f6 .LASF0
     /tmp/ccy6LGeJ.s:5657   .debug_str:0000000000000291 .LASF1
     /tmp/ccy6LGeJ.s:5713   .debug_str:0000000000000422 .LASF2
     /tmp/ccy6LGeJ.s:5613   .debug_str:000000000000012d .LASF3
     /tmp/ccy6LGeJ.s:5717   .debug_str:000000000000043a .LASF4
     /tmp/ccy6LGeJ.s:5647   .debug_str:0000000000000224 .LASF5
     /tmp/ccy6LGeJ.s:5579   .debug_str:000000000000002c .LASF6
     /tmp/ccy6LGeJ.s:5691   .debug_str:00000000000003a2 .LASF7
     /tmp/ccy6LGeJ.s:5653   .debug_str:000000000000026c .LASF8
     /tmp/ccy6LGeJ.s:5625   .debug_str:000000000000016e .LASF9
     /tmp/ccy6LGeJ.s:5631   .debug_str:00000000000001b4 .LASF10
     /tmp/ccy6LGeJ.s:5595   .debug_str:00000000000000a6 .LASF11
     /tmp/ccy6LGeJ.s:5619   .debug_str:000000000000014c .LASF12
     /tmp/ccy6LGeJ.s:5601   .debug_str:00000000000000d7 .LASF13
     /tmp/ccy6LGeJ.s:5593   .debug_str:0000000000000096 .LASF14
     /tmp/ccy6LGeJ.s:5741   .debug_str:00000000000004da .LASF15
     /tmp/ccy6LGeJ.s:5609   .debug_str:0000000000000110 .LASF16
     /tmp/ccy6LGeJ.s:5735   .debug_str:00000000000004a5 .LASF17
     /tmp/ccy6LGeJ.s:5667   .debug_str:00000000000002e4 .LASF18
GAS LISTING /tmp/ccy6LGeJ.s 			page 51


     /tmp/ccy6LGeJ.s:5745   .debug_str:00000000000004f0 .LASF19
     /tmp/ccy6LGeJ.s:5715   .debug_str:0000000000000430 .LASF20
     /tmp/ccy6LGeJ.s:5673   .debug_str:0000000000000308 .LASF21
     /tmp/ccy6LGeJ.s:5719   .debug_str:0000000000000441 .LASF22
     /tmp/ccy6LGeJ.s:5721   .debug_str:000000000000044b .LASF23
     /tmp/ccy6LGeJ.s:5785   .debug_str:00000000000006fc .LASF24
     /tmp/ccy6LGeJ.s:5689   .debug_str:0000000000000390 .LASF25
     /tmp/ccy6LGeJ.s:5615   .debug_str:0000000000000133 .LASF26
     /tmp/ccy6LGeJ.s:5701   .debug_str:00000000000003e2 .LASF27
     /tmp/ccy6LGeJ.s:5769   .debug_str:0000000000000687 .LASF38
     /tmp/ccy6LGeJ.s:5587   .debug_str:0000000000000065 .LASF32
     /tmp/ccy6LGeJ.s:5655   .debug_str:000000000000027f .LASF29
     /tmp/ccy6LGeJ.s:5711   .debug_str:0000000000000419 .LASF28
     /tmp/ccy6LGeJ.s:5773   .debug_str:00000000000006af .LASF43
     /tmp/ccy6LGeJ.s:5633   .debug_str:00000000000001c2 .LASF31
     /tmp/ccy6LGeJ.s:5687   .debug_str:000000000000037f .LASF30
     /tmp/ccy6LGeJ.s:5643   .debug_str:0000000000000203 .LASF33
     /tmp/ccy6LGeJ.s:5775   .debug_str:00000000000006bf .LASF87
     /tmp/ccy6LGeJ.s:5607   .debug_str:0000000000000107 .LASF89
     /tmp/ccy6LGeJ.s:5783   .debug_str:00000000000006f4 .LASF34
     /tmp/ccy6LGeJ.s:5585   .debug_str:0000000000000053 .LASF35
     /tmp/ccy6LGeJ.s:5681   .debug_str:0000000000000355 .LASF36
     /tmp/ccy6LGeJ.s:5699   .debug_str:00000000000003d6 .LASF37
     /tmp/ccy6LGeJ.s:5649   .debug_str:0000000000000236 .LASF39
     /tmp/ccy6LGeJ.s:5665   .debug_str:00000000000002d4 .LASF40
     /tmp/ccy6LGeJ.s:5763   .debug_str:0000000000000630 .LASF41
     /tmp/ccy6LGeJ.s:5709   .debug_str:0000000000000410 .LASF42
     /tmp/ccy6LGeJ.s:5637   .debug_str:00000000000001d9 .LASF44
     /tmp/ccy6LGeJ.s:5781   .debug_str:00000000000006ec .LASF45
     /tmp/ccy6LGeJ.s:5679   .debug_str:0000000000000343 .LASF46
     /tmp/ccy6LGeJ.s:5759   .debug_str:000000000000060b .LASF47
     /tmp/ccy6LGeJ.s:5697   .debug_str:00000000000003ca .LASF48
     /tmp/ccy6LGeJ.s:5675   .debug_str:0000000000000312 .LASF49
     /tmp/ccy6LGeJ.s:5757   .debug_str:00000000000005fb .LASF50
     /tmp/ccy6LGeJ.s:5645   .debug_str:0000000000000212 .LASF51
     /tmp/ccy6LGeJ.s:5707   .debug_str:0000000000000407 .LASF52
     /tmp/ccy6LGeJ.s:5729   .debug_str:000000000000047d .LASF53
     /tmp/ccy6LGeJ.s:5779   .debug_str:00000000000006e4 .LASF54
     /tmp/ccy6LGeJ.s:5573   .debug_str:0000000000000000 .LASF55
     /tmp/ccy6LGeJ.s:5597   .debug_str:00000000000000b5 .LASF56
     /tmp/ccy6LGeJ.s:5695   .debug_str:00000000000003be .LASF57
     /tmp/ccy6LGeJ.s:5767   .debug_str:000000000000066b .LASF58
     /tmp/ccy6LGeJ.s:5605   .debug_str:00000000000000f7 .LASF59
     /tmp/ccy6LGeJ.s:5761   .debug_str:000000000000061e .LASF60
     /tmp/ccy6LGeJ.s:5705   .debug_str:00000000000003fe .LASF61
     /tmp/ccy6LGeJ.s:5589   .debug_str:0000000000000075 .LASF62
     /tmp/ccy6LGeJ.s:5621   .debug_str:000000000000015b .LASF63
     /tmp/ccy6LGeJ.s:5577   .debug_str:0000000000000022 .LASF64
     /tmp/ccy6LGeJ.s:5749   .debug_str:0000000000000501 .LASF65
     /tmp/ccy6LGeJ.s:49     .text._ZN7WorkerAD0Ev:0000000000000000 .LFB75
     /tmp/ccy6LGeJ.s:89     .text._ZN7WorkerAD0Ev:000000000000004c .LFE75
     /tmp/ccy6LGeJ.s:4884   .debug_loc:0000000000000000 .LLST1
     /tmp/ccy6LGeJ.s:65     .text._ZN7WorkerAD0Ev:0000000000000018 .LBB28
     /tmp/ccy6LGeJ.s:73     .text._ZN7WorkerAD0Ev:000000000000002c .LBE28
     /tmp/ccy6LGeJ.s:4902   .debug_loc:000000000000004c .LLST2
     /tmp/ccy6LGeJ.s:71     .text._ZN7WorkerAD0Ev:000000000000002c .LVL4
     /tmp/ccy6LGeJ.s:76     .text._ZN7WorkerAD0Ev:0000000000000038 .LVL5
GAS LISTING /tmp/ccy6LGeJ.s 			page 52


     /tmp/ccy6LGeJ.s:5663   .debug_str:00000000000002c4 .LASF66
     /tmp/ccy6LGeJ.s:11     .text._ZN7WorkerAD2Ev:0000000000000000 .LFB73
     /tmp/ccy6LGeJ.s:40     .text._ZN7WorkerAD2Ev:0000000000000034 .LFE73
     /tmp/ccy6LGeJ.s:4913   .debug_loc:0000000000000082 .LLST0
     /tmp/ccy6LGeJ.s:29     .text._ZN7WorkerAD2Ev:0000000000000024 .LVL1
     /tmp/ccy6LGeJ.s:5659   .debug_str:00000000000002a4 .LASF67
     /tmp/ccy6LGeJ.s:133    .text._ZN7WorkerBD0Ev:0000000000000000 .LFB71
     /tmp/ccy6LGeJ.s:173    .text._ZN7WorkerBD0Ev:000000000000004c .LFE71
     /tmp/ccy6LGeJ.s:4927   .debug_loc:00000000000000bb .LLST4
     /tmp/ccy6LGeJ.s:149    .text._ZN7WorkerBD0Ev:0000000000000018 .LBB31
     /tmp/ccy6LGeJ.s:157    .text._ZN7WorkerBD0Ev:000000000000002c .LBE31
     /tmp/ccy6LGeJ.s:4945   .debug_loc:0000000000000107 .LLST5
     /tmp/ccy6LGeJ.s:155    .text._ZN7WorkerBD0Ev:000000000000002c .LVL11
     /tmp/ccy6LGeJ.s:160    .text._ZN7WorkerBD0Ev:0000000000000038 .LVL12
     /tmp/ccy6LGeJ.s:5583   .debug_str:0000000000000043 .LASF68
     /tmp/ccy6LGeJ.s:96     .text._ZN7WorkerBD2Ev:0000000000000000 .LFB69
     /tmp/ccy6LGeJ.s:124    .text._ZN7WorkerBD2Ev:0000000000000034 .LFE69
     /tmp/ccy6LGeJ.s:4956   .debug_loc:000000000000013d .LLST3
     /tmp/ccy6LGeJ.s:113    .text._ZN7WorkerBD2Ev:0000000000000024 .LVL8
     /tmp/ccy6LGeJ.s:5581   .debug_str:0000000000000033 .LASF69
     /tmp/ccy6LGeJ.s:217    .text._ZN7WorkerCD0Ev:0000000000000000 .LFB67
     /tmp/ccy6LGeJ.s:257    .text._ZN7WorkerCD0Ev:000000000000004c .LFE67
     /tmp/ccy6LGeJ.s:4970   .debug_loc:0000000000000176 .LLST7
     /tmp/ccy6LGeJ.s:233    .text._ZN7WorkerCD0Ev:0000000000000018 .LBB34
     /tmp/ccy6LGeJ.s:241    .text._ZN7WorkerCD0Ev:000000000000002c .LBE34
     /tmp/ccy6LGeJ.s:4988   .debug_loc:00000000000001c2 .LLST8
     /tmp/ccy6LGeJ.s:239    .text._ZN7WorkerCD0Ev:000000000000002c .LVL18
     /tmp/ccy6LGeJ.s:244    .text._ZN7WorkerCD0Ev:0000000000000038 .LVL19
     /tmp/ccy6LGeJ.s:5727   .debug_str:000000000000046d .LASF70
     /tmp/ccy6LGeJ.s:180    .text._ZN7WorkerCD2Ev:0000000000000000 .LFB65
     /tmp/ccy6LGeJ.s:208    .text._ZN7WorkerCD2Ev:0000000000000034 .LFE65
     /tmp/ccy6LGeJ.s:4999   .debug_loc:00000000000001f8 .LLST6
     /tmp/ccy6LGeJ.s:197    .text._ZN7WorkerCD2Ev:0000000000000024 .LVL15
     /tmp/ccy6LGeJ.s:5723   .debug_str:0000000000000455 .LASF71
     /tmp/ccy6LGeJ.s:301    .text._ZN7WorkerDD0Ev:0000000000000000 .LFB63
     /tmp/ccy6LGeJ.s:341    .text._ZN7WorkerDD0Ev:000000000000004c .LFE63
     /tmp/ccy6LGeJ.s:5013   .debug_loc:0000000000000231 .LLST10
     /tmp/ccy6LGeJ.s:317    .text._ZN7WorkerDD0Ev:0000000000000018 .LBB37
     /tmp/ccy6LGeJ.s:325    .text._ZN7WorkerDD0Ev:000000000000002c .LBE37
     /tmp/ccy6LGeJ.s:5031   .debug_loc:000000000000027d .LLST11
     /tmp/ccy6LGeJ.s:323    .text._ZN7WorkerDD0Ev:000000000000002c .LVL25
     /tmp/ccy6LGeJ.s:328    .text._ZN7WorkerDD0Ev:0000000000000038 .LVL26
     /tmp/ccy6LGeJ.s:5635   .debug_str:00000000000001c9 .LASF72
     /tmp/ccy6LGeJ.s:264    .text._ZN7WorkerDD2Ev:0000000000000000 .LFB61
     /tmp/ccy6LGeJ.s:292    .text._ZN7WorkerDD2Ev:0000000000000034 .LFE61
     /tmp/ccy6LGeJ.s:5042   .debug_loc:00000000000002b3 .LLST9
     /tmp/ccy6LGeJ.s:281    .text._ZN7WorkerDD2Ev:0000000000000024 .LVL22
     /tmp/ccy6LGeJ.s:5731   .debug_str:000000000000048d .LASF73
     /tmp/ccy6LGeJ.s:5639   .debug_str:00000000000001e9 .LASF75
     /tmp/ccy6LGeJ.s:1571   .text:0000000000000784 .LFB59
     /tmp/ccy6LGeJ.s:1597   .text:00000000000007ac .LFE59
     /tmp/ccy6LGeJ.s:1586   .text:000000000000079c .LVL167
     /tmp/ccy6LGeJ.s:5677   .debug_str:000000000000032e .LASF74
     /tmp/ccy6LGeJ.s:5651   .debug_str:0000000000000252 .LASF76
     /tmp/ccy6LGeJ.s:1521   .text:0000000000000784 .LFE58
     /tmp/ccy6LGeJ.s:5725   .debug_str:0000000000000465 .LASF77
     /tmp/ccy6LGeJ.s:1441   .text:00000000000006d0 .LBB100
GAS LISTING /tmp/ccy6LGeJ.s 			page 53


     /tmp/ccy6LGeJ.s:1469   .text:0000000000000700 .LBE100
     /tmp/ccy6LGeJ.s:5611   .debug_str:0000000000000126 .LASF78
     /tmp/ccy6LGeJ.s:5056   .debug_loc:00000000000002ec .LLST44
     /tmp/ccy6LGeJ.s:5737   .debug_str:00000000000004bb .LASF79
     /tmp/ccy6LGeJ.s:5747   .debug_str:00000000000004f5 .LASF106
     /tmp/ccy6LGeJ.s:5063   .debug_loc:000000000000030f .LLST45
     /tmp/ccy6LGeJ.s:5743   .debug_str:00000000000004e6 .LASF80
     /tmp/ccy6LGeJ.s:1236   .text:0000000000000504 .LBB80
     /tmp/ccy6LGeJ.s:1268   .text:0000000000000548 .LBE80
     /tmp/ccy6LGeJ.s:5074   .debug_loc:0000000000000345 .LLST36
     /tmp/ccy6LGeJ.s:1238   .text:0000000000000504 .LBB82
     /tmp/ccy6LGeJ.s:1262   .text:000000000000053c .LBE82
     /tmp/ccy6LGeJ.s:5085   .debug_loc:000000000000037b .LLST37
     /tmp/ccy6LGeJ.s:1251   .text:0000000000000524 .LVL130
     /tmp/ccy6LGeJ.s:1258   .text:000000000000053c .LVL131
     /tmp/ccy6LGeJ.s:1285   .text:000000000000056c .LBB85
     /tmp/ccy6LGeJ.s:1316   .text:00000000000005b0 .LBE85
     /tmp/ccy6LGeJ.s:5096   .debug_loc:00000000000003b1 .LLST38
     /tmp/ccy6LGeJ.s:1287   .text:000000000000056c .LBB87
     /tmp/ccy6LGeJ.s:1310   .text:00000000000005a4 .LBE87
     /tmp/ccy6LGeJ.s:5107   .debug_loc:00000000000003e7 .LLST39
     /tmp/ccy6LGeJ.s:1299   .text:000000000000058c .LVL136
     /tmp/ccy6LGeJ.s:1306   .text:00000000000005a4 .LVL137
     /tmp/ccy6LGeJ.s:1333   .text:00000000000005d4 .LBB90
     /tmp/ccy6LGeJ.s:1364   .text:0000000000000618 .LBE90
     /tmp/ccy6LGeJ.s:5118   .debug_loc:000000000000041d .LLST40
     /tmp/ccy6LGeJ.s:1335   .text:00000000000005d4 .LBB92
     /tmp/ccy6LGeJ.s:1358   .text:000000000000060c .LBE92
     /tmp/ccy6LGeJ.s:5129   .debug_loc:0000000000000453 .LLST41
     /tmp/ccy6LGeJ.s:1347   .text:00000000000005f4 .LVL142
     /tmp/ccy6LGeJ.s:1354   .text:000000000000060c .LVL143
     /tmp/ccy6LGeJ.s:1381   .text:000000000000063c .LBB95
     /tmp/ccy6LGeJ.s:1412   .text:0000000000000680 .LBE95
     /tmp/ccy6LGeJ.s:5140   .debug_loc:0000000000000489 .LLST42
     /tmp/ccy6LGeJ.s:1383   .text:000000000000063c .LBB97
     /tmp/ccy6LGeJ.s:1406   .text:0000000000000674 .LBE97
     /tmp/ccy6LGeJ.s:5151   .debug_loc:00000000000004bf .LLST43
     /tmp/ccy6LGeJ.s:1395   .text:000000000000065c .LVL148
     /tmp/ccy6LGeJ.s:1402   .text:0000000000000674 .LVL149
     /tmp/ccy6LGeJ.s:1232   .text:0000000000000500 .LVL128
     /tmp/ccy6LGeJ.s:1276   .text:000000000000055c .LVL133
     /tmp/ccy6LGeJ.s:1281   .text:0000000000000568 .LVL134
     /tmp/ccy6LGeJ.s:1324   .text:00000000000005c4 .LVL139
     /tmp/ccy6LGeJ.s:1329   .text:00000000000005d0 .LVL140
     /tmp/ccy6LGeJ.s:1372   .text:000000000000062c .LVL145
     /tmp/ccy6LGeJ.s:1377   .text:0000000000000638 .LVL146
     /tmp/ccy6LGeJ.s:1420   .text:0000000000000694 .LVL151
     /tmp/ccy6LGeJ.s:1426   .text:00000000000006a0 .LVL152
     /tmp/ccy6LGeJ.s:1473   .text:000000000000070c .LVL158
     /tmp/ccy6LGeJ.s:1476   .text:0000000000000718 .LVL159
     /tmp/ccy6LGeJ.s:1482   .text:0000000000000728 .LVL160
     /tmp/ccy6LGeJ.s:1485   .text:0000000000000734 .LVL161
     /tmp/ccy6LGeJ.s:1491   .text:0000000000000744 .LVL162
     /tmp/ccy6LGeJ.s:1494   .text:0000000000000750 .LVL163
     /tmp/ccy6LGeJ.s:1500   .text:0000000000000760 .LVL164
     /tmp/ccy6LGeJ.s:1503   .text:000000000000076c .LVL165
     /tmp/ccy6LGeJ.s:1003   .text:0000000000000394 .LFB57
GAS LISTING /tmp/ccy6LGeJ.s 			page 54


     /tmp/ccy6LGeJ.s:1152   .text:00000000000004dc .LFE57
     /tmp/ccy6LGeJ.s:5162   .debug_loc:00000000000004f5 .LLST31
     /tmp/ccy6LGeJ.s:5176   .debug_loc:000000000000052e .LLST32
     /tmp/ccy6LGeJ.s:5190   .debug_loc:0000000000000567 .LLST33
     /tmp/ccy6LGeJ.s:5789   .debug_str:0000000000000711 .LASF81
     /tmp/ccy6LGeJ.s:5210   .debug_loc:00000000000005c4 .LLST34
     /tmp/ccy6LGeJ.s:1030   .text:00000000000003c4 .LVL104
     /tmp/ccy6LGeJ.s:1037   .text:00000000000003d8 .LVL105
     /tmp/ccy6LGeJ.s:1042   .text:00000000000003e8 .LVL106
     /tmp/ccy6LGeJ.s:1057   .text:0000000000000408 .LVL109
     /tmp/ccy6LGeJ.s:1068   .text:0000000000000414 .LVL110
     /tmp/ccy6LGeJ.s:1073   .text:0000000000000420 .LVL111
     /tmp/ccy6LGeJ.s:1081   .text:0000000000000434 .LVL114
     /tmp/ccy6LGeJ.s:1088   .text:0000000000000448 .LVL115
     /tmp/ccy6LGeJ.s:1093   .text:0000000000000458 .LVL116
     /tmp/ccy6LGeJ.s:1100   .text:000000000000046c .LVL117
     /tmp/ccy6LGeJ.s:1107   .text:0000000000000480 .LVL118
     /tmp/ccy6LGeJ.s:1112   .text:0000000000000490 .LVL119
     /tmp/ccy6LGeJ.s:1127   .text:00000000000004b0 .LVL122
     /tmp/ccy6LGeJ.s:1135   .text:00000000000004c4 .LVL123
     /tmp/ccy6LGeJ.s:774    .text:0000000000000214 .LFB56
     /tmp/ccy6LGeJ.s:949    .text:0000000000000394 .LFE56
     /tmp/ccy6LGeJ.s:5221   .debug_loc:00000000000005fa .LLST25
     /tmp/ccy6LGeJ.s:5235   .debug_loc:0000000000000633 .LLST26
     /tmp/ccy6LGeJ.s:5249   .debug_loc:000000000000066c .LLST27
     /tmp/ccy6LGeJ.s:5269   .debug_loc:00000000000006c9 .LLST28
     /tmp/ccy6LGeJ.s:5277   .debug_loc:00000000000006ed .LLST29
     /tmp/ccy6LGeJ.s:801    .text:0000000000000244 .LVL73
     /tmp/ccy6LGeJ.s:808    .text:0000000000000258 .LVL74
     /tmp/ccy6LGeJ.s:813    .text:0000000000000268 .LVL75
     /tmp/ccy6LGeJ.s:828    .text:0000000000000288 .LVL78
     /tmp/ccy6LGeJ.s:839    .text:0000000000000294 .LVL79
     /tmp/ccy6LGeJ.s:853    .text:00000000000002a8 .LVL81
     /tmp/ccy6LGeJ.s:860    .text:00000000000002bc .LVL82
     /tmp/ccy6LGeJ.s:865    .text:00000000000002cc .LVL83
     /tmp/ccy6LGeJ.s:870    .text:00000000000002d8 .LVL84
     /tmp/ccy6LGeJ.s:878    .text:00000000000002ec .LVL87
     /tmp/ccy6LGeJ.s:885    .text:0000000000000300 .LVL88
     /tmp/ccy6LGeJ.s:890    .text:0000000000000310 .LVL89
     /tmp/ccy6LGeJ.s:897    .text:0000000000000324 .LVL90
     /tmp/ccy6LGeJ.s:904    .text:0000000000000338 .LVL91
     /tmp/ccy6LGeJ.s:909    .text:0000000000000348 .LVL92
     /tmp/ccy6LGeJ.s:924    .text:0000000000000368 .LVL95
     /tmp/ccy6LGeJ.s:932    .text:000000000000037c .LVL96
     /tmp/ccy6LGeJ.s:597    .text:0000000000000140 .LFB55
     /tmp/ccy6LGeJ.s:720    .text:0000000000000214 .LFE55
     /tmp/ccy6LGeJ.s:5288   .debug_loc:0000000000000723 .LLST19
     /tmp/ccy6LGeJ.s:5302   .debug_loc:000000000000075c .LLST20
     /tmp/ccy6LGeJ.s:615    .text:0000000000000158 .LBB47
     /tmp/ccy6LGeJ.s:691    .text:00000000000001d8 .LBE47
     /tmp/ccy6LGeJ.s:5316   .debug_loc:0000000000000795 .LLST21
     /tmp/ccy6LGeJ.s:5328   .debug_loc:00000000000007cc .LLST22
     /tmp/ccy6LGeJ.s:638    .text:0000000000000178 .LBB51
     /tmp/ccy6LGeJ.s:653    .text:0000000000000190 .LBE51
     /tmp/ccy6LGeJ.s:5340   .debug_loc:0000000000000803 .LLST23
     /tmp/ccy6LGeJ.s:627    .text:0000000000000168 .LVL55
     /tmp/ccy6LGeJ.s:669    .text:00000000000001ac .LVL61
GAS LISTING /tmp/ccy6LGeJ.s 			page 55


     /tmp/ccy6LGeJ.s:676    .text:00000000000001c0 .LVL62
     /tmp/ccy6LGeJ.s:681    .text:00000000000001d0 .LVL63
     /tmp/ccy6LGeJ.s:696    .text:00000000000001e8 .LVL65
     /tmp/ccy6LGeJ.s:704    .text:00000000000001fc .LVL66
     /tmp/ccy6LGeJ.s:430    .text:0000000000000074 .LFB54
     /tmp/ccy6LGeJ.s:549    .text:0000000000000140 .LFE54
     /tmp/ccy6LGeJ.s:5351   .debug_loc:0000000000000839 .LLST13
     /tmp/ccy6LGeJ.s:5365   .debug_loc:0000000000000872 .LLST14
     /tmp/ccy6LGeJ.s:448    .text:000000000000008c .LBB39
     /tmp/ccy6LGeJ.s:524    .text:000000000000010c .LBE39
     /tmp/ccy6LGeJ.s:5379   .debug_loc:00000000000008ab .LLST15
     /tmp/ccy6LGeJ.s:5391   .debug_loc:00000000000008e2 .LLST16
     /tmp/ccy6LGeJ.s:471    .text:00000000000000ac .LBB43
     /tmp/ccy6LGeJ.s:486    .text:00000000000000c4 .LBE43
     /tmp/ccy6LGeJ.s:5403   .debug_loc:0000000000000919 .LLST17
     /tmp/ccy6LGeJ.s:460    .text:000000000000009c .LVL38
     /tmp/ccy6LGeJ.s:502    .text:00000000000000e0 .LVL44
     /tmp/ccy6LGeJ.s:509    .text:00000000000000f4 .LVL45
     /tmp/ccy6LGeJ.s:514    .text:0000000000000104 .LVL46
     /tmp/ccy6LGeJ.s:529    .text:000000000000011c .LVL48
     /tmp/ccy6LGeJ.s:1159   .text._ZN7WorkerD3runEv:0000000000000000 .LFB53
     /tmp/ccy6LGeJ.s:1186   .text._ZN7WorkerD3runEv:000000000000002c .LFE53
     /tmp/ccy6LGeJ.s:5414   .debug_loc:000000000000094f .LLST35
     /tmp/ccy6LGeJ.s:1175   .text._ZN7WorkerD3runEv:000000000000001c .LVL127
     /tmp/ccy6LGeJ.s:5661   .debug_str:00000000000002b4 .LASF82
     /tmp/ccy6LGeJ.s:956    .text._ZN7WorkerC3runEv:0000000000000000 .LFB49
     /tmp/ccy6LGeJ.s:983    .text._ZN7WorkerC3runEv:000000000000002c .LFE49
     /tmp/ccy6LGeJ.s:5428   .debug_loc:0000000000000988 .LLST30
     /tmp/ccy6LGeJ.s:972    .text._ZN7WorkerC3runEv:000000000000001c .LVL100
     /tmp/ccy6LGeJ.s:5753   .debug_str:00000000000005d5 .LASF83
     /tmp/ccy6LGeJ.s:727    .text._ZN7WorkerB3runEv:0000000000000000 .LFB45
     /tmp/ccy6LGeJ.s:754    .text._ZN7WorkerB3runEv:000000000000002c .LFE45
     /tmp/ccy6LGeJ.s:5442   .debug_loc:00000000000009c1 .LLST24
     /tmp/ccy6LGeJ.s:743    .text._ZN7WorkerB3runEv:000000000000001c .LVL69
     /tmp/ccy6LGeJ.s:5603   .debug_str:00000000000000e7 .LASF84
     /tmp/ccy6LGeJ.s:556    .text._ZN7WorkerA3runEv:0000000000000000 .LFB41
     /tmp/ccy6LGeJ.s:583    .text._ZN7WorkerA3runEv:000000000000002c .LFE41
     /tmp/ccy6LGeJ.s:5456   .debug_loc:00000000000009fa .LLST18
     /tmp/ccy6LGeJ.s:572    .text._ZN7WorkerA3runEv:000000000000001c .LVL51
     /tmp/ccy6LGeJ.s:5683   .debug_str:0000000000000368 .LASF85
     /tmp/ccy6LGeJ.s:5669   .debug_str:00000000000002e9 .LASF107
     /tmp/ccy6LGeJ.s:5623   .debug_str:0000000000000160 .LASF108
     /tmp/ccy6LGeJ.s:348    .text:0000000000000000 .LFB37
     /tmp/ccy6LGeJ.s:413    .text:0000000000000074 .LFE37
     /tmp/ccy6LGeJ.s:5470   .debug_loc:0000000000000a33 .LLST12
     /tmp/ccy6LGeJ.s:380    .text:000000000000003c .LVL30
     /tmp/ccy6LGeJ.s:385    .text:000000000000004c .LVL31
     /tmp/ccy6LGeJ.s:410    .text:0000000000000070 .LVL34
     /tmp/ccy6LGeJ.s:5733   .debug_str:0000000000000496 .LASF86
     /tmp/ccy6LGeJ.s:5685   .debug_str:0000000000000378 .LASF93
     /tmp/ccy6LGeJ.s:5575   .debug_str:0000000000000012 .LASF95
     /tmp/ccy6LGeJ.s:5739   .debug_str:00000000000004c7 .LASF88
     /tmp/ccy6LGeJ.s:5771   .debug_str:00000000000006a3 .LASF90
     /tmp/ccy6LGeJ.s:5765   .debug_str:0000000000000642 .LASF91
     /tmp/ccy6LGeJ.s:5755   .debug_str:00000000000005e5 .LASF92
     /tmp/ccy6LGeJ.s:5617   .debug_str:0000000000000146 .LASF94
     /tmp/ccy6LGeJ.s:5787   .debug_str:0000000000000704 .LASF96
GAS LISTING /tmp/ccy6LGeJ.s 			page 56


     /tmp/ccy6LGeJ.s:5777   .debug_str:00000000000006d5 .LASF97
     /tmp/ccy6LGeJ.s:5629   .debug_str:000000000000019c .LASF98
     /tmp/ccy6LGeJ.s:5599   .debug_str:00000000000000c8 .LASF99
     /tmp/ccy6LGeJ.s:5693   .debug_str:00000000000003b5 .LASF100
     /tmp/ccy6LGeJ.s:5671   .debug_str:00000000000002f3 .LASF101
     /tmp/ccy6LGeJ.s:5703   .debug_str:00000000000003ee .LASF102
     /tmp/ccy6LGeJ.s:52     .text._ZN7WorkerAD0Ev:0000000000000000 .LVL2
     /tmp/ccy6LGeJ.s:84     .text._ZN7WorkerAD0Ev:0000000000000044 .LVL6
     /tmp/ccy6LGeJ.s:64     .text._ZN7WorkerAD0Ev:0000000000000018 .LVL3
     /tmp/ccy6LGeJ.s:15     .text._ZN7WorkerAD2Ev:0000000000000000 .LVL0
     /tmp/ccy6LGeJ.s:136    .text._ZN7WorkerBD0Ev:0000000000000000 .LVL9
     /tmp/ccy6LGeJ.s:168    .text._ZN7WorkerBD0Ev:0000000000000044 .LVL13
     /tmp/ccy6LGeJ.s:148    .text._ZN7WorkerBD0Ev:0000000000000018 .LVL10
     /tmp/ccy6LGeJ.s:99     .text._ZN7WorkerBD2Ev:0000000000000000 .LVL7
     /tmp/ccy6LGeJ.s:220    .text._ZN7WorkerCD0Ev:0000000000000000 .LVL16
     /tmp/ccy6LGeJ.s:252    .text._ZN7WorkerCD0Ev:0000000000000044 .LVL20
     /tmp/ccy6LGeJ.s:232    .text._ZN7WorkerCD0Ev:0000000000000018 .LVL17
     /tmp/ccy6LGeJ.s:183    .text._ZN7WorkerCD2Ev:0000000000000000 .LVL14
     /tmp/ccy6LGeJ.s:304    .text._ZN7WorkerDD0Ev:0000000000000000 .LVL23
     /tmp/ccy6LGeJ.s:336    .text._ZN7WorkerDD0Ev:0000000000000044 .LVL27
     /tmp/ccy6LGeJ.s:316    .text._ZN7WorkerDD0Ev:0000000000000018 .LVL24
     /tmp/ccy6LGeJ.s:267    .text._ZN7WorkerDD2Ev:0000000000000000 .LVL21
     /tmp/ccy6LGeJ.s:1456   .text:00000000000006e8 .LVL155
     /tmp/ccy6LGeJ.s:1464   .text:00000000000006f8 .LVL156
     /tmp/ccy6LGeJ.s:1445   .text:00000000000006d8 .LVL153
     /tmp/ccy6LGeJ.s:1466   .text:00000000000006fc .LVL157
     /tmp/ccy6LGeJ.s:1514   .text:0000000000000778 .LVL166
     /tmp/ccy6LGeJ.s:1235   .text:0000000000000504 .LVL129
     /tmp/ccy6LGeJ.s:1266   .text:0000000000000548 .LVL132
     /tmp/ccy6LGeJ.s:1284   .text:000000000000056c .LVL135
     /tmp/ccy6LGeJ.s:1314   .text:00000000000005b0 .LVL138
     /tmp/ccy6LGeJ.s:1332   .text:00000000000005d4 .LVL141
     /tmp/ccy6LGeJ.s:1362   .text:0000000000000618 .LVL144
     /tmp/ccy6LGeJ.s:1380   .text:000000000000063c .LVL147
     /tmp/ccy6LGeJ.s:1410   .text:0000000000000680 .LVL150
     /tmp/ccy6LGeJ.s:1006   .text:0000000000000394 .LVL101
     /tmp/ccy6LGeJ.s:1024   .text:00000000000003b4 .LVL103
     /tmp/ccy6LGeJ.s:1020   .text:00000000000003ac .LVL102
     /tmp/ccy6LGeJ.s:1045   .text:00000000000003ec .LVL107
     /tmp/ccy6LGeJ.s:1047   .text:00000000000003f0 .LVL108
     /tmp/ccy6LGeJ.s:1115   .text:0000000000000494 .LVL120
     /tmp/ccy6LGeJ.s:1117   .text:0000000000000498 .LVL121
     /tmp/ccy6LGeJ.s:1144   .text:00000000000004d0 .LVL124
     /tmp/ccy6LGeJ.s:1075   .text:0000000000000424 .LVL112
     /tmp/ccy6LGeJ.s:1079   .text:000000000000042c .LVL113
     /tmp/ccy6LGeJ.s:1147   .text:00000000000004d4 .LVL125
     /tmp/ccy6LGeJ.s:777    .text:0000000000000214 .LVL70
     /tmp/ccy6LGeJ.s:795    .text:0000000000000234 .LVL72
     /tmp/ccy6LGeJ.s:791    .text:000000000000022c .LVL71
     /tmp/ccy6LGeJ.s:816    .text:000000000000026c .LVL76
     /tmp/ccy6LGeJ.s:818    .text:0000000000000270 .LVL77
     /tmp/ccy6LGeJ.s:912    .text:000000000000034c .LVL93
     /tmp/ccy6LGeJ.s:914    .text:0000000000000350 .LVL94
     /tmp/ccy6LGeJ.s:941    .text:0000000000000388 .LVL97
     /tmp/ccy6LGeJ.s:847    .text:0000000000000298 .LVL80
     /tmp/ccy6LGeJ.s:872    .text:00000000000002dc .LVL85
     /tmp/ccy6LGeJ.s:876    .text:00000000000002e4 .LVL86
GAS LISTING /tmp/ccy6LGeJ.s 			page 57


     /tmp/ccy6LGeJ.s:944    .text:000000000000038c .LVL98
     /tmp/ccy6LGeJ.s:600    .text:0000000000000140 .LVL52
     /tmp/ccy6LGeJ.s:619    .text:0000000000000160 .LVL54
     /tmp/ccy6LGeJ.s:614    .text:0000000000000158 .LVL53
     /tmp/ccy6LGeJ.s:715    .text:000000000000020c .LVL67
     /tmp/ccy6LGeJ.s:659    .text:0000000000000194 .LVL60
     /tmp/ccy6LGeJ.s:687    .text:00000000000001d8 .LVL64
     /tmp/ccy6LGeJ.s:642    .text:000000000000017c .LVL57
     /tmp/ccy6LGeJ.s:651    .text:0000000000000190 .LVL59
     /tmp/ccy6LGeJ.s:433    .text:0000000000000074 .LVL35
     /tmp/ccy6LGeJ.s:452    .text:0000000000000094 .LVL37
     /tmp/ccy6LGeJ.s:447    .text:000000000000008c .LVL36
     /tmp/ccy6LGeJ.s:544    .text:0000000000000138 .LVL49
     /tmp/ccy6LGeJ.s:492    .text:00000000000000c8 .LVL43
     /tmp/ccy6LGeJ.s:520    .text:000000000000010c .LVL47
     /tmp/ccy6LGeJ.s:475    .text:00000000000000b0 .LVL40
     /tmp/ccy6LGeJ.s:484    .text:00000000000000c4 .LVL42
     /tmp/ccy6LGeJ.s:1162   .text._ZN7WorkerD3runEv:0000000000000000 .LVL126
     /tmp/ccy6LGeJ.s:959    .text._ZN7WorkerC3runEv:0000000000000000 .LVL99
     /tmp/ccy6LGeJ.s:730    .text._ZN7WorkerB3runEv:0000000000000000 .LVL68
     /tmp/ccy6LGeJ.s:559    .text._ZN7WorkerA3runEv:0000000000000000 .LVL50
     /tmp/ccy6LGeJ.s:351    .text:0000000000000000 .LVL28
     /tmp/ccy6LGeJ.s:374    .text:0000000000000030 .LVL29
     /tmp/ccy6LGeJ.s:398    .text:000000000000005c .LVL32
     /tmp/ccy6LGeJ.s:404    .text:0000000000000068 .LVL33
     /tmp/ccy6LGeJ.s:1671   .debug_info:0000000000000000 .Ldebug_info0
     /tmp/ccy6LGeJ.s:5      .text:0000000000000000 .Ltext0
     /tmp/ccy6LGeJ.s:1666   .text:00000000000007ac .Letext0
     /tmp/ccy6LGeJ.s:455    .text:0000000000000094 .LBB41
     /tmp/ccy6LGeJ.s:488    .text:00000000000000c4 .LBE41
     /tmp/ccy6LGeJ.s:516    .text:0000000000000104 .LBB45
     /tmp/ccy6LGeJ.s:522    .text:000000000000010c .LBE45
     /tmp/ccy6LGeJ.s:622    .text:0000000000000160 .LBB49
     /tmp/ccy6LGeJ.s:655    .text:0000000000000190 .LBE49
     /tmp/ccy6LGeJ.s:683    .text:00000000000001d0 .LBB53
     /tmp/ccy6LGeJ.s:689    .text:00000000000001d8 .LBE53
     /tmp/ccy6LGeJ.s:1524   .gcc_except_table:0000000000000000 .LLSDA58
                           .group:0000000000000000 _ZN7WorkerAD5Ev
                           .group:0000000000000000 _ZN7WorkerBD5Ev
                           .group:0000000000000000 _ZN7WorkerCD5Ev
                           .group:0000000000000000 _ZN7WorkerDD5Ev

UNDEFINED SYMBOLS
_ZN6ThreadD2Ev
_ZdlPv
_Z15thread_dispatchv
_Z11printStringPKc
_Z8printIntiii
_Znwm
_ZTV6Thread
_ZN6Thread13threadWrapperEPv
_Z21thread_create_cpp_apiPP3TCBPFvPvES2_
_ZN6Thread8dispatchEv
_Unwind_Resume
__gxx_personality_v0
