GAS LISTING /tmp/ccNGz3Me.s 			page 1


   1              		.file	"workers.cpp"
   2              		.option pic
   3              		.option norelax
   4              		.text
   5              	.Ltext0:
   6              		.align	2
   8              	_ZL9fibonaccim:
   9              	.LFB14:
  10              		.file 1 "src/workers.cpp"
   1:src/workers.cpp **** //
   2:src/workers.cpp **** // Created by os on 8/15/22.
   3:src/workers.cpp **** //
   4:src/workers.cpp **** 
   5:src/workers.cpp **** #include "../h/workers.hpp"
   6:src/workers.cpp **** #include "../h/ccb.hpp"
   7:src/workers.cpp **** #include "../lib/hw.h"
   8:src/workers.cpp **** #include "../h/Print.hpp"
   9:src/workers.cpp **** 
  10:src/workers.cpp **** static uint64 fibonacci(uint64 n) {
  11              		.loc 1 10 35
  12              		.cfi_startproc
  13              	.LVL0:
  14 0000 130101FE 		addi	sp,sp,-32
  15              		.cfi_def_cfa_offset 32
  16 0004 233C1100 		sd	ra,24(sp)
  17 0008 23388100 		sd	s0,16(sp)
  18 000c 23349100 		sd	s1,8(sp)
  19 0010 23302101 		sd	s2,0(sp)
  20              		.cfi_offset 1, -8
  21              		.cfi_offset 8, -16
  22              		.cfi_offset 9, -24
  23              		.cfi_offset 18, -32
  24 0014 13040102 		addi	s0,sp,32
  25              		.cfi_def_cfa 8, 0
  26 0018 93040500 		mv	s1,a0
  11:src/workers.cpp ****     if (n == 0 || n == 1) { return n; }
  27              		.loc 1 11 5
  28 001c 93071000 		li	a5,1
  29 0020 63F6A702 		bleu	a0,a5,.L1
  12:src/workers.cpp ****     if (n % 4 == 0) TCB::yield();
  30              		.loc 1 12 5
  31              		.loc 1 12 11 is_stmt 0
  32 0024 93773500 		andi	a5,a0,3
  33              		.loc 1 12 5
  34 0028 638E0702 		beqz	a5,.L6
  35              	.LVL1:
  36              	.L3:
  13:src/workers.cpp ****     return fibonacci(n - 1) + fibonacci(n - 2);
  37              		.loc 1 13 5 is_stmt 1
  38              		.loc 1 13 21 is_stmt 0
  39 002c 1385F4FF 		addi	a0,s1,-1
  40 0030 97000000 		call	_ZL9fibonaccim
  40      E7800000 
  41              	.LVL2:
  42 0038 13090500 		mv	s2,a0
  43              		.loc 1 13 40
  44 003c 1385E4FF 		addi	a0,s1,-2
GAS LISTING /tmp/ccNGz3Me.s 			page 2


  45 0040 97000000 		call	_ZL9fibonaccim
  45      E7800000 
  46              	.LVL3:
  47              		.loc 1 13 46
  48 0048 3305A900 		add	a0,s2,a0
  49              	.L1:
  14:src/workers.cpp **** }
  50              		.loc 1 14 1
  51 004c 83308101 		ld	ra,24(sp)
  52              		.cfi_remember_state
  53              		.cfi_restore 1
  54 0050 03340101 		ld	s0,16(sp)
  55              		.cfi_restore 8
  56              		.cfi_def_cfa 2, 32
  57 0054 83348100 		ld	s1,8(sp)
  58              		.cfi_restore 9
  59              	.LVL4:
  60 0058 03390100 		ld	s2,0(sp)
  61              		.cfi_restore 18
  62 005c 13010102 		addi	sp,sp,32
  63              		.cfi_def_cfa_offset 0
  64 0060 67800000 		jr	ra
  65              	.LVL5:
  66              	.L6:
  67              		.cfi_restore_state
  12:src/workers.cpp ****     if (n % 4 == 0) TCB::yield();
  68              		.loc 1 12 21 is_stmt 1 discriminator 1
  12:src/workers.cpp ****     if (n % 4 == 0) TCB::yield();
  69              		.loc 1 12 31 is_stmt 0 discriminator 1
  70 0064 97000000 		call	_ZN3CCB5yieldEv@plt
  70      E7800000 
  71              	.LVL6:
  72 006c 6FF01FFC 		j	.L3
  73              		.cfi_endproc
  74              	.LFE14:
  76              		.section	.rodata.str1.8,"aMS",@progbits,1
  77              		.align	3
  78              	.LC0:
  79 0000 413A2069 		.string	"A: i="
  79      3D00
  80 0006 0000     		.align	3
  81              	.LC1:
  82 0008 0A00     		.string	"\n"
  83 000a 00000000 		.align	3
  83      0000
  84              	.LC2:
  85 0010 41207969 		.string	"A yield\n"
  85      656C640A 
  85      00
  86 0019 00000000 		.align	3
  86      000000
  87              	.LC3:
  88 0020 413A2074 		.string	"A: t1="
  88      313D00
  89 0027 00       		.align	3
  90              	.LC4:
  91 0028 413A2066 		.string	"A: fibonacci="
GAS LISTING /tmp/ccNGz3Me.s 			page 3


  91      69626F6E 
  91      61636369 
  91      3D00
  92              		.text
  93              		.align	2
  94              		.globl	_Z11workerBodyAv
  96              	_Z11workerBodyAv:
  97              	.LFB15:
  15:src/workers.cpp **** 
  16:src/workers.cpp **** void workerBodyA(){
  98              		.loc 1 16 19 is_stmt 1
  99              		.cfi_startproc
 100 0070 130101FE 		addi	sp,sp,-32
 101              		.cfi_def_cfa_offset 32
 102 0074 233C1100 		sd	ra,24(sp)
 103 0078 23388100 		sd	s0,16(sp)
 104 007c 23349100 		sd	s1,8(sp)
 105 0080 23302101 		sd	s2,0(sp)
 106              		.cfi_offset 1, -8
 107              		.cfi_offset 8, -16
 108              		.cfi_offset 9, -24
 109              		.cfi_offset 18, -32
 110 0084 13040102 		addi	s0,sp,32
 111              		.cfi_def_cfa 8, 0
  17:src/workers.cpp ****     uint8 i=0;
 112              		.loc 1 17 5
 113              	.LVL7:
 114              		.loc 1 17 11 is_stmt 0
 115 0088 93040000 		li	s1,0
 116 008c 6F008003 		j	.L9
 117              	.LVL8:
 118              	.L13:
  18:src/workers.cpp ****     for(; i<3 ; i++){
  19:src/workers.cpp ****         printString("A: i=");
 119              		.loc 1 19 9 is_stmt 1 discriminator 1
 120              		.loc 1 19 20 is_stmt 0 discriminator 1
 121 0090 17050000 		lla	a0,.LC0
 121      13050500 
 122 0098 97000000 		call	_Z11printStringPKc@plt
 122      E7800000 
 123              	.LVL9:
  20:src/workers.cpp ****         printInteger(i);
 124              		.loc 1 20 9 is_stmt 1 discriminator 1
 125              		.loc 1 20 21 is_stmt 0 discriminator 1
 126 00a0 13850400 		mv	a0,s1
 127 00a4 97000000 		call	_Z12printIntegerm@plt
 127      E7800000 
 128              	.LVL10:
  21:src/workers.cpp ****         printString("\n");
 129              		.loc 1 21 9 is_stmt 1 discriminator 1
 130              		.loc 1 21 20 is_stmt 0 discriminator 1
 131 00ac 17050000 		lla	a0,.LC1
 131      13050500 
 132 00b4 97000000 		call	_Z11printStringPKc@plt
 132      E7800000 
 133              	.LVL11:
  18:src/workers.cpp ****     for(; i<3 ; i++){
GAS LISTING /tmp/ccNGz3Me.s 			page 4


 134              		.loc 1 18 5 is_stmt 1 discriminator 1
 135 00bc 9B841400 		addiw	s1,s1,1
 136              	.LVL12:
 137 00c0 93F4F40F 		andi	s1,s1,0xff
 138              	.LVL13:
 139              	.L9:
  18:src/workers.cpp ****     for(; i<3 ; i++){
 140              		.loc 1 18 5 discriminator 2
  18:src/workers.cpp ****     for(; i<3 ; i++){
 141              		.loc 1 18 12 discriminator 2
 142 00c4 93072000 		li	a5,2
 143 00c8 E3F497FC 		bleu	s1,a5,.L13
  22:src/workers.cpp ****     }
  23:src/workers.cpp **** 
  24:src/workers.cpp ****     printString("A yield\n");
 144              		.loc 1 24 5
 145              		.loc 1 24 16 is_stmt 0
 146 00cc 17050000 		lla	a0,.LC2
 146      13050500 
 147 00d4 97000000 		call	_Z11printStringPKc@plt
 147      E7800000 
 148              	.LVL14:
  25:src/workers.cpp ****     __asm__ ("li t1, 7");
 149              		.loc 1 25 5 is_stmt 1
 150              		.loc 1 25 25 is_stmt 0
 151              	#APP
 152              	# 25 "src/workers.cpp" 1
  26              	    TCB::yield();
 153              		li t1, 7
 154              	# 0 "" 2
 155              		.loc 1 26 5 is_stmt 1
 156              		.loc 1 26 15 is_stmt 0
 157              	#NO_APP
 158 00e0 97000000 		call	_ZN3CCB5yieldEv@plt
 158      E7800000 
 159              	.LVL15:
  27:src/workers.cpp **** 
  28:src/workers.cpp ****     uint64 t1=0;
 160              		.loc 1 28 5 is_stmt 1
  29:src/workers.cpp ****     __asm__ ("mv %[t1], t1" : [t1] "=r"(t1));
 161              		.loc 1 29 5
 162              		.loc 1 29 45 is_stmt 0
 163              	#APP
 164              	# 29 "src/workers.cpp" 1
  30              	
 165              		mv s2, t1
 166              	# 0 "" 2
 167              	.LVL16:
  31:src/workers.cpp ****     printString("A: t1=");
 168              		.loc 1 31 5 is_stmt 1
 169              		.loc 1 31 16 is_stmt 0
 170              	#NO_APP
 171 00ec 17050000 		lla	a0,.LC3
 171      13050500 
 172 00f4 97000000 		call	_Z11printStringPKc@plt
 172      E7800000 
 173              	.LVL17:
GAS LISTING /tmp/ccNGz3Me.s 			page 5


  32:src/workers.cpp ****     printInteger(t1);
 174              		.loc 1 32 5 is_stmt 1
 175              		.loc 1 32 17 is_stmt 0
 176 00fc 13050900 		mv	a0,s2
 177 0100 97000000 		call	_Z12printIntegerm@plt
 177      E7800000 
 178              	.LVL18:
  33:src/workers.cpp ****     printString("\n");
 179              		.loc 1 33 5 is_stmt 1
 180              		.loc 1 33 16 is_stmt 0
 181 0108 17050000 		lla	a0,.LC1
 181      13050500 
 182 0110 97000000 		call	_Z11printStringPKc@plt
 182      E7800000 
 183              	.LVL19:
  34:src/workers.cpp **** 
  35:src/workers.cpp ****     uint64 result = fibonacci (20);
 184              		.loc 1 35 5 is_stmt 1
 185              		.loc 1 35 31 is_stmt 0
 186 0118 13054001 		li	a0,20
 187 011c 97000000 		call	_ZL9fibonaccim
 187      E7800000 
 188              	.LVL20:
 189 0124 13090500 		mv	s2,a0
 190              	.LVL21:
  36:src/workers.cpp ****     printString("A: fibonacci=");
 191              		.loc 1 36 5 is_stmt 1
 192              		.loc 1 36 16 is_stmt 0
 193 0128 17050000 		lla	a0,.LC4
 193      13050500 
 194              	.LVL22:
 195 0130 97000000 		call	_Z11printStringPKc@plt
 195      E7800000 
 196              	.LVL23:
  37:src/workers.cpp ****     printInteger(result);
 197              		.loc 1 37 5 is_stmt 1
 198              		.loc 1 37 17 is_stmt 0
 199 0138 13050900 		mv	a0,s2
 200 013c 97000000 		call	_Z12printIntegerm@plt
 200      E7800000 
 201              	.LVL24:
  38:src/workers.cpp ****     printString("\n");
 202              		.loc 1 38 5 is_stmt 1
 203              		.loc 1 38 16 is_stmt 0
 204 0144 17050000 		lla	a0,.LC1
 204      13050500 
 205 014c 97000000 		call	_Z11printStringPKc@plt
 205      E7800000 
 206              	.LVL25:
 207 0154 6F008003 		j	.L11
 208              	.L14:
  39:src/workers.cpp **** 
  40:src/workers.cpp ****     for(; i<6; i++){
  41:src/workers.cpp ****         printString("A: i=");
 209              		.loc 1 41 9 is_stmt 1 discriminator 1
 210              		.loc 1 41 20 is_stmt 0 discriminator 1
 211 0158 17050000 		lla	a0,.LC0
GAS LISTING /tmp/ccNGz3Me.s 			page 6


 211      13050500 
 212 0160 97000000 		call	_Z11printStringPKc@plt
 212      E7800000 
 213              	.LVL26:
  42:src/workers.cpp ****         printInteger(i);
 214              		.loc 1 42 9 is_stmt 1 discriminator 1
 215              		.loc 1 42 21 is_stmt 0 discriminator 1
 216 0168 13850400 		mv	a0,s1
 217 016c 97000000 		call	_Z12printIntegerm@plt
 217      E7800000 
 218              	.LVL27:
  43:src/workers.cpp ****         printString("\n");
 219              		.loc 1 43 9 is_stmt 1 discriminator 1
 220              		.loc 1 43 20 is_stmt 0 discriminator 1
 221 0174 17050000 		lla	a0,.LC1
 221      13050500 
 222 017c 97000000 		call	_Z11printStringPKc@plt
 222      E7800000 
 223              	.LVL28:
  40:src/workers.cpp ****         printString("A: i=");
 224              		.loc 1 40 5 is_stmt 1 discriminator 1
 225 0184 9B841400 		addiw	s1,s1,1
 226              	.LVL29:
 227 0188 93F4F40F 		andi	s1,s1,0xff
 228              	.LVL30:
 229              	.L11:
  40:src/workers.cpp ****         printString("A: i=");
 230              		.loc 1 40 5 discriminator 2
  40:src/workers.cpp ****         printString("A: i=");
 231              		.loc 1 40 12 discriminator 2
 232 018c 93075000 		li	a5,5
 233 0190 E3F497FC 		bleu	s1,a5,.L14
  44:src/workers.cpp ****     }
  45:src/workers.cpp **** 
  46:src/workers.cpp ****     TCB::running->setFinished(true);
 234              		.loc 1 46 5
 235              		.loc 1 46 30 is_stmt 0
 236 0194 93051000 		li	a1,1
 237 0198 97070000 		la	a5,_ZN3CCB7runningE
 237      83B70700 
 238 01a0 03B50700 		ld	a0,0(a5)
 239 01a4 97000000 		call	_ZN3CCB11setFinishedEb@plt
 239      E7800000 
 240              	.LVL31:
  47:src/workers.cpp ****     TCB::yield();
 241              		.loc 1 47 5 is_stmt 1
 242              		.loc 1 47 15 is_stmt 0
 243 01ac 97000000 		call	_ZN3CCB5yieldEv@plt
 243      E7800000 
 244              	.LVL32:
  48:src/workers.cpp **** }
 245              		.loc 1 48 1
 246 01b4 83308101 		ld	ra,24(sp)
 247              		.cfi_restore 1
 248 01b8 03340101 		ld	s0,16(sp)
 249              		.cfi_restore 8
 250              		.cfi_def_cfa 2, 32
GAS LISTING /tmp/ccNGz3Me.s 			page 7


 251 01bc 83348100 		ld	s1,8(sp)
 252              		.cfi_restore 9
 253              	.LVL33:
 254 01c0 03390100 		ld	s2,0(sp)
 255              		.cfi_restore 18
 256              	.LVL34:
 257 01c4 13010102 		addi	sp,sp,32
 258              		.cfi_def_cfa_offset 0
 259 01c8 67800000 		jr	ra
 260              		.cfi_endproc
 261              	.LFE15:
 263              		.section	.rodata.str1.8
 264 0036 0000     		.align	3
 265              	.LC5:
 266 0038 423A2069 		.string	"B: i="
 266      3D00
 267 003e 0000     		.align	3
 268              	.LC6:
 269 0040 423A2079 		.string	"B: yield\n"
 269      69656C64 
 269      0A00
 270 004a 00000000 		.align	3
 270      0000
 271              	.LC7:
 272 0050 413A2066 		.string	"A: fibonaci="
 272      69626F6E 
 272      6163693D 
 272      00
 273              		.text
 274              		.align	2
 275              		.globl	_Z11workerBodyBv
 277              	_Z11workerBodyBv:
 278              	.LFB16:
  49:src/workers.cpp **** 
  50:src/workers.cpp **** void workerBodyB(){
 279              		.loc 1 50 19 is_stmt 1
 280              		.cfi_startproc
 281 01cc 130101FE 		addi	sp,sp,-32
 282              		.cfi_def_cfa_offset 32
 283 01d0 233C1100 		sd	ra,24(sp)
 284 01d4 23388100 		sd	s0,16(sp)
 285 01d8 23349100 		sd	s1,8(sp)
 286 01dc 23302101 		sd	s2,0(sp)
 287              		.cfi_offset 1, -8
 288              		.cfi_offset 8, -16
 289              		.cfi_offset 9, -24
 290              		.cfi_offset 18, -32
 291 01e0 13040102 		addi	s0,sp,32
 292              		.cfi_def_cfa 8, 0
  51:src/workers.cpp ****     uint8 i=10;
 293              		.loc 1 51 5
 294              	.LVL35:
 295              		.loc 1 51 11 is_stmt 0
 296 01e4 9304A000 		li	s1,10
 297 01e8 6F008003 		j	.L17
 298              	.LVL36:
 299              	.L21:
GAS LISTING /tmp/ccNGz3Me.s 			page 8


  52:src/workers.cpp ****     for(; i<13; i++){
  53:src/workers.cpp ****         printString("B: i=");
 300              		.loc 1 53 9 is_stmt 1 discriminator 1
 301              		.loc 1 53 20 is_stmt 0 discriminator 1
 302 01ec 17050000 		lla	a0,.LC5
 302      13050500 
 303 01f4 97000000 		call	_Z11printStringPKc@plt
 303      E7800000 
 304              	.LVL37:
  54:src/workers.cpp ****         printInteger(i);
 305              		.loc 1 54 9 is_stmt 1 discriminator 1
 306              		.loc 1 54 21 is_stmt 0 discriminator 1
 307 01fc 13850400 		mv	a0,s1
 308 0200 97000000 		call	_Z12printIntegerm@plt
 308      E7800000 
 309              	.LVL38:
  55:src/workers.cpp ****         printString("\n");
 310              		.loc 1 55 9 is_stmt 1 discriminator 1
 311              		.loc 1 55 20 is_stmt 0 discriminator 1
 312 0208 17050000 		lla	a0,.LC1
 312      13050500 
 313 0210 97000000 		call	_Z11printStringPKc@plt
 313      E7800000 
 314              	.LVL39:
  52:src/workers.cpp ****     for(; i<13; i++){
 315              		.loc 1 52 5 is_stmt 1 discriminator 1
 316 0218 9B841400 		addiw	s1,s1,1
 317              	.LVL40:
 318 021c 93F4F40F 		andi	s1,s1,0xff
 319              	.LVL41:
 320              	.L17:
  52:src/workers.cpp ****     for(; i<13; i++){
 321              		.loc 1 52 5 discriminator 2
  52:src/workers.cpp ****     for(; i<13; i++){
 322              		.loc 1 52 12 discriminator 2
 323 0220 9307C000 		li	a5,12
 324 0224 E3F497FC 		bleu	s1,a5,.L21
  56:src/workers.cpp ****     }
  57:src/workers.cpp **** 
  58:src/workers.cpp ****     printString("B: yield\n");
 325              		.loc 1 58 5
 326              		.loc 1 58 16 is_stmt 0
 327 0228 17050000 		lla	a0,.LC6
 327      13050500 
 328 0230 97000000 		call	_Z11printStringPKc@plt
 328      E7800000 
 329              	.LVL42:
  59:src/workers.cpp ****     __asm__ ("li t1, 5");
 330              		.loc 1 59 5 is_stmt 1
 331              		.loc 1 59 25 is_stmt 0
 332              	#APP
 333              	# 59 "src/workers.cpp" 1
  60              	    TCB::yield();
 334              		li t1, 5
 335              	# 0 "" 2
 336              		.loc 1 60 5 is_stmt 1
 337              		.loc 1 60 15 is_stmt 0
GAS LISTING /tmp/ccNGz3Me.s 			page 9


 338              	#NO_APP
 339 023c 97000000 		call	_ZN3CCB5yieldEv@plt
 339      E7800000 
 340              	.LVL43:
  61:src/workers.cpp **** 
  62:src/workers.cpp ****     uint64 result=fibonacci(23);
 341              		.loc 1 62 5 is_stmt 1
 342              		.loc 1 62 28 is_stmt 0
 343 0244 13057001 		li	a0,23
 344 0248 97000000 		call	_ZL9fibonaccim
 344      E7800000 
 345              	.LVL44:
 346 0250 13090500 		mv	s2,a0
 347              	.LVL45:
  63:src/workers.cpp ****     printString("A: fibonaci=");
 348              		.loc 1 63 5 is_stmt 1
 349              		.loc 1 63 16 is_stmt 0
 350 0254 17050000 		lla	a0,.LC7
 350      13050500 
 351              	.LVL46:
 352 025c 97000000 		call	_Z11printStringPKc@plt
 352      E7800000 
 353              	.LVL47:
  64:src/workers.cpp ****     printInteger(result);
 354              		.loc 1 64 5 is_stmt 1
 355              		.loc 1 64 17 is_stmt 0
 356 0264 13050900 		mv	a0,s2
 357 0268 97000000 		call	_Z12printIntegerm@plt
 357      E7800000 
 358              	.LVL48:
  65:src/workers.cpp ****     printString("\n");
 359              		.loc 1 65 5 is_stmt 1
 360              		.loc 1 65 16 is_stmt 0
 361 0270 17050000 		lla	a0,.LC1
 361      13050500 
 362 0278 97000000 		call	_Z11printStringPKc@plt
 362      E7800000 
 363              	.LVL49:
 364 0280 6F008003 		j	.L19
 365              	.L22:
  66:src/workers.cpp **** 
  67:src/workers.cpp ****     for(; i<16; i++){
  68:src/workers.cpp ****         printString("B: i=");
 366              		.loc 1 68 9 is_stmt 1 discriminator 1
 367              		.loc 1 68 20 is_stmt 0 discriminator 1
 368 0284 17050000 		lla	a0,.LC5
 368      13050500 
 369 028c 97000000 		call	_Z11printStringPKc@plt
 369      E7800000 
 370              	.LVL50:
  69:src/workers.cpp ****         printInteger(i);
 371              		.loc 1 69 9 is_stmt 1 discriminator 1
 372              		.loc 1 69 21 is_stmt 0 discriminator 1
 373 0294 13850400 		mv	a0,s1
 374 0298 97000000 		call	_Z12printIntegerm@plt
 374      E7800000 
 375              	.LVL51:
GAS LISTING /tmp/ccNGz3Me.s 			page 10


  70:src/workers.cpp ****         printString("\n");
 376              		.loc 1 70 9 is_stmt 1 discriminator 1
 377              		.loc 1 70 20 is_stmt 0 discriminator 1
 378 02a0 17050000 		lla	a0,.LC1
 378      13050500 
 379 02a8 97000000 		call	_Z11printStringPKc@plt
 379      E7800000 
 380              	.LVL52:
  67:src/workers.cpp ****         printString("B: i=");
 381              		.loc 1 67 5 is_stmt 1 discriminator 1
 382 02b0 9B841400 		addiw	s1,s1,1
 383              	.LVL53:
 384 02b4 93F4F40F 		andi	s1,s1,0xff
 385              	.LVL54:
 386              	.L19:
  67:src/workers.cpp ****         printString("B: i=");
 387              		.loc 1 67 5 discriminator 2
  67:src/workers.cpp ****         printString("B: i=");
 388              		.loc 1 67 12 discriminator 2
 389 02b8 9307F000 		li	a5,15
 390 02bc E3F497FC 		bleu	s1,a5,.L22
  71:src/workers.cpp ****     }
  72:src/workers.cpp **** 
  73:src/workers.cpp ****     TCB::running->setFinished(true);
 391              		.loc 1 73 5
 392              		.loc 1 73 30 is_stmt 0
 393 02c0 93051000 		li	a1,1
 394 02c4 97070000 		la	a5,_ZN3CCB7runningE
 394      83B70700 
 395 02cc 03B50700 		ld	a0,0(a5)
 396 02d0 97000000 		call	_ZN3CCB11setFinishedEb@plt
 396      E7800000 
 397              	.LVL55:
  74:src/workers.cpp ****     TCB::yield();
 398              		.loc 1 74 5 is_stmt 1
 399              		.loc 1 74 15 is_stmt 0
 400 02d8 97000000 		call	_ZN3CCB5yieldEv@plt
 400      E7800000 
 401              	.LVL56:
  75:src/workers.cpp **** }...
 402              		.loc 1 75 1
 403 02e0 83308101 		ld	ra,24(sp)
 404              		.cfi_restore 1
 405 02e4 03340101 		ld	s0,16(sp)
 406              		.cfi_restore 8
 407              		.cfi_def_cfa 2, 32
 408 02e8 83348100 		ld	s1,8(sp)
 409              		.cfi_restore 9
 410              	.LVL57:
 411 02ec 03390100 		ld	s2,0(sp)
 412              		.cfi_restore 18
 413              	.LVL58:
 414 02f0 13010102 		addi	sp,sp,32
 415              		.cfi_def_cfa_offset 0
 416 02f4 67800000 		jr	ra
 417              		.cfi_endproc
 418              	.LFE16:
GAS LISTING /tmp/ccNGz3Me.s 			page 11


 420              	.Letext0:
 421              		.file 2 "src/../h/../lib/hw.h"
 422              		.file 3 "src/../h/ccb.hpp"
 423              		.file 4 "src/../h/Print.hpp"
GAS LISTING /tmp/ccNGz3Me.s 			page 12

