GAS LISTING /tmp/ccJhVoDa.s 			page 1


   1              		.file	"workers.cpp"
   2              		.option pic
   3              		.option norelax
   4              		.text
   5              	.Ltext0:
   6              		.align	2
   8              	_ZL9fibonaccim:
   9              	.LFB28:
  10              		.file 1 "src/workers.cpp"
   1:src/workers.cpp **** //
   2:src/workers.cpp **** // Created by os on 8/15/22.
   3:src/workers.cpp **** //
   4:src/workers.cpp **** 
   5:src/workers.cpp **** #include "../h/workers.hpp"
   6:src/workers.cpp **** #include "../h/tcb.hpp"
   7:src/workers.cpp **** #include "../lib/hw.h"
   8:src/workers.cpp **** #include "../h/Print.hpp"
   9:src/workers.cpp **** #include "../h/syscall_c.hpp"
  10:src/workers.cpp **** 
  11:src/workers.cpp **** static uint64 fibonacci(uint64 n) {
  11              		.loc 1 11 35
  12              		.cfi_startproc
  13              	.LVL0:
  14 0000 130101FE 		addi	sp,sp,-32
  15              		.cfi_def_cfa_offset 32
  16 0004 233C1100 		sd	ra,24(sp)
  17 0008 23388100 		sd	s0,16(sp)
  18 000c 23349100 		sd	s1,8(sp)
  19 0010 23302101 		sd	s2,0(sp)
  20              		.cfi_offset 1, -8
  21              		.cfi_offset 8, -16
  22              		.cfi_offset 9, -24
  23              		.cfi_offset 18, -32
  24 0014 13040102 		addi	s0,sp,32
  25              		.cfi_def_cfa 8, 0
  26 0018 93040500 		mv	s1,a0
  12:src/workers.cpp ****     if (n == 0 || n == 1) { return n; }
  27              		.loc 1 12 5
  28 001c 93071000 		li	a5,1
  29 0020 63F6A702 		bleu	a0,a5,.L1
  13:src/workers.cpp ****     if (n % 4 == 0) thread_dispatch();
  30              		.loc 1 13 5
  31              		.loc 1 13 11 is_stmt 0
  32 0024 93773500 		andi	a5,a0,3
  33              		.loc 1 13 5
  34 0028 638E0702 		beqz	a5,.L6
  35              	.LVL1:
  36              	.L3:
  14:src/workers.cpp ****     return fibonacci(n - 1) + fibonacci(n - 2);
  37              		.loc 1 14 5 is_stmt 1
  38              		.loc 1 14 21 is_stmt 0
  39 002c 1385F4FF 		addi	a0,s1,-1
  40 0030 97000000 		call	_ZL9fibonaccim
  40      E7800000 
  41              	.LVL2:
  42 0038 13090500 		mv	s2,a0
  43              		.loc 1 14 40
GAS LISTING /tmp/ccJhVoDa.s 			page 2


  44 003c 1385E4FF 		addi	a0,s1,-2
  45 0040 97000000 		call	_ZL9fibonaccim
  45      E7800000 
  46              	.LVL3:
  47              		.loc 1 14 46
  48 0048 3305A900 		add	a0,s2,a0
  49              	.L1:
  15:src/workers.cpp **** }
  50              		.loc 1 15 1
  51 004c 83308101 		ld	ra,24(sp)
  52              		.cfi_remember_state
  53              		.cfi_restore 1
  54 0050 03340101 		ld	s0,16(sp)
  55              		.cfi_restore 8
  56              		.cfi_def_cfa 2, 32
  57 0054 83348100 		ld	s1,8(sp)
  58              		.cfi_restore 9
  59              	.LVL4:
  60 0058 03390100 		ld	s2,0(sp)
  61              		.cfi_restore 18
  62 005c 13010102 		addi	sp,sp,32
  63              		.cfi_def_cfa_offset 0
  64 0060 67800000 		jr	ra
  65              	.LVL5:
  66              	.L6:
  67              		.cfi_restore_state
  13:src/workers.cpp ****     if (n % 4 == 0) thread_dispatch();
  68              		.loc 1 13 21 is_stmt 1 discriminator 1
  13:src/workers.cpp ****     if (n % 4 == 0) thread_dispatch();
  69              		.loc 1 13 36 is_stmt 0 discriminator 1
  70 0064 97000000 		call	_Z15thread_dispatchv@plt
  70      E7800000 
  71              	.LVL6:
  72 006c 6FF01FFC 		j	.L3
  73              		.cfi_endproc
  74              	.LFE28:
  76              		.section	.rodata.str1.8,"aMS",@progbits,1
  77              		.align	3
  78              	.LC0:
  79 0000 413A2069 		.string	"A: i="
  79      3D00
  80 0006 0000     		.align	3
  81              	.LC1:
  82 0008 0A00     		.string	"\n"
  83 000a 00000000 		.align	3
  83      0000
  84              	.LC2:
  85 0010 41207969 		.string	"A yield\n"
  85      656C640A 
  85      00
  86 0019 00000000 		.align	3
  86      000000
  87              	.LC3:
  88 0020 413A2074 		.string	"A: t1="
  88      313D00
  89 0027 00       		.align	3
  90              	.LC4:
GAS LISTING /tmp/ccJhVoDa.s 			page 3


  91 0028 413A2066 		.string	"A: fibonacci="
  91      69626F6E 
  91      61636369 
  91      3D00
  92              		.text
  93              		.align	2
  94              		.globl	_Z11workerBodyAPv
  96              	_Z11workerBodyAPv:
  97              	.LFB29:
  16:src/workers.cpp **** 
  17:src/workers.cpp **** void workerBodyA(void*){
  98              		.loc 1 17 24 is_stmt 1
  99              		.cfi_startproc
 100 0070 130101FE 		addi	sp,sp,-32
 101              		.cfi_def_cfa_offset 32
 102 0074 233C1100 		sd	ra,24(sp)
 103 0078 23388100 		sd	s0,16(sp)
 104 007c 23349100 		sd	s1,8(sp)
 105 0080 23302101 		sd	s2,0(sp)
 106              		.cfi_offset 1, -8
 107              		.cfi_offset 8, -16
 108              		.cfi_offset 9, -24
 109              		.cfi_offset 18, -32
 110 0084 13040102 		addi	s0,sp,32
 111              		.cfi_def_cfa 8, 0
  18:src/workers.cpp ****     uint8 i=0;
 112              		.loc 1 18 5
 113              	.LVL7:
 114              		.loc 1 18 11 is_stmt 0
 115 0088 93040000 		li	s1,0
 116 008c 6F008003 		j	.L9
 117              	.LVL8:
 118              	.L13:
  19:src/workers.cpp ****     for(; i<3 ; i++){
  20:src/workers.cpp ****         printString("A: i=");
 119              		.loc 1 20 9 is_stmt 1 discriminator 1
 120              		.loc 1 20 20 is_stmt 0 discriminator 1
 121 0090 17050000 		lla	a0,.LC0
 121      13050500 
 122 0098 97000000 		call	_Z11printStringPKc@plt
 122      E7800000 
 123              	.LVL9:
  21:src/workers.cpp ****         printInteger(i);
 124              		.loc 1 21 9 is_stmt 1 discriminator 1
 125              		.loc 1 21 21 is_stmt 0 discriminator 1
 126 00a0 13850400 		mv	a0,s1
 127 00a4 97000000 		call	_Z12printIntegerm@plt
 127      E7800000 
 128              	.LVL10:
  22:src/workers.cpp ****         printString("\n");
 129              		.loc 1 22 9 is_stmt 1 discriminator 1
 130              		.loc 1 22 20 is_stmt 0 discriminator 1
 131 00ac 17050000 		lla	a0,.LC1
 131      13050500 
 132 00b4 97000000 		call	_Z11printStringPKc@plt
 132      E7800000 
 133              	.LVL11:
GAS LISTING /tmp/ccJhVoDa.s 			page 4


  19:src/workers.cpp ****     for(; i<3 ; i++){
 134              		.loc 1 19 5 is_stmt 1 discriminator 1
 135 00bc 9B841400 		addiw	s1,s1,1
 136              	.LVL12:
 137 00c0 93F4F40F 		andi	s1,s1,0xff
 138              	.LVL13:
 139              	.L9:
  19:src/workers.cpp ****     for(; i<3 ; i++){
 140              		.loc 1 19 5 discriminator 2
  19:src/workers.cpp ****     for(; i<3 ; i++){
 141              		.loc 1 19 12 discriminator 2
 142 00c4 93072000 		li	a5,2
 143 00c8 E3F497FC 		bleu	s1,a5,.L13
  23:src/workers.cpp ****     }
  24:src/workers.cpp **** 
  25:src/workers.cpp ****     printString("A yield\n");
 144              		.loc 1 25 5
 145              		.loc 1 25 16 is_stmt 0
 146 00cc 17050000 		lla	a0,.LC2
 146      13050500 
 147 00d4 97000000 		call	_Z11printStringPKc@plt
 147      E7800000 
 148              	.LVL14:
  26:src/workers.cpp ****     __asm__ ("li t1, 7");
 149              		.loc 1 26 5 is_stmt 1
 150              		.loc 1 26 25 is_stmt 0
 151              	#APP
 152              	# 26 "src/workers.cpp" 1
  27              	    thread_dispatch();
 153              		li t1, 7
 154              	# 0 "" 2
 155              		.loc 1 27 5 is_stmt 1
 156              		.loc 1 27 20 is_stmt 0
 157              	#NO_APP
 158 00e0 97000000 		call	_Z15thread_dispatchv@plt
 158      E7800000 
 159              	.LVL15:
  28:src/workers.cpp **** 
  29:src/workers.cpp ****     //thread_exit();
  30:src/workers.cpp **** 
  31:src/workers.cpp ****     uint64 t1=0;
 160              		.loc 1 31 5 is_stmt 1
  32:src/workers.cpp ****     __asm__ ("mv %[t1], t1" : [t1] "=r"(t1));
 161              		.loc 1 32 5
 162              		.loc 1 32 45 is_stmt 0
 163              	#APP
 164              	# 32 "src/workers.cpp" 1
  33              	
 165              		mv s2, t1
 166              	# 0 "" 2
 167              	.LVL16:
  34:src/workers.cpp ****     printString("A: t1=");
 168              		.loc 1 34 5 is_stmt 1
 169              		.loc 1 34 16 is_stmt 0
 170              	#NO_APP
 171 00ec 17050000 		lla	a0,.LC3
 171      13050500 
GAS LISTING /tmp/ccJhVoDa.s 			page 5


 172 00f4 97000000 		call	_Z11printStringPKc@plt
 172      E7800000 
 173              	.LVL17:
  35:src/workers.cpp ****     printInteger(t1);
 174              		.loc 1 35 5 is_stmt 1
 175              		.loc 1 35 17 is_stmt 0
 176 00fc 13050900 		mv	a0,s2
 177 0100 97000000 		call	_Z12printIntegerm@plt
 177      E7800000 
 178              	.LVL18:
  36:src/workers.cpp ****     printString("\n");
 179              		.loc 1 36 5 is_stmt 1
 180              		.loc 1 36 16 is_stmt 0
 181 0108 17050000 		lla	a0,.LC1
 181      13050500 
 182 0110 97000000 		call	_Z11printStringPKc@plt
 182      E7800000 
 183              	.LVL19:
  37:src/workers.cpp **** 
  38:src/workers.cpp ****     uint64 result = fibonacci (20);
 184              		.loc 1 38 5 is_stmt 1
 185              		.loc 1 38 31 is_stmt 0
 186 0118 13054001 		li	a0,20
 187 011c 97000000 		call	_ZL9fibonaccim
 187      E7800000 
 188              	.LVL20:
 189 0124 13090500 		mv	s2,a0
 190              	.LVL21:
  39:src/workers.cpp ****     printString("A: fibonacci=");
 191              		.loc 1 39 5 is_stmt 1
 192              		.loc 1 39 16 is_stmt 0
 193 0128 17050000 		lla	a0,.LC4
 193      13050500 
 194              	.LVL22:
 195 0130 97000000 		call	_Z11printStringPKc@plt
 195      E7800000 
 196              	.LVL23:
  40:src/workers.cpp ****     printInteger(result);
 197              		.loc 1 40 5 is_stmt 1
 198              		.loc 1 40 17 is_stmt 0
 199 0138 13050900 		mv	a0,s2
 200 013c 97000000 		call	_Z12printIntegerm@plt
 200      E7800000 
 201              	.LVL24:
  41:src/workers.cpp ****     printString("\n");
 202              		.loc 1 41 5 is_stmt 1
 203              		.loc 1 41 16 is_stmt 0
 204 0144 17050000 		lla	a0,.LC1
 204      13050500 
 205 014c 97000000 		call	_Z11printStringPKc@plt
 205      E7800000 
 206              	.LVL25:
 207 0154 6F008003 		j	.L11
 208              	.L14:
  42:src/workers.cpp **** 
  43:src/workers.cpp ****     for(; i<6; i++){
  44:src/workers.cpp ****         printString("A: i=");
GAS LISTING /tmp/ccJhVoDa.s 			page 6


 209              		.loc 1 44 9 is_stmt 1 discriminator 1
 210              		.loc 1 44 20 is_stmt 0 discriminator 1
 211 0158 17050000 		lla	a0,.LC0
 211      13050500 
 212 0160 97000000 		call	_Z11printStringPKc@plt
 212      E7800000 
 213              	.LVL26:
  45:src/workers.cpp ****         printInteger(i);
 214              		.loc 1 45 9 is_stmt 1 discriminator 1
 215              		.loc 1 45 21 is_stmt 0 discriminator 1
 216 0168 13850400 		mv	a0,s1
 217 016c 97000000 		call	_Z12printIntegerm@plt
 217      E7800000 
 218              	.LVL27:
  46:src/workers.cpp ****         printString("\n");
 219              		.loc 1 46 9 is_stmt 1 discriminator 1
 220              		.loc 1 46 20 is_stmt 0 discriminator 1
 221 0174 17050000 		lla	a0,.LC1
 221      13050500 
 222 017c 97000000 		call	_Z11printStringPKc@plt
 222      E7800000 
 223              	.LVL28:
  43:src/workers.cpp ****         printString("A: i=");
 224              		.loc 1 43 5 is_stmt 1 discriminator 1
 225 0184 9B841400 		addiw	s1,s1,1
 226              	.LVL29:
 227 0188 93F4F40F 		andi	s1,s1,0xff
 228              	.LVL30:
 229              	.L11:
  43:src/workers.cpp ****         printString("A: i=");
 230              		.loc 1 43 5 discriminator 2
  43:src/workers.cpp ****         printString("A: i=");
 231              		.loc 1 43 12 discriminator 2
 232 018c 93075000 		li	a5,5
 233 0190 E3F497FC 		bleu	s1,a5,.L14
  47:src/workers.cpp ****     }
  48:src/workers.cpp **** 
  49:src/workers.cpp ****     TCB::running->setFinished(true);
 234              		.loc 1 49 5
 235              		.loc 1 49 30 is_stmt 0
 236 0194 93051000 		li	a1,1
 237 0198 97070000 		la	a5,_ZN3TCB7runningE
 237      83B70700 
 238 01a0 03B50700 		ld	a0,0(a5)
 239 01a4 97000000 		call	_ZN3TCB11setFinishedEb@plt
 239      E7800000 
 240              	.LVL31:
  50:src/workers.cpp ****     thread_dispatch();
 241              		.loc 1 50 5 is_stmt 1
 242              		.loc 1 50 20 is_stmt 0
 243 01ac 97000000 		call	_Z15thread_dispatchv@plt
 243      E7800000 
 244              	.LVL32:
  51:src/workers.cpp **** }
 245              		.loc 1 51 1
 246 01b4 83308101 		ld	ra,24(sp)
 247              		.cfi_restore 1
GAS LISTING /tmp/ccJhVoDa.s 			page 7


 248 01b8 03340101 		ld	s0,16(sp)
 249              		.cfi_restore 8
 250              		.cfi_def_cfa 2, 32
 251 01bc 83348100 		ld	s1,8(sp)
 252              		.cfi_restore 9
 253              	.LVL33:
 254 01c0 03390100 		ld	s2,0(sp)
 255              		.cfi_restore 18
 256              	.LVL34:
 257 01c4 13010102 		addi	sp,sp,32
 258              		.cfi_def_cfa_offset 0
 259 01c8 67800000 		jr	ra
 260              		.cfi_endproc
 261              	.LFE29:
 263              		.section	.rodata.str1.8
 264 0036 0000     		.align	3
 265              	.LC5:
 266 0038 423A2069 		.string	"B: i="
 266      3D00
 267 003e 0000     		.align	3
 268              	.LC6:
 269 0040 423A2079 		.string	"B: yield\n"
 269      69656C64 
 269      0A00
 270 004a 00000000 		.align	3
 270      0000
 271              	.LC7:
 272 0050 423A2066 		.string	"B: fibonaci="
 272      69626F6E 
 272      6163693D 
 272      00
 273              		.text
 274              		.align	2
 275              		.globl	_Z11workerBodyBPv
 277              	_Z11workerBodyBPv:
 278              	.LFB30:
  52:src/workers.cpp **** 
  53:src/workers.cpp **** void workerBodyB(void*){
 279              		.loc 1 53 24 is_stmt 1
 280              		.cfi_startproc
 281 01cc 130101FE 		addi	sp,sp,-32
 282              		.cfi_def_cfa_offset 32
 283 01d0 233C1100 		sd	ra,24(sp)
 284 01d4 23388100 		sd	s0,16(sp)
 285 01d8 23349100 		sd	s1,8(sp)
 286 01dc 23302101 		sd	s2,0(sp)
 287              		.cfi_offset 1, -8
 288              		.cfi_offset 8, -16
 289              		.cfi_offset 9, -24
 290              		.cfi_offset 18, -32
 291 01e0 13040102 		addi	s0,sp,32
 292              		.cfi_def_cfa 8, 0
  54:src/workers.cpp ****     uint8 i=10;
 293              		.loc 1 54 5
 294              	.LVL35:
 295              		.loc 1 54 11 is_stmt 0
 296 01e4 9304A000 		li	s1,10
GAS LISTING /tmp/ccJhVoDa.s 			page 8


 297 01e8 6F008003 		j	.L17
 298              	.LVL36:
 299              	.L21:
  55:src/workers.cpp ****     for(; i<13; i++){
  56:src/workers.cpp ****         printString("B: i=");
 300              		.loc 1 56 9 is_stmt 1 discriminator 1
 301              		.loc 1 56 20 is_stmt 0 discriminator 1
 302 01ec 17050000 		lla	a0,.LC5
 302      13050500 
 303 01f4 97000000 		call	_Z11printStringPKc@plt
 303      E7800000 
 304              	.LVL37:
  57:src/workers.cpp ****         printInteger(i);
 305              		.loc 1 57 9 is_stmt 1 discriminator 1
 306              		.loc 1 57 21 is_stmt 0 discriminator 1
 307 01fc 13850400 		mv	a0,s1
 308 0200 97000000 		call	_Z12printIntegerm@plt
 308      E7800000 
 309              	.LVL38:
  58:src/workers.cpp ****         printString("\n");
 310              		.loc 1 58 9 is_stmt 1 discriminator 1
 311              		.loc 1 58 20 is_stmt 0 discriminator 1
 312 0208 17050000 		lla	a0,.LC1
 312      13050500 
 313 0210 97000000 		call	_Z11printStringPKc@plt
 313      E7800000 
 314              	.LVL39:
  55:src/workers.cpp ****     for(; i<13; i++){
 315              		.loc 1 55 5 is_stmt 1 discriminator 1
 316 0218 9B841400 		addiw	s1,s1,1
 317              	.LVL40:
 318 021c 93F4F40F 		andi	s1,s1,0xff
 319              	.LVL41:
 320              	.L17:
  55:src/workers.cpp ****     for(; i<13; i++){
 321              		.loc 1 55 5 discriminator 2
  55:src/workers.cpp ****     for(; i<13; i++){
 322              		.loc 1 55 12 discriminator 2
 323 0220 9307C000 		li	a5,12
 324 0224 E3F497FC 		bleu	s1,a5,.L21
  59:src/workers.cpp ****     }
  60:src/workers.cpp **** 
  61:src/workers.cpp ****     printString("B: yield\n");
 325              		.loc 1 61 5
 326              		.loc 1 61 16 is_stmt 0
 327 0228 17050000 		lla	a0,.LC6
 327      13050500 
 328 0230 97000000 		call	_Z11printStringPKc@plt
 328      E7800000 
 329              	.LVL42:
  62:src/workers.cpp ****     __asm__ ("li t1, 5");
 330              		.loc 1 62 5 is_stmt 1
 331              		.loc 1 62 25 is_stmt 0
 332              	#APP
 333              	# 62 "src/workers.cpp" 1
  63              	    thread_dispatch();
 334              		li t1, 5
GAS LISTING /tmp/ccJhVoDa.s 			page 9


 335              	# 0 "" 2
 336              		.loc 1 63 5 is_stmt 1
 337              		.loc 1 63 20 is_stmt 0
 338              	#NO_APP
 339 023c 97000000 		call	_Z15thread_dispatchv@plt
 339      E7800000 
 340              	.LVL43:
  64:src/workers.cpp **** 
  65:src/workers.cpp ****     uint64 result=fibonacci(23);
 341              		.loc 1 65 5 is_stmt 1
 342              		.loc 1 65 28 is_stmt 0
 343 0244 13057001 		li	a0,23
 344 0248 97000000 		call	_ZL9fibonaccim
 344      E7800000 
 345              	.LVL44:
 346 0250 13090500 		mv	s2,a0
 347              	.LVL45:
  66:src/workers.cpp ****     printString("B: fibonaci=");
 348              		.loc 1 66 5 is_stmt 1
 349              		.loc 1 66 16 is_stmt 0
 350 0254 17050000 		lla	a0,.LC7
 350      13050500 
 351              	.LVL46:
 352 025c 97000000 		call	_Z11printStringPKc@plt
 352      E7800000 
 353              	.LVL47:
  67:src/workers.cpp ****     printInteger(result);
 354              		.loc 1 67 5 is_stmt 1
 355              		.loc 1 67 17 is_stmt 0
 356 0264 13050900 		mv	a0,s2
 357 0268 97000000 		call	_Z12printIntegerm@plt
 357      E7800000 
 358              	.LVL48:
  68:src/workers.cpp ****     printString("\n");
 359              		.loc 1 68 5 is_stmt 1
 360              		.loc 1 68 16 is_stmt 0
 361 0270 17050000 		lla	a0,.LC1
 361      13050500 
 362 0278 97000000 		call	_Z11printStringPKc@plt
 362      E7800000 
 363              	.LVL49:
 364 0280 6F008003 		j	.L19
 365              	.L22:
  69:src/workers.cpp **** 
  70:src/workers.cpp ****     for(; i<16; i++){
  71:src/workers.cpp ****         printString("B: i=");
 366              		.loc 1 71 9 is_stmt 1 discriminator 1
 367              		.loc 1 71 20 is_stmt 0 discriminator 1
 368 0284 17050000 		lla	a0,.LC5
 368      13050500 
 369 028c 97000000 		call	_Z11printStringPKc@plt
 369      E7800000 
 370              	.LVL50:
  72:src/workers.cpp ****         printInteger(i);
 371              		.loc 1 72 9 is_stmt 1 discriminator 1
 372              		.loc 1 72 21 is_stmt 0 discriminator 1
 373 0294 13850400 		mv	a0,s1
GAS LISTING /tmp/ccJhVoDa.s 			page 10


 374 0298 97000000 		call	_Z12printIntegerm@plt
 374      E7800000 
 375              	.LVL51:
  73:src/workers.cpp ****         printString("\n");
 376              		.loc 1 73 9 is_stmt 1 discriminator 1
 377              		.loc 1 73 20 is_stmt 0 discriminator 1
 378 02a0 17050000 		lla	a0,.LC1
 378      13050500 
 379 02a8 97000000 		call	_Z11printStringPKc@plt
 379      E7800000 
 380              	.LVL52:
  70:src/workers.cpp ****         printString("B: i=");
 381              		.loc 1 70 5 is_stmt 1 discriminator 1
 382 02b0 9B841400 		addiw	s1,s1,1
 383              	.LVL53:
 384 02b4 93F4F40F 		andi	s1,s1,0xff
 385              	.LVL54:
 386              	.L19:
  70:src/workers.cpp ****         printString("B: i=");
 387              		.loc 1 70 5 discriminator 2
  70:src/workers.cpp ****         printString("B: i=");
 388              		.loc 1 70 12 discriminator 2
 389 02b8 9307F000 		li	a5,15
 390 02bc E3F497FC 		bleu	s1,a5,.L22
  74:src/workers.cpp ****     }
  75:src/workers.cpp **** 
  76:src/workers.cpp ****     TCB::running->setFinished(true);
 391              		.loc 1 76 5
 392              		.loc 1 76 30 is_stmt 0
 393 02c0 93051000 		li	a1,1
 394 02c4 97070000 		la	a5,_ZN3TCB7runningE
 394      83B70700 
 395 02cc 03B50700 		ld	a0,0(a5)
 396 02d0 97000000 		call	_ZN3TCB11setFinishedEb@plt
 396      E7800000 
 397              	.LVL55:
  77:src/workers.cpp ****     thread_dispatch();
 398              		.loc 1 77 5 is_stmt 1
 399              		.loc 1 77 20 is_stmt 0
 400 02d8 97000000 		call	_Z15thread_dispatchv@plt
 400      E7800000 
 401              	.LVL56:
  78:src/workers.cpp **** }...
 402              		.loc 1 78 1
 403 02e0 83308101 		ld	ra,24(sp)
 404              		.cfi_restore 1
 405 02e4 03340101 		ld	s0,16(sp)
 406              		.cfi_restore 8
 407              		.cfi_def_cfa 2, 32
 408 02e8 83348100 		ld	s1,8(sp)
 409              		.cfi_restore 9
 410              	.LVL57:
 411 02ec 03390100 		ld	s2,0(sp)
 412              		.cfi_restore 18
 413              	.LVL58:
 414 02f0 13010102 		addi	sp,sp,32
 415              		.cfi_def_cfa_offset 0
GAS LISTING /tmp/ccJhVoDa.s 			page 11


 416 02f4 67800000 		jr	ra
 417              		.cfi_endproc
 418              	.LFE30:
 420              	.Letext0:
 421              		.file 2 "src/../h/../lib/hw.h"
 422              		.file 3 "src/../h/tcb.hpp"
 423              		.file 4 "src/../h/Print.hpp"
 424              		.file 5 "src/../h/syscall_c.hpp"
GAS LISTING /tmp/ccJhVoDa.s 			page 12


DEFINED SYMBOLS
                            *ABS*:0000000000000000 workers.cpp
     /tmp/ccJhVoDa.s:8      .text:0000000000000000 _ZL9fibonaccim
     /tmp/ccJhVoDa.s:12     .text:0000000000000000 .L0 
     /tmp/ccJhVoDa.s:14     .text:0000000000000000 .L0 
     /tmp/ccJhVoDa.s:15     .text:0000000000000004 .L0 
     /tmp/ccJhVoDa.s:20     .text:0000000000000014 .L0 
     /tmp/ccJhVoDa.s:21     .text:0000000000000014 .L0 
     /tmp/ccJhVoDa.s:22     .text:0000000000000014 .L0 
     /tmp/ccJhVoDa.s:23     .text:0000000000000014 .L0 
     /tmp/ccJhVoDa.s:25     .text:0000000000000018 .L0 
     /tmp/ccJhVoDa.s:28     .text:000000000000001c .L0 
     /tmp/ccJhVoDa.s:31     .text:0000000000000024 .L0 
     /tmp/ccJhVoDa.s:32     .text:0000000000000024 .L0 
     /tmp/ccJhVoDa.s:34     .text:0000000000000028 .L0 
     /tmp/ccJhVoDa.s:38     .text:000000000000002c .L0 
     /tmp/ccJhVoDa.s:39     .text:000000000000002c .L0 
     /tmp/ccJhVoDa.s:44     .text:000000000000003c .L0 
     /tmp/ccJhVoDa.s:48     .text:0000000000000048 .L0 
     /tmp/ccJhVoDa.s:51     .text:000000000000004c .L0 
     /tmp/ccJhVoDa.s:52     .text:0000000000000050 .L0 
     /tmp/ccJhVoDa.s:53     .text:0000000000000050 .L0 
     /tmp/ccJhVoDa.s:55     .text:0000000000000054 .L0 
     /tmp/ccJhVoDa.s:56     .text:0000000000000054 .L0 
     /tmp/ccJhVoDa.s:58     .text:0000000000000058 .L0 
     /tmp/ccJhVoDa.s:61     .text:000000000000005c .L0 
     /tmp/ccJhVoDa.s:63     .text:0000000000000060 .L0 
     /tmp/ccJhVoDa.s:67     .text:0000000000000064 .L0 
     /tmp/ccJhVoDa.s:69     .text:0000000000000064 .L0 
     /tmp/ccJhVoDa.s:70     .text:0000000000000064 .L0 
     /tmp/ccJhVoDa.s:73     .text:0000000000000070 .L0 
     /tmp/ccJhVoDa.s:96     .text:0000000000000070 _Z11workerBodyAPv
     /tmp/ccJhVoDa.s:99     .text:0000000000000070 .L0 
     /tmp/ccJhVoDa.s:100    .text:0000000000000070 .L0 
     /tmp/ccJhVoDa.s:101    .text:0000000000000074 .L0 
     /tmp/ccJhVoDa.s:106    .text:0000000000000084 .L0 
     /tmp/ccJhVoDa.s:107    .text:0000000000000084 .L0 
     /tmp/ccJhVoDa.s:108    .text:0000000000000084 .L0 
     /tmp/ccJhVoDa.s:109    .text:0000000000000084 .L0 
     /tmp/ccJhVoDa.s:111    .text:0000000000000088 .L0 
     /tmp/ccJhVoDa.s:114    .text:0000000000000088 .L0 
     /tmp/ccJhVoDa.s:115    .text:0000000000000088 .L0 
     /tmp/ccJhVoDa.s:120    .text:0000000000000090 .L0 
     /tmp/ccJhVoDa.s:121    .text:0000000000000090 .L0 
     /tmp/ccJhVoDa.s:125    .text:00000000000000a0 .L0 
     /tmp/ccJhVoDa.s:126    .text:00000000000000a0 .L0 
     /tmp/ccJhVoDa.s:130    .text:00000000000000ac .L0 
     /tmp/ccJhVoDa.s:131    .text:00000000000000ac .L0 
     /tmp/ccJhVoDa.s:135    .text:00000000000000bc .L0 
     /tmp/ccJhVoDa.s:141    .text:00000000000000c4 .L0 
     /tmp/ccJhVoDa.s:142    .text:00000000000000c4 .L0 
     /tmp/ccJhVoDa.s:145    .text:00000000000000cc .L0 
     /tmp/ccJhVoDa.s:146    .text:00000000000000cc .L0 
     /tmp/ccJhVoDa.s:150    .text:00000000000000dc .L0 
     src/workers.cpp:26     .text:00000000000000dc .L0 
     /tmp/ccJhVoDa.s:156    .text:00000000000000e0 .L0 
     /tmp/ccJhVoDa.s:158    .text:00000000000000e0 .L0 
GAS LISTING /tmp/ccJhVoDa.s 			page 13


     /tmp/ccJhVoDa.s:161    .text:00000000000000e8 .L0 
     /tmp/ccJhVoDa.s:162    .text:00000000000000e8 .L0 
     src/workers.cpp:32     .text:00000000000000e8 .L0 
     /tmp/ccJhVoDa.s:169    .text:00000000000000ec .L0 
     /tmp/ccJhVoDa.s:171    .text:00000000000000ec .L0 
     /tmp/ccJhVoDa.s:175    .text:00000000000000fc .L0 
     /tmp/ccJhVoDa.s:176    .text:00000000000000fc .L0 
     /tmp/ccJhVoDa.s:180    .text:0000000000000108 .L0 
     /tmp/ccJhVoDa.s:181    .text:0000000000000108 .L0 
     /tmp/ccJhVoDa.s:185    .text:0000000000000118 .L0 
     /tmp/ccJhVoDa.s:186    .text:0000000000000118 .L0 
     /tmp/ccJhVoDa.s:192    .text:0000000000000128 .L0 
     /tmp/ccJhVoDa.s:193    .text:0000000000000128 .L0 
     /tmp/ccJhVoDa.s:198    .text:0000000000000138 .L0 
     /tmp/ccJhVoDa.s:199    .text:0000000000000138 .L0 
     /tmp/ccJhVoDa.s:203    .text:0000000000000144 .L0 
     /tmp/ccJhVoDa.s:204    .text:0000000000000144 .L0 
     /tmp/ccJhVoDa.s:210    .text:0000000000000158 .L0 
     /tmp/ccJhVoDa.s:211    .text:0000000000000158 .L0 
     /tmp/ccJhVoDa.s:215    .text:0000000000000168 .L0 
     /tmp/ccJhVoDa.s:216    .text:0000000000000168 .L0 
     /tmp/ccJhVoDa.s:220    .text:0000000000000174 .L0 
     /tmp/ccJhVoDa.s:221    .text:0000000000000174 .L0 
     /tmp/ccJhVoDa.s:225    .text:0000000000000184 .L0 
     /tmp/ccJhVoDa.s:231    .text:000000000000018c .L0 
     /tmp/ccJhVoDa.s:232    .text:000000000000018c .L0 
     /tmp/ccJhVoDa.s:235    .text:0000000000000194 .L0 
     /tmp/ccJhVoDa.s:236    .text:0000000000000194 .L0 
     /tmp/ccJhVoDa.s:242    .text:00000000000001ac .L0 
     /tmp/ccJhVoDa.s:243    .text:00000000000001ac .L0 
     /tmp/ccJhVoDa.s:246    .text:00000000000001b4 .L0 
     /tmp/ccJhVoDa.s:247    .text:00000000000001b8 .L0 
     /tmp/ccJhVoDa.s:249    .text:00000000000001bc .L0 
     /tmp/ccJhVoDa.s:250    .text:00000000000001bc .L0 
     /tmp/ccJhVoDa.s:252    .text:00000000000001c0 .L0 
     /tmp/ccJhVoDa.s:255    .text:00000000000001c4 .L0 
     /tmp/ccJhVoDa.s:258    .text:00000000000001c8 .L0 
     /tmp/ccJhVoDa.s:260    .text:00000000000001cc .L0 
     /tmp/ccJhVoDa.s:277    .text:00000000000001cc _Z11workerBodyBPv
     /tmp/ccJhVoDa.s:280    .text:00000000000001cc .L0 
     /tmp/ccJhVoDa.s:281    .text:00000000000001cc .L0 
     /tmp/ccJhVoDa.s:282    .text:00000000000001d0 .L0 
     /tmp/ccJhVoDa.s:287    .text:00000000000001e0 .L0 
     /tmp/ccJhVoDa.s:288    .text:00000000000001e0 .L0 
     /tmp/ccJhVoDa.s:289    .text:00000000000001e0 .L0 
     /tmp/ccJhVoDa.s:290    .text:00000000000001e0 .L0 
     /tmp/ccJhVoDa.s:292    .text:00000000000001e4 .L0 
     /tmp/ccJhVoDa.s:295    .text:00000000000001e4 .L0 
     /tmp/ccJhVoDa.s:296    .text:00000000000001e4 .L0 
     /tmp/ccJhVoDa.s:301    .text:00000000000001ec .L0 
     /tmp/ccJhVoDa.s:302    .text:00000000000001ec .L0 
     /tmp/ccJhVoDa.s:306    .text:00000000000001fc .L0 
     /tmp/ccJhVoDa.s:307    .text:00000000000001fc .L0 
     /tmp/ccJhVoDa.s:311    .text:0000000000000208 .L0 
     /tmp/ccJhVoDa.s:312    .text:0000000000000208 .L0 
     /tmp/ccJhVoDa.s:316    .text:0000000000000218 .L0 
     /tmp/ccJhVoDa.s:322    .text:0000000000000220 .L0 
GAS LISTING /tmp/ccJhVoDa.s 			page 14


     /tmp/ccJhVoDa.s:323    .text:0000000000000220 .L0 
     /tmp/ccJhVoDa.s:326    .text:0000000000000228 .L0 
     /tmp/ccJhVoDa.s:327    .text:0000000000000228 .L0 
     /tmp/ccJhVoDa.s:331    .text:0000000000000238 .L0 
     src/workers.cpp:62     .text:0000000000000238 .L0 
     /tmp/ccJhVoDa.s:337    .text:000000000000023c .L0 
     /tmp/ccJhVoDa.s:339    .text:000000000000023c .L0 
     /tmp/ccJhVoDa.s:342    .text:0000000000000244 .L0 
     /tmp/ccJhVoDa.s:343    .text:0000000000000244 .L0 
     /tmp/ccJhVoDa.s:349    .text:0000000000000254 .L0 
     /tmp/ccJhVoDa.s:350    .text:0000000000000254 .L0 
     /tmp/ccJhVoDa.s:355    .text:0000000000000264 .L0 
     /tmp/ccJhVoDa.s:356    .text:0000000000000264 .L0 
     /tmp/ccJhVoDa.s:360    .text:0000000000000270 .L0 
     /tmp/ccJhVoDa.s:361    .text:0000000000000270 .L0 
     /tmp/ccJhVoDa.s:367    .text:0000000000000284 .L0 
     /tmp/ccJhVoDa.s:368    .text:0000000000000284 .L0 
     /tmp/ccJhVoDa.s:372    .text:0000000000000294 .L0 
     /tmp/ccJhVoDa.s:373    .text:0000000000000294 .L0 
     /tmp/ccJhVoDa.s:377    .text:00000000000002a0 .L0 
     /tmp/ccJhVoDa.s:378    .text:00000000000002a0 .L0 
     /tmp/ccJhVoDa.s:382    .text:00000000000002b0 .L0 
     /tmp/ccJhVoDa.s:388    .text:00000000000002b8 .L0 
     /tmp/ccJhVoDa.s:389    .text:00000000000002b8 .L0 
     /tmp/ccJhVoDa.s:392    .text:00000000000002c0 .L0 
     /tmp/ccJhVoDa.s:393    .text:00000000000002c0 .L0 
     /tmp/ccJhVoDa.s:399    .text:00000000000002d8 .L0 
     /tmp/ccJhVoDa.s:400    .text:00000000000002d8 .L0 
     /tmp/ccJhVoDa.s:403    .text:00000000000002e0 .L0 
     /tmp/ccJhVoDa.s:404    .text:00000000000002e4 .L0 
     /tmp/ccJhVoDa.s:406    .text:00000000000002e8 .L0 
     /tmp/ccJhVoDa.s:407    .text:00000000000002e8 .L0 
     /tmp/ccJhVoDa.s:409    .text:00000000000002ec .L0 
     /tmp/ccJhVoDa.s:412    .text:00000000000002f0 .L0 
     /tmp/ccJhVoDa.s:415    .text:00000000000002f4 .L0 
     /tmp/ccJhVoDa.s:417    .text:00000000000002f8 .L0 
     /tmp/ccJhVoDa.s:425    .text:00000000000002f8 .L0 
     /tmp/ccJhVoDa.s:78     .rodata.str1.8:0000000000000000 .LC0
     /tmp/ccJhVoDa.s:121    .text:0000000000000090 .L0 
     /tmp/ccJhVoDa.s:81     .rodata.str1.8:0000000000000008 .LC1
     /tmp/ccJhVoDa.s:131    .text:00000000000000ac .L0 
     /tmp/ccJhVoDa.s:84     .rodata.str1.8:0000000000000010 .LC2
     /tmp/ccJhVoDa.s:146    .text:00000000000000cc .L0 
     /tmp/ccJhVoDa.s:87     .rodata.str1.8:0000000000000020 .LC3
     /tmp/ccJhVoDa.s:171    .text:00000000000000ec .L0 
     /tmp/ccJhVoDa.s:181    .text:0000000000000108 .L0 
     /tmp/ccJhVoDa.s:90     .rodata.str1.8:0000000000000028 .LC4
     /tmp/ccJhVoDa.s:193    .text:0000000000000128 .L0 
     /tmp/ccJhVoDa.s:204    .text:0000000000000144 .L0 
     /tmp/ccJhVoDa.s:211    .text:0000000000000158 .L0 
     /tmp/ccJhVoDa.s:221    .text:0000000000000174 .L0 
     /tmp/ccJhVoDa.s:237    .text:0000000000000198 .L0 
     /tmp/ccJhVoDa.s:265    .rodata.str1.8:0000000000000038 .LC5
     /tmp/ccJhVoDa.s:302    .text:00000000000001ec .L0 
     /tmp/ccJhVoDa.s:312    .text:0000000000000208 .L0 
     /tmp/ccJhVoDa.s:268    .rodata.str1.8:0000000000000040 .LC6
     /tmp/ccJhVoDa.s:327    .text:0000000000000228 .L0 
GAS LISTING /tmp/ccJhVoDa.s 			page 15


     /tmp/ccJhVoDa.s:271    .rodata.str1.8:0000000000000050 .LC7
     /tmp/ccJhVoDa.s:350    .text:0000000000000254 .L0 
     /tmp/ccJhVoDa.s:361    .text:0000000000000270 .L0 
     /tmp/ccJhVoDa.s:368    .text:0000000000000284 .L0 
     /tmp/ccJhVoDa.s:378    .text:00000000000002a0 .L0 
     /tmp/ccJhVoDa.s:394    .text:00000000000002c4 .L0 
     /tmp/ccJhVoDa.s:49     .text:000000000000004c .L1
     /tmp/ccJhVoDa.s:66     .text:0000000000000064 .L6
     /tmp/ccJhVoDa.s:36     .text:000000000000002c .L3
     /tmp/ccJhVoDa.s:139    .text:00000000000000c4 .L9
     /tmp/ccJhVoDa.s:118    .text:0000000000000090 .L13
     /tmp/ccJhVoDa.s:229    .text:000000000000018c .L11
     /tmp/ccJhVoDa.s:208    .text:0000000000000158 .L14
     /tmp/ccJhVoDa.s:320    .text:0000000000000220 .L17
     /tmp/ccJhVoDa.s:299    .text:00000000000001ec .L21
     /tmp/ccJhVoDa.s:386    .text:00000000000002b8 .L19
     /tmp/ccJhVoDa.s:365    .text:0000000000000284 .L22
     /tmp/ccJhVoDa.s:1265   .debug_abbrev:0000000000000000 .Ldebug_abbrev0
     /tmp/ccJhVoDa.s:2146   .debug_str:000000000000036c .LASF58
     /tmp/ccJhVoDa.s:2048   .debug_str:0000000000000073 .LASF59
     /tmp/ccJhVoDa.s:2064   .debug_str:00000000000000e6 .LASF60
     /tmp/ccJhVoDa.s:5      .text:0000000000000000 .Ltext0
     /tmp/ccJhVoDa.s:420    .text:00000000000002f8 .Letext0
     /tmp/ccJhVoDa.s:2026   .debug_line:0000000000000000 .Ldebug_line0
     /tmp/ccJhVoDa.s:2112   .debug_str:0000000000000284 .LASF0
     /tmp/ccJhVoDa.s:2118   .debug_str:00000000000002a0 .LASF1
     /tmp/ccJhVoDa.s:2102   .debug_str:000000000000023b .LASF2
     /tmp/ccJhVoDa.s:2056   .debug_str:00000000000000c0 .LASF3
     /tmp/ccJhVoDa.s:2086   .debug_str:00000000000001c4 .LASF4
     /tmp/ccJhVoDa.s:2136   .debug_str:000000000000031a .LASF5
     /tmp/ccJhVoDa.s:2040   .debug_str:0000000000000043 .LASF6
     /tmp/ccJhVoDa.s:2120   .debug_str:00000000000002b3 .LASF7
     /tmp/ccJhVoDa.s:2110   .debug_str:0000000000000271 .LASF8
     /tmp/ccJhVoDa.s:2154   .debug_str:0000000000000463 .LASF9
     /tmp/ccJhVoDa.s:2074   .debug_str:000000000000014d .LASF10
     /tmp/ccJhVoDa.s:2124   .debug_str:00000000000002d1 .LASF11
     /tmp/ccJhVoDa.s:2148   .debug_str:0000000000000430 .LASF12
     /tmp/ccJhVoDa.s:2042   .debug_str:000000000000004a .LASF13
     /tmp/ccJhVoDa.s:2032   .debug_str:0000000000000013 .LASF14
     /tmp/ccJhVoDa.s:2046   .debug_str:0000000000000067 .LASF15
     /tmp/ccJhVoDa.s:2132   .debug_str:00000000000002fe .LASF16
     /tmp/ccJhVoDa.s:2054   .debug_str:00000000000000aa .LASF17
     /tmp/ccJhVoDa.s:2036   .debug_str:000000000000002f .LASF61
     /tmp/ccJhVoDa.s:2162   .debug_str:0000000000000496 .LASF18
     /tmp/ccJhVoDa.s:2144   .debug_str:0000000000000360 .LASF20
     /tmp/ccJhVoDa.s:2070   .debug_str:0000000000000126 .LASF19
     /tmp/ccJhVoDa.s:2076   .debug_str:000000000000015b .LASF21
     /tmp/ccJhVoDa.s:2140   .debug_str:000000000000033d .LASF22
     /tmp/ccJhVoDa.s:2130   .debug_str:00000000000002f1 .LASF24
     /tmp/ccJhVoDa.s:2142   .debug_str:000000000000034d .LASF23
     /tmp/ccJhVoDa.s:2044   .debug_str:000000000000005a .LASF25
     /tmp/ccJhVoDa.s:2080   .debug_str:0000000000000180 .LASF26
     /tmp/ccJhVoDa.s:2126   .debug_str:00000000000002e0 .LASF27
     /tmp/ccJhVoDa.s:2094   .debug_str:00000000000001e1 .LASF28
     /tmp/ccJhVoDa.s:2096   .debug_str:00000000000001ee .LASF29
     /tmp/ccJhVoDa.s:2128   .debug_str:00000000000002ec .LASF62
     /tmp/ccJhVoDa.s:2050   .debug_str:0000000000000083 .LASF32
GAS LISTING /tmp/ccJhVoDa.s 			page 16


     /tmp/ccJhVoDa.s:2100   .debug_str:0000000000000220 .LASF34
     /tmp/ccJhVoDa.s:2038   .debug_str:0000000000000037 .LASF63
     /tmp/ccJhVoDa.s:2052   .debug_str:0000000000000093 .LASF64
     /tmp/ccJhVoDa.s:2122   .debug_str:00000000000002c6 .LASF46
     /tmp/ccJhVoDa.s:2072   .debug_str:0000000000000136 .LASF48
     /tmp/ccJhVoDa.s:2104   .debug_str:0000000000000249 .LASF30
     /tmp/ccJhVoDa.s:2082   .debug_str:0000000000000185 .LASF31
     /tmp/ccJhVoDa.s:2134   .debug_str:0000000000000314 .LASF33
     /tmp/ccJhVoDa.s:2106   .debug_str:0000000000000255 .LASF35
     /tmp/ccJhVoDa.s:2058   .debug_str:00000000000000c6 .LASF65
     /tmp/ccJhVoDa.s:2090   .debug_str:00000000000001d4 .LASF36
     /tmp/ccJhVoDa.s:2116   .debug_str:000000000000029a .LASF37
     /tmp/ccJhVoDa.s:2092   .debug_str:00000000000001d9 .LASF38
     /tmp/ccJhVoDa.s:2088   .debug_str:00000000000001cb .LASF39
     /tmp/ccJhVoDa.s:2168   .debug_str:00000000000004c8 .LASF40
     /tmp/ccJhVoDa.s:2098   .debug_str:0000000000000212 .LASF41
     /tmp/ccJhVoDa.s:2078   .debug_str:0000000000000167 .LASF43
     /tmp/ccJhVoDa.s:2158   .debug_str:000000000000047d .LASF66
     /tmp/ccJhVoDa.s:2084   .debug_str:000000000000019c .LASF67
     /tmp/ccJhVoDa.s:2114   .debug_str:0000000000000291 .LASF42
     /tmp/ccJhVoDa.s:2060   .debug_str:00000000000000ce .LASF44
     /tmp/ccJhVoDa.s:2138   .debug_str:000000000000032c .LASF68
     /tmp/ccJhVoDa.s:2160   .debug_str:000000000000048b .LASF69
     /tmp/ccJhVoDa.s:2062   .debug_str:00000000000000e1 .LASF45
     /tmp/ccJhVoDa.s:2030   .debug_str:0000000000000007 .LASF47
     /tmp/ccJhVoDa.s:2164   .debug_str:00000000000004a3 .LASF49
     /tmp/ccJhVoDa.s:278    .text:00000000000001cc .LFB30
     /tmp/ccJhVoDa.s:418    .text:00000000000002f8 .LFE30
     /tmp/ccJhVoDa.s:1921   .debug_loc:0000000000000000 .LLST4
     /tmp/ccJhVoDa.s:2028   .debug_str:0000000000000000 .LASF50
     /tmp/ccJhVoDa.s:1941   .debug_loc:000000000000005d .LLST5
     /tmp/ccJhVoDa.s:304    .text:00000000000001fc .LVL37
     /tmp/ccJhVoDa.s:309    .text:0000000000000208 .LVL38
     /tmp/ccJhVoDa.s:314    .text:0000000000000218 .LVL39
     /tmp/ccJhVoDa.s:329    .text:0000000000000238 .LVL42
     /tmp/ccJhVoDa.s:340    .text:0000000000000244 .LVL43
     /tmp/ccJhVoDa.s:345    .text:0000000000000250 .LVL44
     /tmp/ccJhVoDa.s:353    .text:0000000000000264 .LVL47
     /tmp/ccJhVoDa.s:358    .text:0000000000000270 .LVL48
     /tmp/ccJhVoDa.s:363    .text:0000000000000280 .LVL49
     /tmp/ccJhVoDa.s:370    .text:0000000000000294 .LVL50
     /tmp/ccJhVoDa.s:375    .text:00000000000002a0 .LVL51
     /tmp/ccJhVoDa.s:380    .text:00000000000002b0 .LVL52
     /tmp/ccJhVoDa.s:397    .text:00000000000002d8 .LVL55
     /tmp/ccJhVoDa.s:401    .text:00000000000002e0 .LVL56
     /tmp/ccJhVoDa.s:2108   .debug_str:0000000000000265 .LASF51
     /tmp/ccJhVoDa.s:2150   .debug_str:000000000000043f .LASF52
     /tmp/ccJhVoDa.s:97     .text:0000000000000070 .LFB29
     /tmp/ccJhVoDa.s:261    .text:00000000000001cc .LFE29
     /tmp/ccJhVoDa.s:1952   .debug_loc:0000000000000093 .LLST1
     /tmp/ccJhVoDa.s:1972   .debug_loc:00000000000000f0 .LLST2
     /tmp/ccJhVoDa.s:1980   .debug_loc:0000000000000114 .LLST3
     /tmp/ccJhVoDa.s:123    .text:00000000000000a0 .LVL9
     /tmp/ccJhVoDa.s:128    .text:00000000000000ac .LVL10
     /tmp/ccJhVoDa.s:133    .text:00000000000000bc .LVL11
     /tmp/ccJhVoDa.s:148    .text:00000000000000dc .LVL14
     /tmp/ccJhVoDa.s:159    .text:00000000000000e8 .LVL15
GAS LISTING /tmp/ccJhVoDa.s 			page 17


     /tmp/ccJhVoDa.s:173    .text:00000000000000fc .LVL17
     /tmp/ccJhVoDa.s:178    .text:0000000000000108 .LVL18
     /tmp/ccJhVoDa.s:183    .text:0000000000000118 .LVL19
     /tmp/ccJhVoDa.s:188    .text:0000000000000124 .LVL20
     /tmp/ccJhVoDa.s:196    .text:0000000000000138 .LVL23
     /tmp/ccJhVoDa.s:201    .text:0000000000000144 .LVL24
     /tmp/ccJhVoDa.s:206    .text:0000000000000154 .LVL25
     /tmp/ccJhVoDa.s:213    .text:0000000000000168 .LVL26
     /tmp/ccJhVoDa.s:218    .text:0000000000000174 .LVL27
     /tmp/ccJhVoDa.s:223    .text:0000000000000184 .LVL28
     /tmp/ccJhVoDa.s:240    .text:00000000000001ac .LVL31
     /tmp/ccJhVoDa.s:244    .text:00000000000001b4 .LVL32
     /tmp/ccJhVoDa.s:2156   .debug_str:0000000000000473 .LASF70
     /tmp/ccJhVoDa.s:9      .text:0000000000000000 .LFB28
     /tmp/ccJhVoDa.s:74     .text:0000000000000070 .LFE28
     /tmp/ccJhVoDa.s:1991   .debug_loc:000000000000014a .LLST0
     /tmp/ccJhVoDa.s:41     .text:0000000000000038 .LVL2
     /tmp/ccJhVoDa.s:46     .text:0000000000000048 .LVL3
     /tmp/ccJhVoDa.s:71     .text:000000000000006c .LVL6
     /tmp/ccJhVoDa.s:2166   .debug_str:00000000000004b5 .LASF53
     /tmp/ccJhVoDa.s:2034   .debug_str:0000000000000023 .LASF55
     /tmp/ccJhVoDa.s:2152   .debug_str:0000000000000451 .LASF54
     /tmp/ccJhVoDa.s:2068   .debug_str:0000000000000119 .LASF56
     /tmp/ccJhVoDa.s:2066   .debug_str:0000000000000104 .LASF57
     /tmp/ccJhVoDa.s:294    .text:00000000000001e4 .LVL35
     /tmp/ccJhVoDa.s:298    .text:00000000000001ec .LVL36
     /tmp/ccJhVoDa.s:317    .text:000000000000021c .LVL40
     /tmp/ccJhVoDa.s:319    .text:0000000000000220 .LVL41
     /tmp/ccJhVoDa.s:383    .text:00000000000002b4 .LVL53
     /tmp/ccJhVoDa.s:385    .text:00000000000002b8 .LVL54
     /tmp/ccJhVoDa.s:410    .text:00000000000002ec .LVL57
     /tmp/ccJhVoDa.s:347    .text:0000000000000254 .LVL45
     /tmp/ccJhVoDa.s:351    .text:000000000000025c .LVL46
     /tmp/ccJhVoDa.s:413    .text:00000000000002f0 .LVL58
     /tmp/ccJhVoDa.s:113    .text:0000000000000088 .LVL7
     /tmp/ccJhVoDa.s:117    .text:0000000000000090 .LVL8
     /tmp/ccJhVoDa.s:136    .text:00000000000000c0 .LVL12
     /tmp/ccJhVoDa.s:138    .text:00000000000000c4 .LVL13
     /tmp/ccJhVoDa.s:226    .text:0000000000000188 .LVL29
     /tmp/ccJhVoDa.s:228    .text:000000000000018c .LVL30
     /tmp/ccJhVoDa.s:253    .text:00000000000001c0 .LVL33
     /tmp/ccJhVoDa.s:167    .text:00000000000000ec .LVL16
     /tmp/ccJhVoDa.s:190    .text:0000000000000128 .LVL21
     /tmp/ccJhVoDa.s:194    .text:0000000000000130 .LVL22
     /tmp/ccJhVoDa.s:256    .text:00000000000001c4 .LVL34
     /tmp/ccJhVoDa.s:13     .text:0000000000000000 .LVL0
     /tmp/ccJhVoDa.s:35     .text:000000000000002c .LVL1
     /tmp/ccJhVoDa.s:59     .text:0000000000000058 .LVL4
     /tmp/ccJhVoDa.s:65     .text:0000000000000064 .LVL5
     /tmp/ccJhVoDa.s:426    .debug_info:0000000000000000 .Ldebug_info0

UNDEFINED SYMBOLS
_Z15thread_dispatchv
_Z11printStringPKc
_Z12printIntegerm
_ZN3TCB7runningE
_ZN3TCB11setFinishedEb
GAS LISTING /tmp/ccJhVoDa.s 			page 18


