GAS LISTING /tmp/ccCv0ed1.s 			page 1


   1              		.file	"workers.cpp"
   2              		.option pic
   3              		.option norelax
   4              		.text
   5              	.Ltext0:
   6              		.align	2
   8              	_ZL9fibonaccim:
   9              	.LFB18:
  10              		.file 1 "src/workers.cpp"
   1:src/workers.cpp **** //
   2:src/workers.cpp **** // Created by os on 8/15/22.
   3:src/workers.cpp **** //
   4:src/workers.cpp **** 
   5:src/workers.cpp **** #include "../h/workers.hpp"
   6:src/workers.cpp **** #include "../h/tcb.hpp"
   7:src/workers.cpp **** #include "../lib/hw.h"
   8:src/workers.cpp **** #include "../h/Print.hpp"
   9:src/workers.cpp **** 
  10:src/workers.cpp **** 
  11:src/workers.cpp **** static uint64 fibonacci(uint64 n) {
  11              		.loc 1 11 35
  12              		.cfi_startproc
  13              	.LVL0:
  14 0000 130101FE 		addi	sp,sp,-32
  15              		.cfi_def_cfa_offset 32
  16 0004 233C1100 		sd	ra,24(sp)
  17 0008 23388100 		sd	s0,16(sp)
  18 000c 23349100 		sd	s1,8(sp)
  19 0010 23302101 		sd	s2,0(sp)
  20              		.cfi_offset 1, -8
  21              		.cfi_offset 8, -16
  22              		.cfi_offset 9, -24
  23              		.cfi_offset 18, -32
  24 0014 13040102 		addi	s0,sp,32
  25              		.cfi_def_cfa 8, 0
  26 0018 93040500 		mv	s1,a0
  12:src/workers.cpp ****     if (n == 0 || n == 1) { return n; }
  27              		.loc 1 12 5
  28 001c 93071000 		li	a5,1
  29 0020 63F6A702 		bleu	a0,a5,.L1
  13:src/workers.cpp ****     if (n % 4 == 0) TCB::yield();
  30              		.loc 1 13 5
  31              		.loc 1 13 11 is_stmt 0
  32 0024 93773500 		andi	a5,a0,3
  33              		.loc 1 13 5
  34 0028 638E0702 		beqz	a5,.L6
  35              	.LVL1:
  36              	.L3:
  14:src/workers.cpp ****     return fibonacci(n - 1) + fibonacci(n - 2);
  37              		.loc 1 14 5 is_stmt 1
  38              		.loc 1 14 21 is_stmt 0
  39 002c 1385F4FF 		addi	a0,s1,-1
  40 0030 97000000 		call	_ZL9fibonaccim
  40      E7800000 
  41              	.LVL2:
  42 0038 13090500 		mv	s2,a0
  43              		.loc 1 14 40
GAS LISTING /tmp/ccCv0ed1.s 			page 2


  44 003c 1385E4FF 		addi	a0,s1,-2
  45 0040 97000000 		call	_ZL9fibonaccim
  45      E7800000 
  46              	.LVL3:
  47              		.loc 1 14 46
  48 0048 3305A900 		add	a0,s2,a0
  49              	.L1:
  15:src/workers.cpp **** }
  50              		.loc 1 15 1
  51 004c 83308101 		ld	ra,24(sp)
  52              		.cfi_remember_state
  53              		.cfi_restore 1
  54 0050 03340101 		ld	s0,16(sp)
  55              		.cfi_restore 8
  56              		.cfi_def_cfa 2, 32
  57 0054 83348100 		ld	s1,8(sp)
  58              		.cfi_restore 9
  59              	.LVL4:
  60 0058 03390100 		ld	s2,0(sp)
  61              		.cfi_restore 18
  62 005c 13010102 		addi	sp,sp,32
  63              		.cfi_def_cfa_offset 0
  64 0060 67800000 		jr	ra
  65              	.LVL5:
  66              	.L6:
  67              		.cfi_restore_state
  13:src/workers.cpp ****     if (n % 4 == 0) TCB::yield();
  68              		.loc 1 13 21 is_stmt 1 discriminator 1
  13:src/workers.cpp ****     if (n % 4 == 0) TCB::yield();
  69              		.loc 1 13 31 is_stmt 0 discriminator 1
  70 0064 97000000 		call	_ZN3TCB5yieldEv@plt
  70      E7800000 
  71              	.LVL6:
  72 006c 6FF01FFC 		j	.L3
  73              		.cfi_endproc
  74              	.LFE18:
  76              		.section	.rodata.str1.8,"aMS",@progbits,1
  77              		.align	3
  78              	.LC0:
  79 0000 433A2069 		.string	"C: i="
  79      3D00
  80 0006 0000     		.align	3
  81              	.LC1:
  82 0008 0A00     		.string	"\n"
  83 000a 00000000 		.align	3
  83      0000
  84              	.LC2:
  85 0010 43207969 		.string	"C yield\n"
  85      656C640A 
  85      00
  86 0019 00000000 		.align	3
  86      000000
  87              	.LC3:
  88 0020 433A2074 		.string	"C: t1="
  88      313D00
  89 0027 00       		.align	3
  90              	.LC4:
GAS LISTING /tmp/ccCv0ed1.s 			page 3


  91 0028 433A2066 		.string	"C: fibonacci="
  91      69626F6E 
  91      61636369 
  91      3D00
  92              		.text
  93              		.align	2
  94              		.globl	_Z11workerBodyAPv
  96              	_Z11workerBodyAPv:
  97              	.LFB19:
  16:src/workers.cpp **** 
  17:src/workers.cpp **** void workerBodyA(void*){
  98              		.loc 1 17 24 is_stmt 1
  99              		.cfi_startproc
 100 0070 130101FE 		addi	sp,sp,-32
 101              		.cfi_def_cfa_offset 32
 102 0074 233C1100 		sd	ra,24(sp)
 103 0078 23388100 		sd	s0,16(sp)
 104 007c 23349100 		sd	s1,8(sp)
 105 0080 23302101 		sd	s2,0(sp)
 106              		.cfi_offset 1, -8
 107              		.cfi_offset 8, -16
 108              		.cfi_offset 9, -24
 109              		.cfi_offset 18, -32
 110 0084 13040102 		addi	s0,sp,32
 111              		.cfi_def_cfa 8, 0
  18:src/workers.cpp ****     uint8 i=0;
 112              		.loc 1 18 5
 113              	.LVL7:
 114              		.loc 1 18 11 is_stmt 0
 115 0088 93040000 		li	s1,0
 116 008c 6F008003 		j	.L9
 117              	.LVL8:
 118              	.L13:
  19:src/workers.cpp ****     for(; i<3 ; i++){
  20:src/workers.cpp ****         printString("C: i=");
 119              		.loc 1 20 9 is_stmt 1 discriminator 1
 120              		.loc 1 20 20 is_stmt 0 discriminator 1
 121 0090 17050000 		lla	a0,.LC0
 121      13050500 
 122 0098 97000000 		call	_Z11printStringPKc@plt
 122      E7800000 
 123              	.LVL9:
  21:src/workers.cpp ****         printInteger(i);
 124              		.loc 1 21 9 is_stmt 1 discriminator 1
 125              		.loc 1 21 21 is_stmt 0 discriminator 1
 126 00a0 13850400 		mv	a0,s1
 127 00a4 97000000 		call	_Z12printIntegerm@plt
 127      E7800000 
 128              	.LVL10:
  22:src/workers.cpp ****         printString("\n");
 129              		.loc 1 22 9 is_stmt 1 discriminator 1
 130              		.loc 1 22 20 is_stmt 0 discriminator 1
 131 00ac 17050000 		lla	a0,.LC1
 131      13050500 
 132 00b4 97000000 		call	_Z11printStringPKc@plt
 132      E7800000 
 133              	.LVL11:
GAS LISTING /tmp/ccCv0ed1.s 			page 4


  19:src/workers.cpp ****     for(; i<3 ; i++){
 134              		.loc 1 19 5 is_stmt 1 discriminator 1
 135 00bc 9B841400 		addiw	s1,s1,1
 136              	.LVL12:
 137 00c0 93F4F40F 		andi	s1,s1,0xff
 138              	.LVL13:
 139              	.L9:
  19:src/workers.cpp ****     for(; i<3 ; i++){
 140              		.loc 1 19 5 discriminator 2
  19:src/workers.cpp ****     for(; i<3 ; i++){
 141              		.loc 1 19 12 discriminator 2
 142 00c4 93072000 		li	a5,2
 143 00c8 E3F497FC 		bleu	s1,a5,.L13
  23:src/workers.cpp ****     }
  24:src/workers.cpp **** 
  25:src/workers.cpp ****     printString("C yield\n");
 144              		.loc 1 25 5
 145              		.loc 1 25 16 is_stmt 0
 146 00cc 17050000 		lla	a0,.LC2
 146      13050500 
 147 00d4 97000000 		call	_Z11printStringPKc@plt
 147      E7800000 
 148              	.LVL14:
  26:src/workers.cpp ****     __asm__ ("li t1, 7");
 149              		.loc 1 26 5 is_stmt 1
 150              		.loc 1 26 25 is_stmt 0
 151              	#APP
 152              	# 26 "src/workers.cpp" 1
  27              	    TCB::yield();
 153              		li t1, 7
 154              	# 0 "" 2
 155              		.loc 1 27 5 is_stmt 1
 156              		.loc 1 27 15 is_stmt 0
 157              	#NO_APP
 158 00e0 97000000 		call	_ZN3TCB5yieldEv@plt
 158      E7800000 
 159              	.LVL15:
  28:src/workers.cpp **** 
  29:src/workers.cpp ****     uint64 t1=0;
 160              		.loc 1 29 5 is_stmt 1
  30:src/workers.cpp ****     __asm__ ("mv %[t1], t1" : [t1] "=r"(t1));
 161              		.loc 1 30 5
 162              		.loc 1 30 45 is_stmt 0
 163              	#APP
 164              	# 30 "src/workers.cpp" 1
  31              	
 165              		mv s2, t1
 166              	# 0 "" 2
 167              	.LVL16:
  32:src/workers.cpp ****     printString("C: t1=");
 168              		.loc 1 32 5 is_stmt 1
 169              		.loc 1 32 16 is_stmt 0
 170              	#NO_APP
 171 00ec 17050000 		lla	a0,.LC3
 171      13050500 
 172 00f4 97000000 		call	_Z11printStringPKc@plt
 172      E7800000 
GAS LISTING /tmp/ccCv0ed1.s 			page 5


 173              	.LVL17:
  33:src/workers.cpp ****     printInteger(t1);
 174              		.loc 1 33 5 is_stmt 1
 175              		.loc 1 33 17 is_stmt 0
 176 00fc 13050900 		mv	a0,s2
 177 0100 97000000 		call	_Z12printIntegerm@plt
 177      E7800000 
 178              	.LVL18:
  34:src/workers.cpp ****     printString("\n");
 179              		.loc 1 34 5 is_stmt 1
 180              		.loc 1 34 16 is_stmt 0
 181 0108 17050000 		lla	a0,.LC1
 181      13050500 
 182 0110 97000000 		call	_Z11printStringPKc@plt
 182      E7800000 
 183              	.LVL19:
  35:src/workers.cpp **** 
  36:src/workers.cpp ****     uint64 result = fibonacci (20);
 184              		.loc 1 36 5 is_stmt 1
 185              		.loc 1 36 31 is_stmt 0
 186 0118 13054001 		li	a0,20
 187 011c 97000000 		call	_ZL9fibonaccim
 187      E7800000 
 188              	.LVL20:
 189 0124 13090500 		mv	s2,a0
 190              	.LVL21:
  37:src/workers.cpp ****     printString("C: fibonacci=");
 191              		.loc 1 37 5 is_stmt 1
 192              		.loc 1 37 16 is_stmt 0
 193 0128 17050000 		lla	a0,.LC4
 193      13050500 
 194              	.LVL22:
 195 0130 97000000 		call	_Z11printStringPKc@plt
 195      E7800000 
 196              	.LVL23:
  38:src/workers.cpp ****     printInteger(result);
 197              		.loc 1 38 5 is_stmt 1
 198              		.loc 1 38 17 is_stmt 0
 199 0138 13050900 		mv	a0,s2
 200 013c 97000000 		call	_Z12printIntegerm@plt
 200      E7800000 
 201              	.LVL24:
  39:src/workers.cpp ****     printString("\n");
 202              		.loc 1 39 5 is_stmt 1
 203              		.loc 1 39 16 is_stmt 0
 204 0144 17050000 		lla	a0,.LC1
 204      13050500 
 205 014c 97000000 		call	_Z11printStringPKc@plt
 205      E7800000 
 206              	.LVL25:
 207 0154 6F008003 		j	.L11
 208              	.L14:
  40:src/workers.cpp **** 
  41:src/workers.cpp ****     for(; i<6; i++){
  42:src/workers.cpp ****         printString("C: i=");
 209              		.loc 1 42 9 is_stmt 1 discriminator 1
 210              		.loc 1 42 20 is_stmt 0 discriminator 1
GAS LISTING /tmp/ccCv0ed1.s 			page 6


 211 0158 17050000 		lla	a0,.LC0
 211      13050500 
 212 0160 97000000 		call	_Z11printStringPKc@plt
 212      E7800000 
 213              	.LVL26:
  43:src/workers.cpp ****         printInteger(i);
 214              		.loc 1 43 9 is_stmt 1 discriminator 1
 215              		.loc 1 43 21 is_stmt 0 discriminator 1
 216 0168 13850400 		mv	a0,s1
 217 016c 97000000 		call	_Z12printIntegerm@plt
 217      E7800000 
 218              	.LVL27:
  44:src/workers.cpp ****         printString("\n");
 219              		.loc 1 44 9 is_stmt 1 discriminator 1
 220              		.loc 1 44 20 is_stmt 0 discriminator 1
 221 0174 17050000 		lla	a0,.LC1
 221      13050500 
 222 017c 97000000 		call	_Z11printStringPKc@plt
 222      E7800000 
 223              	.LVL28:
  41:src/workers.cpp ****         printString("C: i=");
 224              		.loc 1 41 5 is_stmt 1 discriminator 1
 225 0184 9B841400 		addiw	s1,s1,1
 226              	.LVL29:
 227 0188 93F4F40F 		andi	s1,s1,0xff
 228              	.LVL30:
 229              	.L11:
  41:src/workers.cpp ****         printString("C: i=");
 230              		.loc 1 41 5 discriminator 2
  41:src/workers.cpp ****         printString("C: i=");
 231              		.loc 1 41 12 discriminator 2
 232 018c 93075000 		li	a5,5
 233 0190 E3F497FC 		bleu	s1,a5,.L14
  45:src/workers.cpp ****     }
  46:src/workers.cpp **** 
  47:src/workers.cpp ****     TCB::running->setFinished(true);
 234              		.loc 1 47 5
 235              		.loc 1 47 30 is_stmt 0
 236 0194 93051000 		li	a1,1
 237 0198 97070000 		la	a5,_ZN3TCB7runningE
 237      83B70700 
 238 01a0 03B50700 		ld	a0,0(a5)
 239 01a4 97000000 		call	_ZN3TCB11setFinishedEb@plt
 239      E7800000 
 240              	.LVL31:
  48:src/workers.cpp ****     TCB::yield();
 241              		.loc 1 48 5 is_stmt 1
 242              		.loc 1 48 15 is_stmt 0
 243 01ac 97000000 		call	_ZN3TCB5yieldEv@plt
 243      E7800000 
 244              	.LVL32:
  49:src/workers.cpp **** }
 245              		.loc 1 49 1
 246 01b4 83308101 		ld	ra,24(sp)
 247              		.cfi_restore 1
 248 01b8 03340101 		ld	s0,16(sp)
 249              		.cfi_restore 8
GAS LISTING /tmp/ccCv0ed1.s 			page 7


 250              		.cfi_def_cfa 2, 32
 251 01bc 83348100 		ld	s1,8(sp)
 252              		.cfi_restore 9
 253              	.LVL33:
 254 01c0 03390100 		ld	s2,0(sp)
 255              		.cfi_restore 18
 256              	.LVL34:
 257 01c4 13010102 		addi	sp,sp,32
 258              		.cfi_def_cfa_offset 0
 259 01c8 67800000 		jr	ra
 260              		.cfi_endproc
 261              	.LFE19:
 263              		.section	.rodata.str1.8
 264 0036 0000     		.align	3
 265              	.LC5:
 266 0038 443A2069 		.string	"D: i="
 266      3D00
 267 003e 0000     		.align	3
 268              	.LC6:
 269 0040 443A2079 		.string	"D: yield\n"
 269      69656C64 
 269      0A00
 270 004a 00000000 		.align	3
 270      0000
 271              	.LC7:
 272 0050 443A2066 		.string	"D: fibonaci="
 272      69626F6E 
 272      6163693D 
 272      00
 273 005d 000000   		.align	3
 274              	.LC8:
 275 0060 423A2069 		.string	"B: i="
 275      3D00
 276              		.text
 277              		.align	2
 278              		.globl	_Z11workerBodyBPv
 280              	_Z11workerBodyBPv:
 281              	.LFB20:
  50:src/workers.cpp **** 
  51:src/workers.cpp **** void workerBodyB(void*){
 282              		.loc 1 51 24 is_stmt 1
 283              		.cfi_startproc
 284 01cc 130101FE 		addi	sp,sp,-32
 285              		.cfi_def_cfa_offset 32
 286 01d0 233C1100 		sd	ra,24(sp)
 287 01d4 23388100 		sd	s0,16(sp)
 288 01d8 23349100 		sd	s1,8(sp)
 289 01dc 23302101 		sd	s2,0(sp)
 290              		.cfi_offset 1, -8
 291              		.cfi_offset 8, -16
 292              		.cfi_offset 9, -24
 293              		.cfi_offset 18, -32
 294 01e0 13040102 		addi	s0,sp,32
 295              		.cfi_def_cfa 8, 0
  52:src/workers.cpp ****     uint8 i=10;
 296              		.loc 1 52 5
 297              	.LVL35:
GAS LISTING /tmp/ccCv0ed1.s 			page 8


 298              		.loc 1 52 11 is_stmt 0
 299 01e4 9304A000 		li	s1,10
 300 01e8 6F008003 		j	.L17
 301              	.LVL36:
 302              	.L21:
  53:src/workers.cpp ****     for(; i<13; i++){
  54:src/workers.cpp ****         printString("D: i=");
 303              		.loc 1 54 9 is_stmt 1 discriminator 1
 304              		.loc 1 54 20 is_stmt 0 discriminator 1
 305 01ec 17050000 		lla	a0,.LC5
 305      13050500 
 306 01f4 97000000 		call	_Z11printStringPKc@plt
 306      E7800000 
 307              	.LVL37:
  55:src/workers.cpp ****         printInteger(i);
 308              		.loc 1 55 9 is_stmt 1 discriminator 1
 309              		.loc 1 55 21 is_stmt 0 discriminator 1
 310 01fc 13850400 		mv	a0,s1
 311 0200 97000000 		call	_Z12printIntegerm@plt
 311      E7800000 
 312              	.LVL38:
  56:src/workers.cpp ****         printString("\n");
 313              		.loc 1 56 9 is_stmt 1 discriminator 1
 314              		.loc 1 56 20 is_stmt 0 discriminator 1
 315 0208 17050000 		lla	a0,.LC1
 315      13050500 
 316 0210 97000000 		call	_Z11printStringPKc@plt
 316      E7800000 
 317              	.LVL39:
  53:src/workers.cpp ****     for(; i<13; i++){
 318              		.loc 1 53 5 is_stmt 1 discriminator 1
 319 0218 9B841400 		addiw	s1,s1,1
 320              	.LVL40:
 321 021c 93F4F40F 		andi	s1,s1,0xff
 322              	.LVL41:
 323              	.L17:
  53:src/workers.cpp ****     for(; i<13; i++){
 324              		.loc 1 53 5 discriminator 2
  53:src/workers.cpp ****     for(; i<13; i++){
 325              		.loc 1 53 12 discriminator 2
 326 0220 9307C000 		li	a5,12
 327 0224 E3F497FC 		bleu	s1,a5,.L21
  57:src/workers.cpp ****     }
  58:src/workers.cpp **** 
  59:src/workers.cpp ****     printString("D: yield\n");
 328              		.loc 1 59 5
 329              		.loc 1 59 16 is_stmt 0
 330 0228 17050000 		lla	a0,.LC6
 330      13050500 
 331 0230 97000000 		call	_Z11printStringPKc@plt
 331      E7800000 
 332              	.LVL42:
  60:src/workers.cpp ****     __asm__ ("li t1, 5");
 333              		.loc 1 60 5 is_stmt 1
 334              		.loc 1 60 25 is_stmt 0
 335              	#APP
 336              	# 60 "src/workers.cpp" 1
GAS LISTING /tmp/ccCv0ed1.s 			page 9


  61              	    TCB::yield();
 337              		li t1, 5
 338              	# 0 "" 2
 339              		.loc 1 61 5 is_stmt 1
 340              		.loc 1 61 15 is_stmt 0
 341              	#NO_APP
 342 023c 97000000 		call	_ZN3TCB5yieldEv@plt
 342      E7800000 
 343              	.LVL43:
  62:src/workers.cpp **** 
  63:src/workers.cpp ****     uint64 result=fibonacci(23);
 344              		.loc 1 63 5 is_stmt 1
 345              		.loc 1 63 28 is_stmt 0
 346 0244 13057001 		li	a0,23
 347 0248 97000000 		call	_ZL9fibonaccim
 347      E7800000 
 348              	.LVL44:
 349 0250 13090500 		mv	s2,a0
 350              	.LVL45:
  64:src/workers.cpp ****     printString("D: fibonaci=");
 351              		.loc 1 64 5 is_stmt 1
 352              		.loc 1 64 16 is_stmt 0
 353 0254 17050000 		lla	a0,.LC7
 353      13050500 
 354              	.LVL46:
 355 025c 97000000 		call	_Z11printStringPKc@plt
 355      E7800000 
 356              	.LVL47:
  65:src/workers.cpp ****     printInteger(result);
 357              		.loc 1 65 5 is_stmt 1
 358              		.loc 1 65 17 is_stmt 0
 359 0264 13050900 		mv	a0,s2
 360 0268 97000000 		call	_Z12printIntegerm@plt
 360      E7800000 
 361              	.LVL48:
  66:src/workers.cpp ****     printString("\n");
 362              		.loc 1 66 5 is_stmt 1
 363              		.loc 1 66 16 is_stmt 0
 364 0270 17050000 		lla	a0,.LC1
 364      13050500 
 365 0278 97000000 		call	_Z11printStringPKc@plt
 365      E7800000 
 366              	.LVL49:
 367 0280 6F008003 		j	.L19
 368              	.L22:
  67:src/workers.cpp **** 
  68:src/workers.cpp ****     for(; i<16; i++){
  69:src/workers.cpp ****         printString("B: i=");
 369              		.loc 1 69 9 is_stmt 1 discriminator 1
 370              		.loc 1 69 20 is_stmt 0 discriminator 1
 371 0284 17050000 		lla	a0,.LC8
 371      13050500 
 372 028c 97000000 		call	_Z11printStringPKc@plt
 372      E7800000 
 373              	.LVL50:
  70:src/workers.cpp ****         printInteger(i);
 374              		.loc 1 70 9 is_stmt 1 discriminator 1
GAS LISTING /tmp/ccCv0ed1.s 			page 10


 375              		.loc 1 70 21 is_stmt 0 discriminator 1
 376 0294 13850400 		mv	a0,s1
 377 0298 97000000 		call	_Z12printIntegerm@plt
 377      E7800000 
 378              	.LVL51:
  71:src/workers.cpp ****         printString("\n");
 379              		.loc 1 71 9 is_stmt 1 discriminator 1
 380              		.loc 1 71 20 is_stmt 0 discriminator 1
 381 02a0 17050000 		lla	a0,.LC1
 381      13050500 
 382 02a8 97000000 		call	_Z11printStringPKc@plt
 382      E7800000 
 383              	.LVL52:
  68:src/workers.cpp ****         printString("B: i=");
 384              		.loc 1 68 5 is_stmt 1 discriminator 1
 385 02b0 9B841400 		addiw	s1,s1,1
 386              	.LVL53:
 387 02b4 93F4F40F 		andi	s1,s1,0xff
 388              	.LVL54:
 389              	.L19:
  68:src/workers.cpp ****         printString("B: i=");
 390              		.loc 1 68 5 discriminator 2
  68:src/workers.cpp ****         printString("B: i=");
 391              		.loc 1 68 12 discriminator 2
 392 02b8 9307F000 		li	a5,15
 393 02bc E3F497FC 		bleu	s1,a5,.L22
  72:src/workers.cpp ****     }
  73:src/workers.cpp **** 
  74:src/workers.cpp ****     TCB::running->setFinished(true);
 394              		.loc 1 74 5
 395              		.loc 1 74 30 is_stmt 0
 396 02c0 93051000 		li	a1,1
 397 02c4 97070000 		la	a5,_ZN3TCB7runningE
 397      83B70700 
 398 02cc 03B50700 		ld	a0,0(a5)
 399 02d0 97000000 		call	_ZN3TCB11setFinishedEb@plt
 399      E7800000 
 400              	.LVL55:
  75:src/workers.cpp ****     TCB::yield();
 401              		.loc 1 75 5 is_stmt 1
 402              		.loc 1 75 15 is_stmt 0
 403 02d8 97000000 		call	_ZN3TCB5yieldEv@plt
 403      E7800000 
 404              	.LVL56:
  76:src/workers.cpp **** }...
 405              		.loc 1 76 1
 406 02e0 83308101 		ld	ra,24(sp)
 407              		.cfi_restore 1
 408 02e4 03340101 		ld	s0,16(sp)
 409              		.cfi_restore 8
 410              		.cfi_def_cfa 2, 32
 411 02e8 83348100 		ld	s1,8(sp)
 412              		.cfi_restore 9
 413              	.LVL57:
 414 02ec 03390100 		ld	s2,0(sp)
 415              		.cfi_restore 18
 416              	.LVL58:
GAS LISTING /tmp/ccCv0ed1.s 			page 11


 417 02f0 13010102 		addi	sp,sp,32
 418              		.cfi_def_cfa_offset 0
 419 02f4 67800000 		jr	ra
 420              		.cfi_endproc
 421              	.LFE20:
 423              	.Letext0:
 424              		.file 2 "src/../h/../lib/hw.h"
 425              		.file 3 "src/../h/tcb.hpp"
 426              		.file 4 "src/../h/Print.hpp"
GAS LISTING /tmp/ccCv0ed1.s 			page 12


DEFINED SYMBOLS
                            *ABS*:0000000000000000 workers.cpp
     /tmp/ccCv0ed1.s:8      .text:0000000000000000 _ZL9fibonaccim
     /tmp/ccCv0ed1.s:12     .text:0000000000000000 .L0 
     /tmp/ccCv0ed1.s:14     .text:0000000000000000 .L0 
     /tmp/ccCv0ed1.s:15     .text:0000000000000004 .L0 
     /tmp/ccCv0ed1.s:20     .text:0000000000000014 .L0 
     /tmp/ccCv0ed1.s:21     .text:0000000000000014 .L0 
     /tmp/ccCv0ed1.s:22     .text:0000000000000014 .L0 
     /tmp/ccCv0ed1.s:23     .text:0000000000000014 .L0 
     /tmp/ccCv0ed1.s:25     .text:0000000000000018 .L0 
     /tmp/ccCv0ed1.s:28     .text:000000000000001c .L0 
     /tmp/ccCv0ed1.s:31     .text:0000000000000024 .L0 
     /tmp/ccCv0ed1.s:32     .text:0000000000000024 .L0 
     /tmp/ccCv0ed1.s:34     .text:0000000000000028 .L0 
     /tmp/ccCv0ed1.s:38     .text:000000000000002c .L0 
     /tmp/ccCv0ed1.s:39     .text:000000000000002c .L0 
     /tmp/ccCv0ed1.s:44     .text:000000000000003c .L0 
     /tmp/ccCv0ed1.s:48     .text:0000000000000048 .L0 
     /tmp/ccCv0ed1.s:51     .text:000000000000004c .L0 
     /tmp/ccCv0ed1.s:52     .text:0000000000000050 .L0 
     /tmp/ccCv0ed1.s:53     .text:0000000000000050 .L0 
     /tmp/ccCv0ed1.s:55     .text:0000000000000054 .L0 
     /tmp/ccCv0ed1.s:56     .text:0000000000000054 .L0 
     /tmp/ccCv0ed1.s:58     .text:0000000000000058 .L0 
     /tmp/ccCv0ed1.s:61     .text:000000000000005c .L0 
     /tmp/ccCv0ed1.s:63     .text:0000000000000060 .L0 
     /tmp/ccCv0ed1.s:67     .text:0000000000000064 .L0 
     /tmp/ccCv0ed1.s:69     .text:0000000000000064 .L0 
     /tmp/ccCv0ed1.s:70     .text:0000000000000064 .L0 
     /tmp/ccCv0ed1.s:73     .text:0000000000000070 .L0 
     /tmp/ccCv0ed1.s:96     .text:0000000000000070 _Z11workerBodyAPv
     /tmp/ccCv0ed1.s:99     .text:0000000000000070 .L0 
     /tmp/ccCv0ed1.s:100    .text:0000000000000070 .L0 
     /tmp/ccCv0ed1.s:101    .text:0000000000000074 .L0 
     /tmp/ccCv0ed1.s:106    .text:0000000000000084 .L0 
     /tmp/ccCv0ed1.s:107    .text:0000000000000084 .L0 
     /tmp/ccCv0ed1.s:108    .text:0000000000000084 .L0 
     /tmp/ccCv0ed1.s:109    .text:0000000000000084 .L0 
     /tmp/ccCv0ed1.s:111    .text:0000000000000088 .L0 
     /tmp/ccCv0ed1.s:114    .text:0000000000000088 .L0 
     /tmp/ccCv0ed1.s:115    .text:0000000000000088 .L0 
     /tmp/ccCv0ed1.s:120    .text:0000000000000090 .L0 
     /tmp/ccCv0ed1.s:121    .text:0000000000000090 .L0 
     /tmp/ccCv0ed1.s:125    .text:00000000000000a0 .L0 
     /tmp/ccCv0ed1.s:126    .text:00000000000000a0 .L0 
     /tmp/ccCv0ed1.s:130    .text:00000000000000ac .L0 
     /tmp/ccCv0ed1.s:131    .text:00000000000000ac .L0 
     /tmp/ccCv0ed1.s:135    .text:00000000000000bc .L0 
     /tmp/ccCv0ed1.s:141    .text:00000000000000c4 .L0 
     /tmp/ccCv0ed1.s:142    .text:00000000000000c4 .L0 
     /tmp/ccCv0ed1.s:145    .text:00000000000000cc .L0 
     /tmp/ccCv0ed1.s:146    .text:00000000000000cc .L0 
     /tmp/ccCv0ed1.s:150    .text:00000000000000dc .L0 
     src/workers.cpp:26     .text:00000000000000dc .L0 
     /tmp/ccCv0ed1.s:156    .text:00000000000000e0 .L0 
     /tmp/ccCv0ed1.s:158    .text:00000000000000e0 .L0 
GAS LISTING /tmp/ccCv0ed1.s 			page 13


     /tmp/ccCv0ed1.s:161    .text:00000000000000e8 .L0 
     /tmp/ccCv0ed1.s:162    .text:00000000000000e8 .L0 
     src/workers.cpp:30     .text:00000000000000e8 .L0 
     /tmp/ccCv0ed1.s:169    .text:00000000000000ec .L0 
     /tmp/ccCv0ed1.s:171    .text:00000000000000ec .L0 
     /tmp/ccCv0ed1.s:175    .text:00000000000000fc .L0 
     /tmp/ccCv0ed1.s:176    .text:00000000000000fc .L0 
     /tmp/ccCv0ed1.s:180    .text:0000000000000108 .L0 
     /tmp/ccCv0ed1.s:181    .text:0000000000000108 .L0 
     /tmp/ccCv0ed1.s:185    .text:0000000000000118 .L0 
     /tmp/ccCv0ed1.s:186    .text:0000000000000118 .L0 
     /tmp/ccCv0ed1.s:192    .text:0000000000000128 .L0 
     /tmp/ccCv0ed1.s:193    .text:0000000000000128 .L0 
     /tmp/ccCv0ed1.s:198    .text:0000000000000138 .L0 
     /tmp/ccCv0ed1.s:199    .text:0000000000000138 .L0 
     /tmp/ccCv0ed1.s:203    .text:0000000000000144 .L0 
     /tmp/ccCv0ed1.s:204    .text:0000000000000144 .L0 
     /tmp/ccCv0ed1.s:210    .text:0000000000000158 .L0 
     /tmp/ccCv0ed1.s:211    .text:0000000000000158 .L0 
     /tmp/ccCv0ed1.s:215    .text:0000000000000168 .L0 
     /tmp/ccCv0ed1.s:216    .text:0000000000000168 .L0 
     /tmp/ccCv0ed1.s:220    .text:0000000000000174 .L0 
     /tmp/ccCv0ed1.s:221    .text:0000000000000174 .L0 
     /tmp/ccCv0ed1.s:225    .text:0000000000000184 .L0 
     /tmp/ccCv0ed1.s:231    .text:000000000000018c .L0 
     /tmp/ccCv0ed1.s:232    .text:000000000000018c .L0 
     /tmp/ccCv0ed1.s:235    .text:0000000000000194 .L0 
     /tmp/ccCv0ed1.s:236    .text:0000000000000194 .L0 
     /tmp/ccCv0ed1.s:242    .text:00000000000001ac .L0 
     /tmp/ccCv0ed1.s:243    .text:00000000000001ac .L0 
     /tmp/ccCv0ed1.s:246    .text:00000000000001b4 .L0 
     /tmp/ccCv0ed1.s:247    .text:00000000000001b8 .L0 
     /tmp/ccCv0ed1.s:249    .text:00000000000001bc .L0 
     /tmp/ccCv0ed1.s:250    .text:00000000000001bc .L0 
     /tmp/ccCv0ed1.s:252    .text:00000000000001c0 .L0 
     /tmp/ccCv0ed1.s:255    .text:00000000000001c4 .L0 
     /tmp/ccCv0ed1.s:258    .text:00000000000001c8 .L0 
     /tmp/ccCv0ed1.s:260    .text:00000000000001cc .L0 
     /tmp/ccCv0ed1.s:280    .text:00000000000001cc _Z11workerBodyBPv
     /tmp/ccCv0ed1.s:283    .text:00000000000001cc .L0 
     /tmp/ccCv0ed1.s:284    .text:00000000000001cc .L0 
     /tmp/ccCv0ed1.s:285    .text:00000000000001d0 .L0 
     /tmp/ccCv0ed1.s:290    .text:00000000000001e0 .L0 
     /tmp/ccCv0ed1.s:291    .text:00000000000001e0 .L0 
     /tmp/ccCv0ed1.s:292    .text:00000000000001e0 .L0 
     /tmp/ccCv0ed1.s:293    .text:00000000000001e0 .L0 
     /tmp/ccCv0ed1.s:295    .text:00000000000001e4 .L0 
     /tmp/ccCv0ed1.s:298    .text:00000000000001e4 .L0 
     /tmp/ccCv0ed1.s:299    .text:00000000000001e4 .L0 
     /tmp/ccCv0ed1.s:304    .text:00000000000001ec .L0 
     /tmp/ccCv0ed1.s:305    .text:00000000000001ec .L0 
     /tmp/ccCv0ed1.s:309    .text:00000000000001fc .L0 
     /tmp/ccCv0ed1.s:310    .text:00000000000001fc .L0 
     /tmp/ccCv0ed1.s:314    .text:0000000000000208 .L0 
     /tmp/ccCv0ed1.s:315    .text:0000000000000208 .L0 
     /tmp/ccCv0ed1.s:319    .text:0000000000000218 .L0 
     /tmp/ccCv0ed1.s:325    .text:0000000000000220 .L0 
GAS LISTING /tmp/ccCv0ed1.s 			page 14


     /tmp/ccCv0ed1.s:326    .text:0000000000000220 .L0 
     /tmp/ccCv0ed1.s:329    .text:0000000000000228 .L0 
     /tmp/ccCv0ed1.s:330    .text:0000000000000228 .L0 
     /tmp/ccCv0ed1.s:334    .text:0000000000000238 .L0 
     src/workers.cpp:60     .text:0000000000000238 .L0 
     /tmp/ccCv0ed1.s:340    .text:000000000000023c .L0 
     /tmp/ccCv0ed1.s:342    .text:000000000000023c .L0 
     /tmp/ccCv0ed1.s:345    .text:0000000000000244 .L0 
     /tmp/ccCv0ed1.s:346    .text:0000000000000244 .L0 
     /tmp/ccCv0ed1.s:352    .text:0000000000000254 .L0 
     /tmp/ccCv0ed1.s:353    .text:0000000000000254 .L0 
     /tmp/ccCv0ed1.s:358    .text:0000000000000264 .L0 
     /tmp/ccCv0ed1.s:359    .text:0000000000000264 .L0 
     /tmp/ccCv0ed1.s:363    .text:0000000000000270 .L0 
     /tmp/ccCv0ed1.s:364    .text:0000000000000270 .L0 
     /tmp/ccCv0ed1.s:370    .text:0000000000000284 .L0 
     /tmp/ccCv0ed1.s:371    .text:0000000000000284 .L0 
     /tmp/ccCv0ed1.s:375    .text:0000000000000294 .L0 
     /tmp/ccCv0ed1.s:376    .text:0000000000000294 .L0 
     /tmp/ccCv0ed1.s:380    .text:00000000000002a0 .L0 
     /tmp/ccCv0ed1.s:381    .text:00000000000002a0 .L0 
     /tmp/ccCv0ed1.s:385    .text:00000000000002b0 .L0 
     /tmp/ccCv0ed1.s:391    .text:00000000000002b8 .L0 
     /tmp/ccCv0ed1.s:392    .text:00000000000002b8 .L0 
     /tmp/ccCv0ed1.s:395    .text:00000000000002c0 .L0 
     /tmp/ccCv0ed1.s:396    .text:00000000000002c0 .L0 
     /tmp/ccCv0ed1.s:402    .text:00000000000002d8 .L0 
     /tmp/ccCv0ed1.s:403    .text:00000000000002d8 .L0 
     /tmp/ccCv0ed1.s:406    .text:00000000000002e0 .L0 
     /tmp/ccCv0ed1.s:407    .text:00000000000002e4 .L0 
     /tmp/ccCv0ed1.s:409    .text:00000000000002e8 .L0 
     /tmp/ccCv0ed1.s:410    .text:00000000000002e8 .L0 
     /tmp/ccCv0ed1.s:412    .text:00000000000002ec .L0 
     /tmp/ccCv0ed1.s:415    .text:00000000000002f0 .L0 
     /tmp/ccCv0ed1.s:418    .text:00000000000002f4 .L0 
     /tmp/ccCv0ed1.s:420    .text:00000000000002f8 .L0 
     /tmp/ccCv0ed1.s:427    .text:00000000000002f8 .L0 
     /tmp/ccCv0ed1.s:78     .rodata.str1.8:0000000000000000 .LC0
     /tmp/ccCv0ed1.s:121    .text:0000000000000090 .L0 
     /tmp/ccCv0ed1.s:81     .rodata.str1.8:0000000000000008 .LC1
     /tmp/ccCv0ed1.s:131    .text:00000000000000ac .L0 
     /tmp/ccCv0ed1.s:84     .rodata.str1.8:0000000000000010 .LC2
     /tmp/ccCv0ed1.s:146    .text:00000000000000cc .L0 
     /tmp/ccCv0ed1.s:87     .rodata.str1.8:0000000000000020 .LC3
     /tmp/ccCv0ed1.s:171    .text:00000000000000ec .L0 
     /tmp/ccCv0ed1.s:181    .text:0000000000000108 .L0 
     /tmp/ccCv0ed1.s:90     .rodata.str1.8:0000000000000028 .LC4
     /tmp/ccCv0ed1.s:193    .text:0000000000000128 .L0 
     /tmp/ccCv0ed1.s:204    .text:0000000000000144 .L0 
     /tmp/ccCv0ed1.s:211    .text:0000000000000158 .L0 
     /tmp/ccCv0ed1.s:221    .text:0000000000000174 .L0 
     /tmp/ccCv0ed1.s:237    .text:0000000000000198 .L0 
     /tmp/ccCv0ed1.s:265    .rodata.str1.8:0000000000000038 .LC5
     /tmp/ccCv0ed1.s:305    .text:00000000000001ec .L0 
     /tmp/ccCv0ed1.s:315    .text:0000000000000208 .L0 
     /tmp/ccCv0ed1.s:268    .rodata.str1.8:0000000000000040 .LC6
     /tmp/ccCv0ed1.s:330    .text:0000000000000228 .L0 
GAS LISTING /tmp/ccCv0ed1.s 			page 15


     /tmp/ccCv0ed1.s:271    .rodata.str1.8:0000000000000050 .LC7
     /tmp/ccCv0ed1.s:353    .text:0000000000000254 .L0 
     /tmp/ccCv0ed1.s:364    .text:0000000000000270 .L0 
     /tmp/ccCv0ed1.s:274    .rodata.str1.8:0000000000000060 .LC8
     /tmp/ccCv0ed1.s:371    .text:0000000000000284 .L0 
     /tmp/ccCv0ed1.s:381    .text:00000000000002a0 .L0 
     /tmp/ccCv0ed1.s:397    .text:00000000000002c4 .L0 
     /tmp/ccCv0ed1.s:49     .text:000000000000004c .L1
     /tmp/ccCv0ed1.s:66     .text:0000000000000064 .L6
     /tmp/ccCv0ed1.s:36     .text:000000000000002c .L3
     /tmp/ccCv0ed1.s:139    .text:00000000000000c4 .L9
     /tmp/ccCv0ed1.s:118    .text:0000000000000090 .L13
     /tmp/ccCv0ed1.s:229    .text:000000000000018c .L11
     /tmp/ccCv0ed1.s:208    .text:0000000000000158 .L14
     /tmp/ccCv0ed1.s:323    .text:0000000000000220 .L17
     /tmp/ccCv0ed1.s:302    .text:00000000000001ec .L21
     /tmp/ccCv0ed1.s:389    .text:00000000000002b8 .L19
     /tmp/ccCv0ed1.s:368    .text:0000000000000284 .L22
     /tmp/ccCv0ed1.s:1252   .debug_abbrev:0000000000000000 .Ldebug_abbrev0
     /tmp/ccCv0ed1.s:2079   .debug_str:00000000000001d3 .LASF52
     /tmp/ccCv0ed1.s:2017   .debug_str:0000000000000000 .LASF53
     /tmp/ccCv0ed1.s:2113   .debug_str:000000000000036d .LASF54
     /tmp/ccCv0ed1.s:5      .text:0000000000000000 .Ltext0
     /tmp/ccCv0ed1.s:423    .text:00000000000002f8 .Letext0
     /tmp/ccCv0ed1.s:2015   .debug_line:0000000000000000 .Ldebug_line0
     /tmp/ccCv0ed1.s:2091   .debug_str:00000000000002d2 .LASF0
     /tmp/ccCv0ed1.s:2065   .debug_str:0000000000000159 .LASF1
     /tmp/ccCv0ed1.s:2059   .debug_str:000000000000012e .LASF2
     /tmp/ccCv0ed1.s:2131   .debug_str:0000000000000412 .LASF3
     /tmp/ccCv0ed1.s:2031   .debug_str:0000000000000055 .LASF4
     /tmp/ccCv0ed1.s:2063   .debug_str:0000000000000147 .LASF5
     /tmp/ccCv0ed1.s:2025   .debug_str:000000000000003b .LASF6
     /tmp/ccCv0ed1.s:2021   .debug_str:000000000000001e .LASF7
     /tmp/ccCv0ed1.s:2047   .debug_str:00000000000000ca .LASF8
     /tmp/ccCv0ed1.s:2105   .debug_str:0000000000000332 .LASF9
     /tmp/ccCv0ed1.s:2029   .debug_str:0000000000000047 .LASF10
     /tmp/ccCv0ed1.s:2147   .debug_str:0000000000000481 .LASF11
     /tmp/ccCv0ed1.s:2053   .debug_str:00000000000000f5 .LASF12
     /tmp/ccCv0ed1.s:2135   .debug_str:000000000000041d .LASF13
     /tmp/ccCv0ed1.s:2099   .debug_str:00000000000002ff .LASF14
     /tmp/ccCv0ed1.s:2071   .debug_str:000000000000018e .LASF15
     /tmp/ccCv0ed1.s:2041   .debug_str:0000000000000083 .LASF16
     /tmp/ccCv0ed1.s:2109   .debug_str:000000000000034f .LASF17
     /tmp/ccCv0ed1.s:2137   .debug_str:000000000000042d .LASF55
     /tmp/ccCv0ed1.s:2027   .debug_str:0000000000000042 .LASF18
     /tmp/ccCv0ed1.s:2103   .debug_str:0000000000000326 .LASF20
     /tmp/ccCv0ed1.s:2107   .debug_str:0000000000000342 .LASF19
     /tmp/ccCv0ed1.s:2141   .debug_str:0000000000000447 .LASF21
     /tmp/ccCv0ed1.s:2033   .debug_str:000000000000005c .LASF56
     /tmp/ccCv0ed1.s:2115   .debug_str:000000000000038b .LASF24
     /tmp/ccCv0ed1.s:2073   .debug_str:000000000000019a .LASF26
     /tmp/ccCv0ed1.s:2125   .debug_str:00000000000003df .LASF57
     /tmp/ccCv0ed1.s:2101   .debug_str:000000000000030f .LASF58
     /tmp/ccCv0ed1.s:2051   .debug_str:00000000000000ea .LASF28
     /tmp/ccCv0ed1.s:2123   .debug_str:00000000000003c8 .LASF30
     /tmp/ccCv0ed1.s:2097   .debug_str:00000000000002f3 .LASF22
     /tmp/ccCv0ed1.s:2055   .debug_str:0000000000000104 .LASF23
GAS LISTING /tmp/ccCv0ed1.s 			page 16


     /tmp/ccCv0ed1.s:2089   .debug_str:00000000000002cc .LASF25
     /tmp/ccCv0ed1.s:2119   .debug_str:00000000000003ac .LASF27
     /tmp/ccCv0ed1.s:2093   .debug_str:00000000000002df .LASF59
     /tmp/ccCv0ed1.s:2087   .debug_str:00000000000002bf .LASF29
     /tmp/ccCv0ed1.s:2067   .debug_str:000000000000016c .LASF31
     /tmp/ccCv0ed1.s:2127   .debug_str:00000000000003eb .LASF60
     /tmp/ccCv0ed1.s:2075   .debug_str:00000000000001b5 .LASF32
     /tmp/ccCv0ed1.s:2035   .debug_str:0000000000000061 .LASF33
     /tmp/ccCv0ed1.s:2111   .debug_str:0000000000000365 .LASF34
     /tmp/ccCv0ed1.s:2023   .debug_str:0000000000000031 .LASF35
     /tmp/ccCv0ed1.s:2069   .debug_str:0000000000000185 .LASF36
     /tmp/ccCv0ed1.s:2037   .debug_str:0000000000000067 .LASF37
     /tmp/ccCv0ed1.s:2019   .debug_str:0000000000000010 .LASF38
     /tmp/ccCv0ed1.s:2077   .debug_str:00000000000001ba .LASF40
     /tmp/ccCv0ed1.s:2083   .debug_str:00000000000002aa .LASF61
     /tmp/ccCv0ed1.s:2043   .debug_str:0000000000000099 .LASF62
     /tmp/ccCv0ed1.s:2045   .debug_str:00000000000000c1 .LASF39
     /tmp/ccCv0ed1.s:2081   .debug_str:0000000000000297 .LASF41
     /tmp/ccCv0ed1.s:2117   .debug_str:000000000000039b .LASF63
     /tmp/ccCv0ed1.s:2061   .debug_str:000000000000013c .LASF64
     /tmp/ccCv0ed1.s:2133   .debug_str:0000000000000418 .LASF42
     /tmp/ccCv0ed1.s:2121   .debug_str:00000000000003bc .LASF43
     /tmp/ccCv0ed1.s:2039   .debug_str:0000000000000071 .LASF44
     /tmp/ccCv0ed1.s:281    .text:00000000000001cc .LFB20
     /tmp/ccCv0ed1.s:421    .text:00000000000002f8 .LFE20
     /tmp/ccCv0ed1.s:1910   .debug_loc:0000000000000000 .LLST4
     /tmp/ccCv0ed1.s:2085   .debug_str:00000000000002b8 .LASF45
     /tmp/ccCv0ed1.s:1930   .debug_loc:000000000000005d .LLST5
     /tmp/ccCv0ed1.s:307    .text:00000000000001fc .LVL37
     /tmp/ccCv0ed1.s:312    .text:0000000000000208 .LVL38
     /tmp/ccCv0ed1.s:317    .text:0000000000000218 .LVL39
     /tmp/ccCv0ed1.s:332    .text:0000000000000238 .LVL42
     /tmp/ccCv0ed1.s:343    .text:0000000000000244 .LVL43
     /tmp/ccCv0ed1.s:348    .text:0000000000000250 .LVL44
     /tmp/ccCv0ed1.s:356    .text:0000000000000264 .LVL47
     /tmp/ccCv0ed1.s:361    .text:0000000000000270 .LVL48
     /tmp/ccCv0ed1.s:366    .text:0000000000000280 .LVL49
     /tmp/ccCv0ed1.s:373    .text:0000000000000294 .LVL50
     /tmp/ccCv0ed1.s:378    .text:00000000000002a0 .LVL51
     /tmp/ccCv0ed1.s:383    .text:00000000000002b0 .LVL52
     /tmp/ccCv0ed1.s:400    .text:00000000000002d8 .LVL55
     /tmp/ccCv0ed1.s:404    .text:00000000000002e0 .LVL56
     /tmp/ccCv0ed1.s:2095   .debug_str:00000000000002e7 .LASF46
     /tmp/ccCv0ed1.s:2129   .debug_str:0000000000000400 .LASF47
     /tmp/ccCv0ed1.s:97     .text:0000000000000070 .LFB19
     /tmp/ccCv0ed1.s:261    .text:00000000000001cc .LFE19
     /tmp/ccCv0ed1.s:1941   .debug_loc:0000000000000093 .LLST1
     /tmp/ccCv0ed1.s:1961   .debug_loc:00000000000000f0 .LLST2
     /tmp/ccCv0ed1.s:1969   .debug_loc:0000000000000114 .LLST3
     /tmp/ccCv0ed1.s:123    .text:00000000000000a0 .LVL9
     /tmp/ccCv0ed1.s:128    .text:00000000000000ac .LVL10
     /tmp/ccCv0ed1.s:133    .text:00000000000000bc .LVL11
     /tmp/ccCv0ed1.s:148    .text:00000000000000dc .LVL14
     /tmp/ccCv0ed1.s:159    .text:00000000000000e8 .LVL15
     /tmp/ccCv0ed1.s:173    .text:00000000000000fc .LVL17
     /tmp/ccCv0ed1.s:178    .text:0000000000000108 .LVL18
     /tmp/ccCv0ed1.s:183    .text:0000000000000118 .LVL19
GAS LISTING /tmp/ccCv0ed1.s 			page 17


     /tmp/ccCv0ed1.s:188    .text:0000000000000124 .LVL20
     /tmp/ccCv0ed1.s:196    .text:0000000000000138 .LVL23
     /tmp/ccCv0ed1.s:201    .text:0000000000000144 .LVL24
     /tmp/ccCv0ed1.s:206    .text:0000000000000154 .LVL25
     /tmp/ccCv0ed1.s:213    .text:0000000000000168 .LVL26
     /tmp/ccCv0ed1.s:218    .text:0000000000000174 .LVL27
     /tmp/ccCv0ed1.s:223    .text:0000000000000184 .LVL28
     /tmp/ccCv0ed1.s:240    .text:00000000000001ac .LVL31
     /tmp/ccCv0ed1.s:244    .text:00000000000001b4 .LVL32
     /tmp/ccCv0ed1.s:2143   .debug_str:000000000000046b .LASF65
     /tmp/ccCv0ed1.s:9      .text:0000000000000000 .LFB18
     /tmp/ccCv0ed1.s:74     .text:0000000000000070 .LFE18
     /tmp/ccCv0ed1.s:1980   .debug_loc:000000000000014a .LLST0
     /tmp/ccCv0ed1.s:41     .text:0000000000000038 .LVL2
     /tmp/ccCv0ed1.s:46     .text:0000000000000048 .LVL3
     /tmp/ccCv0ed1.s:71     .text:000000000000006c .LVL6
     /tmp/ccCv0ed1.s:2057   .debug_str:000000000000011b .LASF48
     /tmp/ccCv0ed1.s:2145   .debug_str:0000000000000475 .LASF50
     /tmp/ccCv0ed1.s:2139   .debug_str:0000000000000435 .LASF49
     /tmp/ccCv0ed1.s:2049   .debug_str:00000000000000dd .LASF51
     /tmp/ccCv0ed1.s:297    .text:00000000000001e4 .LVL35
     /tmp/ccCv0ed1.s:301    .text:00000000000001ec .LVL36
     /tmp/ccCv0ed1.s:320    .text:000000000000021c .LVL40
     /tmp/ccCv0ed1.s:322    .text:0000000000000220 .LVL41
     /tmp/ccCv0ed1.s:386    .text:00000000000002b4 .LVL53
     /tmp/ccCv0ed1.s:388    .text:00000000000002b8 .LVL54
     /tmp/ccCv0ed1.s:413    .text:00000000000002ec .LVL57
     /tmp/ccCv0ed1.s:350    .text:0000000000000254 .LVL45
     /tmp/ccCv0ed1.s:354    .text:000000000000025c .LVL46
     /tmp/ccCv0ed1.s:416    .text:00000000000002f0 .LVL58
     /tmp/ccCv0ed1.s:113    .text:0000000000000088 .LVL7
     /tmp/ccCv0ed1.s:117    .text:0000000000000090 .LVL8
     /tmp/ccCv0ed1.s:136    .text:00000000000000c0 .LVL12
     /tmp/ccCv0ed1.s:138    .text:00000000000000c4 .LVL13
     /tmp/ccCv0ed1.s:226    .text:0000000000000188 .LVL29
     /tmp/ccCv0ed1.s:228    .text:000000000000018c .LVL30
     /tmp/ccCv0ed1.s:253    .text:00000000000001c0 .LVL33
     /tmp/ccCv0ed1.s:167    .text:00000000000000ec .LVL16
     /tmp/ccCv0ed1.s:190    .text:0000000000000128 .LVL21
     /tmp/ccCv0ed1.s:194    .text:0000000000000130 .LVL22
     /tmp/ccCv0ed1.s:256    .text:00000000000001c4 .LVL34
     /tmp/ccCv0ed1.s:13     .text:0000000000000000 .LVL0
     /tmp/ccCv0ed1.s:35     .text:000000000000002c .LVL1
     /tmp/ccCv0ed1.s:59     .text:0000000000000058 .LVL4
     /tmp/ccCv0ed1.s:65     .text:0000000000000064 .LVL5
     /tmp/ccCv0ed1.s:428    .debug_info:0000000000000000 .Ldebug_info0

UNDEFINED SYMBOLS
_ZN3TCB5yieldEv
_Z11printStringPKc
_Z12printIntegerm
_ZN3TCB7runningE
_ZN3TCB11setFinishedEb
