GAS LISTING /tmp/ccNGz3Me.s 			page 1


   1              		.file	"workers.cpp"
   2              		.option pic
   3              		.option norelax
   4              		.text
   5              	.Ltext0:
   6              		.align	2
   8              	_ZL9fibonaccim:
   9              	.LFB14:
  10              		.file 1 "src/workers.cpp"
   1:src/workers.cpp **** //
   2:src/workers.cpp **** // Created by os on 8/15/22.
   3:src/workers.cpp **** //
   4:src/workers.cpp **** 
   5:src/workers.cpp **** #include "../h/workers.hpp"
   6:src/workers.cpp **** #include "../h/ccb.hpp"
   7:src/workers.cpp **** #include "../lib/hw.h"
   8:src/workers.cpp **** #include "../h/Print.hpp"
   9:src/workers.cpp **** 
  10:src/workers.cpp **** static uint64 fibonacci(uint64 n) {
  11              		.loc 1 10 35
  12              		.cfi_startproc
  13              	.LVL0:
  14 0000 130101FE 		addi	sp,sp,-32
  15              		.cfi_def_cfa_offset 32
  16 0004 233C1100 		sd	ra,24(sp)
  17 0008 23388100 		sd	s0,16(sp)
  18 000c 23349100 		sd	s1,8(sp)
  19 0010 23302101 		sd	s2,0(sp)
  20              		.cfi_offset 1, -8
  21              		.cfi_offset 8, -16
  22              		.cfi_offset 9, -24
  23              		.cfi_offset 18, -32
  24 0014 13040102 		addi	s0,sp,32
  25              		.cfi_def_cfa 8, 0
  26 0018 93040500 		mv	s1,a0
  11:src/workers.cpp ****     if (n == 0 || n == 1) { return n; }
  27              		.loc 1 11 5
  28 001c 93071000 		li	a5,1
  29 0020 63F6A702 		bleu	a0,a5,.L1
  12:src/workers.cpp ****     if (n % 4 == 0) TCB::yield();
  30              		.loc 1 12 5
  31              		.loc 1 12 11 is_stmt 0
  32 0024 93773500 		andi	a5,a0,3
  33              		.loc 1 12 5
  34 0028 638E0702 		beqz	a5,.L6
  35              	.LVL1:
  36              	.L3:
  13:src/workers.cpp ****     return fibonacci(n - 1) + fibonacci(n - 2);
  37              		.loc 1 13 5 is_stmt 1
  38              		.loc 1 13 21 is_stmt 0
  39 002c 1385F4FF 		addi	a0,s1,-1
  40 0030 97000000 		call	_ZL9fibonaccim
  40      E7800000 
  41              	.LVL2:
  42 0038 13090500 		mv	s2,a0
  43              		.loc 1 13 40
  44 003c 1385E4FF 		addi	a0,s1,-2
GAS LISTING /tmp/ccNGz3Me.s 			page 2


  45 0040 97000000 		call	_ZL9fibonaccim
  45      E7800000 
  46              	.LVL3:
  47              		.loc 1 13 46
  48 0048 3305A900 		add	a0,s2,a0
  49              	.L1:
  14:src/workers.cpp **** }
  50              		.loc 1 14 1
  51 004c 83308101 		ld	ra,24(sp)
  52              		.cfi_remember_state
  53              		.cfi_restore 1
  54 0050 03340101 		ld	s0,16(sp)
  55              		.cfi_restore 8
  56              		.cfi_def_cfa 2, 32
  57 0054 83348100 		ld	s1,8(sp)
  58              		.cfi_restore 9
  59              	.LVL4:
  60 0058 03390100 		ld	s2,0(sp)
  61              		.cfi_restore 18
  62 005c 13010102 		addi	sp,sp,32
  63              		.cfi_def_cfa_offset 0
  64 0060 67800000 		jr	ra
  65              	.LVL5:
  66              	.L6:
  67              		.cfi_restore_state
  12:src/workers.cpp ****     if (n % 4 == 0) TCB::yield();
  68              		.loc 1 12 21 is_stmt 1 discriminator 1
  12:src/workers.cpp ****     if (n % 4 == 0) TCB::yield();
  69              		.loc 1 12 31 is_stmt 0 discriminator 1
  70 0064 97000000 		call	_ZN3CCB5yieldEv@plt
  70      E7800000 
  71              	.LVL6:
  72 006c 6FF01FFC 		j	.L3
  73              		.cfi_endproc
  74              	.LFE14:
  76              		.section	.rodata.str1.8,"aMS",@progbits,1
  77              		.align	3
  78              	.LC0:
  79 0000 413A2069 		.string	"A: i="
  79      3D00
  80 0006 0000     		.align	3
  81              	.LC1:
  82 0008 0A00     		.string	"\n"
  83 000a 00000000 		.align	3
  83      0000
  84              	.LC2:
  85 0010 41207969 		.string	"A yield\n"
  85      656C640A 
  85      00
  86 0019 00000000 		.align	3
  86      000000
  87              	.LC3:
  88 0020 413A2074 		.string	"A: t1="
  88      313D00
  89 0027 00       		.align	3
  90              	.LC4:
  91 0028 413A2066 		.string	"A: fibonacci="
GAS LISTING /tmp/ccNGz3Me.s 			page 3


  91      69626F6E 
  91      61636369 
  91      3D00
  92              		.text
  93              		.align	2
  94              		.globl	_Z11workerBodyAv
  96              	_Z11workerBodyAv:
  97              	.LFB15:
  15:src/workers.cpp **** 
  16:src/workers.cpp **** void workerBodyA(){
  98              		.loc 1 16 19 is_stmt 1
  99              		.cfi_startproc
 100 0070 130101FE 		addi	sp,sp,-32
 101              		.cfi_def_cfa_offset 32
 102 0074 233C1100 		sd	ra,24(sp)
 103 0078 23388100 		sd	s0,16(sp)
 104 007c 23349100 		sd	s1,8(sp)
 105 0080 23302101 		sd	s2,0(sp)
 106              		.cfi_offset 1, -8
 107              		.cfi_offset 8, -16
 108              		.cfi_offset 9, -24
 109              		.cfi_offset 18, -32
 110 0084 13040102 		addi	s0,sp,32
 111              		.cfi_def_cfa 8, 0
  17:src/workers.cpp ****     uint8 i=0;
 112              		.loc 1 17 5
 113              	.LVL7:
 114              		.loc 1 17 11 is_stmt 0
 115 0088 93040000 		li	s1,0
 116 008c 6F008003 		j	.L9
 117              	.LVL8:
 118              	.L13:
  18:src/workers.cpp ****     for(; i<3 ; i++){
  19:src/workers.cpp ****         printString("A: i=");
 119              		.loc 1 19 9 is_stmt 1 discriminator 1
 120              		.loc 1 19 20 is_stmt 0 discriminator 1
 121 0090 17050000 		lla	a0,.LC0
 121      13050500 
 122 0098 97000000 		call	_Z11printStringPKc@plt
 122      E7800000 
 123              	.LVL9:
  20:src/workers.cpp ****         printInteger(i);
 124              		.loc 1 20 9 is_stmt 1 discriminator 1
 125              		.loc 1 20 21 is_stmt 0 discriminator 1
 126 00a0 13850400 		mv	a0,s1
 127 00a4 97000000 		call	_Z12printIntegerm@plt
 127      E7800000 
 128              	.LVL10:
  21:src/workers.cpp ****         printString("\n");
 129              		.loc 1 21 9 is_stmt 1 discriminator 1
 130              		.loc 1 21 20 is_stmt 0 discriminator 1
 131 00ac 17050000 		lla	a0,.LC1
 131      13050500 
 132 00b4 97000000 		call	_Z11printStringPKc@plt
 132      E7800000 
 133              	.LVL11:
  18:src/workers.cpp ****     for(; i<3 ; i++){
GAS LISTING /tmp/ccNGz3Me.s 			page 4


 134              		.loc 1 18 5 is_stmt 1 discriminator 1
 135 00bc 9B841400 		addiw	s1,s1,1
 136              	.LVL12:
 137 00c0 93F4F40F 		andi	s1,s1,0xff
 138              	.LVL13:
 139              	.L9:
  18:src/workers.cpp ****     for(; i<3 ; i++){
 140              		.loc 1 18 5 discriminator 2
  18:src/workers.cpp ****     for(; i<3 ; i++){
 141              		.loc 1 18 12 discriminator 2
 142 00c4 93072000 		li	a5,2
 143 00c8 E3F497FC 		bleu	s1,a5,.L13
  22:src/workers.cpp ****     }
  23:src/workers.cpp **** 
  24:src/workers.cpp ****     printString("A yield\n");
 144              		.loc 1 24 5
 145              		.loc 1 24 16 is_stmt 0
 146 00cc 17050000 		lla	a0,.LC2
 146      13050500 
 147 00d4 97000000 		call	_Z11printStringPKc@plt
 147      E7800000 
 148              	.LVL14:
  25:src/workers.cpp ****     __asm__ ("li t1, 7");
 149              		.loc 1 25 5 is_stmt 1
 150              		.loc 1 25 25 is_stmt 0
 151              	#APP
 152              	# 25 "src/workers.cpp" 1
  26              	    TCB::yield();
 153              		li t1, 7
 154              	# 0 "" 2
 155              		.loc 1 26 5 is_stmt 1
 156              		.loc 1 26 15 is_stmt 0
 157              	#NO_APP
 158 00e0 97000000 		call	_ZN3CCB5yieldEv@plt
 158      E7800000 
 159              	.LVL15:
  27:src/workers.cpp **** 
  28:src/workers.cpp ****     uint64 t1=0;
 160              		.loc 1 28 5 is_stmt 1
  29:src/workers.cpp ****     __asm__ ("mv %[t1], t1" : [t1] "=r"(t1));
 161              		.loc 1 29 5
 162              		.loc 1 29 45 is_stmt 0
 163              	#APP
 164              	# 29 "src/workers.cpp" 1
  30              	
 165              		mv s2, t1
 166              	# 0 "" 2
 167              	.LVL16:
  31:src/workers.cpp ****     printString("A: t1=");
 168              		.loc 1 31 5 is_stmt 1
 169              		.loc 1 31 16 is_stmt 0
 170              	#NO_APP
 171 00ec 17050000 		lla	a0,.LC3
 171      13050500 
 172 00f4 97000000 		call	_Z11printStringPKc@plt
 172      E7800000 
 173              	.LVL17:
GAS LISTING /tmp/ccNGz3Me.s 			page 5


  32:src/workers.cpp ****     printInteger(t1);
 174              		.loc 1 32 5 is_stmt 1
 175              		.loc 1 32 17 is_stmt 0
 176 00fc 13050900 		mv	a0,s2
 177 0100 97000000 		call	_Z12printIntegerm@plt
 177      E7800000 
 178              	.LVL18:
  33:src/workers.cpp ****     printString("\n");
 179              		.loc 1 33 5 is_stmt 1
 180              		.loc 1 33 16 is_stmt 0
 181 0108 17050000 		lla	a0,.LC1
 181      13050500 
 182 0110 97000000 		call	_Z11printStringPKc@plt
 182      E7800000 
 183              	.LVL19:
  34:src/workers.cpp **** 
  35:src/workers.cpp ****     uint64 result = fibonacci (20);
 184              		.loc 1 35 5 is_stmt 1
 185              		.loc 1 35 31 is_stmt 0
 186 0118 13054001 		li	a0,20
 187 011c 97000000 		call	_ZL9fibonaccim
 187      E7800000 
 188              	.LVL20:
 189 0124 13090500 		mv	s2,a0
 190              	.LVL21:
  36:src/workers.cpp ****     printString("A: fibonacci=");
 191              		.loc 1 36 5 is_stmt 1
 192              		.loc 1 36 16 is_stmt 0
 193 0128 17050000 		lla	a0,.LC4
 193      13050500 
 194              	.LVL22:
 195 0130 97000000 		call	_Z11printStringPKc@plt
 195      E7800000 
 196              	.LVL23:
  37:src/workers.cpp ****     printInteger(result);
 197              		.loc 1 37 5 is_stmt 1
 198              		.loc 1 37 17 is_stmt 0
 199 0138 13050900 		mv	a0,s2
 200 013c 97000000 		call	_Z12printIntegerm@plt
 200      E7800000 
 201              	.LVL24:
  38:src/workers.cpp ****     printString("\n");
 202              		.loc 1 38 5 is_stmt 1
 203              		.loc 1 38 16 is_stmt 0
 204 0144 17050000 		lla	a0,.LC1
 204      13050500 
 205 014c 97000000 		call	_Z11printStringPKc@plt
 205      E7800000 
 206              	.LVL25:
 207 0154 6F008003 		j	.L11
 208              	.L14:
  39:src/workers.cpp **** 
  40:src/workers.cpp ****     for(; i<6; i++){
  41:src/workers.cpp ****         printString("A: i=");
 209              		.loc 1 41 9 is_stmt 1 discriminator 1
 210              		.loc 1 41 20 is_stmt 0 discriminator 1
 211 0158 17050000 		lla	a0,.LC0
GAS LISTING /tmp/ccNGz3Me.s 			page 6


 211      13050500 
 212 0160 97000000 		call	_Z11printStringPKc@plt
 212      E7800000 
 213              	.LVL26:
  42:src/workers.cpp ****         printInteger(i);
 214              		.loc 1 42 9 is_stmt 1 discriminator 1
 215              		.loc 1 42 21 is_stmt 0 discriminator 1
 216 0168 13850400 		mv	a0,s1
 217 016c 97000000 		call	_Z12printIntegerm@plt
 217      E7800000 
 218              	.LVL27:
  43:src/workers.cpp ****         printString("\n");
 219              		.loc 1 43 9 is_stmt 1 discriminator 1
 220              		.loc 1 43 20 is_stmt 0 discriminator 1
 221 0174 17050000 		lla	a0,.LC1
 221      13050500 
 222 017c 97000000 		call	_Z11printStringPKc@plt
 222      E7800000 
 223              	.LVL28:
  40:src/workers.cpp ****         printString("A: i=");
 224              		.loc 1 40 5 is_stmt 1 discriminator 1
 225 0184 9B841400 		addiw	s1,s1,1
 226              	.LVL29:
 227 0188 93F4F40F 		andi	s1,s1,0xff
 228              	.LVL30:
 229              	.L11:
  40:src/workers.cpp ****         printString("A: i=");
 230              		.loc 1 40 5 discriminator 2
  40:src/workers.cpp ****         printString("A: i=");
 231              		.loc 1 40 12 discriminator 2
 232 018c 93075000 		li	a5,5
 233 0190 E3F497FC 		bleu	s1,a5,.L14
  44:src/workers.cpp ****     }
  45:src/workers.cpp **** 
  46:src/workers.cpp ****     TCB::running->setFinished(true);
 234              		.loc 1 46 5
 235              		.loc 1 46 30 is_stmt 0
 236 0194 93051000 		li	a1,1
 237 0198 97070000 		la	a5,_ZN3CCB7runningE
 237      83B70700 
 238 01a0 03B50700 		ld	a0,0(a5)
 239 01a4 97000000 		call	_ZN3CCB11setFinishedEb@plt
 239      E7800000 
 240              	.LVL31:
  47:src/workers.cpp ****     TCB::yield();
 241              		.loc 1 47 5 is_stmt 1
 242              		.loc 1 47 15 is_stmt 0
 243 01ac 97000000 		call	_ZN3CCB5yieldEv@plt
 243      E7800000 
 244              	.LVL32:
  48:src/workers.cpp **** }
 245              		.loc 1 48 1
 246 01b4 83308101 		ld	ra,24(sp)
 247              		.cfi_restore 1
 248 01b8 03340101 		ld	s0,16(sp)
 249              		.cfi_restore 8
 250              		.cfi_def_cfa 2, 32
GAS LISTING /tmp/ccNGz3Me.s 			page 7


 251 01bc 83348100 		ld	s1,8(sp)
 252              		.cfi_restore 9
 253              	.LVL33:
 254 01c0 03390100 		ld	s2,0(sp)
 255              		.cfi_restore 18
 256              	.LVL34:
 257 01c4 13010102 		addi	sp,sp,32
 258              		.cfi_def_cfa_offset 0
 259 01c8 67800000 		jr	ra
 260              		.cfi_endproc
 261              	.LFE15:
 263              		.section	.rodata.str1.8
 264 0036 0000     		.align	3
 265              	.LC5:
 266 0038 423A2069 		.string	"B: i="
 266      3D00
 267 003e 0000     		.align	3
 268              	.LC6:
 269 0040 423A2079 		.string	"B: yield\n"
 269      69656C64 
 269      0A00
 270 004a 00000000 		.align	3
 270      0000
 271              	.LC7:
 272 0050 413A2066 		.string	"A: fibonaci="
 272      69626F6E 
 272      6163693D 
 272      00
 273              		.text
 274              		.align	2
 275              		.globl	_Z11workerBodyBv
 277              	_Z11workerBodyBv:
 278              	.LFB16:
  49:src/workers.cpp **** 
  50:src/workers.cpp **** void workerBodyB(){
 279              		.loc 1 50 19 is_stmt 1
 280              		.cfi_startproc
 281 01cc 130101FE 		addi	sp,sp,-32
 282              		.cfi_def_cfa_offset 32
 283 01d0 233C1100 		sd	ra,24(sp)
 284 01d4 23388100 		sd	s0,16(sp)
 285 01d8 23349100 		sd	s1,8(sp)
 286 01dc 23302101 		sd	s2,0(sp)
 287              		.cfi_offset 1, -8
 288              		.cfi_offset 8, -16
 289              		.cfi_offset 9, -24
 290              		.cfi_offset 18, -32
 291 01e0 13040102 		addi	s0,sp,32
 292              		.cfi_def_cfa 8, 0
  51:src/workers.cpp ****     uint8 i=10;
 293              		.loc 1 51 5
 294              	.LVL35:
 295              		.loc 1 51 11 is_stmt 0
 296 01e4 9304A000 		li	s1,10
 297 01e8 6F008003 		j	.L17
 298              	.LVL36:
 299              	.L21:
GAS LISTING /tmp/ccNGz3Me.s 			page 8


  52:src/workers.cpp ****     for(; i<13; i++){
  53:src/workers.cpp ****         printString("B: i=");
 300              		.loc 1 53 9 is_stmt 1 discriminator 1
 301              		.loc 1 53 20 is_stmt 0 discriminator 1
 302 01ec 17050000 		lla	a0,.LC5
 302      13050500 
 303 01f4 97000000 		call	_Z11printStringPKc@plt
 303      E7800000 
 304              	.LVL37:
  54:src/workers.cpp ****         printInteger(i);
 305              		.loc 1 54 9 is_stmt 1 discriminator 1
 306              		.loc 1 54 21 is_stmt 0 discriminator 1
 307 01fc 13850400 		mv	a0,s1
 308 0200 97000000 		call	_Z12printIntegerm@plt
 308      E7800000 
 309              	.LVL38:
  55:src/workers.cpp ****         printString("\n");
 310              		.loc 1 55 9 is_stmt 1 discriminator 1
 311              		.loc 1 55 20 is_stmt 0 discriminator 1
 312 0208 17050000 		lla	a0,.LC1
 312      13050500 
 313 0210 97000000 		call	_Z11printStringPKc@plt
 313      E7800000 
 314              	.LVL39:
  52:src/workers.cpp ****     for(; i<13; i++){
 315              		.loc 1 52 5 is_stmt 1 discriminator 1
 316 0218 9B841400 		addiw	s1,s1,1
 317              	.LVL40:
 318 021c 93F4F40F 		andi	s1,s1,0xff
 319              	.LVL41:
 320              	.L17:
  52:src/workers.cpp ****     for(; i<13; i++){
 321              		.loc 1 52 5 discriminator 2
  52:src/workers.cpp ****     for(; i<13; i++){
 322              		.loc 1 52 12 discriminator 2
 323 0220 9307C000 		li	a5,12
 324 0224 E3F497FC 		bleu	s1,a5,.L21
  56:src/workers.cpp ****     }
  57:src/workers.cpp **** 
  58:src/workers.cpp ****     printString("B: yield\n");
 325              		.loc 1 58 5
 326              		.loc 1 58 16 is_stmt 0
 327 0228 17050000 		lla	a0,.LC6
 327      13050500 
 328 0230 97000000 		call	_Z11printStringPKc@plt
 328      E7800000 
 329              	.LVL42:
  59:src/workers.cpp ****     __asm__ ("li t1, 5");
 330              		.loc 1 59 5 is_stmt 1
 331              		.loc 1 59 25 is_stmt 0
 332              	#APP
 333              	# 59 "src/workers.cpp" 1
  60              	    TCB::yield();
 334              		li t1, 5
 335              	# 0 "" 2
 336              		.loc 1 60 5 is_stmt 1
 337              		.loc 1 60 15 is_stmt 0
GAS LISTING /tmp/ccNGz3Me.s 			page 9


 338              	#NO_APP
 339 023c 97000000 		call	_ZN3CCB5yieldEv@plt
 339      E7800000 
 340              	.LVL43:
  61:src/workers.cpp **** 
  62:src/workers.cpp ****     uint64 result=fibonacci(23);
 341              		.loc 1 62 5 is_stmt 1
 342              		.loc 1 62 28 is_stmt 0
 343 0244 13057001 		li	a0,23
 344 0248 97000000 		call	_ZL9fibonaccim
 344      E7800000 
 345              	.LVL44:
 346 0250 13090500 		mv	s2,a0
 347              	.LVL45:
  63:src/workers.cpp ****     printString("A: fibonaci=");
 348              		.loc 1 63 5 is_stmt 1
 349              		.loc 1 63 16 is_stmt 0
 350 0254 17050000 		lla	a0,.LC7
 350      13050500 
 351              	.LVL46:
 352 025c 97000000 		call	_Z11printStringPKc@plt
 352      E7800000 
 353              	.LVL47:
  64:src/workers.cpp ****     printInteger(result);
 354              		.loc 1 64 5 is_stmt 1
 355              		.loc 1 64 17 is_stmt 0
 356 0264 13050900 		mv	a0,s2
 357 0268 97000000 		call	_Z12printIntegerm@plt
 357      E7800000 
 358              	.LVL48:
  65:src/workers.cpp ****     printString("\n");
 359              		.loc 1 65 5 is_stmt 1
 360              		.loc 1 65 16 is_stmt 0
 361 0270 17050000 		lla	a0,.LC1
 361      13050500 
 362 0278 97000000 		call	_Z11printStringPKc@plt
 362      E7800000 
 363              	.LVL49:
 364 0280 6F008003 		j	.L19
 365              	.L22:
  66:src/workers.cpp **** 
  67:src/workers.cpp ****     for(; i<16; i++){
  68:src/workers.cpp ****         printString("B: i=");
 366              		.loc 1 68 9 is_stmt 1 discriminator 1
 367              		.loc 1 68 20 is_stmt 0 discriminator 1
 368 0284 17050000 		lla	a0,.LC5
 368      13050500 
 369 028c 97000000 		call	_Z11printStringPKc@plt
 369      E7800000 
 370              	.LVL50:
  69:src/workers.cpp ****         printInteger(i);
 371              		.loc 1 69 9 is_stmt 1 discriminator 1
 372              		.loc 1 69 21 is_stmt 0 discriminator 1
 373 0294 13850400 		mv	a0,s1
 374 0298 97000000 		call	_Z12printIntegerm@plt
 374      E7800000 
 375              	.LVL51:
GAS LISTING /tmp/ccNGz3Me.s 			page 10


  70:src/workers.cpp ****         printString("\n");
 376              		.loc 1 70 9 is_stmt 1 discriminator 1
 377              		.loc 1 70 20 is_stmt 0 discriminator 1
 378 02a0 17050000 		lla	a0,.LC1
 378      13050500 
 379 02a8 97000000 		call	_Z11printStringPKc@plt
 379      E7800000 
 380              	.LVL52:
  67:src/workers.cpp ****         printString("B: i=");
 381              		.loc 1 67 5 is_stmt 1 discriminator 1
 382 02b0 9B841400 		addiw	s1,s1,1
 383              	.LVL53:
 384 02b4 93F4F40F 		andi	s1,s1,0xff
 385              	.LVL54:
 386              	.L19:
  67:src/workers.cpp ****         printString("B: i=");
 387              		.loc 1 67 5 discriminator 2
  67:src/workers.cpp ****         printString("B: i=");
 388              		.loc 1 67 12 discriminator 2
 389 02b8 9307F000 		li	a5,15
 390 02bc E3F497FC 		bleu	s1,a5,.L22
  71:src/workers.cpp ****     }
  72:src/workers.cpp **** 
  73:src/workers.cpp ****     TCB::running->setFinished(true);
 391              		.loc 1 73 5
 392              		.loc 1 73 30 is_stmt 0
 393 02c0 93051000 		li	a1,1
 394 02c4 97070000 		la	a5,_ZN3CCB7runningE
 394      83B70700 
 395 02cc 03B50700 		ld	a0,0(a5)
 396 02d0 97000000 		call	_ZN3CCB11setFinishedEb@plt
 396      E7800000 
 397              	.LVL55:
  74:src/workers.cpp ****     TCB::yield();
 398              		.loc 1 74 5 is_stmt 1
 399              		.loc 1 74 15 is_stmt 0
 400 02d8 97000000 		call	_ZN3CCB5yieldEv@plt
 400      E7800000 
 401              	.LVL56:
  75:src/workers.cpp **** }...
 402              		.loc 1 75 1
 403 02e0 83308101 		ld	ra,24(sp)
 404              		.cfi_restore 1
 405 02e4 03340101 		ld	s0,16(sp)
 406              		.cfi_restore 8
 407              		.cfi_def_cfa 2, 32
 408 02e8 83348100 		ld	s1,8(sp)
 409              		.cfi_restore 9
 410              	.LVL57:
 411 02ec 03390100 		ld	s2,0(sp)
 412              		.cfi_restore 18
 413              	.LVL58:
 414 02f0 13010102 		addi	sp,sp,32
 415              		.cfi_def_cfa_offset 0
 416 02f4 67800000 		jr	ra
 417              		.cfi_endproc
 418              	.LFE16:
GAS LISTING /tmp/ccNGz3Me.s 			page 11


 420              	.Letext0:
 421              		.file 2 "src/../h/../lib/hw.h"
 422              		.file 3 "src/../h/ccb.hpp"
 423              		.file 4 "src/../h/Print.hpp"
GAS LISTING /tmp/ccNGz3Me.s 			page 12


DEFINED SYMBOLS
                            *ABS*:0000000000000000 workers.cpp
     /tmp/ccNGz3Me.s:8      .text:0000000000000000 _ZL9fibonaccim
     /tmp/ccNGz3Me.s:12     .text:0000000000000000 .L0 
     /tmp/ccNGz3Me.s:14     .text:0000000000000000 .L0 
     /tmp/ccNGz3Me.s:15     .text:0000000000000004 .L0 
     /tmp/ccNGz3Me.s:20     .text:0000000000000014 .L0 
     /tmp/ccNGz3Me.s:21     .text:0000000000000014 .L0 
     /tmp/ccNGz3Me.s:22     .text:0000000000000014 .L0 
     /tmp/ccNGz3Me.s:23     .text:0000000000000014 .L0 
     /tmp/ccNGz3Me.s:25     .text:0000000000000018 .L0 
     /tmp/ccNGz3Me.s:28     .text:000000000000001c .L0 
     /tmp/ccNGz3Me.s:31     .text:0000000000000024 .L0 
     /tmp/ccNGz3Me.s:32     .text:0000000000000024 .L0 
     /tmp/ccNGz3Me.s:34     .text:0000000000000028 .L0 
     /tmp/ccNGz3Me.s:38     .text:000000000000002c .L0 
     /tmp/ccNGz3Me.s:39     .text:000000000000002c .L0 
     /tmp/ccNGz3Me.s:44     .text:000000000000003c .L0 
     /tmp/ccNGz3Me.s:48     .text:0000000000000048 .L0 
     /tmp/ccNGz3Me.s:51     .text:000000000000004c .L0 
     /tmp/ccNGz3Me.s:52     .text:0000000000000050 .L0 
     /tmp/ccNGz3Me.s:53     .text:0000000000000050 .L0 
     /tmp/ccNGz3Me.s:55     .text:0000000000000054 .L0 
     /tmp/ccNGz3Me.s:56     .text:0000000000000054 .L0 
     /tmp/ccNGz3Me.s:58     .text:0000000000000058 .L0 
     /tmp/ccNGz3Me.s:61     .text:000000000000005c .L0 
     /tmp/ccNGz3Me.s:63     .text:0000000000000060 .L0 
     /tmp/ccNGz3Me.s:67     .text:0000000000000064 .L0 
     /tmp/ccNGz3Me.s:69     .text:0000000000000064 .L0 
     /tmp/ccNGz3Me.s:70     .text:0000000000000064 .L0 
     /tmp/ccNGz3Me.s:73     .text:0000000000000070 .L0 
     /tmp/ccNGz3Me.s:96     .text:0000000000000070 _Z11workerBodyAv
     /tmp/ccNGz3Me.s:99     .text:0000000000000070 .L0 
     /tmp/ccNGz3Me.s:100    .text:0000000000000070 .L0 
     /tmp/ccNGz3Me.s:101    .text:0000000000000074 .L0 
     /tmp/ccNGz3Me.s:106    .text:0000000000000084 .L0 
     /tmp/ccNGz3Me.s:107    .text:0000000000000084 .L0 
     /tmp/ccNGz3Me.s:108    .text:0000000000000084 .L0 
     /tmp/ccNGz3Me.s:109    .text:0000000000000084 .L0 
     /tmp/ccNGz3Me.s:111    .text:0000000000000088 .L0 
     /tmp/ccNGz3Me.s:114    .text:0000000000000088 .L0 
     /tmp/ccNGz3Me.s:115    .text:0000000000000088 .L0 
     /tmp/ccNGz3Me.s:120    .text:0000000000000090 .L0 
     /tmp/ccNGz3Me.s:121    .text:0000000000000090 .L0 
     /tmp/ccNGz3Me.s:125    .text:00000000000000a0 .L0 
     /tmp/ccNGz3Me.s:126    .text:00000000000000a0 .L0 
     /tmp/ccNGz3Me.s:130    .text:00000000000000ac .L0 
     /tmp/ccNGz3Me.s:131    .text:00000000000000ac .L0 
     /tmp/ccNGz3Me.s:135    .text:00000000000000bc .L0 
     /tmp/ccNGz3Me.s:141    .text:00000000000000c4 .L0 
     /tmp/ccNGz3Me.s:142    .text:00000000000000c4 .L0 
     /tmp/ccNGz3Me.s:145    .text:00000000000000cc .L0 
     /tmp/ccNGz3Me.s:146    .text:00000000000000cc .L0 
     /tmp/ccNGz3Me.s:150    .text:00000000000000dc .L0 
     src/workers.cpp:25     .text:00000000000000dc .L0 
     /tmp/ccNGz3Me.s:156    .text:00000000000000e0 .L0 
     /tmp/ccNGz3Me.s:158    .text:00000000000000e0 .L0 
GAS LISTING /tmp/ccNGz3Me.s 			page 13


     /tmp/ccNGz3Me.s:161    .text:00000000000000e8 .L0 
     /tmp/ccNGz3Me.s:162    .text:00000000000000e8 .L0 
     src/workers.cpp:29     .text:00000000000000e8 .L0 
     /tmp/ccNGz3Me.s:169    .text:00000000000000ec .L0 
     /tmp/ccNGz3Me.s:171    .text:00000000000000ec .L0 
     /tmp/ccNGz3Me.s:175    .text:00000000000000fc .L0 
     /tmp/ccNGz3Me.s:176    .text:00000000000000fc .L0 
     /tmp/ccNGz3Me.s:180    .text:0000000000000108 .L0 
     /tmp/ccNGz3Me.s:181    .text:0000000000000108 .L0 
     /tmp/ccNGz3Me.s:185    .text:0000000000000118 .L0 
     /tmp/ccNGz3Me.s:186    .text:0000000000000118 .L0 
     /tmp/ccNGz3Me.s:192    .text:0000000000000128 .L0 
     /tmp/ccNGz3Me.s:193    .text:0000000000000128 .L0 
     /tmp/ccNGz3Me.s:198    .text:0000000000000138 .L0 
     /tmp/ccNGz3Me.s:199    .text:0000000000000138 .L0 
     /tmp/ccNGz3Me.s:203    .text:0000000000000144 .L0 
     /tmp/ccNGz3Me.s:204    .text:0000000000000144 .L0 
     /tmp/ccNGz3Me.s:210    .text:0000000000000158 .L0 
     /tmp/ccNGz3Me.s:211    .text:0000000000000158 .L0 
     /tmp/ccNGz3Me.s:215    .text:0000000000000168 .L0 
     /tmp/ccNGz3Me.s:216    .text:0000000000000168 .L0 
     /tmp/ccNGz3Me.s:220    .text:0000000000000174 .L0 
     /tmp/ccNGz3Me.s:221    .text:0000000000000174 .L0 
     /tmp/ccNGz3Me.s:225    .text:0000000000000184 .L0 
     /tmp/ccNGz3Me.s:231    .text:000000000000018c .L0 
     /tmp/ccNGz3Me.s:232    .text:000000000000018c .L0 
     /tmp/ccNGz3Me.s:235    .text:0000000000000194 .L0 
     /tmp/ccNGz3Me.s:236    .text:0000000000000194 .L0 
     /tmp/ccNGz3Me.s:242    .text:00000000000001ac .L0 
     /tmp/ccNGz3Me.s:243    .text:00000000000001ac .L0 
     /tmp/ccNGz3Me.s:246    .text:00000000000001b4 .L0 
     /tmp/ccNGz3Me.s:247    .text:00000000000001b8 .L0 
     /tmp/ccNGz3Me.s:249    .text:00000000000001bc .L0 
     /tmp/ccNGz3Me.s:250    .text:00000000000001bc .L0 
     /tmp/ccNGz3Me.s:252    .text:00000000000001c0 .L0 
     /tmp/ccNGz3Me.s:255    .text:00000000000001c4 .L0 
     /tmp/ccNGz3Me.s:258    .text:00000000000001c8 .L0 
     /tmp/ccNGz3Me.s:260    .text:00000000000001cc .L0 
     /tmp/ccNGz3Me.s:277    .text:00000000000001cc _Z11workerBodyBv
     /tmp/ccNGz3Me.s:280    .text:00000000000001cc .L0 
     /tmp/ccNGz3Me.s:281    .text:00000000000001cc .L0 
     /tmp/ccNGz3Me.s:282    .text:00000000000001d0 .L0 
     /tmp/ccNGz3Me.s:287    .text:00000000000001e0 .L0 
     /tmp/ccNGz3Me.s:288    .text:00000000000001e0 .L0 
     /tmp/ccNGz3Me.s:289    .text:00000000000001e0 .L0 
     /tmp/ccNGz3Me.s:290    .text:00000000000001e0 .L0 
     /tmp/ccNGz3Me.s:292    .text:00000000000001e4 .L0 
     /tmp/ccNGz3Me.s:295    .text:00000000000001e4 .L0 
     /tmp/ccNGz3Me.s:296    .text:00000000000001e4 .L0 
     /tmp/ccNGz3Me.s:301    .text:00000000000001ec .L0 
     /tmp/ccNGz3Me.s:302    .text:00000000000001ec .L0 
     /tmp/ccNGz3Me.s:306    .text:00000000000001fc .L0 
     /tmp/ccNGz3Me.s:307    .text:00000000000001fc .L0 
     /tmp/ccNGz3Me.s:311    .text:0000000000000208 .L0 
     /tmp/ccNGz3Me.s:312    .text:0000000000000208 .L0 
     /tmp/ccNGz3Me.s:316    .text:0000000000000218 .L0 
     /tmp/ccNGz3Me.s:322    .text:0000000000000220 .L0 
GAS LISTING /tmp/ccNGz3Me.s 			page 14


     /tmp/ccNGz3Me.s:323    .text:0000000000000220 .L0 
     /tmp/ccNGz3Me.s:326    .text:0000000000000228 .L0 
     /tmp/ccNGz3Me.s:327    .text:0000000000000228 .L0 
     /tmp/ccNGz3Me.s:331    .text:0000000000000238 .L0 
     src/workers.cpp:59     .text:0000000000000238 .L0 
     /tmp/ccNGz3Me.s:337    .text:000000000000023c .L0 
     /tmp/ccNGz3Me.s:339    .text:000000000000023c .L0 
     /tmp/ccNGz3Me.s:342    .text:0000000000000244 .L0 
     /tmp/ccNGz3Me.s:343    .text:0000000000000244 .L0 
     /tmp/ccNGz3Me.s:349    .text:0000000000000254 .L0 
     /tmp/ccNGz3Me.s:350    .text:0000000000000254 .L0 
     /tmp/ccNGz3Me.s:355    .text:0000000000000264 .L0 
     /tmp/ccNGz3Me.s:356    .text:0000000000000264 .L0 
     /tmp/ccNGz3Me.s:360    .text:0000000000000270 .L0 
     /tmp/ccNGz3Me.s:361    .text:0000000000000270 .L0 
     /tmp/ccNGz3Me.s:367    .text:0000000000000284 .L0 
     /tmp/ccNGz3Me.s:368    .text:0000000000000284 .L0 
     /tmp/ccNGz3Me.s:372    .text:0000000000000294 .L0 
     /tmp/ccNGz3Me.s:373    .text:0000000000000294 .L0 
     /tmp/ccNGz3Me.s:377    .text:00000000000002a0 .L0 
     /tmp/ccNGz3Me.s:378    .text:00000000000002a0 .L0 
     /tmp/ccNGz3Me.s:382    .text:00000000000002b0 .L0 
     /tmp/ccNGz3Me.s:388    .text:00000000000002b8 .L0 
     /tmp/ccNGz3Me.s:389    .text:00000000000002b8 .L0 
     /tmp/ccNGz3Me.s:392    .text:00000000000002c0 .L0 
     /tmp/ccNGz3Me.s:393    .text:00000000000002c0 .L0 
     /tmp/ccNGz3Me.s:399    .text:00000000000002d8 .L0 
     /tmp/ccNGz3Me.s:400    .text:00000000000002d8 .L0 
     /tmp/ccNGz3Me.s:403    .text:00000000000002e0 .L0 
     /tmp/ccNGz3Me.s:404    .text:00000000000002e4 .L0 
     /tmp/ccNGz3Me.s:406    .text:00000000000002e8 .L0 
     /tmp/ccNGz3Me.s:407    .text:00000000000002e8 .L0 
     /tmp/ccNGz3Me.s:409    .text:00000000000002ec .L0 
     /tmp/ccNGz3Me.s:412    .text:00000000000002f0 .L0 
     /tmp/ccNGz3Me.s:415    .text:00000000000002f4 .L0 
     /tmp/ccNGz3Me.s:417    .text:00000000000002f8 .L0 
     /tmp/ccNGz3Me.s:424    .text:00000000000002f8 .L0 
     /tmp/ccNGz3Me.s:78     .rodata.str1.8:0000000000000000 .LC0
     /tmp/ccNGz3Me.s:121    .text:0000000000000090 .L0 
     /tmp/ccNGz3Me.s:81     .rodata.str1.8:0000000000000008 .LC1
     /tmp/ccNGz3Me.s:131    .text:00000000000000ac .L0 
     /tmp/ccNGz3Me.s:84     .rodata.str1.8:0000000000000010 .LC2
     /tmp/ccNGz3Me.s:146    .text:00000000000000cc .L0 
     /tmp/ccNGz3Me.s:87     .rodata.str1.8:0000000000000020 .LC3
     /tmp/ccNGz3Me.s:171    .text:00000000000000ec .L0 
     /tmp/ccNGz3Me.s:181    .text:0000000000000108 .L0 
     /tmp/ccNGz3Me.s:90     .rodata.str1.8:0000000000000028 .LC4
     /tmp/ccNGz3Me.s:193    .text:0000000000000128 .L0 
     /tmp/ccNGz3Me.s:204    .text:0000000000000144 .L0 
     /tmp/ccNGz3Me.s:211    .text:0000000000000158 .L0 
     /tmp/ccNGz3Me.s:221    .text:0000000000000174 .L0 
     /tmp/ccNGz3Me.s:237    .text:0000000000000198 .L0 
     /tmp/ccNGz3Me.s:265    .rodata.str1.8:0000000000000038 .LC5
     /tmp/ccNGz3Me.s:302    .text:00000000000001ec .L0 
     /tmp/ccNGz3Me.s:312    .text:0000000000000208 .L0 
     /tmp/ccNGz3Me.s:268    .rodata.str1.8:0000000000000040 .LC6
     /tmp/ccNGz3Me.s:327    .text:0000000000000228 .L0 
GAS LISTING /tmp/ccNGz3Me.s 			page 15


     /tmp/ccNGz3Me.s:271    .rodata.str1.8:0000000000000050 .LC7
     /tmp/ccNGz3Me.s:350    .text:0000000000000254 .L0 
     /tmp/ccNGz3Me.s:361    .text:0000000000000270 .L0 
     /tmp/ccNGz3Me.s:368    .text:0000000000000284 .L0 
     /tmp/ccNGz3Me.s:378    .text:00000000000002a0 .L0 
     /tmp/ccNGz3Me.s:394    .text:00000000000002c4 .L0 
     /tmp/ccNGz3Me.s:49     .text:000000000000004c .L1
     /tmp/ccNGz3Me.s:66     .text:0000000000000064 .L6
     /tmp/ccNGz3Me.s:36     .text:000000000000002c .L3
     /tmp/ccNGz3Me.s:139    .text:00000000000000c4 .L9
     /tmp/ccNGz3Me.s:118    .text:0000000000000090 .L13
     /tmp/ccNGz3Me.s:229    .text:000000000000018c .L11
     /tmp/ccNGz3Me.s:208    .text:0000000000000158 .L14
     /tmp/ccNGz3Me.s:320    .text:0000000000000220 .L17
     /tmp/ccNGz3Me.s:299    .text:00000000000001ec .L21
     /tmp/ccNGz3Me.s:386    .text:00000000000002b8 .L19
     /tmp/ccNGz3Me.s:365    .text:0000000000000284 .L22
     /tmp/ccNGz3Me.s:1163   .debug_abbrev:0000000000000000 .Ldebug_abbrev0
     /tmp/ccNGz3Me.s:1897   .debug_str:0000000000000177 .LASF40
     /tmp/ccNGz3Me.s:1843   .debug_str:0000000000000000 .LASF41
     /tmp/ccNGz3Me.s:1925   .debug_str:00000000000002e5 .LASF42
     /tmp/ccNGz3Me.s:5      .text:0000000000000000 .Ltext0
     /tmp/ccNGz3Me.s:420    .text:00000000000002f8 .Letext0
     /tmp/ccNGz3Me.s:1841   .debug_line:0000000000000000 .Ldebug_line0
     /tmp/ccNGz3Me.s:1907   .debug_str:000000000000025e .LASF0
     /tmp/ccNGz3Me.s:1887   .debug_str:000000000000012a .LASF1
     /tmp/ccNGz3Me.s:1883   .debug_str:000000000000010a .LASF2
     /tmp/ccNGz3Me.s:1931   .debug_str:000000000000031b .LASF3
     /tmp/ccNGz3Me.s:1857   .debug_str:000000000000005e .LASF4
     /tmp/ccNGz3Me.s:1885   .debug_str:0000000000000118 .LASF5
     /tmp/ccNGz3Me.s:1851   .debug_str:000000000000003d .LASF6
     /tmp/ccNGz3Me.s:1847   .debug_str:0000000000000019 .LASF7
     /tmp/ccNGz3Me.s:1873   .debug_str:00000000000000ba .LASF8
     /tmp/ccNGz3Me.s:1919   .debug_str:00000000000002b7 .LASF9
     /tmp/ccNGz3Me.s:1855   .debug_str:0000000000000050 .LASF10
     /tmp/ccNGz3Me.s:1949   .debug_str:00000000000003ad .LASF11
     /tmp/ccNGz3Me.s:1879   .debug_str:00000000000000e8 .LASF12
     /tmp/ccNGz3Me.s:1937   .debug_str:000000000000034e .LASF13
     /tmp/ccNGz3Me.s:1915   .debug_str:000000000000029a .LASF14
     /tmp/ccNGz3Me.s:1891   .debug_str:0000000000000146 .LASF15
     /tmp/ccNGz3Me.s:1871   .debug_str:00000000000000a4 .LASF16
     /tmp/ccNGz3Me.s:1921   .debug_str:00000000000002c7 .LASF17
     /tmp/ccNGz3Me.s:1941   .debug_str:000000000000037d .LASF43
     /tmp/ccNGz3Me.s:1869   .debug_str:000000000000009f .LASF18
     /tmp/ccNGz3Me.s:1863   .debug_str:0000000000000070 .LASF20
     /tmp/ccNGz3Me.s:1875   .debug_str:00000000000000cd .LASF19
     /tmp/ccNGz3Me.s:1939   .debug_str:000000000000035e .LASF21
     /tmp/ccNGz3Me.s:1859   .debug_str:0000000000000065 .LASF44
     /tmp/ccNGz3Me.s:1877   .debug_str:00000000000000dd .LASF29
     /tmp/ccNGz3Me.s:1911   .debug_str:0000000000000273 .LASF31
     /tmp/ccNGz3Me.s:1853   .debug_str:0000000000000044 .LASF22
     /tmp/ccNGz3Me.s:1895   .debug_str:0000000000000160 .LASF23
     /tmp/ccNGz3Me.s:1905   .debug_str:0000000000000258 .LASF45
     /tmp/ccNGz3Me.s:1913   .debug_str:000000000000028a .LASF46
     /tmp/ccNGz3Me.s:1909   .debug_str:000000000000026b .LASF47
     /tmp/ccNGz3Me.s:1865   .debug_str:000000000000007c .LASF48
     /tmp/ccNGz3Me.s:1903   .debug_str:0000000000000253 .LASF24
GAS LISTING /tmp/ccNGz3Me.s 			page 16


     /tmp/ccNGz3Me.s:1861   .debug_str:000000000000006a .LASF25
     /tmp/ccNGz3Me.s:1923   .debug_str:00000000000002dd .LASF26
     /tmp/ccNGz3Me.s:1889   .debug_str:000000000000013d .LASF27
     /tmp/ccNGz3Me.s:1893   .debug_str:0000000000000152 .LASF49
     /tmp/ccNGz3Me.s:1933   .debug_str:0000000000000321 .LASF50
     /tmp/ccNGz3Me.s:1845   .debug_str:0000000000000010 .LASF51
     /tmp/ccNGz3Me.s:1867   .debug_str:000000000000008c .LASF52
     /tmp/ccNGz3Me.s:1935   .debug_str:0000000000000349 .LASF28
     /tmp/ccNGz3Me.s:1929   .debug_str:000000000000030f .LASF30
     /tmp/ccNGz3Me.s:1849   .debug_str:000000000000002c .LASF32
     /tmp/ccNGz3Me.s:278    .text:00000000000001cc .LFB16
     /tmp/ccNGz3Me.s:418    .text:00000000000002f8 .LFE16
     /tmp/ccNGz3Me.s:1736   .debug_loc:0000000000000000 .LLST4
     /tmp/ccNGz3Me.s:1901   .debug_str:000000000000024c .LASF33
     /tmp/ccNGz3Me.s:1756   .debug_loc:000000000000005d .LLST5
     /tmp/ccNGz3Me.s:304    .text:00000000000001fc .LVL37
     /tmp/ccNGz3Me.s:309    .text:0000000000000208 .LVL38
     /tmp/ccNGz3Me.s:314    .text:0000000000000218 .LVL39
     /tmp/ccNGz3Me.s:329    .text:0000000000000238 .LVL42
     /tmp/ccNGz3Me.s:340    .text:0000000000000244 .LVL43
     /tmp/ccNGz3Me.s:345    .text:0000000000000250 .LVL44
     /tmp/ccNGz3Me.s:353    .text:0000000000000264 .LVL47
     /tmp/ccNGz3Me.s:358    .text:0000000000000270 .LVL48
     /tmp/ccNGz3Me.s:363    .text:0000000000000280 .LVL49
     /tmp/ccNGz3Me.s:370    .text:0000000000000294 .LVL50
     /tmp/ccNGz3Me.s:375    .text:00000000000002a0 .LVL51
     /tmp/ccNGz3Me.s:380    .text:00000000000002b0 .LVL52
     /tmp/ccNGz3Me.s:397    .text:00000000000002d8 .LVL55
     /tmp/ccNGz3Me.s:401    .text:00000000000002e0 .LVL56
     /tmp/ccNGz3Me.s:1927   .debug_str:0000000000000303 .LASF34
     /tmp/ccNGz3Me.s:1899   .debug_str:000000000000023b .LASF35
     /tmp/ccNGz3Me.s:97     .text:0000000000000070 .LFB15
     /tmp/ccNGz3Me.s:261    .text:00000000000001cc .LFE15
     /tmp/ccNGz3Me.s:1767   .debug_loc:0000000000000093 .LLST1
     /tmp/ccNGz3Me.s:1787   .debug_loc:00000000000000f0 .LLST2
     /tmp/ccNGz3Me.s:1795   .debug_loc:0000000000000114 .LLST3
     /tmp/ccNGz3Me.s:123    .text:00000000000000a0 .LVL9
     /tmp/ccNGz3Me.s:128    .text:00000000000000ac .LVL10
     /tmp/ccNGz3Me.s:133    .text:00000000000000bc .LVL11
     /tmp/ccNGz3Me.s:148    .text:00000000000000dc .LVL14
     /tmp/ccNGz3Me.s:159    .text:00000000000000e8 .LVL15
     /tmp/ccNGz3Me.s:173    .text:00000000000000fc .LVL17
     /tmp/ccNGz3Me.s:178    .text:0000000000000108 .LVL18
     /tmp/ccNGz3Me.s:183    .text:0000000000000118 .LVL19
     /tmp/ccNGz3Me.s:188    .text:0000000000000124 .LVL20
     /tmp/ccNGz3Me.s:196    .text:0000000000000138 .LVL23
     /tmp/ccNGz3Me.s:201    .text:0000000000000144 .LVL24
     /tmp/ccNGz3Me.s:206    .text:0000000000000154 .LVL25
     /tmp/ccNGz3Me.s:213    .text:0000000000000168 .LVL26
     /tmp/ccNGz3Me.s:218    .text:0000000000000174 .LVL27
     /tmp/ccNGz3Me.s:223    .text:0000000000000184 .LVL28
     /tmp/ccNGz3Me.s:240    .text:00000000000001ac .LVL31
     /tmp/ccNGz3Me.s:244    .text:00000000000001b4 .LVL32
     /tmp/ccNGz3Me.s:1945   .debug_str:0000000000000397 .LASF53
     /tmp/ccNGz3Me.s:9      .text:0000000000000000 .LFB14
     /tmp/ccNGz3Me.s:74     .text:0000000000000070 .LFE14
     /tmp/ccNGz3Me.s:1806   .debug_loc:000000000000014a .LLST0
GAS LISTING /tmp/ccNGz3Me.s 			page 17


     /tmp/ccNGz3Me.s:41     .text:0000000000000038 .LVL2
     /tmp/ccNGz3Me.s:46     .text:0000000000000048 .LVL3
     /tmp/ccNGz3Me.s:71     .text:000000000000006c .LVL6
     /tmp/ccNGz3Me.s:1881   .debug_str:00000000000000f7 .LASF36
     /tmp/ccNGz3Me.s:1947   .debug_str:00000000000003a1 .LASF38
     /tmp/ccNGz3Me.s:1943   .debug_str:0000000000000385 .LASF37
     /tmp/ccNGz3Me.s:1917   .debug_str:00000000000002aa .LASF39
     /tmp/ccNGz3Me.s:294    .text:00000000000001e4 .LVL35
     /tmp/ccNGz3Me.s:298    .text:00000000000001ec .LVL36
     /tmp/ccNGz3Me.s:317    .text:000000000000021c .LVL40
     /tmp/ccNGz3Me.s:319    .text:0000000000000220 .LVL41
     /tmp/ccNGz3Me.s:383    .text:00000000000002b4 .LVL53
     /tmp/ccNGz3Me.s:385    .text:00000000000002b8 .LVL54
     /tmp/ccNGz3Me.s:410    .text:00000000000002ec .LVL57
     /tmp/ccNGz3Me.s:347    .text:0000000000000254 .LVL45
     /tmp/ccNGz3Me.s:351    .text:000000000000025c .LVL46
     /tmp/ccNGz3Me.s:413    .text:00000000000002f0 .LVL58
     /tmp/ccNGz3Me.s:113    .text:0000000000000088 .LVL7
     /tmp/ccNGz3Me.s:117    .text:0000000000000090 .LVL8
     /tmp/ccNGz3Me.s:136    .text:00000000000000c0 .LVL12
     /tmp/ccNGz3Me.s:138    .text:00000000000000c4 .LVL13
     /tmp/ccNGz3Me.s:226    .text:0000000000000188 .LVL29
     /tmp/ccNGz3Me.s:228    .text:000000000000018c .LVL30
     /tmp/ccNGz3Me.s:253    .text:00000000000001c0 .LVL33
     /tmp/ccNGz3Me.s:167    .text:00000000000000ec .LVL16
     /tmp/ccNGz3Me.s:190    .text:0000000000000128 .LVL21
     /tmp/ccNGz3Me.s:194    .text:0000000000000130 .LVL22
     /tmp/ccNGz3Me.s:256    .text:00000000000001c4 .LVL34
     /tmp/ccNGz3Me.s:13     .text:0000000000000000 .LVL0
     /tmp/ccNGz3Me.s:35     .text:000000000000002c .LVL1
     /tmp/ccNGz3Me.s:59     .text:0000000000000058 .LVL4
     /tmp/ccNGz3Me.s:65     .text:0000000000000064 .LVL5
     /tmp/ccNGz3Me.s:425    .debug_info:0000000000000000 .Ldebug_info0

UNDEFINED SYMBOLS
_ZN3CCB5yieldEv
_Z11printStringPKc
_Z12printIntegerm
_ZN3CCB7runningE
_ZN3CCB11setFinishedEb
